ARM GAS  C:\Users\username\AppData\Local\Temp\ccjfgADc.s 			page 1


   1              		.cpu cortex-m0
   2              		.fpu softvfp
   3              		.eabi_attribute 20, 1
   4              		.eabi_attribute 21, 1
   5              		.eabi_attribute 23, 3
   6              		.eabi_attribute 24, 1
   7              		.eabi_attribute 25, 1
   8              		.eabi_attribute 26, 1
   9              		.eabi_attribute 30, 1
  10              		.eabi_attribute 34, 0
  11              		.eabi_attribute 18, 4
  12              		.code	16
  13              		.file	"BLEclient.c"
  14              		.text
  15              	.Ltext0:
  16              		.cfi_sections	.debug_frame
  17              		.section	.text.HandleScanDevices,"ax",%progbits
  18              		.align	2
  19              		.global	HandleScanDevices
  20              		.code	16
  21              		.thumb_func
  22              		.type	HandleScanDevices, %function
  23              	HandleScanDevices:
  24              	.LFB36:
  25              		.file 1 ".\\BLEclient.c"
   1:.\BLEclient.c **** /******************************************************************************
   2:.\BLEclient.c **** * Project Name		: PSoC_4_BLE_Central_IAS
   3:.\BLEclient.c **** * File Name			: BLEclient.c
   4:.\BLEclient.c **** * Version 			: 1.0
   5:.\BLEclient.c **** * Device Used		: CY8C4247LQI-BL483
   6:.\BLEclient.c **** * Software Used		: PSoC Creator 3.1
   7:.\BLEclient.c **** * Compiler    		: ARM GCC 4.8.4, ARM RVDS Generic, ARM MDK Generic
   8:.\BLEclient.c **** * Related Hardware	: CY8CKIT-042-BLE Bluetooth Low Energy Pioneer Kit 
   9:.\BLEclient.c **** * Owner				: ROIT
  10:.\BLEclient.c **** *
  11:.\BLEclient.c **** ********************************************************************************
  12:.\BLEclient.c **** * Copyright (2014-15), Cypress Semiconductor Corporation. All Rights Reserved.
  13:.\BLEclient.c **** ********************************************************************************
  14:.\BLEclient.c **** * This software is owned by Cypress Semiconductor Corporation (Cypress)
  15:.\BLEclient.c **** * and is protected by and subject to worldwide patent protection (United
  16:.\BLEclient.c **** * States and foreign), United States copyright laws and international treaty
  17:.\BLEclient.c **** * provisions. Cypress hereby grants to licensee a personal, non-exclusive,
  18:.\BLEclient.c **** * non-transferable license to copy, use, modify, create derivative works of,
  19:.\BLEclient.c **** * and compile the Cypress Source Code and derivative works for the sole
  20:.\BLEclient.c **** * purpose of creating custom software in support of licensee product to be
  21:.\BLEclient.c **** * used only in conjunction with a Cypress integrated circuit as specified in
  22:.\BLEclient.c **** * the applicable agreement. Any reproduction, modification, translation,
  23:.\BLEclient.c **** * compilation, or representation of this software except as specified above 
  24:.\BLEclient.c **** * is prohibited without the express written permission of Cypress.
  25:.\BLEclient.c **** *
  26:.\BLEclient.c **** * Disclaimer: CYPRESS MAKES NO WARRANTY OF ANY KIND, EXPRESS OR IMPLIED, WITH 
  27:.\BLEclient.c **** * REGARD TO THIS MATERIAL, INCLUDING, BUT NOT LIMITED TO, THE IMPLIED 
  28:.\BLEclient.c **** * WARRANTIES OF MERCHANTABILITY AND FITNESS FOR A PARTICULAR PURPOSE.
  29:.\BLEclient.c **** * Cypress reserves the right to make changes without further notice to the 
  30:.\BLEclient.c **** * materials described herein. Cypress does not assume any liability arising out 
  31:.\BLEclient.c **** * of the application or use of any product or circuit described herein. Cypress 
  32:.\BLEclient.c **** * does not authorize its products for use as critical components in life-support 
ARM GAS  C:\Users\username\AppData\Local\Temp\ccjfgADc.s 			page 2


  33:.\BLEclient.c **** * systems where a malfunction or failure may reasonably be expected to result in 
  34:.\BLEclient.c **** * significant injury to the user. The inclusion of Cypress' product in a life-
  35:.\BLEclient.c **** * support systems application implies that the manufacturer assumes all risk of 
  36:.\BLEclient.c **** * such use and in doing so indemnifies Cypress against all charges. 
  37:.\BLEclient.c **** *
  38:.\BLEclient.c **** * Use of this Software may be limited by and subject to the applicable Cypress
  39:.\BLEclient.c **** * software license agreement. 
  40:.\BLEclient.c **** *******************************************************************************/
  41:.\BLEclient.c **** #include <main.h>
  42:.\BLEclient.c **** 
  43:.\BLEclient.c **** /* 'list_of_devices' is an array of type 'CYBLE_GAPC_ADV_REPORT_T' (defined in 
  44:.\BLEclient.c ****  * BLE_StackGap.h) that is used to store the reports of the peripheral devices
  45:.\BLEclient.c **** * being scanned by this Central device*/
  46:.\BLEclient.c **** CYBLE_GAPC_ADV_REPORT_T 	list_of_devices[CYBLE_MAX_ADV_DEVICES];
  47:.\BLEclient.c **** 
  48:.\BLEclient.c **** /* 'connectPeriphDevice' is a variable of type 'CYBLE_GAP_BD_ADDR_T' (defined in 
  49:.\BLEclient.c **** * BLE_StackGap.h) and is used to store address of the connected device. */
  50:.\BLEclient.c **** CYBLE_GAP_BD_ADDR_T 		connectPeriphDevice;
  51:.\BLEclient.c **** 
  52:.\BLEclient.c **** /* 'connHandle' is a variable of type 'CYBLE_CONN_HANDLE_T' (defined in 
  53:.\BLEclient.c **** * BLE_StackGatt.h) and is used to store the connection handle parameters after
  54:.\BLEclient.c **** * connecting with the peripheral device. */
  55:.\BLEclient.c **** CYBLE_CONN_HANDLE_T			connHandle;
  56:.\BLEclient.c **** 
  57:.\BLEclient.c **** //variable to hold read response  //7 sensors, pitch = 0, roll = 1
  58:.\BLEclient.c **** CYBLE_GATTC_READ_RSP_PARAM_T  readResponse[NUMBER_OF_SENSORS][NUMBER_OF_PARAMETERS];  //[sensor num
  59:.\BLEclient.c **** extern union FloatBytes sensor_data[NUMBER_OF_SENSORS][NUMBER_OF_PARAMETERS];
  60:.\BLEclient.c **** extern uint8 current_sensor; //number 0 - number of sensors-1, anything else is invalid
  61:.\BLEclient.c **** extern uint8 current_characteristic;  //pitch = 0, roll = 1, anything else = invalid
  62:.\BLEclient.c **** 
  63:.\BLEclient.c **** /* 'deviceConnected' flag tells the status of connection with BLE peripheral Device */
  64:.\BLEclient.c **** uint8 deviceConnected = FALSE;
  65:.\BLEclient.c **** 
  66:.\BLEclient.c **** /* 'ble_state' stores the state of connection which is used for updating LEDs */
  67:.\BLEclient.c **** uint8 ble_state = BLE_DISCONNECTED;
  68:.\BLEclient.c **** 
  69:.\BLEclient.c **** /* 'address_store' stores the addresses returned by Scanning results */
  70:.\BLEclient.c **** uint8 address_store[10][6];
  71:.\BLEclient.c **** 
  72:.\BLEclient.c **** /* 'peripheralAddress' stores the addresses of device presently connected to */
  73:.\BLEclient.c **** uint8 peripheralAddress[NUMBER_OF_SENSORS][6];
  74:.\BLEclient.c **** 
  75:.\BLEclient.c **** /* 'peripheralFound' flag tells whether the peripheral device with the required Address
  76:.\BLEclient.c ****  * has been found during scanning or not. */
  77:.\BLEclient.c **** uint8 peripheralFound = FALSE;
  78:.\BLEclient.c **** 
  79:.\BLEclient.c **** /* 'addedDevices' tells the number of devices that has been added to the list till now. */
  80:.\BLEclient.c **** uint8 addedDevices = FALSE;
  81:.\BLEclient.c **** 
  82:.\BLEclient.c **** /* 'iasLevel' stores the current alert level as set by Central device */
  83:.\BLEclient.c **** extern uint8 iasLevel;
  84:.\BLEclient.c **** 
  85:.\BLEclient.c **** /* 'restartScanning' flag indicates to application whether starting scan API has to be
  86:.\BLEclient.c **** * called or not */
  87:.\BLEclient.c **** uint8 restartScanning = FALSE;
  88:.\BLEclient.c **** 
  89:.\BLEclient.c **** /*******************************************************************************
ARM GAS  C:\Users\username\AppData\Local\Temp\ccjfgADc.s 			page 3


  90:.\BLEclient.c **** * Function Name: ApplicationEventHandler
  91:.\BLEclient.c **** ********************************************************************************
  92:.\BLEclient.c **** * Summary:
  93:.\BLEclient.c **** *        Call back event function to handle various events from BLE stack
  94:.\BLEclient.c **** *
  95:.\BLEclient.c **** * Parameters:
  96:.\BLEclient.c **** *  event:		event returned
  97:.\BLEclient.c **** *  eventParam:	link to value of the event parameter returned
  98:.\BLEclient.c **** *
  99:.\BLEclient.c **** * Return:
 100:.\BLEclient.c **** *  void
 101:.\BLEclient.c **** *
 102:.\BLEclient.c **** *******************************************************************************/
 103:.\BLEclient.c **** void ApplicationEventHandler(uint32 event, void *eventparam)
 104:.\BLEclient.c **** {
 105:.\BLEclient.c **** 	/* 'apiResult' is a variable of type 'CYBLE_API_RESULT_T' (defined in 
 106:.\BLEclient.c **** 	* BLE_StackTypes.h) and is used to store the return value from BLE APIs. */
 107:.\BLEclient.c **** 	CYBLE_API_RESULT_T 			apiResult;
 108:.\BLEclient.c **** 	
 109:.\BLEclient.c **** 	/* 'scan_report' is a variable of type 'CYBLE_GAPC_ADV_REPORT_T' (defined in 
 110:.\BLEclient.c **** 	* BLE_StackGap.h) and is used to store report retuned from Scan results. */
 111:.\BLEclient.c **** 	CYBLE_GAPC_ADV_REPORT_T		scan_report;
 112:.\BLEclient.c **** 	
 113:.\BLEclient.c **** 	/* Local variable for Loop */
 114:.\BLEclient.c **** 	uint16 i = FALSE;
 115:.\BLEclient.c **** 	
 116:.\BLEclient.c **** 	switch(event)
 117:.\BLEclient.c **** 	{
 118:.\BLEclient.c **** 		case CYBLE_EVT_STACK_ON:
 119:.\BLEclient.c **** 			
 120:.\BLEclient.c **** 			/* Set start scanning flag to allow calling the API in main loop */
 121:.\BLEclient.c **** 			restartScanning = TRUE;
 122:.\BLEclient.c **** 		break;
 123:.\BLEclient.c **** 			
 124:.\BLEclient.c **** 		case CYBLE_EVT_GAPC_SCAN_START_STOP:
 125:.\BLEclient.c **** 			/* Add relevant code here pertaining to Starting/Stopping of Scan*/
 126:.\BLEclient.c **** 			if(CyBle_GetState() == CYBLE_STATE_DISCONNECTED)
 127:.\BLEclient.c **** 			{
 128:.\BLEclient.c **** 				ble_state = BLE_DISCONNECTED;
 129:.\BLEclient.c **** 				
 130:.\BLEclient.c **** 				if(!peripheralFound)
 131:.\BLEclient.c **** 				{
 132:.\BLEclient.c **** 					/* Restart Scanning */
 133:.\BLEclient.c **** 					//Status_LED_Write(1);
 134:.\BLEclient.c **** 					restartScanning = TRUE;
 135:.\BLEclient.c **** 				}
 136:.\BLEclient.c **** 			}
 137:.\BLEclient.c **** 			else
 138:.\BLEclient.c **** 			{
 139:.\BLEclient.c **** 				ble_state = BLE_SCANNING;
 140:.\BLEclient.c **** 			}
 141:.\BLEclient.c **** 		break;
 142:.\BLEclient.c **** 			
 143:.\BLEclient.c **** 		case CYBLE_EVT_GAPC_SCAN_PROGRESS_RESULT:
 144:.\BLEclient.c **** 			/* This event is generated whenever there is a device found*/
 145:.\BLEclient.c **** 			if(CYBLE_STATE_CONNECTED != CyBle_GetState())	
 146:.\BLEclient.c **** 			{
ARM GAS  C:\Users\username\AppData\Local\Temp\ccjfgADc.s 			page 4


 147:.\BLEclient.c **** 				/* If we are not connected to any peripheral device, then save the new device  
 148:.\BLEclient.c **** 					information so to add it to our list */
 149:.\BLEclient.c **** 				scan_report = *(CYBLE_GAPC_ADV_REPORT_T*) eventparam;
 150:.\BLEclient.c **** 				
 151:.\BLEclient.c **** 				/* Add the new device to existing list if not done yet, and compare the address with our
 152:.\BLEclient.c **** 					required address.*/
 153:.\BLEclient.c **** 				HandleScanDevices(&scan_report);
 154:.\BLEclient.c **** 			}
 155:.\BLEclient.c **** 			/* Update the LED status for BLE scanning mode*/
 156:.\BLEclient.c **** 			ble_state = BLE_SCANNING;
 157:.\BLEclient.c **** 		break;
 158:.\BLEclient.c **** 			
 159:.\BLEclient.c ****  		case CYBLE_EVT_GATT_CONNECT_IND:
 160:.\BLEclient.c **** 
 161:.\BLEclient.c **** 			/* When the peripheral device is connected, store the connection handle.*/
 162:.\BLEclient.c ****             connHandle = *(CYBLE_CONN_HANDLE_T *)eventparam;
 163:.\BLEclient.c ****             break;
 164:.\BLEclient.c **** 			
 165:.\BLEclient.c **** 		case CYBLE_EVT_GATT_DISCONNECT_IND:
 166:.\BLEclient.c **** 			/* When the peripheral device is disconnected, reset variables*/
 167:.\BLEclient.c **** 			
 168:.\BLEclient.c **** 			break;
 169:.\BLEclient.c **** 			
 170:.\BLEclient.c **** 		case CYBLE_EVT_GAP_DEVICE_CONNECTED:
 171:.\BLEclient.c **** 			
 172:.\BLEclient.c **** 			/* The Device is connected now. Start Attributes discovery process.*/
 173:.\BLEclient.c **** 			apiResult = CyBle_GattcStartDiscovery(connHandle);
 174:.\BLEclient.c **** 			//HERE HERE HERE HERE
 175:.\BLEclient.c ****             
 176:.\BLEclient.c **** 			if(apiResult != CYBLE_ERROR_OK)
 177:.\BLEclient.c **** 			{
 178:.\BLEclient.c **** 
 179:.\BLEclient.c **** 			}
 180:.\BLEclient.c **** 			
 181:.\BLEclient.c **** 			/* Update the LED status for BLE discovery mode*/
 182:.\BLEclient.c **** 			ble_state = BLE_SERVICE_DISCOVERY;
 183:.\BLEclient.c ****         break;
 184:.\BLEclient.c **** 			
 185:.\BLEclient.c **** 		case CYBLE_EVT_GAP_DEVICE_DISCONNECTED:
 186:.\BLEclient.c **** 			/* Reset all saved peripheral Addresses */
 187:.\BLEclient.c **** 			for(i=0;i<addedDevices;i++)
 188:.\BLEclient.c **** 			{
 189:.\BLEclient.c **** 				list_of_devices[i].peerBdAddr[0] = FALSE;
 190:.\BLEclient.c **** 				list_of_devices[i].peerBdAddr[1] = FALSE;
 191:.\BLEclient.c **** 				list_of_devices[i].peerBdAddr[2] = FALSE;
 192:.\BLEclient.c **** 				list_of_devices[i].peerBdAddr[3] = FALSE;
 193:.\BLEclient.c **** 				list_of_devices[i].peerBdAddr[4] = FALSE;
 194:.\BLEclient.c **** 				list_of_devices[i].peerBdAddr[5] = FALSE;
 195:.\BLEclient.c **** 			}
 196:.\BLEclient.c **** 			
 197:.\BLEclient.c **** 			/* Reset application Flags on BLE Disconnect */
 198:.\BLEclient.c **** 			addedDevices = FALSE;
 199:.\BLEclient.c **** 			peripheralFound = FALSE;
 200:.\BLEclient.c **** 			deviceConnected = FALSE;
 201:.\BLEclient.c **** 			iasLevel = FALSE;
 202:.\BLEclient.c **** 			ble_state = BLE_DISCONNECTED;
 203:.\BLEclient.c **** 			
ARM GAS  C:\Users\username\AppData\Local\Temp\ccjfgADc.s 			page 5


 204:.\BLEclient.c **** 			/* Set the flag for rescanning after wakeup */
 205:.\BLEclient.c **** 			restartScanning = TRUE;
 206:.\BLEclient.c **** 			
 207:.\BLEclient.c **** 			/* Update LED Status for Disconnection */
 208:.\BLEclient.c **** 			//HandleLEDs(ble_state);
 209:.\BLEclient.c **** 			if(apiResult != CYBLE_ERROR_OK)
 210:.\BLEclient.c **** 			{
 211:.\BLEclient.c **** 			}
 212:.\BLEclient.c **** 			break;
 213:.\BLEclient.c **** 			
 214:.\BLEclient.c **** 	
 215:.\BLEclient.c **** 		case CYBLE_EVT_GATTC_DISCOVERY_COMPLETE:
 216:.\BLEclient.c **** 			/* This event is generated whenever the discovery procedure is complete*/
 217:.\BLEclient.c **** 			
 218:.\BLEclient.c **** 			/*Set the Device connected flag*/
 219:.\BLEclient.c **** 			deviceConnected = TRUE;
 220:.\BLEclient.c **** 			
 221:.\BLEclient.c **** 			/* Update the LED status for BLE discovery mode*/
 222:.\BLEclient.c **** 			ble_state = BLE_CONNECTED;
 223:.\BLEclient.c **** 		break;
 224:.\BLEclient.c ****             
 225:.\BLEclient.c ****         case CYBLE_EVT_GATTC_READ_RSP:
 226:.\BLEclient.c **** 			/* This event is generated when the server sends a response to a read request*/
 227:.\BLEclient.c **** 			readResponse[current_sensor][current_characteristic] = *(CYBLE_GATTC_READ_RSP_PARAM_T *) eventpa
 228:.\BLEclient.c ****             int ii=0;
 229:.\BLEclient.c ****             for(ii = 0; ii < readResponse[current_sensor][current_characteristic].value.len; ii++){
 230:.\BLEclient.c ****                 sensor_data[current_sensor][current_characteristic].bytes[ii] = *(readResponse[curr
 231:.\BLEclient.c ****             }
 232:.\BLEclient.c ****             
 233:.\BLEclient.c **** 		break;
 234:.\BLEclient.c **** 			
 235:.\BLEclient.c **** 		default:
 236:.\BLEclient.c **** 			
 237:.\BLEclient.c **** 		break;
 238:.\BLEclient.c **** 	}
 239:.\BLEclient.c **** }
 240:.\BLEclient.c **** /*******************************************************************************
 241:.\BLEclient.c **** * Function Name: HandleScanDevices
 242:.\BLEclient.c **** ********************************************************************************
 243:.\BLEclient.c **** * Summary:
 244:.\BLEclient.c **** *        This function checks for new devices that have been scanned and ads them
 245:.\BLEclient.c **** * to its internal list. Also, if one of the scanned peripherals is of CySmart
 246:.\BLEclient.c **** * USB Dongle, then it sets flag to allow connection with it.
 247:.\BLEclient.c **** *
 248:.\BLEclient.c **** * Parameters:
 249:.\BLEclient.c **** *  scanReport:		parameter of type CYBLE_GAPC_ADV_REPORT_T* returned by BLE
 250:.\BLEclient.c **** * 					event CYBLE_EVT_GAPC_SCAN_PROGRESS_RESULT.
 251:.\BLEclient.c **** *
 252:.\BLEclient.c **** * Return:
 253:.\BLEclient.c **** *  void
 254:.\BLEclient.c **** *
 255:.\BLEclient.c **** *******************************************************************************/
 256:.\BLEclient.c **** void HandleScanDevices(CYBLE_GAPC_ADV_REPORT_T* scanReport)
 257:.\BLEclient.c **** {
  26              		.loc 1 257 0
  27              		.cfi_startproc
  28              	.LVL0:
ARM GAS  C:\Users\username\AppData\Local\Temp\ccjfgADc.s 			page 6


  29 0000 70B5     		push	{r4, r5, r6, lr}
  30              		.cfi_def_cfa_offset 16
  31              		.cfi_offset 4, -16
  32              		.cfi_offset 5, -12
  33              		.cfi_offset 6, -8
  34              		.cfi_offset 14, -4
  35              	.LVL1:
 258:.\BLEclient.c **** 	uint16 i;
 259:.\BLEclient.c **** 	uint8 newDevice = TRUE;
 260:.\BLEclient.c **** 	
 261:.\BLEclient.c **** 	if((addedDevices < CYBLE_MAX_ADV_DEVICES))
  36              		.loc 1 261 0
  37 0002 424B     		ldr	r3, .L9
  38 0004 1D78     		ldrb	r5, [r3]
  39 0006 092D     		cmp	r5, #9
  40 0008 14D9     		bls	.L7
  41 000a 7EE0     		b	.L1
  42              	.LVL2:
  43              	.L5:
 262:.\BLEclient.c **** 	{
 263:.\BLEclient.c **** 		for(i = 0; i < addedDevices; i++)
 264:.\BLEclient.c **** 		{
 265:.\BLEclient.c **** 			/* Initialize the peerBdAddr element of our list.*/
 266:.\BLEclient.c **** 			list_of_devices[i].peerBdAddr = &address_store[i][0];
  44              		.loc 1 266 0
  45 000c 6300     		lsl	r3, r4, #1
  46 000e 1B19     		add	r3, r3, r4
  47 0010 5B00     		lsl	r3, r3, #1
  48 0012 3F48     		ldr	r0, .L9+4
  49 0014 1818     		add	r0, r3, r0
  50 0016 A300     		lsl	r3, r4, #2
  51 0018 1B19     		add	r3, r3, r4
  52 001a 9B00     		lsl	r3, r3, #2
  53 001c 3D4A     		ldr	r2, .L9+8
  54 001e D318     		add	r3, r2, r3
  55 0020 5860     		str	r0, [r3, #4]
 267:.\BLEclient.c **** 			
 268:.\BLEclient.c **** 			/* In this for loop, compare the new device address with the existing addresses in the list to 
 269:.\BLEclient.c **** 				determine if the address is new or not. If the address exists in the list, then the device 
 270:.\BLEclient.c **** 				is not new.*/
 271:.\BLEclient.c **** 			if(FALSE == memcmp(list_of_devices[i].peerBdAddr, scanReport->peerBdAddr, ADV_ADDR_LEN))
  56              		.loc 1 271 0
  57 0022 7168     		ldr	r1, [r6, #4]
  58 0024 0622     		mov	r2, #6
  59 0026 FFF7FEFF 		bl	memcmp
  60              	.LVL3:
  61 002a 0028     		cmp	r0, #0
  62 002c 09D0     		beq	.L8
 263:.\BLEclient.c **** 		{
  63              		.loc 1 263 0 discriminator 2
  64 002e 0134     		add	r4, r4, #1
  65              	.LVL4:
  66 0030 A4B2     		uxth	r4, r4
  67              	.LVL5:
  68 0032 01E0     		b	.L2
  69              	.LVL6:
  70              	.L7:
ARM GAS  C:\Users\username\AppData\Local\Temp\ccjfgADc.s 			page 7


  71 0034 061C     		mov	r6, r0
  72 0036 0024     		mov	r4, #0
  73              	.LVL7:
  74              	.L2:
 263:.\BLEclient.c **** 		{
  75              		.loc 1 263 0 is_stmt 0 discriminator 1
  76 0038 ABB2     		uxth	r3, r5
  77 003a A342     		cmp	r3, r4
  78 003c E6D8     		bhi	.L5
 259:.\BLEclient.c **** 	
  79              		.loc 1 259 0 is_stmt 1
  80 003e 0123     		mov	r3, #1
  81 0040 00E0     		b	.L4
  82              	.L8:
 272:.\BLEclient.c **** 			{
 273:.\BLEclient.c **** 				newDevice = FALSE;
  83              		.loc 1 273 0
  84 0042 0023     		mov	r3, #0
  85              	.L4:
  86              	.LVL8:
 274:.\BLEclient.c **** 				break;
 275:.\BLEclient.c **** 			}
 276:.\BLEclient.c **** 		}
 277:.\BLEclient.c **** 		
 278:.\BLEclient.c **** 		if(newDevice)
  87              		.loc 1 278 0
  88 0044 002B     		cmp	r3, #0
  89 0046 60D0     		beq	.L1
 279:.\BLEclient.c **** 		{
 280:.\BLEclient.c **** 			/* If the device address is new, then add the device to our existing list and compare the addres
 281:.\BLEclient.c **** 				with our expected address to see if the desired peripheral is advertising or not.*/
 282:.\BLEclient.c **** 			
 283:.\BLEclient.c **** 			list_of_devices[addedDevices].peerBdAddr = &address_store[addedDevices][0];
  90              		.loc 1 283 0
  91 0048 6B00     		lsl	r3, r5, #1
  92              	.LVL9:
  93 004a 5B19     		add	r3, r3, r5
  94 004c 5B00     		lsl	r3, r3, #1
  95 004e 304A     		ldr	r2, .L9+4
  96 0050 9B18     		add	r3, r3, r2
  97 0052 3049     		ldr	r1, .L9+8
  98 0054 A800     		lsl	r0, r5, #2
  99 0056 4219     		add	r2, r0, r5
 100 0058 9200     		lsl	r2, r2, #2
 101 005a 8A18     		add	r2, r1, r2
 102 005c 5360     		str	r3, [r2, #4]
 284:.\BLEclient.c **** 			
 285:.\BLEclient.c **** 			/* Store the data*/
 286:.\BLEclient.c **** 			list_of_devices[addedDevices].dataLen = scanReport->dataLen;
 103              		.loc 1 286 0
 104 005e 337A     		ldrb	r3, [r6, #8]
 105 0060 1372     		strb	r3, [r2, #8]
 287:.\BLEclient.c **** 			
 288:.\BLEclient.c **** 			list_of_devices[addedDevices].data = scanReport->data;
 106              		.loc 1 288 0
 107 0062 F368     		ldr	r3, [r6, #12]
 108 0064 D360     		str	r3, [r2, #12]
ARM GAS  C:\Users\username\AppData\Local\Temp\ccjfgADc.s 			page 8


 289:.\BLEclient.c **** 			
 290:.\BLEclient.c **** 			list_of_devices[addedDevices].eventType = scanReport->eventType;
 109              		.loc 1 290 0
 110 0066 3478     		ldrb	r4, [r6]
 111              	.LVL10:
 112 0068 4319     		add	r3, r0, r5
 113 006a 9B00     		lsl	r3, r3, #2
 114 006c 5C54     		strb	r4, [r3, r1]
 291:.\BLEclient.c **** 			/* Record the address type, Public or Random, of the advertising peripheral.*/
 292:.\BLEclient.c **** 			list_of_devices[addedDevices].peerAddrType = scanReport->peerAddrType;
 115              		.loc 1 292 0
 116 006e 7378     		ldrb	r3, [r6, #1]
 117 0070 5370     		strb	r3, [r2, #1]
 293:.\BLEclient.c **** 			
 294:.\BLEclient.c **** 			/* Save the BD addresses */
 295:.\BLEclient.c **** 			list_of_devices[addedDevices].peerBdAddr[0] = scanReport->peerBdAddr[0];
 118              		.loc 1 295 0
 119 0072 5368     		ldr	r3, [r2, #4]
 120 0074 7268     		ldr	r2, [r6, #4]
 121 0076 1278     		ldrb	r2, [r2]
 122 0078 1A70     		strb	r2, [r3]
 296:.\BLEclient.c **** 			list_of_devices[addedDevices].peerBdAddr[1] = scanReport->peerBdAddr[1];
 123              		.loc 1 296 0
 124 007a 244B     		ldr	r3, .L9
 125 007c 1C78     		ldrb	r4, [r3]
 126 007e A300     		lsl	r3, r4, #2
 127 0080 1B19     		add	r3, r3, r4
 128 0082 9B00     		lsl	r3, r3, #2
 129 0084 CB18     		add	r3, r1, r3
 130 0086 7268     		ldr	r2, [r6, #4]
 131 0088 5278     		ldrb	r2, [r2, #1]
 132 008a 5968     		ldr	r1, [r3, #4]
 133 008c 4A70     		strb	r2, [r1, #1]
 297:.\BLEclient.c **** 			list_of_devices[addedDevices].peerBdAddr[2] = scanReport->peerBdAddr[2];
 134              		.loc 1 297 0
 135 008e 7268     		ldr	r2, [r6, #4]
 136 0090 9278     		ldrb	r2, [r2, #2]
 137 0092 5968     		ldr	r1, [r3, #4]
 138 0094 8A70     		strb	r2, [r1, #2]
 298:.\BLEclient.c **** 			list_of_devices[addedDevices].peerBdAddr[3] = scanReport->peerBdAddr[3];
 139              		.loc 1 298 0
 140 0096 7268     		ldr	r2, [r6, #4]
 141 0098 D278     		ldrb	r2, [r2, #3]
 142 009a 5968     		ldr	r1, [r3, #4]
 143 009c CA70     		strb	r2, [r1, #3]
 299:.\BLEclient.c **** 			list_of_devices[addedDevices].peerBdAddr[4] = scanReport->peerBdAddr[4];
 144              		.loc 1 299 0
 145 009e 7268     		ldr	r2, [r6, #4]
 146 00a0 1279     		ldrb	r2, [r2, #4]
 147 00a2 5968     		ldr	r1, [r3, #4]
 148 00a4 0A71     		strb	r2, [r1, #4]
 300:.\BLEclient.c **** 			list_of_devices[addedDevices].peerBdAddr[5] = scanReport->peerBdAddr[5];
 149              		.loc 1 300 0
 150 00a6 7268     		ldr	r2, [r6, #4]
 151 00a8 5279     		ldrb	r2, [r2, #5]
 152 00aa 5968     		ldr	r1, [r3, #4]
 153 00ac 4A71     		strb	r2, [r1, #5]
ARM GAS  C:\Users\username\AppData\Local\Temp\ccjfgADc.s 			page 9


 301:.\BLEclient.c **** 			
 302:.\BLEclient.c **** 			list_of_devices[addedDevices].rssi = scanReport->rssi;
 154              		.loc 1 302 0
 155 00ae 327C     		ldrb	r2, [r6, #16]
 156 00b0 1A74     		strb	r2, [r3, #16]
 303:.\BLEclient.c **** 			
 304:.\BLEclient.c **** 			/* If the new BD address found matches the desired BD address, the Dongle has been found*/
 305:.\BLEclient.c ****             //peripheralAddress + (6 * current_sensor)
 306:.\BLEclient.c **** 			if(FALSE == memcmp(&peripheralAddress[current_sensor][0], scanReport->peerBdAddr, ADV_ADDR_LEN))
 157              		.loc 1 306 0
 158 00b2 194B     		ldr	r3, .L9+12
 159 00b4 1B78     		ldrb	r3, [r3]
 160 00b6 5800     		lsl	r0, r3, #1
 161 00b8 C318     		add	r3, r0, r3
 162 00ba 5B00     		lsl	r3, r3, #1
 163 00bc 1748     		ldr	r0, .L9+16
 164 00be 1818     		add	r0, r3, r0
 165 00c0 7568     		ldr	r5, [r6, #4]
 166 00c2 291C     		mov	r1, r5
 167 00c4 0622     		mov	r2, #6
 168 00c6 FFF7FEFF 		bl	memcmp
 169              	.LVL11:
 170 00ca 0028     		cmp	r0, #0
 171 00cc 19D1     		bne	.L6
 307:.\BLEclient.c **** 			{
 308:.\BLEclient.c **** 				/* Save the connected device BD Address and Type*/
 309:.\BLEclient.c **** 				connectPeriphDevice.bdAddr[0] = scanReport->peerBdAddr[0];
 172              		.loc 1 309 0
 173 00ce 2A78     		ldrb	r2, [r5]
 174 00d0 134B     		ldr	r3, .L9+20
 175 00d2 1A70     		strb	r2, [r3]
 310:.\BLEclient.c **** 				connectPeriphDevice.bdAddr[1] = scanReport->peerBdAddr[1];
 176              		.loc 1 310 0
 177 00d4 6A78     		ldrb	r2, [r5, #1]
 178 00d6 5A70     		strb	r2, [r3, #1]
 311:.\BLEclient.c **** 				connectPeriphDevice.bdAddr[2] = scanReport->peerBdAddr[2];
 179              		.loc 1 311 0
 180 00d8 AA78     		ldrb	r2, [r5, #2]
 181 00da 9A70     		strb	r2, [r3, #2]
 312:.\BLEclient.c **** 				connectPeriphDevice.bdAddr[3] = scanReport->peerBdAddr[3];
 182              		.loc 1 312 0
 183 00dc EA78     		ldrb	r2, [r5, #3]
 184 00de DA70     		strb	r2, [r3, #3]
 313:.\BLEclient.c **** 				connectPeriphDevice.bdAddr[4] = scanReport->peerBdAddr[4];
 185              		.loc 1 313 0
 186 00e0 2A79     		ldrb	r2, [r5, #4]
 187 00e2 1A71     		strb	r2, [r3, #4]
 314:.\BLEclient.c **** 				connectPeriphDevice.bdAddr[5] = scanReport->peerBdAddr[5];
 188              		.loc 1 314 0
 189 00e4 7268     		ldr	r2, [r6, #4]
 190 00e6 5279     		ldrb	r2, [r2, #5]
 191 00e8 5A71     		strb	r2, [r3, #5]
 315:.\BLEclient.c **** 				
 316:.\BLEclient.c **** 				connectPeriphDevice.type = list_of_devices[addedDevices].peerAddrType;
 192              		.loc 1 316 0
 193 00ea A200     		lsl	r2, r4, #2
 194 00ec 1419     		add	r4, r2, r4
ARM GAS  C:\Users\username\AppData\Local\Temp\ccjfgADc.s 			page 10


 195 00ee A400     		lsl	r4, r4, #2
 196 00f0 084A     		ldr	r2, .L9+8
 197 00f2 1419     		add	r4, r2, r4
 198 00f4 6278     		ldrb	r2, [r4, #1]
 199 00f6 9A71     		strb	r2, [r3, #6]
 317:.\BLEclient.c **** 					
 318:.\BLEclient.c **** 				/* Set the flag to notify application of a connected peripheral device */
 319:.\BLEclient.c **** 				peripheralFound = TRUE;	
 200              		.loc 1 319 0
 201 00f8 0122     		mov	r2, #1
 202 00fa 044B     		ldr	r3, .L9
 203 00fc 5A70     		strb	r2, [r3, #1]
 320:.\BLEclient.c **** 				
 321:.\BLEclient.c **** 				/* Stop existing BLE Scan */
 322:.\BLEclient.c **** 				CyBle_GapcStopScan();
 204              		.loc 1 322 0
 205 00fe FFF7FEFF 		bl	CyBle_GapcStopScan
 206              	.LVL12:
 207              	.L6:
 323:.\BLEclient.c **** 			}
 324:.\BLEclient.c **** 			
 325:.\BLEclient.c **** 			addedDevices++;
 208              		.loc 1 325 0
 209 0102 024A     		ldr	r2, .L9
 210 0104 1378     		ldrb	r3, [r2]
 211 0106 0133     		add	r3, r3, #1
 212 0108 1370     		strb	r3, [r2]
 213              	.LVL13:
 214              	.L1:
 326:.\BLEclient.c **** 		}
 327:.\BLEclient.c **** 		
 328:.\BLEclient.c **** 		newDevice = TRUE;
 329:.\BLEclient.c **** 	}
 330:.\BLEclient.c **** }
 215              		.loc 1 330 0
 216              		@ sp needed
 217 010a 70BD     		pop	{r4, r5, r6, pc}
 218              	.L10:
 219              		.align	2
 220              	.L9:
 221 010c 00000000 		.word	.LANCHOR0
 222 0110 00000000 		.word	address_store
 223 0114 00000000 		.word	list_of_devices
 224 0118 00000000 		.word	current_sensor
 225 011c 00000000 		.word	peripheralAddress
 226 0120 00000000 		.word	connectPeriphDevice
 227              		.cfi_endproc
 228              	.LFE36:
 229              		.size	HandleScanDevices, .-HandleScanDevices
 230              		.section	.text.ApplicationEventHandler,"ax",%progbits
 231              		.align	2
 232              		.global	ApplicationEventHandler
 233              		.code	16
 234              		.thumb_func
 235              		.type	ApplicationEventHandler, %function
 236              	ApplicationEventHandler:
 237              	.LFB35:
ARM GAS  C:\Users\username\AppData\Local\Temp\ccjfgADc.s 			page 11


 104:.\BLEclient.c **** 	/* 'apiResult' is a variable of type 'CYBLE_API_RESULT_T' (defined in 
 238              		.loc 1 104 0
 239              		.cfi_startproc
 240              	.LVL14:
 241 0000 70B5     		push	{r4, r5, r6, lr}
 242              		.cfi_def_cfa_offset 16
 243              		.cfi_offset 4, -16
 244              		.cfi_offset 5, -12
 245              		.cfi_offset 6, -8
 246              		.cfi_offset 14, -4
 247 0002 86B0     		sub	sp, sp, #24
 248              		.cfi_def_cfa_offset 40
 249              	.LVL15:
 116:.\BLEclient.c **** 	{
 250              		.loc 1 116 0
 251 0004 2828     		cmp	r0, #40
 252 0006 64D0     		beq	.L28
 253 0008 07D8     		bhi	.L14
 254 000a 2028     		cmp	r0, #32
 255 000c 28D0     		beq	.L15
 256 000e 2728     		cmp	r0, #39
 257 0010 3CD0     		beq	.L16
 258 0012 0128     		cmp	r0, #1
 259 0014 00D0     		beq	.LCB251
 260 0016 98E0     		b	.L11	@long jump
 261              	.LCB251:
 262 0018 0CE0     		b	.L17
 263              	.L14:
 264 001a 4128     		cmp	r0, #65
 265 001c 31D0     		beq	.L18
 266 001e 02D8     		bhi	.L19
 267 0020 2B28     		cmp	r0, #43
 268 0022 0BD0     		beq	.L20
 269 0024 91E0     		b	.L11
 270              	.L19:
 271 0026 4928     		cmp	r0, #73
 272 0028 6BD0     		beq	.L21
 273 002a 1223     		mov	r3, #18
 274 002c FF33     		add	r3, r3, #255
 275 002e 9842     		cmp	r0, r3
 276 0030 60D0     		beq	.L22
 277 0032 8AE0     		b	.L11
 278              	.L17:
 279              	.LBB2:
 121:.\BLEclient.c **** 		break;
 280              		.loc 1 121 0
 281 0034 0122     		mov	r2, #1
 282 0036 464B     		ldr	r3, .L29
 283 0038 9A70     		strb	r2, [r3, #2]
 122:.\BLEclient.c **** 			
 284              		.loc 1 122 0
 285 003a 86E0     		b	.L11
 286              	.L20:
 126:.\BLEclient.c **** 			{
 287              		.loc 1 126 0
 288 003c 454B     		ldr	r3, .L29+4
 289 003e 1B78     		ldrb	r3, [r3]
ARM GAS  C:\Users\username\AppData\Local\Temp\ccjfgADc.s 			page 12


 290 0040 052B     		cmp	r3, #5
 291 0042 09D1     		bne	.L23
 128:.\BLEclient.c **** 				
 292              		.loc 1 128 0
 293 0044 0122     		mov	r2, #1
 294 0046 444B     		ldr	r3, .L29+8
 295 0048 1A70     		strb	r2, [r3]
 130:.\BLEclient.c **** 				{
 296              		.loc 1 130 0
 297 004a 414B     		ldr	r3, .L29
 298 004c 5B78     		ldrb	r3, [r3, #1]
 299 004e 002B     		cmp	r3, #0
 300 0050 7BD1     		bne	.L11
 134:.\BLEclient.c **** 				}
 301              		.loc 1 134 0
 302 0052 3F4B     		ldr	r3, .L29
 303 0054 9A70     		strb	r2, [r3, #2]
 304 0056 78E0     		b	.L11
 305              	.L23:
 139:.\BLEclient.c **** 			}
 306              		.loc 1 139 0
 307 0058 0222     		mov	r2, #2
 308 005a 3F4B     		ldr	r3, .L29+8
 309 005c 1A70     		strb	r2, [r3]
 310 005e 74E0     		b	.L11
 311              	.L15:
 145:.\BLEclient.c **** 			{
 312              		.loc 1 145 0
 313 0060 3C4B     		ldr	r3, .L29+4
 314 0062 1B78     		ldrb	r3, [r3]
 315 0064 022B     		cmp	r3, #2
 316 0066 08D0     		beq	.L24
 149:.\BLEclient.c **** 				
 317              		.loc 1 149 0
 318 0068 01A8     		add	r0, sp, #4
 319              	.LVL16:
 320 006a 031C     		mov	r3, r0
 321 006c 0A1C     		mov	r2, r1
 322 006e 32CA     		ldmia	r2!, {r1, r4, r5}
 323 0070 32C3     		stmia	r3!, {r1, r4, r5}
 324              	.LVL17:
 325 0072 12CA     		ldmia	r2!, {r1, r4}
 326 0074 12C3     		stmia	r3!, {r1, r4}
 327              	.LVL18:
 153:.\BLEclient.c **** 			}
 328              		.loc 1 153 0
 329 0076 FFF7FEFF 		bl	HandleScanDevices
 330              	.LVL19:
 331              	.L24:
 156:.\BLEclient.c **** 		break;
 332              		.loc 1 156 0
 333 007a 0222     		mov	r2, #2
 334 007c 364B     		ldr	r3, .L29+8
 335 007e 1A70     		strb	r2, [r3]
 157:.\BLEclient.c **** 			
 336              		.loc 1 157 0
 337 0080 63E0     		b	.L11
ARM GAS  C:\Users\username\AppData\Local\Temp\ccjfgADc.s 			page 13


 338              	.LVL20:
 339              	.L18:
 162:.\BLEclient.c ****             break;
 340              		.loc 1 162 0
 341 0082 3648     		ldr	r0, .L29+12
 342              	.LVL21:
 343 0084 0222     		mov	r2, #2
 344 0086 FFF7FEFF 		bl	memcpy
 345              	.LVL22:
 163:.\BLEclient.c **** 			
 346              		.loc 1 163 0
 347 008a 5EE0     		b	.L11
 348              	.LVL23:
 349              	.L16:
 173:.\BLEclient.c **** 			//HERE HERE HERE HERE
 350              		.loc 1 173 0
 351 008c 334A     		ldr	r2, .L29+12
 352 008e 1378     		ldrb	r3, [r2]
 353 0090 5078     		ldrb	r0, [r2, #1]
 354              	.LVL24:
 355 0092 0002     		lsl	r0, r0, #8
 356 0094 1843     		orr	r0, r3
 357 0096 FFF7FEFF 		bl	CyBle_GattcStartDiscovery
 358              	.LVL25:
 182:.\BLEclient.c ****         break;
 359              		.loc 1 182 0
 360 009a 0322     		mov	r2, #3
 361 009c 2E4B     		ldr	r3, .L29+8
 362 009e 1A70     		strb	r2, [r3]
 183:.\BLEclient.c **** 			
 363              		.loc 1 183 0
 364 00a0 53E0     		b	.L11
 365              	.LVL26:
 366              	.L25:
 189:.\BLEclient.c **** 				list_of_devices[i].peerBdAddr[1] = FALSE;
 367              		.loc 1 189 0 discriminator 3
 368 00a2 2F4C     		ldr	r4, .L29+16
 369 00a4 8A00     		lsl	r2, r1, #2
 370 00a6 5318     		add	r3, r2, r1
 371 00a8 9B00     		lsl	r3, r3, #2
 372 00aa E318     		add	r3, r4, r3
 373 00ac 0020     		mov	r0, #0
 374 00ae 5D68     		ldr	r5, [r3, #4]
 375 00b0 2870     		strb	r0, [r5]
 190:.\BLEclient.c **** 				list_of_devices[i].peerBdAddr[2] = FALSE;
 376              		.loc 1 190 0 discriminator 3
 377 00b2 5D68     		ldr	r5, [r3, #4]
 378 00b4 6870     		strb	r0, [r5, #1]
 191:.\BLEclient.c **** 				list_of_devices[i].peerBdAddr[3] = FALSE;
 379              		.loc 1 191 0 discriminator 3
 380 00b6 5D68     		ldr	r5, [r3, #4]
 381 00b8 A870     		strb	r0, [r5, #2]
 192:.\BLEclient.c **** 				list_of_devices[i].peerBdAddr[4] = FALSE;
 382              		.loc 1 192 0 discriminator 3
 383 00ba 5D68     		ldr	r5, [r3, #4]
 384 00bc E870     		strb	r0, [r5, #3]
 193:.\BLEclient.c **** 				list_of_devices[i].peerBdAddr[5] = FALSE;
ARM GAS  C:\Users\username\AppData\Local\Temp\ccjfgADc.s 			page 14


 385              		.loc 1 193 0 discriminator 3
 386 00be 5B68     		ldr	r3, [r3, #4]
 387 00c0 1871     		strb	r0, [r3, #4]
 194:.\BLEclient.c **** 			}
 388              		.loc 1 194 0 discriminator 3
 389 00c2 5318     		add	r3, r2, r1
 390 00c4 9B00     		lsl	r3, r3, #2
 391 00c6 E318     		add	r3, r4, r3
 392 00c8 5B68     		ldr	r3, [r3, #4]
 393 00ca 5871     		strb	r0, [r3, #5]
 187:.\BLEclient.c **** 			{
 394              		.loc 1 187 0 discriminator 3
 395 00cc 0131     		add	r1, r1, #1
 396              	.LVL27:
 397 00ce 89B2     		uxth	r1, r1
 398              	.LVL28:
 399 00d0 00E0     		b	.L13
 400              	.LVL29:
 401              	.L28:
 402              	.LBE2:
 116:.\BLEclient.c **** 	{
 403              		.loc 1 116 0
 404 00d2 0021     		mov	r1, #0
 405              	.LVL30:
 406              	.L13:
 407              	.LBB3:
 187:.\BLEclient.c **** 			{
 408              		.loc 1 187 0 discriminator 1
 409 00d4 1E4B     		ldr	r3, .L29
 410 00d6 1B78     		ldrb	r3, [r3]
 411 00d8 8B42     		cmp	r3, r1
 412 00da E2D8     		bhi	.L25
 198:.\BLEclient.c **** 			peripheralFound = FALSE;
 413              		.loc 1 198 0
 414 00dc 1C4B     		ldr	r3, .L29
 415 00de 0022     		mov	r2, #0
 416 00e0 1A70     		strb	r2, [r3]
 199:.\BLEclient.c **** 			deviceConnected = FALSE;
 417              		.loc 1 199 0
 418 00e2 5A70     		strb	r2, [r3, #1]
 200:.\BLEclient.c **** 			iasLevel = FALSE;
 419              		.loc 1 200 0
 420 00e4 DA70     		strb	r2, [r3, #3]
 201:.\BLEclient.c **** 			ble_state = BLE_DISCONNECTED;
 421              		.loc 1 201 0
 422 00e6 1F49     		ldr	r1, .L29+20
 423              	.LVL31:
 424 00e8 0A70     		strb	r2, [r1]
 202:.\BLEclient.c **** 			
 425              		.loc 1 202 0
 426 00ea 0132     		add	r2, r2, #1
 427 00ec 1A49     		ldr	r1, .L29+8
 428 00ee 0A70     		strb	r2, [r1]
 205:.\BLEclient.c **** 			
 429              		.loc 1 205 0
 430 00f0 9A70     		strb	r2, [r3, #2]
 212:.\BLEclient.c **** 			
ARM GAS  C:\Users\username\AppData\Local\Temp\ccjfgADc.s 			page 15


 431              		.loc 1 212 0
 432 00f2 2AE0     		b	.L11
 433              	.LVL32:
 434              	.L22:
 219:.\BLEclient.c **** 			
 435              		.loc 1 219 0
 436 00f4 0122     		mov	r2, #1
 437 00f6 164B     		ldr	r3, .L29
 438 00f8 DA70     		strb	r2, [r3, #3]
 222:.\BLEclient.c **** 		break;
 439              		.loc 1 222 0
 440 00fa 0332     		add	r2, r2, #3
 441 00fc 164B     		ldr	r3, .L29+8
 442 00fe 1A70     		strb	r2, [r3]
 223:.\BLEclient.c ****             
 443              		.loc 1 223 0
 444 0100 23E0     		b	.L11
 445              	.L21:
 227:.\BLEclient.c ****             int ii=0;
 446              		.loc 1 227 0
 447 0102 194B     		ldr	r3, .L29+24
 448 0104 1C78     		ldrb	r4, [r3]
 449 0106 194B     		ldr	r3, .L29+28
 450 0108 1878     		ldrb	r0, [r3]
 451              	.LVL33:
 452 010a 2318     		add	r3, r4, r0
 453 010c 5A00     		lsl	r2, r3, #1
 454 010e D318     		add	r3, r2, r3
 455 0110 9B00     		lsl	r3, r3, #2
 456 0112 174A     		ldr	r2, .L29+32
 457 0114 D318     		add	r3, r2, r3
 458 0116 64C9     		ldmia	r1!, {r2, r5, r6}
 459 0118 64C3     		stmia	r3!, {r2, r5, r6}
 460              	.LVL34:
 229:.\BLEclient.c ****                 sensor_data[current_sensor][current_characteristic].bytes[ii] = *(readResponse[curr
 461              		.loc 1 229 0
 462 011a 0021     		mov	r1, #0
 463              	.LVL35:
 464 011c 0CE0     		b	.L26
 465              	.LVL36:
 466              	.L27:
 230:.\BLEclient.c ****             }
 467              		.loc 1 230 0 discriminator 3
 468 011e 2318     		add	r3, r4, r0
 469 0120 5A00     		lsl	r2, r3, #1
 470 0122 D218     		add	r2, r2, r3
 471 0124 9200     		lsl	r2, r2, #2
 472 0126 124D     		ldr	r5, .L29+32
 473 0128 AA18     		add	r2, r5, r2
 474 012a 5268     		ldr	r2, [r2, #4]
 475 012c 555C     		ldrb	r5, [r2, r1]
 476 012e DB00     		lsl	r3, r3, #3
 477 0130 5B18     		add	r3, r3, r1
 478 0132 104A     		ldr	r2, .L29+36
 479 0134 9D54     		strb	r5, [r3, r2]
 229:.\BLEclient.c ****                 sensor_data[current_sensor][current_characteristic].bytes[ii] = *(readResponse[curr
 480              		.loc 1 229 0 discriminator 3
ARM GAS  C:\Users\username\AppData\Local\Temp\ccjfgADc.s 			page 16


 481 0136 0131     		add	r1, r1, #1
 482              	.LVL37:
 483              	.L26:
 229:.\BLEclient.c ****                 sensor_data[current_sensor][current_characteristic].bytes[ii] = *(readResponse[curr
 484              		.loc 1 229 0 is_stmt 0 discriminator 1
 485 0138 2318     		add	r3, r4, r0
 486 013a 5A00     		lsl	r2, r3, #1
 487 013c D318     		add	r3, r2, r3
 488 013e 9B00     		lsl	r3, r3, #2
 489 0140 0B4A     		ldr	r2, .L29+32
 490 0142 D318     		add	r3, r2, r3
 491 0144 1B89     		ldrh	r3, [r3, #8]
 492 0146 8B42     		cmp	r3, r1
 493 0148 E9DC     		bgt	.L27
 494              	.LVL38:
 495              	.L11:
 496              	.LBE3:
 239:.\BLEclient.c **** /*******************************************************************************
 497              		.loc 1 239 0 is_stmt 1
 498 014a 06B0     		add	sp, sp, #24
 499              		@ sp needed
 500 014c 70BD     		pop	{r4, r5, r6, pc}
 501              	.L30:
 502 014e C046     		.align	2
 503              	.L29:
 504 0150 00000000 		.word	.LANCHOR0
 505 0154 00000000 		.word	cyBle_state
 506 0158 00000000 		.word	.LANCHOR1
 507 015c 00000000 		.word	connHandle
 508 0160 00000000 		.word	list_of_devices
 509 0164 00000000 		.word	iasLevel
 510 0168 00000000 		.word	current_sensor
 511 016c 00000000 		.word	current_characteristic
 512 0170 00000000 		.word	readResponse
 513 0174 00000000 		.word	sensor_data
 514              		.cfi_endproc
 515              	.LFE35:
 516              		.size	ApplicationEventHandler, .-ApplicationEventHandler
 517              		.section	.text.LoadPeripheralDeviceData,"ax",%progbits
 518              		.align	2
 519              		.global	LoadPeripheralDeviceData
 520              		.code	16
 521              		.thumb_func
 522              		.type	LoadPeripheralDeviceData, %function
 523              	LoadPeripheralDeviceData:
 524              	.LFB37:
 331:.\BLEclient.c **** 
 332:.\BLEclient.c **** 
 333:.\BLEclient.c **** /*******************************************************************************
 334:.\BLEclient.c **** * Function Name: LoadPeripheralDeviceData
 335:.\BLEclient.c **** ********************************************************************************
 336:.\BLEclient.c **** * Summary:
 337:.\BLEclient.c **** *        This function stores the address of the peripheral device to which this
 338:.\BLEclient.c **** * Central device wishes to connect. 
 339:.\BLEclient.c **** *
 340:.\BLEclient.c **** * Parameters:
 341:.\BLEclient.c **** *  void
ARM GAS  C:\Users\username\AppData\Local\Temp\ccjfgADc.s 			page 17


 342:.\BLEclient.c **** *
 343:.\BLEclient.c **** * Return:
 344:.\BLEclient.c **** *  void
 345:.\BLEclient.c **** *
 346:.\BLEclient.c **** 
 347:.\BLEclient.c **** *******************************************************************************/
 348:.\BLEclient.c **** void LoadPeripheralDeviceData(void)
 349:.\BLEclient.c **** {
 525              		.loc 1 349 0
 526              		.cfi_startproc
 527 0000 70B5     		push	{r4, r5, r6, lr}
 528              		.cfi_def_cfa_offset 16
 529              		.cfi_offset 4, -16
 530              		.cfi_offset 5, -12
 531              		.cfi_offset 6, -8
 532              		.cfi_offset 14, -4
 350:.\BLEclient.c **** 	/* This stores the 6-byte BD address of peripheral device to which we have to connect.
 351:.\BLEclient.c **** 	   In this project, we have peripheral (CySmart USB Dongle) with BD Address 0x00A050654325. 
 352:.\BLEclient.c **** 	   We write this address to the 6-byte array 'peripheralAddress'. This array is then  
 353:.\BLEclient.c **** 	   used to compare the addresses of the advertising peripherals. If one of the advertising 
 354:.\BLEclient.c **** 	   peripherals has the same address, then we know it is the device which we want to connect  
 355:.\BLEclient.c **** 	   and initiate a connection request to it.*/
 356:.\BLEclient.c ****     
 357:.\BLEclient.c ****         //IF ONLY CONNECTING TO A SINGLE BLE SERVER PLACE ADDRESS IN FIRST ARRAY
 358:.\BLEclient.c **** 		peripheralAddress[0][5] = 0x00;
 533              		.loc 1 358 0
 534 0002 0A4B     		ldr	r3, .L32
 535 0004 0026     		mov	r6, #0
 536 0006 5E71     		strb	r6, [r3, #5]
 359:.\BLEclient.c **** 		peripheralAddress[0][4] = 0xA0;
 537              		.loc 1 359 0
 538 0008 A025     		mov	r5, #160
 539 000a 1D71     		strb	r5, [r3, #4]
 360:.\BLEclient.c **** 		peripheralAddress[0][3] = 0x50;
 540              		.loc 1 360 0
 541 000c 5024     		mov	r4, #80
 542 000e DC70     		strb	r4, [r3, #3]
 361:.\BLEclient.c **** 		peripheralAddress[0][2] = 0x09;
 543              		.loc 1 361 0
 544 0010 0920     		mov	r0, #9
 545 0012 9870     		strb	r0, [r3, #2]
 362:.\BLEclient.c **** 		peripheralAddress[0][1] = 0x2A;
 546              		.loc 1 362 0
 547 0014 2A21     		mov	r1, #42
 548 0016 5970     		strb	r1, [r3, #1]
 363:.\BLEclient.c **** 		peripheralAddress[0][0] = 0x0E;
 549              		.loc 1 363 0
 550 0018 0E22     		mov	r2, #14
 551 001a 1A70     		strb	r2, [r3]
 364:.\BLEclient.c ****         
 365:.\BLEclient.c ****         //A SECOND DEVICE ADDRESS WOULD GO HERE...AND SO ON
 366:.\BLEclient.c **** 		peripheralAddress[1][5] = 0x00;
 552              		.loc 1 366 0
 553 001c DE72     		strb	r6, [r3, #11]
 367:.\BLEclient.c **** 		peripheralAddress[1][4] = 0xA0;
 554              		.loc 1 367 0
 555 001e 9D72     		strb	r5, [r3, #10]
ARM GAS  C:\Users\username\AppData\Local\Temp\ccjfgADc.s 			page 18


 368:.\BLEclient.c **** 		peripheralAddress[1][3] = 0x50;
 556              		.loc 1 368 0
 557 0020 5C72     		strb	r4, [r3, #9]
 369:.\BLEclient.c **** 		peripheralAddress[1][2] = 0x09;
 558              		.loc 1 369 0
 559 0022 1872     		strb	r0, [r3, #8]
 370:.\BLEclient.c **** 		peripheralAddress[1][1] = 0x2A;
 560              		.loc 1 370 0
 561 0024 D971     		strb	r1, [r3, #7]
 371:.\BLEclient.c **** 		peripheralAddress[1][0] = 0x0E;        
 562              		.loc 1 371 0
 563 0026 9A71     		strb	r2, [r3, #6]
 372:.\BLEclient.c **** }
 564              		.loc 1 372 0
 565              		@ sp needed
 566 0028 70BD     		pop	{r4, r5, r6, pc}
 567              	.L33:
 568 002a C046     		.align	2
 569              	.L32:
 570 002c 00000000 		.word	peripheralAddress
 571              		.cfi_endproc
 572              	.LFE37:
 573              		.size	LoadPeripheralDeviceData, .-LoadPeripheralDeviceData
 574              		.global	restartScanning
 575              		.global	addedDevices
 576              		.global	peripheralFound
 577              		.comm	peripheralAddress,6,4
 578              		.comm	address_store,60,4
 579              		.global	ble_state
 580              		.global	deviceConnected
 581              		.comm	readResponse,12,4
 582              		.comm	connHandle,2,4
 583              		.comm	connectPeriphDevice,7,4
 584              		.comm	list_of_devices,200,4
 585              		.data
 586              		.set	.LANCHOR1,. + 0
 587              		.type	ble_state, %object
 588              		.size	ble_state, 1
 589              	ble_state:
 590 0000 01       		.byte	1
 591              		.bss
 592              		.set	.LANCHOR0,. + 0
 593              		.type	addedDevices, %object
 594              		.size	addedDevices, 1
 595              	addedDevices:
 596 0000 00       		.space	1
 597              		.type	peripheralFound, %object
 598              		.size	peripheralFound, 1
 599              	peripheralFound:
 600 0001 00       		.space	1
 601              		.type	restartScanning, %object
 602              		.size	restartScanning, 1
 603              	restartScanning:
 604 0002 00       		.space	1
 605              		.type	deviceConnected, %object
 606              		.size	deviceConnected, 1
 607              	deviceConnected:
ARM GAS  C:\Users\username\AppData\Local\Temp\ccjfgADc.s 			page 19


 608 0003 00       		.space	1
 609              		.text
 610              	.Letext0:
 611              		.file 2 "Generated_Source\\PSoC4/cytypes.h"
 612              		.file 3 "c:\\program files (x86)\\cypress\\psoc creator\\3.3\\psoc creator\\import\\gnu\\arm\\4.9.
 613              		.file 4 "Generated_Source\\PSoC4/BLE_1_Stack.h"
 614              		.file 5 "Generated_Source\\PSoC4/BLE_1_StackGap.h"
 615              		.file 6 "Generated_Source\\PSoC4/BLE_1_StackGatt.h"
 616              		.file 7 "Generated_Source\\PSoC4/BLE_1_StackGattClient.h"
 617              		.file 8 "Generated_Source\\PSoC4/BLE_1_eventHandler.h"
 618              		.file 9 "./main.h"
 619              		.file 10 "c:\\program files (x86)\\cypress\\psoc creator\\3.3\\psoc creator\\import\\gnu\\arm\\4.9
 620              		.file 11 "Generated_Source\\PSoC4/BLE_1.h"
 621              		.file 12 "Generated_Source\\PSoC4/BLE_1_gatt.h"