ARM GAS  C:\Users\username\AppData\Local\Temp\ccSuCzK2.s 			page 1


   1              		.cpu cortex-m0
   2              		.fpu softvfp
   3              		.eabi_attribute 20, 1
   4              		.eabi_attribute 21, 1
   5              		.eabi_attribute 23, 3
   6              		.eabi_attribute 24, 1
   7              		.eabi_attribute 25, 1
   8              		.eabi_attribute 26, 1
   9              		.eabi_attribute 30, 1
  10              		.eabi_attribute 34, 0
  11              		.eabi_attribute 18, 4
  12              		.code	16
  13              		.file	"GFXmaster.c"
  14              		.text
  15              	.Ltext0:
  16              		.cfi_sections	.debug_frame
  17              		.section	.text.GFX_Init,"ax",%progbits
  18              		.align	2
  19              		.global	GFX_Init
  20              		.code	16
  21              		.thumb_func
  22              		.type	GFX_Init, %function
  23              	GFX_Init:
  24              	.LFB35:
  25              		.file 1 ".\\GFXmaster.c"
   1:.\GFXmaster.c **** /* ================================================================================================
   2:.\GFXmaster.c ****  *   Graphics FX Master Library Based on Adafruit GFX Library
   3:.\GFXmaster.c ****  *   Ported to PSoC by Jon Isaiah  earthworm.jim117@gmail.com
   4:.\GFXmaster.c ****  * 
   5:.\GFXmaster.c ****  *   Legal Info at End of File
   6:.\GFXmaster.c ****  *
   7:.\GFXmaster.c ****  *   Last updated 8.24.2015
   8:.\GFXmaster.c ****  *
   9:.\GFXmaster.c ****  *  -----Usage Guide-------
  10:.\GFXmaster.c ****  *
  11:.\GFXmaster.c ****  * This is the Master GFX Library
  12:.\GFXmaster.c ****  * You will also need a hardward specific library specific to your device
  13:.\GFXmaster.c ****  *
  14:.\GFXmaster.c ****  *     1. Your project must include the source files 
  15:.\GFXmaster.c ****  *            GFXmaster.c
  16:.\GFXmaster.c ****  *            GFXmaster.h
  17:.\GFXmaster.c ****  *            glcdfont.c
  18:.\GFXmaster.c ****  *            SSD1306.c   or the module for another driver chip (yourDisplay.c)
  19:.\GFXmaster.c ****  *            SSD1306.h                                         (yourDisplay.h)
  20:.\GFXmaster.c ****  *
  21:.\GFXmaster.c ****  *    2.   You must #include yourDisplay.h to gain access to required functions (drawPixel)
  22:.\GFXmaster.c ****  *
  23:.\GFXmaster.c ****  *    3.   Comment out any functions definitions which are optimized for your chip in yourDisplay.c
  24:.\GFXmaster.c ****  * 
  25:.\GFXmaster.c ****  *
  26:.\GFXmaster.c ****  * ========================================
  27:.\GFXmaster.c **** */
  28:.\GFXmaster.c **** 
  29:.\GFXmaster.c **** 
  30:.\GFXmaster.c **** #include "GFXmaster.h"
  31:.\GFXmaster.c **** #include "glcdfont.c"
  32:.\GFXmaster.c **** #include "SSD1306.h"
ARM GAS  C:\Users\username\AppData\Local\Temp\ccSuCzK2.s 			page 2


  33:.\GFXmaster.c **** 
  34:.\GFXmaster.c **** 
  35:.\GFXmaster.c **** 
  36:.\GFXmaster.c **** void GFX_Init(uint16_t h, uint16_t w){
  26              		.loc 1 36 0
  27              		.cfi_startproc
  28              	.LVL0:
  37:.\GFXmaster.c ****     _width = w;
  29              		.loc 1 37 0
  30 0000 0C4B     		ldr	r3, .L2
  31 0002 1980     		strh	r1, [r3]
  38:.\GFXmaster.c ****     _height = h;
  32              		.loc 1 38 0
  33 0004 0C4B     		ldr	r3, .L2+4
  34 0006 1880     		strh	r0, [r3]
  39:.\GFXmaster.c ****     rotation = 0;
  35              		.loc 1 39 0
  36 0008 0023     		mov	r3, #0
  37 000a 0C4A     		ldr	r2, .L2+8
  38 000c 1370     		strb	r3, [r2]
  40:.\GFXmaster.c ****     cursor_y = 0;
  39              		.loc 1 40 0
  40 000e 0C4A     		ldr	r2, .L2+12
  41 0010 1380     		strh	r3, [r2]
  41:.\GFXmaster.c ****     cursor_x =0;
  42              		.loc 1 41 0
  43 0012 0C4A     		ldr	r2, .L2+16
  44 0014 1380     		strh	r3, [r2]
  42:.\GFXmaster.c ****     textsize = 1;
  45              		.loc 1 42 0
  46 0016 0122     		mov	r2, #1
  47 0018 0B49     		ldr	r1, .L2+20
  48              	.LVL1:
  49 001a 0A70     		strb	r2, [r1]
  43:.\GFXmaster.c ****     textcolor = 0x01;
  50              		.loc 1 43 0
  51 001c 0B49     		ldr	r1, .L2+24
  52 001e 0A80     		strh	r2, [r1]
  44:.\GFXmaster.c ****     textbgcolor = 0x00;
  53              		.loc 1 44 0
  54 0020 0B4A     		ldr	r2, .L2+28
  55 0022 1380     		strh	r3, [r2]
  45:.\GFXmaster.c ****     wrap = 1;
  56              		.loc 1 45 0
  57 0024 0B4B     		ldr	r3, .L2+32
  58 0026 0122     		mov	r2, #1
  59 0028 1A70     		strb	r2, [r3]
  46:.\GFXmaster.c ****     _cp437 = 0;
  60              		.loc 1 46 0
  61 002a 0B4B     		ldr	r3, .L2+36
  62 002c 0022     		mov	r2, #0
  63 002e 1A70     		strb	r2, [r3]
  47:.\GFXmaster.c **** }
  64              		.loc 1 47 0
  65              		@ sp needed
  66 0030 7047     		bx	lr
  67              	.L3:
ARM GAS  C:\Users\username\AppData\Local\Temp\ccSuCzK2.s 			page 3


  68 0032 C046     		.align	2
  69              	.L2:
  70 0034 00000000 		.word	_width
  71 0038 00000000 		.word	_height
  72 003c 00000000 		.word	rotation
  73 0040 00000000 		.word	cursor_y
  74 0044 00000000 		.word	cursor_x
  75 0048 00000000 		.word	textsize
  76 004c 00000000 		.word	textcolor
  77 0050 00000000 		.word	textbgcolor
  78 0054 00000000 		.word	wrap
  79 0058 00000000 		.word	_cp437
  80              		.cfi_endproc
  81              	.LFE35:
  82              		.size	GFX_Init, .-GFX_Init
  83              		.section	.text.drawCircle,"ax",%progbits
  84              		.align	2
  85              		.global	drawCircle
  86              		.code	16
  87              		.thumb_func
  88              		.type	drawCircle, %function
  89              	drawCircle:
  90              	.LFB36:
  48:.\GFXmaster.c **** 
  49:.\GFXmaster.c **** 
  50:.\GFXmaster.c **** 
  51:.\GFXmaster.c **** // Draw a circle outline
  52:.\GFXmaster.c **** void drawCircle(int16_t x0, int16_t y0, int16_t r, uint16_t color) {
  91              		.loc 1 52 0
  92              		.cfi_startproc
  93              	.LVL2:
  94 0000 F0B5     		push	{r4, r5, r6, r7, lr}
  95              		.cfi_def_cfa_offset 20
  96              		.cfi_offset 4, -20
  97              		.cfi_offset 5, -16
  98              		.cfi_offset 6, -12
  99              		.cfi_offset 7, -8
 100              		.cfi_offset 14, -4
 101 0002 5F46     		mov	r7, fp
 102 0004 5646     		mov	r6, r10
 103 0006 4D46     		mov	r5, r9
 104 0008 4446     		mov	r4, r8
 105 000a F0B4     		push	{r4, r5, r6, r7}
 106              		.cfi_def_cfa_offset 36
 107              		.cfi_offset 8, -36
 108              		.cfi_offset 9, -32
 109              		.cfi_offset 10, -28
 110              		.cfi_offset 11, -24
 111 000c 87B0     		sub	sp, sp, #28
 112              		.cfi_def_cfa_offset 64
 113 000e 051C     		mov	r5, r0
 114 0010 0C1C     		mov	r4, r1
 115 0012 0292     		str	r2, [sp, #8]
 116 0014 1F1C     		mov	r7, r3
 117 0016 0193     		str	r3, [sp, #4]
  53:.\GFXmaster.c ****   int16_t f = 1 - r;
 118              		.loc 1 53 0
ARM GAS  C:\Users\username\AppData\Local\Temp\ccSuCzK2.s 			page 4


 119 0018 96B2     		uxth	r6, r2
 120 001a 0123     		mov	r3, #1
 121              	.LVL3:
 122 001c 9B1B     		sub	r3, r3, r6
 123 001e 9BB2     		uxth	r3, r3
 124 0020 9B46     		mov	fp, r3
 125              	.LVL4:
  54:.\GFXmaster.c ****   int16_t ddF_x = 1;
  55:.\GFXmaster.c ****   int16_t ddF_y = -2 * r;
 126              		.loc 1 55 0
 127 0022 F303     		lsl	r3, r6, #15
 128 0024 9B1B     		sub	r3, r3, r6
 129 0026 5A00     		lsl	r2, r3, #1
 130              	.LVL5:
 131 0028 93B2     		uxth	r3, r2
 132 002a 0593     		str	r3, [sp, #20]
 133              	.LVL6:
  56:.\GFXmaster.c ****   int16_t x = 0;
  57:.\GFXmaster.c ****   int16_t y = r;
  58:.\GFXmaster.c **** 
  59:.\GFXmaster.c ****   drawPixel(x0  , y0+r, color);
 134              		.loc 1 59 0
 135 002c 8BB2     		uxth	r3, r1
 136 002e 9A46     		mov	r10, r3
 137 0030 F118     		add	r1, r6, r3
 138              	.LVL7:
 139 0032 09B2     		sxth	r1, r1
 140 0034 3A1C     		mov	r2, r7
 141 0036 FFF7FEFF 		bl	drawPixel
 142              	.LVL8:
  60:.\GFXmaster.c ****   drawPixel(x0  , y0-r, color);
 143              		.loc 1 60 0
 144 003a 5346     		mov	r3, r10
 145 003c 991B     		sub	r1, r3, r6
 146 003e 09B2     		sxth	r1, r1
 147 0040 281C     		mov	r0, r5
 148 0042 3A1C     		mov	r2, r7
 149 0044 FFF7FEFF 		bl	drawPixel
 150              	.LVL9:
  61:.\GFXmaster.c ****   drawPixel(x0+r, y0  , color);
 151              		.loc 1 61 0
 152 0048 ABB2     		uxth	r3, r5
 153 004a 9946     		mov	r9, r3
 154 004c F018     		add	r0, r6, r3
 155 004e 00B2     		sxth	r0, r0
 156 0050 211C     		mov	r1, r4
 157 0052 3A1C     		mov	r2, r7
 158 0054 FFF7FEFF 		bl	drawPixel
 159              	.LVL10:
  62:.\GFXmaster.c ****   drawPixel(x0-r, y0  , color);
 160              		.loc 1 62 0
 161 0058 4B46     		mov	r3, r9
 162 005a 981B     		sub	r0, r3, r6
 163 005c 00B2     		sxth	r0, r0
 164 005e 211C     		mov	r1, r4
 165 0060 3A1C     		mov	r2, r7
 166 0062 FFF7FEFF 		bl	drawPixel
ARM GAS  C:\Users\username\AppData\Local\Temp\ccSuCzK2.s 			page 5


 167              	.LVL11:
  56:.\GFXmaster.c ****   int16_t y = r;
 168              		.loc 1 56 0
 169 0066 0023     		mov	r3, #0
 170 0068 0393     		str	r3, [sp, #12]
  54:.\GFXmaster.c ****   int16_t ddF_y = -2 * r;
 171              		.loc 1 54 0
 172 006a 0133     		add	r3, r3, #1
 173 006c 9846     		mov	r8, r3
  63:.\GFXmaster.c **** 
  64:.\GFXmaster.c ****   while (x<y) {
 174              		.loc 1 64 0
 175 006e 62E0     		b	.L5
 176              	.LVL12:
 177              	.L7:
  65:.\GFXmaster.c ****     if (f >= 0) {
 178              		.loc 1 65 0
 179 0070 5B46     		mov	r3, fp
 180 0072 1BB2     		sxth	r3, r3
 181 0074 002B     		cmp	r3, #0
 182 0076 0BDB     		blt	.L6
  66:.\GFXmaster.c ****       y--;
 183              		.loc 1 66 0
 184 0078 029B     		ldr	r3, [sp, #8]
 185 007a 013B     		sub	r3, r3, #1
 186 007c 1BB2     		sxth	r3, r3
 187 007e 0293     		str	r3, [sp, #8]
 188              	.LVL13:
  67:.\GFXmaster.c ****       ddF_y += 2;
 189              		.loc 1 67 0
 190 0080 059B     		ldr	r3, [sp, #20]
 191 0082 0233     		add	r3, r3, #2
 192 0084 9BB2     		uxth	r3, r3
 193 0086 9AB2     		uxth	r2, r3
 194 0088 0592     		str	r2, [sp, #20]
 195              	.LVL14:
  68:.\GFXmaster.c ****       f += ddF_y;
 196              		.loc 1 68 0
 197 008a 5B44     		add	r3, r3, fp
 198 008c 9BB2     		uxth	r3, r3
 199 008e 9B46     		mov	fp, r3
 200              	.LVL15:
 201              	.L6:
  69:.\GFXmaster.c ****     }
  70:.\GFXmaster.c ****     x++;
 202              		.loc 1 70 0
 203 0090 039C     		ldr	r4, [sp, #12]
 204 0092 0134     		add	r4, r4, #1
 205 0094 A4B2     		uxth	r4, r4
 206 0096 A3B2     		uxth	r3, r4
 207 0098 0393     		str	r3, [sp, #12]
 208              	.LVL16:
  71:.\GFXmaster.c ****     ddF_x += 2;
 209              		.loc 1 71 0
 210 009a 4346     		mov	r3, r8
 211 009c 0233     		add	r3, r3, #2
 212 009e 9BB2     		uxth	r3, r3
ARM GAS  C:\Users\username\AppData\Local\Temp\ccSuCzK2.s 			page 6


 213 00a0 9AB2     		uxth	r2, r3
 214 00a2 9046     		mov	r8, r2
 215              	.LVL17:
  72:.\GFXmaster.c ****     f += ddF_x;
 216              		.loc 1 72 0
 217 00a4 5B44     		add	r3, r3, fp
 218 00a6 9BB2     		uxth	r3, r3
 219 00a8 9B46     		mov	fp, r3
 220              	.LVL18:
  73:.\GFXmaster.c ****   
  74:.\GFXmaster.c ****     drawPixel(x0 + x, y0 + y, color);
 221              		.loc 1 74 0
 222 00aa 4B46     		mov	r3, r9
 223 00ac 1F19     		add	r7, r3, r4
 224 00ae 6B46     		mov	r3, sp
 225 00b0 1D89     		ldrh	r5, [r3, #8]
 226 00b2 5346     		mov	r3, r10
 227 00b4 5E19     		add	r6, r3, r5
 228 00b6 3FB2     		sxth	r7, r7
 229 00b8 36B2     		sxth	r6, r6
 230 00ba 381C     		mov	r0, r7
 231 00bc 311C     		mov	r1, r6
 232 00be 019A     		ldr	r2, [sp, #4]
 233 00c0 FFF7FEFF 		bl	drawPixel
 234              	.LVL19:
  75:.\GFXmaster.c ****     drawPixel(x0 - x, y0 + y, color);
 235              		.loc 1 75 0
 236 00c4 4B46     		mov	r3, r9
 237 00c6 1B1B     		sub	r3, r3, r4
 238 00c8 1BB2     		sxth	r3, r3
 239 00ca 0493     		str	r3, [sp, #16]
 240 00cc 181C     		mov	r0, r3
 241 00ce 311C     		mov	r1, r6
 242 00d0 019A     		ldr	r2, [sp, #4]
 243 00d2 FFF7FEFF 		bl	drawPixel
 244              	.LVL20:
  76:.\GFXmaster.c ****     drawPixel(x0 + x, y0 - y, color);
 245              		.loc 1 76 0
 246 00d6 5246     		mov	r2, r10
 247 00d8 561B     		sub	r6, r2, r5
 248 00da 36B2     		sxth	r6, r6
 249 00dc 381C     		mov	r0, r7
 250 00de 311C     		mov	r1, r6
 251 00e0 019F     		ldr	r7, [sp, #4]
 252 00e2 3A1C     		mov	r2, r7
 253 00e4 FFF7FEFF 		bl	drawPixel
 254              	.LVL21:
  77:.\GFXmaster.c ****     drawPixel(x0 - x, y0 - y, color);
 255              		.loc 1 77 0
 256 00e8 0498     		ldr	r0, [sp, #16]
 257 00ea 311C     		mov	r1, r6
 258 00ec 0197     		str	r7, [sp, #4]
 259 00ee 3A1C     		mov	r2, r7
 260 00f0 FFF7FEFF 		bl	drawPixel
 261              	.LVL22:
  78:.\GFXmaster.c ****     drawPixel(x0 + y, y0 + x, color);
 262              		.loc 1 78 0
ARM GAS  C:\Users\username\AppData\Local\Temp\ccSuCzK2.s 			page 7


 263 00f4 4B46     		mov	r3, r9
 264 00f6 5E19     		add	r6, r3, r5
 265 00f8 5346     		mov	r3, r10
 266 00fa 1F19     		add	r7, r3, r4
 267 00fc 36B2     		sxth	r6, r6
 268 00fe 3FB2     		sxth	r7, r7
 269 0100 301C     		mov	r0, r6
 270 0102 391C     		mov	r1, r7
 271 0104 019A     		ldr	r2, [sp, #4]
 272 0106 FFF7FEFF 		bl	drawPixel
 273              	.LVL23:
  79:.\GFXmaster.c ****     drawPixel(x0 - y, y0 + x, color);
 274              		.loc 1 79 0
 275 010a 4B46     		mov	r3, r9
 276 010c 5D1B     		sub	r5, r3, r5
 277 010e 2DB2     		sxth	r5, r5
 278 0110 281C     		mov	r0, r5
 279 0112 391C     		mov	r1, r7
 280 0114 019F     		ldr	r7, [sp, #4]
 281 0116 3A1C     		mov	r2, r7
 282 0118 FFF7FEFF 		bl	drawPixel
 283              	.LVL24:
  80:.\GFXmaster.c ****     drawPixel(x0 + y, y0 - x, color);
 284              		.loc 1 80 0
 285 011c 5346     		mov	r3, r10
 286 011e 1C1B     		sub	r4, r3, r4
 287 0120 24B2     		sxth	r4, r4
 288 0122 301C     		mov	r0, r6
 289 0124 211C     		mov	r1, r4
 290 0126 3A1C     		mov	r2, r7
 291 0128 FFF7FEFF 		bl	drawPixel
 292              	.LVL25:
  81:.\GFXmaster.c ****     drawPixel(x0 - y, y0 - x, color);
 293              		.loc 1 81 0
 294 012c 281C     		mov	r0, r5
 295 012e 211C     		mov	r1, r4
 296 0130 3A1C     		mov	r2, r7
 297 0132 FFF7FEFF 		bl	drawPixel
 298              	.LVL26:
 299              	.L5:
  64:.\GFXmaster.c ****     if (f >= 0) {
 300              		.loc 1 64 0
 301 0136 6B46     		mov	r3, sp
 302 0138 0C22     		mov	r2, #12
 303 013a 9B5E     		ldrsh	r3, [r3, r2]
 304 013c 029A     		ldr	r2, [sp, #8]
 305 013e 9342     		cmp	r3, r2
 306 0140 96DB     		blt	.L7
  82:.\GFXmaster.c ****   }
  83:.\GFXmaster.c **** }
 307              		.loc 1 83 0
 308 0142 07B0     		add	sp, sp, #28
 309              		@ sp needed
 310              	.LVL27:
 311              	.LVL28:
 312              	.LVL29:
 313 0144 3CBC     		pop	{r2, r3, r4, r5}
ARM GAS  C:\Users\username\AppData\Local\Temp\ccSuCzK2.s 			page 8


 314 0146 9046     		mov	r8, r2
 315 0148 9946     		mov	r9, r3
 316 014a A246     		mov	r10, r4
 317 014c AB46     		mov	fp, r5
 318 014e F0BD     		pop	{r4, r5, r6, r7, pc}
 319              		.cfi_endproc
 320              	.LFE36:
 321              		.size	drawCircle, .-drawCircle
 322              		.section	.text.drawCircleHelper,"ax",%progbits
 323              		.align	2
 324              		.global	drawCircleHelper
 325              		.code	16
 326              		.thumb_func
 327              		.type	drawCircleHelper, %function
 328              	drawCircleHelper:
 329              	.LFB37:
  84:.\GFXmaster.c **** 
  85:.\GFXmaster.c **** 
  86:.\GFXmaster.c **** void drawCircleHelper( int16_t x0, int16_t y0, int16_t r, uint8_t cornername, uint16_t color) {
 330              		.loc 1 86 0
 331              		.cfi_startproc
 332              	.LVL30:
 333 0000 F0B5     		push	{r4, r5, r6, r7, lr}
 334              		.cfi_def_cfa_offset 20
 335              		.cfi_offset 4, -20
 336              		.cfi_offset 5, -16
 337              		.cfi_offset 6, -12
 338              		.cfi_offset 7, -8
 339              		.cfi_offset 14, -4
 340 0002 5F46     		mov	r7, fp
 341 0004 5646     		mov	r6, r10
 342 0006 4D46     		mov	r5, r9
 343 0008 4446     		mov	r4, r8
 344 000a F0B4     		push	{r4, r5, r6, r7}
 345              		.cfi_def_cfa_offset 36
 346              		.cfi_offset 8, -36
 347              		.cfi_offset 9, -32
 348              		.cfi_offset 10, -28
 349              		.cfi_offset 11, -24
 350 000c 87B0     		sub	sp, sp, #28
 351              		.cfi_def_cfa_offset 64
 352 000e 0390     		str	r0, [sp, #12]
 353 0010 0491     		str	r1, [sp, #16]
 354 0012 171C     		mov	r7, r2
 355 0014 9946     		mov	r9, r3
 356 0016 10AB     		add	r3, sp, #64
 357              	.LVL31:
 358 0018 1B88     		ldrh	r3, [r3]
 359              	.LVL32:
 360 001a 0293     		str	r3, [sp, #8]
  87:.\GFXmaster.c ****   int16_t f     = 1 - r;
 361              		.loc 1 87 0
 362 001c 92B2     		uxth	r2, r2
 363 001e 0124     		mov	r4, #1
 364 0020 A41A     		sub	r4, r4, r2
 365 0022 A4B2     		uxth	r4, r4
 366              	.LVL33:
ARM GAS  C:\Users\username\AppData\Local\Temp\ccSuCzK2.s 			page 9


  88:.\GFXmaster.c ****   int16_t ddF_x = 1;
  89:.\GFXmaster.c ****   int16_t ddF_y = -2 * r;
 367              		.loc 1 89 0
 368 0024 D303     		lsl	r3, r2, #15
 369 0026 9B1A     		sub	r3, r3, r2
 370 0028 5A00     		lsl	r2, r3, #1
 371              	.LVL34:
 372 002a 93B2     		uxth	r3, r2
 373 002c 9A46     		mov	r10, r3
 374              	.LVL35:
  90:.\GFXmaster.c ****   int16_t x     = 0;
 375              		.loc 1 90 0
 376 002e 0023     		mov	r3, #0
 377 0030 0193     		str	r3, [sp, #4]
  88:.\GFXmaster.c ****   int16_t ddF_x = 1;
 378              		.loc 1 88 0
 379 0032 0133     		add	r3, r3, #1
 380 0034 9846     		mov	r8, r3
 381 0036 4E46     		mov	r6, r9
  91:.\GFXmaster.c ****   int16_t y     = r;
  92:.\GFXmaster.c **** 
  93:.\GFXmaster.c ****   while (x<y) {
 382              		.loc 1 93 0
 383 0038 7CE0     		b	.L9
 384              	.LVL36:
 385              	.L15:
  94:.\GFXmaster.c ****     if (f >= 0) {
 386              		.loc 1 94 0
 387 003a 23B2     		sxth	r3, r4
 388 003c 002B     		cmp	r3, #0
 389 003e 08DB     		blt	.L10
  95:.\GFXmaster.c ****       y--;
 390              		.loc 1 95 0
 391 0040 013F     		sub	r7, r7, #1
 392              	.LVL37:
 393 0042 3FB2     		sxth	r7, r7
 394              	.LVL38:
  96:.\GFXmaster.c ****       ddF_y += 2;
 395              		.loc 1 96 0
 396 0044 5346     		mov	r3, r10
 397 0046 0233     		add	r3, r3, #2
 398 0048 9BB2     		uxth	r3, r3
 399 004a 9AB2     		uxth	r2, r3
 400 004c 9246     		mov	r10, r2
 401              	.LVL39:
  97:.\GFXmaster.c ****       f     += ddF_y;
 402              		.loc 1 97 0
 403 004e 1C19     		add	r4, r3, r4
 404              	.LVL40:
 405 0050 A4B2     		uxth	r4, r4
 406              	.LVL41:
 407              	.L10:
  98:.\GFXmaster.c ****     }
  99:.\GFXmaster.c ****     x++;
 408              		.loc 1 99 0
 409 0052 019D     		ldr	r5, [sp, #4]
 410 0054 0135     		add	r5, r5, #1
ARM GAS  C:\Users\username\AppData\Local\Temp\ccSuCzK2.s 			page 10


 411 0056 ADB2     		uxth	r5, r5
 412 0058 ABB2     		uxth	r3, r5
 413 005a 0193     		str	r3, [sp, #4]
 414              	.LVL42:
 100:.\GFXmaster.c ****     ddF_x += 2;
 415              		.loc 1 100 0
 416 005c 4346     		mov	r3, r8
 417 005e 0233     		add	r3, r3, #2
 418 0060 9BB2     		uxth	r3, r3
 419 0062 9AB2     		uxth	r2, r3
 420 0064 9046     		mov	r8, r2
 421              	.LVL43:
 101:.\GFXmaster.c ****     f     += ddF_x;
 422              		.loc 1 101 0
 423 0066 1C19     		add	r4, r3, r4
 424              	.LVL44:
 425 0068 A4B2     		uxth	r4, r4
 426              	.LVL45:
 102:.\GFXmaster.c ****     if (cornername & 0x4) {
 427              		.loc 1 102 0
 428 006a 7307     		lsl	r3, r6, #29
 429 006c 16D5     		bpl	.L11
 103:.\GFXmaster.c ****       drawPixel(x0 + x, y0 + y, color);
 430              		.loc 1 103 0
 431 006e 6B46     		mov	r3, sp
 432 0070 9889     		ldrh	r0, [r3, #12]
 433 0072 198A     		ldrh	r1, [r3, #16]
 434 0074 BBB2     		uxth	r3, r7
 435 0076 0590     		str	r0, [sp, #20]
 436 0078 2818     		add	r0, r5, r0
 437 007a 00B2     		sxth	r0, r0
 438 007c 8946     		mov	r9, r1
 439 007e 9B46     		mov	fp, r3
 440 0080 5944     		add	r1, r1, fp
 441 0082 09B2     		sxth	r1, r1
 442 0084 029A     		ldr	r2, [sp, #8]
 443 0086 FFF7FEFF 		bl	drawPixel
 444              	.LVL46:
 104:.\GFXmaster.c ****       drawPixel(x0 + y, y0 + x, color);
 445              		.loc 1 104 0
 446 008a 059B     		ldr	r3, [sp, #20]
 447 008c 5B44     		add	r3, r3, fp
 448 008e 18B2     		sxth	r0, r3
 449 0090 4B46     		mov	r3, r9
 450 0092 E918     		add	r1, r5, r3
 451 0094 09B2     		sxth	r1, r1
 452 0096 029A     		ldr	r2, [sp, #8]
 453 0098 FFF7FEFF 		bl	drawPixel
 454              	.LVL47:
 455              	.L11:
 105:.\GFXmaster.c ****     } 
 106:.\GFXmaster.c ****     if (cornername & 0x2) {
 456              		.loc 1 106 0
 457 009c B307     		lsl	r3, r6, #30
 458 009e 16D5     		bpl	.L12
 107:.\GFXmaster.c ****       drawPixel(x0 + x, y0 - y, color);
 459              		.loc 1 107 0
ARM GAS  C:\Users\username\AppData\Local\Temp\ccSuCzK2.s 			page 11


 460 00a0 6B46     		mov	r3, sp
 461 00a2 9889     		ldrh	r0, [r3, #12]
 462 00a4 198A     		ldrh	r1, [r3, #16]
 463 00a6 BBB2     		uxth	r3, r7
 464 00a8 0590     		str	r0, [sp, #20]
 465 00aa 2818     		add	r0, r5, r0
 466 00ac 00B2     		sxth	r0, r0
 467 00ae 8946     		mov	r9, r1
 468 00b0 9B46     		mov	fp, r3
 469 00b2 C91A     		sub	r1, r1, r3
 470 00b4 09B2     		sxth	r1, r1
 471 00b6 029A     		ldr	r2, [sp, #8]
 472 00b8 FFF7FEFF 		bl	drawPixel
 473              	.LVL48:
 108:.\GFXmaster.c ****       drawPixel(x0 + y, y0 - x, color);
 474              		.loc 1 108 0
 475 00bc 059B     		ldr	r3, [sp, #20]
 476 00be 5B44     		add	r3, r3, fp
 477 00c0 18B2     		sxth	r0, r3
 478 00c2 4B46     		mov	r3, r9
 479 00c4 591B     		sub	r1, r3, r5
 480 00c6 09B2     		sxth	r1, r1
 481 00c8 029A     		ldr	r2, [sp, #8]
 482 00ca FFF7FEFF 		bl	drawPixel
 483              	.LVL49:
 484              	.L12:
 109:.\GFXmaster.c ****     }
 110:.\GFXmaster.c ****     if (cornername & 0x8) {
 485              		.loc 1 110 0
 486 00ce 3307     		lsl	r3, r6, #28
 487 00d0 16D5     		bpl	.L13
 111:.\GFXmaster.c ****       drawPixel(x0 - y, y0 + x, color);
 488              		.loc 1 111 0
 489 00d2 6B46     		mov	r3, sp
 490 00d4 9889     		ldrh	r0, [r3, #12]
 491 00d6 B9B2     		uxth	r1, r7
 492 00d8 1B8A     		ldrh	r3, [r3, #16]
 493 00da 8346     		mov	fp, r0
 494 00dc 0591     		str	r1, [sp, #20]
 495 00de 401A     		sub	r0, r0, r1
 496 00e0 00B2     		sxth	r0, r0
 497 00e2 9946     		mov	r9, r3
 498 00e4 E918     		add	r1, r5, r3
 499 00e6 09B2     		sxth	r1, r1
 500 00e8 029A     		ldr	r2, [sp, #8]
 501 00ea FFF7FEFF 		bl	drawPixel
 502              	.LVL50:
 112:.\GFXmaster.c ****       drawPixel(x0 - x, y0 + y, color);
 503              		.loc 1 112 0
 504 00ee 5946     		mov	r1, fp
 505 00f0 481B     		sub	r0, r1, r5
 506 00f2 00B2     		sxth	r0, r0
 507 00f4 059B     		ldr	r3, [sp, #20]
 508 00f6 4B44     		add	r3, r3, r9
 509 00f8 19B2     		sxth	r1, r3
 510 00fa 029A     		ldr	r2, [sp, #8]
 511 00fc FFF7FEFF 		bl	drawPixel
ARM GAS  C:\Users\username\AppData\Local\Temp\ccSuCzK2.s 			page 12


 512              	.LVL51:
 513              	.L13:
 113:.\GFXmaster.c ****     }
 114:.\GFXmaster.c ****     if (cornername & 0x1) {
 514              		.loc 1 114 0
 515 0100 F307     		lsl	r3, r6, #31
 516 0102 17D5     		bpl	.L9
 115:.\GFXmaster.c ****       drawPixel(x0 - y, y0 - x, color);
 517              		.loc 1 115 0
 518 0104 6B46     		mov	r3, sp
 519 0106 9889     		ldrh	r0, [r3, #12]
 520 0108 B9B2     		uxth	r1, r7
 521 010a 1B8A     		ldrh	r3, [r3, #16]
 522 010c 8346     		mov	fp, r0
 523 010e 0591     		str	r1, [sp, #20]
 524 0110 401A     		sub	r0, r0, r1
 525 0112 00B2     		sxth	r0, r0
 526 0114 9946     		mov	r9, r3
 527 0116 591B     		sub	r1, r3, r5
 528 0118 09B2     		sxth	r1, r1
 529 011a 029A     		ldr	r2, [sp, #8]
 530 011c FFF7FEFF 		bl	drawPixel
 531              	.LVL52:
 116:.\GFXmaster.c ****       drawPixel(x0 - x, y0 - y, color);
 532              		.loc 1 116 0
 533 0120 5946     		mov	r1, fp
 534 0122 4D1B     		sub	r5, r1, r5
 535 0124 28B2     		sxth	r0, r5
 536 0126 4946     		mov	r1, r9
 537 0128 059B     		ldr	r3, [sp, #20]
 538 012a C91A     		sub	r1, r1, r3
 539 012c 09B2     		sxth	r1, r1
 540 012e 029A     		ldr	r2, [sp, #8]
 541 0130 FFF7FEFF 		bl	drawPixel
 542              	.LVL53:
 543              	.L9:
  93:.\GFXmaster.c ****     if (f >= 0) {
 544              		.loc 1 93 0
 545 0134 6B46     		mov	r3, sp
 546 0136 0422     		mov	r2, #4
 547 0138 9B5E     		ldrsh	r3, [r3, r2]
 548 013a BB42     		cmp	r3, r7
 549 013c 00DA     		bge	.LCB585
 550 013e 7CE7     		b	.L15	@long jump
 551              	.LCB585:
 117:.\GFXmaster.c ****     }
 118:.\GFXmaster.c ****   }
 119:.\GFXmaster.c **** }
 552              		.loc 1 119 0
 553 0140 07B0     		add	sp, sp, #28
 554              		@ sp needed
 555              	.LVL54:
 556              	.LVL55:
 557              	.LVL56:
 558              	.LVL57:
 559 0142 3CBC     		pop	{r2, r3, r4, r5}
 560 0144 9046     		mov	r8, r2
ARM GAS  C:\Users\username\AppData\Local\Temp\ccSuCzK2.s 			page 13


 561 0146 9946     		mov	r9, r3
 562 0148 A246     		mov	r10, r4
 563 014a AB46     		mov	fp, r5
 564 014c F0BD     		pop	{r4, r5, r6, r7, pc}
 565              		.cfi_endproc
 566              	.LFE37:
 567              		.size	drawCircleHelper, .-drawCircleHelper
 568 014e C046     		.section	.text.fillCircleHelper,"ax",%progbits
 569              		.align	2
 570              		.global	fillCircleHelper
 571              		.code	16
 572              		.thumb_func
 573              		.type	fillCircleHelper, %function
 574              	fillCircleHelper:
 575              	.LFB39:
 120:.\GFXmaster.c **** 
 121:.\GFXmaster.c **** 
 122:.\GFXmaster.c **** 
 123:.\GFXmaster.c **** void fillCircle(int16_t x0, int16_t y0, int16_t r, uint16_t color) {
 124:.\GFXmaster.c ****   drawFastVLine(x0, y0-r, 2*r+1, color);
 125:.\GFXmaster.c ****   fillCircleHelper(x0, y0, r, 3, 0, color);
 126:.\GFXmaster.c **** }
 127:.\GFXmaster.c **** 
 128:.\GFXmaster.c **** 
 129:.\GFXmaster.c **** void fillCircleHelper(int16_t x0, int16_t y0, int16_t r,
 130:.\GFXmaster.c ****     uint8_t cornername, int16_t delta, uint16_t color) {
 576              		.loc 1 130 0
 577              		.cfi_startproc
 578              	.LVL58:
 579 0000 F0B5     		push	{r4, r5, r6, r7, lr}
 580              		.cfi_def_cfa_offset 20
 581              		.cfi_offset 4, -20
 582              		.cfi_offset 5, -16
 583              		.cfi_offset 6, -12
 584              		.cfi_offset 7, -8
 585              		.cfi_offset 14, -4
 586 0002 5F46     		mov	r7, fp
 587 0004 5646     		mov	r6, r10
 588 0006 4D46     		mov	r5, r9
 589 0008 4446     		mov	r4, r8
 590 000a F0B4     		push	{r4, r5, r6, r7}
 591              		.cfi_def_cfa_offset 36
 592              		.cfi_offset 8, -36
 593              		.cfi_offset 9, -32
 594              		.cfi_offset 10, -28
 595              		.cfi_offset 11, -24
 596 000c 89B0     		sub	sp, sp, #36
 597              		.cfi_def_cfa_offset 72
 598 000e 0290     		str	r0, [sp, #8]
 599 0010 0391     		str	r1, [sp, #12]
 600 0012 9046     		mov	r8, r2
 601 0014 9946     		mov	r9, r3
 602 0016 12AB     		add	r3, sp, #72
 603              	.LVL59:
 604 0018 0022     		mov	r2, #0
 605 001a 9B5E     		ldrsh	r3, [r3, r2]
 606              	.LVL60:
ARM GAS  C:\Users\username\AppData\Local\Temp\ccSuCzK2.s 			page 14


 607 001c 0493     		str	r3, [sp, #16]
 608 001e 13AB     		add	r3, sp, #76
 609              	.LVL61:
 610 0020 1B88     		ldrh	r3, [r3]
 611              	.LVL62:
 612 0022 0193     		str	r3, [sp, #4]
 131:.\GFXmaster.c **** 
 132:.\GFXmaster.c ****   int16_t f     = 1 - r;
 613              		.loc 1 132 0
 614 0024 4346     		mov	r3, r8
 615 0026 6A46     		mov	r2, sp
 616 0028 9382     		strh	r3, [r2, #20]
 617 002a 928A     		ldrh	r2, [r2, #20]
 618 002c 0124     		mov	r4, #1
 619 002e A41A     		sub	r4, r4, r2
 620 0030 A4B2     		uxth	r4, r4
 621              	.LVL63:
 133:.\GFXmaster.c ****   int16_t ddF_x = 1;
 134:.\GFXmaster.c ****   int16_t ddF_y = -2 * r;
 622              		.loc 1 134 0
 623 0032 D303     		lsl	r3, r2, #15
 624 0034 9B1A     		sub	r3, r3, r2
 625 0036 5A00     		lsl	r2, r3, #1
 626 0038 93B2     		uxth	r3, r2
 627 003a 9B46     		mov	fp, r3
 628              	.LVL64:
 135:.\GFXmaster.c ****   int16_t x     = 0;
 629              		.loc 1 135 0
 630 003c 0027     		mov	r7, #0
 133:.\GFXmaster.c ****   int16_t ddF_x = 1;
 631              		.loc 1 133 0
 632 003e 0123     		mov	r3, #1
 633 0040 9A46     		mov	r10, r3
 634 0042 4646     		mov	r6, r8
 136:.\GFXmaster.c ****   int16_t y     = r;
 137:.\GFXmaster.c **** 
 138:.\GFXmaster.c ****   while (x<y) {
 635              		.loc 1 138 0
 636 0044 69E0     		b	.L17
 637              	.LVL65:
 638              	.L21:
 139:.\GFXmaster.c ****     if (f >= 0) {
 639              		.loc 1 139 0
 640 0046 23B2     		sxth	r3, r4
 641 0048 002B     		cmp	r3, #0
 642 004a 08DB     		blt	.L18
 140:.\GFXmaster.c ****       y--;
 643              		.loc 1 140 0
 644 004c 013E     		sub	r6, r6, #1
 645              	.LVL66:
 646 004e 36B2     		sxth	r6, r6
 647              	.LVL67:
 141:.\GFXmaster.c ****       ddF_y += 2;
 648              		.loc 1 141 0
 649 0050 5B46     		mov	r3, fp
 650 0052 0233     		add	r3, r3, #2
 651 0054 9BB2     		uxth	r3, r3
ARM GAS  C:\Users\username\AppData\Local\Temp\ccSuCzK2.s 			page 15


 652 0056 9AB2     		uxth	r2, r3
 653 0058 9346     		mov	fp, r2
 654              	.LVL68:
 142:.\GFXmaster.c ****       f     += ddF_y;
 655              		.loc 1 142 0
 656 005a 1C19     		add	r4, r3, r4
 657              	.LVL69:
 658 005c A4B2     		uxth	r4, r4
 659              	.LVL70:
 660              	.L18:
 143:.\GFXmaster.c ****     }
 144:.\GFXmaster.c ****     x++;
 661              		.loc 1 144 0
 662 005e 0137     		add	r7, r7, #1
 663              	.LVL71:
 664 0060 BDB2     		uxth	r5, r7
 665 0062 AFB2     		uxth	r7, r5
 666              	.LVL72:
 145:.\GFXmaster.c ****     ddF_x += 2;
 667              		.loc 1 145 0
 668 0064 5346     		mov	r3, r10
 669 0066 0233     		add	r3, r3, #2
 670 0068 9BB2     		uxth	r3, r3
 671 006a 9AB2     		uxth	r2, r3
 672 006c 9246     		mov	r10, r2
 673              	.LVL73:
 146:.\GFXmaster.c ****     f     += ddF_x;
 674              		.loc 1 146 0
 675 006e 1C19     		add	r4, r3, r4
 676              	.LVL74:
 677 0070 A4B2     		uxth	r4, r4
 678              	.LVL75:
 147:.\GFXmaster.c **** 
 148:.\GFXmaster.c ****     if (cornername & 0x1) {
 679              		.loc 1 148 0
 680 0072 4B46     		mov	r3, r9
 681 0074 DB07     		lsl	r3, r3, #31
 682 0076 26D5     		bpl	.L19
 149:.\GFXmaster.c ****       drawFastVLine(x0+x, y0-y, 2*y+1+delta, color);
 683              		.loc 1 149 0
 684 0078 6B46     		mov	r3, sp
 685 007a 1889     		ldrh	r0, [r3, #8]
 686 007c 9989     		ldrh	r1, [r3, #12]
 687 007e B2B2     		uxth	r2, r6
 688 0080 1B8A     		ldrh	r3, [r3, #16]
 689 0082 0590     		str	r0, [sp, #20]
 690 0084 2818     		add	r0, r5, r0
 691 0086 00B2     		sxth	r0, r0
 692 0088 9046     		mov	r8, r2
 693 008a 0691     		str	r1, [sp, #24]
 694 008c 0A1C     		mov	r2, r1
 695 008e 4146     		mov	r1, r8
 696 0090 511A     		sub	r1, r2, r1
 697 0092 09B2     		sxth	r1, r1
 698 0094 4246     		mov	r2, r8
 699 0096 5200     		lsl	r2, r2, #1
 700 0098 0793     		str	r3, [sp, #28]
ARM GAS  C:\Users\username\AppData\Local\Temp\ccSuCzK2.s 			page 16


 701 009a 9C46     		mov	ip, r3
 702 009c 6244     		add	r2, r2, ip
 703 009e 0132     		add	r2, r2, #1
 704 00a0 12B2     		sxth	r2, r2
 705 00a2 019B     		ldr	r3, [sp, #4]
 706 00a4 FFF7FEFF 		bl	drawFastVLine
 707              	.LVL76:
 150:.\GFXmaster.c ****       drawFastVLine(x0+y, y0-x, 2*x+1+delta, color);
 708              		.loc 1 150 0
 709 00a8 0598     		ldr	r0, [sp, #20]
 710 00aa 4044     		add	r0, r0, r8
 711 00ac 00B2     		sxth	r0, r0
 712 00ae 069A     		ldr	r2, [sp, #24]
 713 00b0 511B     		sub	r1, r2, r5
 714 00b2 09B2     		sxth	r1, r1
 715 00b4 6A00     		lsl	r2, r5, #1
 716 00b6 079B     		ldr	r3, [sp, #28]
 717 00b8 9C46     		mov	ip, r3
 718 00ba 6244     		add	r2, r2, ip
 719 00bc 0132     		add	r2, r2, #1
 720 00be 12B2     		sxth	r2, r2
 721 00c0 019B     		ldr	r3, [sp, #4]
 722 00c2 FFF7FEFF 		bl	drawFastVLine
 723              	.LVL77:
 724              	.L19:
 151:.\GFXmaster.c ****     }
 152:.\GFXmaster.c ****     if (cornername & 0x2) {
 725              		.loc 1 152 0
 726 00c6 4B46     		mov	r3, r9
 727 00c8 9B07     		lsl	r3, r3, #30
 728 00ca 26D5     		bpl	.L17
 153:.\GFXmaster.c ****       drawFastVLine(x0-x, y0-y, 2*y+1+delta, color);
 729              		.loc 1 153 0
 730 00cc 6B46     		mov	r3, sp
 731 00ce 1889     		ldrh	r0, [r3, #8]
 732 00d0 9989     		ldrh	r1, [r3, #12]
 733 00d2 B2B2     		uxth	r2, r6
 734 00d4 1B8A     		ldrh	r3, [r3, #16]
 735 00d6 0590     		str	r0, [sp, #20]
 736 00d8 401B     		sub	r0, r0, r5
 737 00da 00B2     		sxth	r0, r0
 738 00dc 9046     		mov	r8, r2
 739 00de 0691     		str	r1, [sp, #24]
 740 00e0 0A1C     		mov	r2, r1
 741 00e2 4146     		mov	r1, r8
 742 00e4 511A     		sub	r1, r2, r1
 743 00e6 09B2     		sxth	r1, r1
 744 00e8 4246     		mov	r2, r8
 745 00ea 5200     		lsl	r2, r2, #1
 746 00ec 0793     		str	r3, [sp, #28]
 747 00ee 9C46     		mov	ip, r3
 748 00f0 6244     		add	r2, r2, ip
 749 00f2 0132     		add	r2, r2, #1
 750 00f4 12B2     		sxth	r2, r2
 751 00f6 019B     		ldr	r3, [sp, #4]
 752 00f8 FFF7FEFF 		bl	drawFastVLine
 753              	.LVL78:
ARM GAS  C:\Users\username\AppData\Local\Temp\ccSuCzK2.s 			page 17


 154:.\GFXmaster.c ****       drawFastVLine(x0-y, y0-x, 2*x+1+delta, color);
 754              		.loc 1 154 0
 755 00fc 0598     		ldr	r0, [sp, #20]
 756 00fe 4146     		mov	r1, r8
 757 0100 401A     		sub	r0, r0, r1
 758 0102 00B2     		sxth	r0, r0
 759 0104 069A     		ldr	r2, [sp, #24]
 760 0106 511B     		sub	r1, r2, r5
 761 0108 09B2     		sxth	r1, r1
 762 010a 6D00     		lsl	r5, r5, #1
 763 010c 079A     		ldr	r2, [sp, #28]
 764 010e 5219     		add	r2, r2, r5
 765 0110 0132     		add	r2, r2, #1
 766 0112 12B2     		sxth	r2, r2
 767 0114 019B     		ldr	r3, [sp, #4]
 768 0116 FFF7FEFF 		bl	drawFastVLine
 769              	.LVL79:
 770              	.L17:
 138:.\GFXmaster.c ****     if (f >= 0) {
 771              		.loc 1 138 0
 772 011a 3BB2     		sxth	r3, r7
 773 011c B342     		cmp	r3, r6
 774 011e 92DB     		blt	.L21
 155:.\GFXmaster.c ****     }
 156:.\GFXmaster.c ****   }
 157:.\GFXmaster.c **** }
 775              		.loc 1 157 0
 776 0120 09B0     		add	sp, sp, #36
 777              		@ sp needed
 778              	.LVL80:
 779              	.LVL81:
 780              	.LVL82:
 781              	.LVL83:
 782              	.LVL84:
 783 0122 3CBC     		pop	{r2, r3, r4, r5}
 784 0124 9046     		mov	r8, r2
 785 0126 9946     		mov	r9, r3
 786 0128 A246     		mov	r10, r4
 787 012a AB46     		mov	fp, r5
 788 012c F0BD     		pop	{r4, r5, r6, r7, pc}
 789              		.cfi_endproc
 790              	.LFE39:
 791              		.size	fillCircleHelper, .-fillCircleHelper
 792 012e C046     		.section	.text.fillCircle,"ax",%progbits
 793              		.align	2
 794              		.global	fillCircle
 795              		.code	16
 796              		.thumb_func
 797              		.type	fillCircle, %function
 798              	fillCircle:
 799              	.LFB38:
 123:.\GFXmaster.c ****   drawFastVLine(x0, y0-r, 2*r+1, color);
 800              		.loc 1 123 0
 801              		.cfi_startproc
 802              	.LVL85:
 803 0000 F0B5     		push	{r4, r5, r6, r7, lr}
 804              		.cfi_def_cfa_offset 20
ARM GAS  C:\Users\username\AppData\Local\Temp\ccSuCzK2.s 			page 18


 805              		.cfi_offset 4, -20
 806              		.cfi_offset 5, -16
 807              		.cfi_offset 6, -12
 808              		.cfi_offset 7, -8
 809              		.cfi_offset 14, -4
 810 0002 83B0     		sub	sp, sp, #12
 811              		.cfi_def_cfa_offset 32
 812 0004 061C     		mov	r6, r0
 813 0006 0D1C     		mov	r5, r1
 814 0008 141C     		mov	r4, r2
 815 000a 1F1C     		mov	r7, r3
 124:.\GFXmaster.c ****   fillCircleHelper(x0, y0, r, 3, 0, color);
 816              		.loc 1 124 0
 817 000c 92B2     		uxth	r2, r2
 818 000e 891A     		sub	r1, r1, r2
 819              	.LVL86:
 820 0010 09B2     		sxth	r1, r1
 821 0012 5200     		lsl	r2, r2, #1
 822              	.LVL87:
 823 0014 0132     		add	r2, r2, #1
 824 0016 12B2     		sxth	r2, r2
 825 0018 FFF7FEFF 		bl	drawFastVLine
 826              	.LVL88:
 125:.\GFXmaster.c **** }
 827              		.loc 1 125 0
 828 001c 0023     		mov	r3, #0
 829 001e 0093     		str	r3, [sp]
 830 0020 0197     		str	r7, [sp, #4]
 831 0022 301C     		mov	r0, r6
 832 0024 291C     		mov	r1, r5
 833 0026 221C     		mov	r2, r4
 834 0028 0333     		add	r3, r3, #3
 835 002a FFF7FEFF 		bl	fillCircleHelper
 836              	.LVL89:
 126:.\GFXmaster.c **** 
 837              		.loc 1 126 0
 838 002e 03B0     		add	sp, sp, #12
 839              		@ sp needed
 840 0030 F0BD     		pop	{r4, r5, r6, r7, pc}
 841              		.cfi_endproc
 842              	.LFE38:
 843              		.size	fillCircle, .-fillCircle
 844 0032 C046     		.section	.text.drawLine,"ax",%progbits
 845              		.align	2
 846              		.global	drawLine
 847              		.code	16
 848              		.thumb_func
 849              		.type	drawLine, %function
 850              	drawLine:
 851              	.LFB40:
 158:.\GFXmaster.c **** 
 159:.\GFXmaster.c **** 
 160:.\GFXmaster.c **** // Bresenham's algorithm - thx wikpedia
 161:.\GFXmaster.c **** void drawLine(int16_t x0, int16_t y0, int16_t x1, int16_t y1, uint16_t color) {
 852              		.loc 1 161 0
 853              		.cfi_startproc
 854              	.LVL90:
ARM GAS  C:\Users\username\AppData\Local\Temp\ccSuCzK2.s 			page 19


 855 0000 F0B5     		push	{r4, r5, r6, r7, lr}
 856              		.cfi_def_cfa_offset 20
 857              		.cfi_offset 4, -20
 858              		.cfi_offset 5, -16
 859              		.cfi_offset 6, -12
 860              		.cfi_offset 7, -8
 861              		.cfi_offset 14, -4
 862 0002 5F46     		mov	r7, fp
 863 0004 5646     		mov	r6, r10
 864 0006 4D46     		mov	r5, r9
 865 0008 4446     		mov	r4, r8
 866 000a F0B4     		push	{r4, r5, r6, r7}
 867              		.cfi_def_cfa_offset 36
 868              		.cfi_offset 8, -36
 869              		.cfi_offset 9, -32
 870              		.cfi_offset 10, -28
 871              		.cfi_offset 11, -24
 872 000c 83B0     		sub	sp, sp, #12
 873              		.cfi_def_cfa_offset 48
 874 000e 041C     		mov	r4, r0
 875 0010 0E1C     		mov	r6, r1
 876 0012 171C     		mov	r7, r2
 877 0014 0CAA     		add	r2, sp, #48
 878              	.LVL91:
 879 0016 1288     		ldrh	r2, [r2]
 880              	.LVL92:
 881 0018 0192     		str	r2, [sp, #4]
 162:.\GFXmaster.c ****     
 163:.\GFXmaster.c ****   int16_t steep = abs(y1 - y0) > abs(x1 - x0);
 882              		.loc 1 163 0
 883 001a 581A     		sub	r0, r3, r1
 884              	.LVL93:
 885 001c C217     		asr	r2, r0, #31
 886 001e 8018     		add	r0, r0, r2
 887 0020 5040     		eor	r0, r2
 888 0022 391B     		sub	r1, r7, r4
 889              	.LVL94:
 890 0024 CA17     		asr	r2, r1, #31
 891 0026 8918     		add	r1, r1, r2
 892 0028 5140     		eor	r1, r2
 893 002a 0122     		mov	r2, #1
 894 002c 8842     		cmp	r0, r1
 895 002e 00DC     		bgt	.L24
 896 0030 0022     		mov	r2, #0
 897              	.L24:
 898 0032 D2B2     		uxtb	r2, r2
 899 0034 92B2     		uxth	r2, r2
 900 0036 9046     		mov	r8, r2
 901              	.LVL95:
 164:.\GFXmaster.c **** 
 165:.\GFXmaster.c ****   if (steep) {
 902              		.loc 1 165 0
 903 0038 002A     		cmp	r2, #0
 904 003a 05D0     		beq	.L25
 905 003c 3A1C     		mov	r2, r7
 906              	.LVL96:
 907              	.LBB2:
ARM GAS  C:\Users\username\AppData\Local\Temp\ccSuCzK2.s 			page 20


 166:.\GFXmaster.c ****     swap(x0, y0);
 167:.\GFXmaster.c ****     swap(x1, y1);
 908              		.loc 1 167 0
 909 003e 1F1C     		mov	r7, r3
 910 0040 131C     		mov	r3, r2
 911              	.LVL97:
 912              	.LBE2:
 913 0042 221C     		mov	r2, r4
 914              	.LBB3:
 166:.\GFXmaster.c ****     swap(x0, y0);
 915              		.loc 1 166 0
 916 0044 341C     		mov	r4, r6
 917 0046 161C     		mov	r6, r2
 918              	.L25:
 919              	.LVL98:
 920              	.LBE3:
 168:.\GFXmaster.c ****   }
 169:.\GFXmaster.c **** 
 170:.\GFXmaster.c ****   if (x0 > x1) {
 921              		.loc 1 170 0
 922 0048 BC42     		cmp	r4, r7
 923 004a 05DD     		ble	.L26
 924 004c 321C     		mov	r2, r6
 925              	.LBB4:
 171:.\GFXmaster.c ****     swap(x0, x1);
 172:.\GFXmaster.c ****     swap(y0, y1);
 926              		.loc 1 172 0
 927 004e 1E1C     		mov	r6, r3
 928              	.LVL99:
 929 0050 131C     		mov	r3, r2
 930              	.LVL100:
 931              	.LBE4:
 932 0052 221C     		mov	r2, r4
 933              	.LBB5:
 171:.\GFXmaster.c ****     swap(x0, x1);
 934              		.loc 1 171 0
 935 0054 3C1C     		mov	r4, r7
 936              	.LVL101:
 937 0056 171C     		mov	r7, r2
 938              	.LVL102:
 939              	.L26:
 940              	.LBE5:
 173:.\GFXmaster.c ****   }
 174:.\GFXmaster.c **** 
 175:.\GFXmaster.c ****   int16_t dx, dy;
 176:.\GFXmaster.c ****   dx = x1 - x0;
 941              		.loc 1 176 0
 942 0058 3A1B     		sub	r2, r7, r4
 943 005a 92B2     		uxth	r2, r2
 944 005c 9246     		mov	r10, r2
 945              	.LVL103:
 177:.\GFXmaster.c ****   dy = abs(y1 - y0);
 946              		.loc 1 177 0
 947 005e 9A1B     		sub	r2, r3, r6
 948 0060 D117     		asr	r1, r2, #31
 949 0062 5218     		add	r2, r2, r1
 950 0064 4A40     		eor	r2, r1
ARM GAS  C:\Users\username\AppData\Local\Temp\ccSuCzK2.s 			page 21


 951 0066 9146     		mov	r9, r2
 952              	.LVL104:
 178:.\GFXmaster.c **** 
 179:.\GFXmaster.c ****   int16_t err = dx / 2;
 953              		.loc 1 179 0
 954 0068 5246     		mov	r2, r10
 955 006a 12B2     		sxth	r2, r2
 956 006c D50F     		lsr	r5, r2, #31
 957 006e AA18     		add	r2, r5, r2
 958 0070 5210     		asr	r2, r2, #1
 959 0072 95B2     		uxth	r5, r2
 960              	.LVL105:
 180:.\GFXmaster.c ****   int16_t ystep;
 181:.\GFXmaster.c **** 
 182:.\GFXmaster.c ****   if (y0 < y1) {
 961              		.loc 1 182 0
 962 0074 9E42     		cmp	r6, r3
 963 0076 02DA     		bge	.L35
 183:.\GFXmaster.c ****     ystep = 1;
 964              		.loc 1 183 0
 965 0078 0123     		mov	r3, #1
 966              	.LVL106:
 967 007a 9B46     		mov	fp, r3
 968 007c 1DE0     		b	.L28
 969              	.LVL107:
 970              	.L35:
 184:.\GFXmaster.c ****   } else {
 185:.\GFXmaster.c ****     ystep = -1;
 971              		.loc 1 185 0
 972 007e 134B     		ldr	r3, .L36
 973              	.LVL108:
 974 0080 9B46     		mov	fp, r3
 975 0082 1AE0     		b	.L28
 976              	.LVL109:
 977              	.L32:
 186:.\GFXmaster.c ****   }
 187:.\GFXmaster.c **** 
 188:.\GFXmaster.c ****   for (; x0<=x1; x0++) {
 189:.\GFXmaster.c ****     if (steep) {
 978              		.loc 1 189 0
 979 0084 4346     		mov	r3, r8
 980 0086 002B     		cmp	r3, #0
 981 0088 05D0     		beq	.L29
 982              	.LVL110:
 190:.\GFXmaster.c ****       drawPixel(y0, x0, color);
 983              		.loc 1 190 0
 984 008a 301C     		mov	r0, r6
 985 008c 211C     		mov	r1, r4
 986 008e 019A     		ldr	r2, [sp, #4]
 987 0090 FFF7FEFF 		bl	drawPixel
 988              	.LVL111:
 989 0094 04E0     		b	.L30
 990              	.LVL112:
 991              	.L29:
 191:.\GFXmaster.c ****     } else {
 192:.\GFXmaster.c ****       drawPixel(x0, y0, color);
 992              		.loc 1 192 0
ARM GAS  C:\Users\username\AppData\Local\Temp\ccSuCzK2.s 			page 22


 993 0096 201C     		mov	r0, r4
 994 0098 311C     		mov	r1, r6
 995 009a 019A     		ldr	r2, [sp, #4]
 996 009c FFF7FEFF 		bl	drawPixel
 997              	.LVL113:
 998              	.L30:
 193:.\GFXmaster.c ****     }
 194:.\GFXmaster.c ****     err -= dy;
 999              		.loc 1 194 0
 1000 00a0 4B46     		mov	r3, r9
 1001 00a2 ED1A     		sub	r5, r5, r3
 1002              	.LVL114:
 1003 00a4 ABB2     		uxth	r3, r5
 1004 00a6 9DB2     		uxth	r5, r3
 1005              	.LVL115:
 195:.\GFXmaster.c ****     if (err < 0) {
 1006              		.loc 1 195 0
 1007 00a8 2AB2     		sxth	r2, r5
 1008 00aa 002A     		cmp	r2, #0
 1009 00ac 03DA     		bge	.L31
 196:.\GFXmaster.c ****       y0 += ystep;
 1010              		.loc 1 196 0
 1011 00ae 5E44     		add	r6, r6, fp
 1012              	.LVL116:
 1013 00b0 36B2     		sxth	r6, r6
 1014              	.LVL117:
 197:.\GFXmaster.c ****       err += dx;
 1015              		.loc 1 197 0
 1016 00b2 5344     		add	r3, r3, r10
 1017 00b4 9DB2     		uxth	r5, r3
 1018              	.LVL118:
 1019              	.L31:
 188:.\GFXmaster.c ****     if (steep) {
 1020              		.loc 1 188 0
 1021 00b6 0134     		add	r4, r4, #1
 1022              	.LVL119:
 1023 00b8 24B2     		sxth	r4, r4
 1024              	.LVL120:
 1025              	.L28:
 188:.\GFXmaster.c ****     if (steep) {
 1026              		.loc 1 188 0 is_stmt 0 discriminator 1
 1027 00ba BC42     		cmp	r4, r7
 1028 00bc E2DD     		ble	.L32
 198:.\GFXmaster.c ****     }
 199:.\GFXmaster.c ****   }
 200:.\GFXmaster.c **** }
 1029              		.loc 1 200 0 is_stmt 1
 1030 00be 03B0     		add	sp, sp, #12
 1031              		@ sp needed
 1032              	.LVL121:
 1033              	.LVL122:
 1034              	.LVL123:
 1035              	.LVL124:
 1036              	.LVL125:
 1037              	.LVL126:
 1038              	.LVL127:
 1039              	.LVL128:
ARM GAS  C:\Users\username\AppData\Local\Temp\ccSuCzK2.s 			page 23


 1040 00c0 3CBC     		pop	{r2, r3, r4, r5}
 1041 00c2 9046     		mov	r8, r2
 1042 00c4 9946     		mov	r9, r3
 1043 00c6 A246     		mov	r10, r4
 1044 00c8 AB46     		mov	fp, r5
 1045 00ca F0BD     		pop	{r4, r5, r6, r7, pc}
 1046              	.L37:
 1047              		.align	2
 1048              	.L36:
 1049 00cc FFFF0000 		.word	65535
 1050              		.cfi_endproc
 1051              	.LFE40:
 1052              		.size	drawLine, .-drawLine
 1053              		.section	.text.drawRect,"ax",%progbits
 1054              		.align	2
 1055              		.global	drawRect
 1056              		.code	16
 1057              		.thumb_func
 1058              		.type	drawRect, %function
 1059              	drawRect:
 1060              	.LFB41:
 201:.\GFXmaster.c **** 
 202:.\GFXmaster.c **** 
 203:.\GFXmaster.c **** // Draw a rectangle
 204:.\GFXmaster.c **** void drawRect(int16_t x, int16_t y,
 205:.\GFXmaster.c **** 			    int16_t w, int16_t h,
 206:.\GFXmaster.c **** 			    uint16_t color) {
 1061              		.loc 1 206 0
 1062              		.cfi_startproc
 1063              	.LVL129:
 1064 0000 F0B5     		push	{r4, r5, r6, r7, lr}
 1065              		.cfi_def_cfa_offset 20
 1066              		.cfi_offset 4, -20
 1067              		.cfi_offset 5, -16
 1068              		.cfi_offset 6, -12
 1069              		.cfi_offset 7, -8
 1070              		.cfi_offset 14, -4
 1071 0002 83B0     		sub	sp, sp, #12
 1072              		.cfi_def_cfa_offset 32
 1073 0004 071C     		mov	r7, r0
 1074 0006 0E1C     		mov	r6, r1
 1075 0008 141C     		mov	r4, r2
 1076 000a 0193     		str	r3, [sp, #4]
 1077 000c 08AB     		add	r3, sp, #32
 1078              	.LVL130:
 1079 000e 1D88     		ldrh	r5, [r3]
 207:.\GFXmaster.c ****   drawFastHLine(x, y, w, color);
 1080              		.loc 1 207 0
 1081 0010 2B1C     		mov	r3, r5
 1082              	.LVL131:
 1083 0012 FFF7FEFF 		bl	drawFastHLine
 1084              	.LVL132:
 208:.\GFXmaster.c ****   drawFastHLine(x, y+h-1, w, color);
 1085              		.loc 1 208 0
 1086 0016 019B     		ldr	r3, [sp, #4]
 1087 0018 F118     		add	r1, r6, r3
 1088 001a 0139     		sub	r1, r1, #1
ARM GAS  C:\Users\username\AppData\Local\Temp\ccSuCzK2.s 			page 24


 1089 001c 09B2     		sxth	r1, r1
 1090 001e 381C     		mov	r0, r7
 1091 0020 221C     		mov	r2, r4
 1092 0022 2B1C     		mov	r3, r5
 1093 0024 FFF7FEFF 		bl	drawFastHLine
 1094              	.LVL133:
 209:.\GFXmaster.c ****   drawFastVLine(x, y, h, color);
 1095              		.loc 1 209 0
 1096 0028 381C     		mov	r0, r7
 1097 002a 311C     		mov	r1, r6
 1098 002c 019A     		ldr	r2, [sp, #4]
 1099 002e 2B1C     		mov	r3, r5
 1100 0030 FFF7FEFF 		bl	drawFastVLine
 1101              	.LVL134:
 210:.\GFXmaster.c ****   drawFastVLine(x+w-1, y, h, color);
 1102              		.loc 1 210 0
 1103 0034 3819     		add	r0, r7, r4
 1104 0036 0138     		sub	r0, r0, #1
 1105 0038 00B2     		sxth	r0, r0
 1106 003a 311C     		mov	r1, r6
 1107 003c 019A     		ldr	r2, [sp, #4]
 1108 003e 2B1C     		mov	r3, r5
 1109 0040 FFF7FEFF 		bl	drawFastVLine
 1110              	.LVL135:
 211:.\GFXmaster.c **** }
 1111              		.loc 1 211 0
 1112 0044 03B0     		add	sp, sp, #12
 1113              		@ sp needed
 1114 0046 F0BD     		pop	{r4, r5, r6, r7, pc}
 1115              		.cfi_endproc
 1116              	.LFE41:
 1117              		.size	drawRect, .-drawRect
 1118              		.section	.text.fillRect,"ax",%progbits
 1119              		.align	2
 1120              		.global	fillRect
 1121              		.code	16
 1122              		.thumb_func
 1123              		.type	fillRect, %function
 1124              	fillRect:
 1125              	.LFB42:
 212:.\GFXmaster.c **** 
 213:.\GFXmaster.c **** /*
 214:.\GFXmaster.c **** void drawFastVLine(int16_t x, int16_t y,            // currently overridden in yourDisplay.h
 215:.\GFXmaster.c **** 				 int16_t h, uint16_t color) {
 216:.\GFXmaster.c ****   // Update in subclasses if desired!
 217:.\GFXmaster.c ****   drawLine(x, y, x, y+h-1, color);
 218:.\GFXmaster.c **** }
 219:.\GFXmaster.c **** */
 220:.\GFXmaster.c ****                 
 221:.\GFXmaster.c **** /*
 222:.\GFXmaster.c **** void drawFastHLine(int16_t x, int16_t y,           // currently overridden in yourDisplay.h
 223:.\GFXmaster.c **** 				 int16_t w, uint16_t color) {
 224:.\GFXmaster.c ****   // Update in subclasses if desired!
 225:.\GFXmaster.c ****   drawLine(x, y, x+w-1, y, color);
 226:.\GFXmaster.c **** }
 227:.\GFXmaster.c **** */                
 228:.\GFXmaster.c ****   
ARM GAS  C:\Users\username\AppData\Local\Temp\ccSuCzK2.s 			page 25


 229:.\GFXmaster.c **** 
 230:.\GFXmaster.c **** void fillRect(int16_t x, int16_t y, int16_t w, int16_t h, uint16_t color) {
 1126              		.loc 1 230 0
 1127              		.cfi_startproc
 1128              	.LVL136:
 1129 0000 F0B5     		push	{r4, r5, r6, r7, lr}
 1130              		.cfi_def_cfa_offset 20
 1131              		.cfi_offset 4, -20
 1132              		.cfi_offset 5, -16
 1133              		.cfi_offset 6, -12
 1134              		.cfi_offset 7, -8
 1135              		.cfi_offset 14, -4
 1136 0002 83B0     		sub	sp, sp, #12
 1137              		.cfi_def_cfa_offset 32
 1138 0004 061C     		mov	r6, r0
 1139 0006 0091     		str	r1, [sp]
 1140 0008 171C     		mov	r7, r2
 1141 000a 0193     		str	r3, [sp, #4]
 1142 000c 08AB     		add	r3, sp, #32
 1143              	.LVL137:
 1144 000e 1D88     		ldrh	r5, [r3]
 1145              	.LVL138:
 231:.\GFXmaster.c ****   // Update in subclasses if desired!
 232:.\GFXmaster.c ****   int16_t i = x;
 233:.\GFXmaster.c ****   for (i=x; i<x+w; i++) {
 1146              		.loc 1 233 0
 1147 0010 041C     		mov	r4, r0
 1148 0012 07E0     		b	.L40
 1149              	.LVL139:
 1150              	.L41:
 234:.\GFXmaster.c ****     drawFastVLine(i, y, h, color);
 1151              		.loc 1 234 0 discriminator 3
 1152 0014 201C     		mov	r0, r4
 1153 0016 0099     		ldr	r1, [sp]
 1154 0018 019A     		ldr	r2, [sp, #4]
 1155 001a 2B1C     		mov	r3, r5
 1156 001c FFF7FEFF 		bl	drawFastVLine
 1157              	.LVL140:
 233:.\GFXmaster.c ****     drawFastVLine(i, y, h, color);
 1158              		.loc 1 233 0 discriminator 3
 1159 0020 0134     		add	r4, r4, #1
 1160              	.LVL141:
 1161 0022 24B2     		sxth	r4, r4
 1162              	.LVL142:
 1163              	.L40:
 233:.\GFXmaster.c ****     drawFastVLine(i, y, h, color);
 1164              		.loc 1 233 0 is_stmt 0 discriminator 1
 1165 0024 F319     		add	r3, r6, r7
 1166 0026 9C42     		cmp	r4, r3
 1167 0028 F4DB     		blt	.L41
 235:.\GFXmaster.c ****   }
 236:.\GFXmaster.c **** }
 1168              		.loc 1 236 0 is_stmt 1
 1169 002a 03B0     		add	sp, sp, #12
 1170              		@ sp needed
 1171              	.LVL143:
 1172 002c F0BD     		pop	{r4, r5, r6, r7, pc}
ARM GAS  C:\Users\username\AppData\Local\Temp\ccSuCzK2.s 			page 26


 1173              		.cfi_endproc
 1174              	.LFE42:
 1175              		.size	fillRect, .-fillRect
 1176 002e C046     		.section	.text.fillScreen,"ax",%progbits
 1177              		.align	2
 1178              		.global	fillScreen
 1179              		.code	16
 1180              		.thumb_func
 1181              		.type	fillScreen, %function
 1182              	fillScreen:
 1183              	.LFB43:
 237:.\GFXmaster.c **** 
 238:.\GFXmaster.c **** void fillScreen(uint16_t color) {
 1184              		.loc 1 238 0
 1185              		.cfi_startproc
 1186              	.LVL144:
 1187 0000 00B5     		push	{lr}
 1188              		.cfi_def_cfa_offset 4
 1189              		.cfi_offset 14, -4
 1190 0002 83B0     		sub	sp, sp, #12
 1191              		.cfi_def_cfa_offset 16
 239:.\GFXmaster.c ****   fillRect(0, 0, _width, _height, color);
 1192              		.loc 1 239 0
 1193 0004 064B     		ldr	r3, .L43
 1194 0006 0022     		mov	r2, #0
 1195 0008 9A5E     		ldrsh	r2, [r3, r2]
 1196 000a 064B     		ldr	r3, .L43+4
 1197 000c 0021     		mov	r1, #0
 1198 000e 5B5E     		ldrsh	r3, [r3, r1]
 1199 0010 0090     		str	r0, [sp]
 1200 0012 0020     		mov	r0, #0
 1201              	.LVL145:
 1202 0014 0021     		mov	r1, #0
 1203 0016 FFF7FEFF 		bl	fillRect
 1204              	.LVL146:
 240:.\GFXmaster.c **** }                
 1205              		.loc 1 240 0
 1206 001a 03B0     		add	sp, sp, #12
 1207              		@ sp needed
 1208 001c 00BD     		pop	{pc}
 1209              	.L44:
 1210 001e C046     		.align	2
 1211              	.L43:
 1212 0020 00000000 		.word	_width
 1213 0024 00000000 		.word	_height
 1214              		.cfi_endproc
 1215              	.LFE43:
 1216              		.size	fillScreen, .-fillScreen
 1217              		.section	.text.drawRoundRect,"ax",%progbits
 1218              		.align	2
 1219              		.global	drawRoundRect
 1220              		.code	16
 1221              		.thumb_func
 1222              		.type	drawRoundRect, %function
 1223              	drawRoundRect:
 1224              	.LFB44:
 241:.\GFXmaster.c ****                 
ARM GAS  C:\Users\username\AppData\Local\Temp\ccSuCzK2.s 			page 27


 242:.\GFXmaster.c ****   
 243:.\GFXmaster.c **** 
 244:.\GFXmaster.c **** // Draw a rounded rectangle
 245:.\GFXmaster.c **** void drawRoundRect(int16_t x, int16_t y, int16_t w, int16_t h, int16_t r, uint16_t color) {
 1225              		.loc 1 245 0
 1226              		.cfi_startproc
 1227              	.LVL147:
 1228 0000 F0B5     		push	{r4, r5, r6, r7, lr}
 1229              		.cfi_def_cfa_offset 20
 1230              		.cfi_offset 4, -20
 1231              		.cfi_offset 5, -16
 1232              		.cfi_offset 6, -12
 1233              		.cfi_offset 7, -8
 1234              		.cfi_offset 14, -4
 1235 0002 5F46     		mov	r7, fp
 1236 0004 5646     		mov	r6, r10
 1237 0006 4D46     		mov	r5, r9
 1238 0008 4446     		mov	r4, r8
 1239 000a F0B4     		push	{r4, r5, r6, r7}
 1240              		.cfi_def_cfa_offset 36
 1241              		.cfi_offset 8, -36
 1242              		.cfi_offset 9, -32
 1243              		.cfi_offset 10, -28
 1244              		.cfi_offset 11, -24
 1245 000c 87B0     		sub	sp, sp, #28
 1246              		.cfi_def_cfa_offset 64
 1247 000e 0D1C     		mov	r5, r1
 1248 0010 1F1C     		mov	r7, r3
 1249 0012 10AB     		add	r3, sp, #64
 1250              	.LVL148:
 1251 0014 0021     		mov	r1, #0
 1252 0016 5B5E     		ldrsh	r3, [r3, r1]
 1253              	.LVL149:
 1254 0018 191C     		mov	r1, r3
 1255 001a 11AB     		add	r3, sp, #68
 1256              	.LVL150:
 1257 001c 1B88     		ldrh	r3, [r3]
 1258              	.LVL151:
 1259 001e 9846     		mov	r8, r3
 246:.\GFXmaster.c ****   // smarter version
 247:.\GFXmaster.c ****   drawFastHLine(x+r  , y    , w-2*r, color); // Top
 1260              		.loc 1 247 0
 1261 0020 0390     		str	r0, [sp, #12]
 1262 0022 6B46     		mov	r3, sp
 1263 0024 9B89     		ldrh	r3, [r3, #12]
 1264 0026 9A46     		mov	r10, r3
 1265 0028 0491     		str	r1, [sp, #16]
 1266 002a 6B46     		mov	r3, sp
 1267 002c 1B8A     		ldrh	r3, [r3, #16]
 1268 002e 9946     		mov	r9, r3
 1269 0030 5346     		mov	r3, r10
 1270 0032 4B44     		add	r3, r3, r9
 1271 0034 181C     		mov	r0, r3
 1272              	.LVL152:
 1273 0036 4B46     		mov	r3, r9
 1274 0038 DB03     		lsl	r3, r3, #15
 1275 003a 4C46     		mov	r4, r9
ARM GAS  C:\Users\username\AppData\Local\Temp\ccSuCzK2.s 			page 28


 1276 003c 1B1B     		sub	r3, r3, r4
 1277 003e 5900     		lsl	r1, r3, #1
 1278 0040 8BB2     		uxth	r3, r1
 1279 0042 9B46     		mov	fp, r3
 1280 0044 94B2     		uxth	r4, r2
 1281 0046 1B19     		add	r3, r3, r4
 1282 0048 02B2     		sxth	r2, r0
 1283              	.LVL153:
 1284 004a 1BB2     		sxth	r3, r3
 1285 004c 0292     		str	r2, [sp, #8]
 1286 004e 101C     		mov	r0, r2
 1287 0050 291C     		mov	r1, r5
 1288 0052 0593     		str	r3, [sp, #20]
 1289 0054 1A1C     		mov	r2, r3
 1290 0056 4346     		mov	r3, r8
 1291 0058 FFF7FEFF 		bl	drawFastHLine
 1292              	.LVL154:
 248:.\GFXmaster.c ****   drawFastHLine(x+r  , y+h-1, w-2*r, color); // Bottom
 1293              		.loc 1 248 0
 1294 005c ADB2     		uxth	r5, r5
 1295 005e BFB2     		uxth	r7, r7
 1296 0060 EE19     		add	r6, r5, r7
 1297 0062 B6B2     		uxth	r6, r6
 1298 0064 711E     		sub	r1, r6, #1
 1299 0066 09B2     		sxth	r1, r1
 1300 0068 0298     		ldr	r0, [sp, #8]
 1301 006a 059A     		ldr	r2, [sp, #20]
 1302 006c 4346     		mov	r3, r8
 1303 006e FFF7FEFF 		bl	drawFastHLine
 1304              	.LVL155:
 249:.\GFXmaster.c ****   drawFastVLine(x    , y+r  , h-2*r, color); // Left
 1305              		.loc 1 249 0
 1306 0072 4D44     		add	r5, r5, r9
 1307 0074 5F44     		add	r7, r7, fp
 1308 0076 2DB2     		sxth	r5, r5
 1309 0078 3FB2     		sxth	r7, r7
 1310 007a 0398     		ldr	r0, [sp, #12]
 1311 007c 291C     		mov	r1, r5
 1312 007e 3A1C     		mov	r2, r7
 1313 0080 4346     		mov	r3, r8
 1314 0082 FFF7FEFF 		bl	drawFastVLine
 1315              	.LVL156:
 250:.\GFXmaster.c ****   drawFastVLine(x+w-1, y+r  , h-2*r, color); // Right
 1316              		.loc 1 250 0
 1317 0086 5444     		add	r4, r4, r10
 1318              	.LVL157:
 1319 0088 A4B2     		uxth	r4, r4
 1320 008a 601E     		sub	r0, r4, #1
 1321 008c 00B2     		sxth	r0, r0
 1322 008e 291C     		mov	r1, r5
 1323 0090 3A1C     		mov	r2, r7
 1324 0092 4346     		mov	r3, r8
 1325 0094 FFF7FEFF 		bl	drawFastVLine
 1326              	.LVL158:
 251:.\GFXmaster.c ****   // draw four corners
 252:.\GFXmaster.c ****   drawCircleHelper(x+r    , y+r    , r, 1, color);
 1327              		.loc 1 252 0
ARM GAS  C:\Users\username\AppData\Local\Temp\ccSuCzK2.s 			page 29


 1328 0098 4346     		mov	r3, r8
 1329 009a 0093     		str	r3, [sp]
 1330 009c 0298     		ldr	r0, [sp, #8]
 1331 009e 291C     		mov	r1, r5
 1332 00a0 049F     		ldr	r7, [sp, #16]
 1333 00a2 3A1C     		mov	r2, r7
 1334 00a4 0123     		mov	r3, #1
 1335 00a6 FFF7FEFF 		bl	drawCircleHelper
 1336              	.LVL159:
 253:.\GFXmaster.c ****   drawCircleHelper(x+w-r-1, y+r    , r, 2, color);
 1337              		.loc 1 253 0
 1338 00aa 4B46     		mov	r3, r9
 1339 00ac E41A     		sub	r4, r4, r3
 1340 00ae 013C     		sub	r4, r4, #1
 1341 00b0 24B2     		sxth	r4, r4
 1342 00b2 4346     		mov	r3, r8
 1343 00b4 0093     		str	r3, [sp]
 1344 00b6 201C     		mov	r0, r4
 1345 00b8 291C     		mov	r1, r5
 1346 00ba 3A1C     		mov	r2, r7
 1347 00bc 0223     		mov	r3, #2
 1348 00be FFF7FEFF 		bl	drawCircleHelper
 1349              	.LVL160:
 254:.\GFXmaster.c ****   drawCircleHelper(x+w-r-1, y+h-r-1, r, 4, color);
 1350              		.loc 1 254 0
 1351 00c2 4B46     		mov	r3, r9
 1352 00c4 F61A     		sub	r6, r6, r3
 1353 00c6 013E     		sub	r6, r6, #1
 1354 00c8 36B2     		sxth	r6, r6
 1355 00ca 4346     		mov	r3, r8
 1356 00cc 0093     		str	r3, [sp]
 1357 00ce 201C     		mov	r0, r4
 1358 00d0 311C     		mov	r1, r6
 1359 00d2 3A1C     		mov	r2, r7
 1360 00d4 0423     		mov	r3, #4
 1361 00d6 FFF7FEFF 		bl	drawCircleHelper
 1362              	.LVL161:
 255:.\GFXmaster.c ****   drawCircleHelper(x+r    , y+h-r-1, r, 8, color);
 1363              		.loc 1 255 0
 1364 00da 4346     		mov	r3, r8
 1365 00dc 0093     		str	r3, [sp]
 1366 00de 0298     		ldr	r0, [sp, #8]
 1367 00e0 311C     		mov	r1, r6
 1368 00e2 3A1C     		mov	r2, r7
 1369 00e4 0823     		mov	r3, #8
 1370 00e6 FFF7FEFF 		bl	drawCircleHelper
 1371              	.LVL162:
 256:.\GFXmaster.c **** }
 1372              		.loc 1 256 0
 1373 00ea 07B0     		add	sp, sp, #28
 1374              		@ sp needed
 1375 00ec 3CBC     		pop	{r2, r3, r4, r5}
 1376 00ee 9046     		mov	r8, r2
 1377 00f0 9946     		mov	r9, r3
 1378 00f2 A246     		mov	r10, r4
 1379 00f4 AB46     		mov	fp, r5
 1380 00f6 F0BD     		pop	{r4, r5, r6, r7, pc}
ARM GAS  C:\Users\username\AppData\Local\Temp\ccSuCzK2.s 			page 30


 1381              		.cfi_endproc
 1382              	.LFE44:
 1383              		.size	drawRoundRect, .-drawRoundRect
 1384              		.section	.text.fillRoundRect,"ax",%progbits
 1385              		.align	2
 1386              		.global	fillRoundRect
 1387              		.code	16
 1388              		.thumb_func
 1389              		.type	fillRoundRect, %function
 1390              	fillRoundRect:
 1391              	.LFB45:
 257:.\GFXmaster.c **** 
 258:.\GFXmaster.c **** 
 259:.\GFXmaster.c **** // Fill a rounded rectangle
 260:.\GFXmaster.c **** void fillRoundRect(int16_t x, int16_t y, int16_t w, int16_t h, int16_t r, uint16_t color) {
 1392              		.loc 1 260 0
 1393              		.cfi_startproc
 1394              	.LVL163:
 1395 0000 F0B5     		push	{r4, r5, r6, r7, lr}
 1396              		.cfi_def_cfa_offset 20
 1397              		.cfi_offset 4, -20
 1398              		.cfi_offset 5, -16
 1399              		.cfi_offset 6, -12
 1400              		.cfi_offset 7, -8
 1401              		.cfi_offset 14, -4
 1402 0002 5746     		mov	r7, r10
 1403 0004 80B4     		push	{r7}
 1404              		.cfi_def_cfa_offset 24
 1405              		.cfi_offset 10, -24
 1406 0006 86B0     		sub	sp, sp, #24
 1407              		.cfi_def_cfa_offset 48
 1408 0008 0291     		str	r1, [sp, #8]
 1409 000a 0393     		str	r3, [sp, #12]
 1410 000c 0CAB     		add	r3, sp, #48
 1411              	.LVL164:
 1412 000e 0025     		mov	r5, #0
 1413 0010 5C5F     		ldrsh	r4, [r3, r5]
 1414 0012 0DAB     		add	r3, sp, #52
 1415              	.LVL165:
 1416 0014 1F88     		ldrh	r7, [r3]
 261:.\GFXmaster.c ****   // smarter version
 262:.\GFXmaster.c ****   fillRect(x+r, y, w-2*r, h, color);
 1417              		.loc 1 262 0
 1418 0016 80B2     		uxth	r0, r0
 1419 0018 8246     		mov	r10, r0
 1420 001a 0494     		str	r4, [sp, #16]
 1421 001c 6B46     		mov	r3, sp
 1422              	.LVL166:
 1423 001e 1E8A     		ldrh	r6, [r3, #16]
 1424 0020 8019     		add	r0, r0, r6
 1425              	.LVL167:
 1426 0022 F303     		lsl	r3, r6, #15
 1427 0024 9B1B     		sub	r3, r3, r6
 1428 0026 5900     		lsl	r1, r3, #1
 1429              	.LVL168:
 1430 0028 8DB2     		uxth	r5, r1
 1431 002a 94B2     		uxth	r4, r2
ARM GAS  C:\Users\username\AppData\Local\Temp\ccSuCzK2.s 			page 31


 1432 002c 02B2     		sxth	r2, r0
 1433              	.LVL169:
 1434 002e 101C     		mov	r0, r2
 1435 0030 2A19     		add	r2, r5, r4
 1436 0032 12B2     		sxth	r2, r2
 1437 0034 0097     		str	r7, [sp]
 1438 0036 0590     		str	r0, [sp, #20]
 1439 0038 0299     		ldr	r1, [sp, #8]
 1440 003a 039B     		ldr	r3, [sp, #12]
 1441 003c FFF7FEFF 		bl	fillRect
 1442              	.LVL170:
 263:.\GFXmaster.c **** 
 264:.\GFXmaster.c ****   // draw four corners
 265:.\GFXmaster.c ****   fillCircleHelper(x+w-r-1, y+r, r, 1, h-2*r-1, color);
 1443              		.loc 1 265 0
 1444 0040 029B     		ldr	r3, [sp, #8]
 1445 0042 F318     		add	r3, r6, r3
 1446 0044 0399     		ldr	r1, [sp, #12]
 1447 0046 8C46     		mov	ip, r1
 1448 0048 6544     		add	r5, r5, ip
 1449 004a 013D     		sub	r5, r5, #1
 1450 004c 211C     		mov	r1, r4
 1451 004e 5144     		add	r1, r1, r10
 1452 0050 881B     		sub	r0, r1, r6
 1453 0052 0138     		sub	r0, r0, #1
 1454 0054 00B2     		sxth	r0, r0
 1455 0056 1EB2     		sxth	r6, r3
 1456 0058 2DB2     		sxth	r5, r5
 1457 005a 0095     		str	r5, [sp]
 1458 005c 0197     		str	r7, [sp, #4]
 1459 005e 311C     		mov	r1, r6
 1460 0060 049C     		ldr	r4, [sp, #16]
 1461              	.LVL171:
 1462 0062 221C     		mov	r2, r4
 1463 0064 0123     		mov	r3, #1
 1464 0066 FFF7FEFF 		bl	fillCircleHelper
 1465              	.LVL172:
 266:.\GFXmaster.c ****   fillCircleHelper(x+r    , y+r, r, 2, h-2*r-1, color);
 1466              		.loc 1 266 0
 1467 006a 0095     		str	r5, [sp]
 1468 006c 0197     		str	r7, [sp, #4]
 1469 006e 0598     		ldr	r0, [sp, #20]
 1470 0070 311C     		mov	r1, r6
 1471 0072 221C     		mov	r2, r4
 1472 0074 0223     		mov	r3, #2
 1473 0076 FFF7FEFF 		bl	fillCircleHelper
 1474              	.LVL173:
 267:.\GFXmaster.c **** }
 1475              		.loc 1 267 0
 1476 007a 06B0     		add	sp, sp, #24
 1477              		@ sp needed
 1478              	.LVL174:
 1479 007c 04BC     		pop	{r2}
 1480 007e 9246     		mov	r10, r2
 1481 0080 F0BD     		pop	{r4, r5, r6, r7, pc}
 1482              		.cfi_endproc
 1483              	.LFE45:
ARM GAS  C:\Users\username\AppData\Local\Temp\ccSuCzK2.s 			page 32


 1484              		.size	fillRoundRect, .-fillRoundRect
 1485 0082 C046     		.section	.text.drawTriangle,"ax",%progbits
 1486              		.align	2
 1487              		.global	drawTriangle
 1488              		.code	16
 1489              		.thumb_func
 1490              		.type	drawTriangle, %function
 1491              	drawTriangle:
 1492              	.LFB46:
 268:.\GFXmaster.c **** 
 269:.\GFXmaster.c **** 
 270:.\GFXmaster.c **** 
 271:.\GFXmaster.c **** // Draw a triangle
 272:.\GFXmaster.c **** void drawTriangle(int16_t x0, int16_t y0, int16_t x1, int16_t y1,
 273:.\GFXmaster.c **** 				int16_t x2, int16_t y2, uint16_t color) {
 1493              		.loc 1 273 0
 1494              		.cfi_startproc
 1495              	.LVL175:
 1496 0000 F0B5     		push	{r4, r5, r6, r7, lr}
 1497              		.cfi_def_cfa_offset 20
 1498              		.cfi_offset 4, -20
 1499              		.cfi_offset 5, -16
 1500              		.cfi_offset 6, -12
 1501              		.cfi_offset 7, -8
 1502              		.cfi_offset 14, -4
 1503 0002 87B0     		sub	sp, sp, #28
 1504              		.cfi_def_cfa_offset 48
 1505 0004 171C     		mov	r7, r2
 1506 0006 0393     		str	r3, [sp, #12]
 1507 0008 0CAB     		add	r3, sp, #48
 1508              	.LVL176:
 1509 000a 0022     		mov	r2, #0
 1510 000c 9D5E     		ldrsh	r5, [r3, r2]
 1511              	.LVL177:
 1512 000e 0DAB     		add	r3, sp, #52
 1513              	.LVL178:
 1514 0010 0022     		mov	r2, #0
 1515 0012 9C5E     		ldrsh	r4, [r3, r2]
 1516 0014 0EAB     		add	r3, sp, #56
 1517              	.LVL179:
 1518 0016 1E88     		ldrh	r6, [r3]
 274:.\GFXmaster.c ****   drawLine(x0, y0, x1, y1, color);
 1519              		.loc 1 274 0
 1520 0018 0096     		str	r6, [sp]
 1521 001a 0490     		str	r0, [sp, #16]
 1522 001c 0591     		str	r1, [sp, #20]
 1523 001e 3A1C     		mov	r2, r7
 1524 0020 039B     		ldr	r3, [sp, #12]
 1525              	.LVL180:
 1526 0022 FFF7FEFF 		bl	drawLine
 1527              	.LVL181:
 275:.\GFXmaster.c ****   drawLine(x1, y1, x2, y2, color);
 1528              		.loc 1 275 0
 1529 0026 0096     		str	r6, [sp]
 1530 0028 381C     		mov	r0, r7
 1531 002a 0399     		ldr	r1, [sp, #12]
 1532 002c 2A1C     		mov	r2, r5
ARM GAS  C:\Users\username\AppData\Local\Temp\ccSuCzK2.s 			page 33


 1533 002e 231C     		mov	r3, r4
 1534 0030 FFF7FEFF 		bl	drawLine
 1535              	.LVL182:
 276:.\GFXmaster.c ****   drawLine(x2, y2, x0, y0, color);
 1536              		.loc 1 276 0
 1537 0034 0096     		str	r6, [sp]
 1538 0036 281C     		mov	r0, r5
 1539 0038 211C     		mov	r1, r4
 1540 003a 049A     		ldr	r2, [sp, #16]
 1541 003c 059B     		ldr	r3, [sp, #20]
 1542 003e FFF7FEFF 		bl	drawLine
 1543              	.LVL183:
 277:.\GFXmaster.c **** }
 1544              		.loc 1 277 0
 1545 0042 07B0     		add	sp, sp, #28
 1546              		@ sp needed
 1547 0044 F0BD     		pop	{r4, r5, r6, r7, pc}
 1548              		.cfi_endproc
 1549              	.LFE46:
 1550              		.size	drawTriangle, .-drawTriangle
 1551              		.global	__aeabi_idiv
 1552 0046 C046     		.section	.text.fillTriangle,"ax",%progbits
 1553              		.align	2
 1554              		.global	fillTriangle
 1555              		.code	16
 1556              		.thumb_func
 1557              		.type	fillTriangle, %function
 1558              	fillTriangle:
 1559              	.LFB47:
 278:.\GFXmaster.c **** 
 279:.\GFXmaster.c **** 
 280:.\GFXmaster.c ****                 
 281:.\GFXmaster.c **** // Fill a triangle
 282:.\GFXmaster.c **** void fillTriangle ( int16_t x0, int16_t y0,
 283:.\GFXmaster.c **** 				  int16_t x1, int16_t y1,
 284:.\GFXmaster.c **** 				  int16_t x2, int16_t y2, uint16_t color) {
 1560              		.loc 1 284 0
 1561              		.cfi_startproc
 1562              	.LVL184:
 1563 0000 F0B5     		push	{r4, r5, r6, r7, lr}
 1564              		.cfi_def_cfa_offset 20
 1565              		.cfi_offset 4, -20
 1566              		.cfi_offset 5, -16
 1567              		.cfi_offset 6, -12
 1568              		.cfi_offset 7, -8
 1569              		.cfi_offset 14, -4
 1570 0002 5F46     		mov	r7, fp
 1571 0004 5646     		mov	r6, r10
 1572 0006 4D46     		mov	r5, r9
 1573 0008 4446     		mov	r4, r8
 1574 000a F0B4     		push	{r4, r5, r6, r7}
 1575              		.cfi_def_cfa_offset 36
 1576              		.cfi_offset 8, -36
 1577              		.cfi_offset 9, -32
 1578              		.cfi_offset 10, -28
 1579              		.cfi_offset 11, -24
 1580 000c 8BB0     		sub	sp, sp, #44
ARM GAS  C:\Users\username\AppData\Local\Temp\ccSuCzK2.s 			page 34


 1581              		.cfi_def_cfa_offset 80
 1582 000e 0F1C     		mov	r7, r1
 1583 0010 0891     		str	r1, [sp, #32]
 1584 0012 1E1C     		mov	r6, r3
 1585 0014 0793     		str	r3, [sp, #28]
 1586 0016 14AB     		add	r3, sp, #80
 1587              	.LVL185:
 1588 0018 0025     		mov	r5, #0
 1589 001a 5B5F     		ldrsh	r3, [r3, r5]
 1590              	.LVL186:
 1591 001c 15A9     		add	r1, sp, #84
 1592              	.LVL187:
 1593 001e 0025     		mov	r5, #0
 1594 0020 4C5F     		ldrsh	r4, [r1, r5]
 1595 0022 A246     		mov	r10, r4
 1596 0024 16A9     		add	r1, sp, #88
 1597              	.LVL188:
 1598 0026 0C88     		ldrh	r4, [r1]
 1599 0028 0194     		str	r4, [sp, #4]
 285:.\GFXmaster.c **** 
 286:.\GFXmaster.c ****   int16_t a, b, y, last;
 287:.\GFXmaster.c **** 
 288:.\GFXmaster.c ****   // Sort coordinates by Y order (y2 >= y1 >= y0)
 289:.\GFXmaster.c ****   if (y0 > y1) {
 1600              		.loc 1 289 0
 1601 002a B742     		cmp	r7, r6
 1602 002c 04DD     		ble	.L49
 1603              	.LBB6:
 290:.\GFXmaster.c ****     swap(y0, y1); swap(x0, x1);
 1604              		.loc 1 290 0
 1605 002e 0896     		str	r6, [sp, #32]
 1606 0030 0797     		str	r7, [sp, #28]
 1607              	.LBE6:
 1608 0032 011C     		mov	r1, r0
 1609              	.LVL189:
 1610              	.LBB7:
 1611 0034 101C     		mov	r0, r2
 1612              	.LVL190:
 1613 0036 0A1C     		mov	r2, r1
 1614              	.LVL191:
 1615              	.L49:
 1616              	.LBE7:
 291:.\GFXmaster.c ****   }
 292:.\GFXmaster.c ****   if (y1 > y2) {
 1617              		.loc 1 292 0
 1618 0038 0799     		ldr	r1, [sp, #28]
 1619 003a 5145     		cmp	r1, r10
 1620 003c 05DD     		ble	.L50
 1621              	.LBB8:
 293:.\GFXmaster.c ****     swap(y2, y1); swap(x2, x1);
 1622              		.loc 1 293 0
 1623 003e 5446     		mov	r4, r10
 1624 0040 0794     		str	r4, [sp, #28]
 1625              	.LVL192:
 1626 0042 8A46     		mov	r10, r1
 1627              	.LBE8:
 1628 0044 111C     		mov	r1, r2
ARM GAS  C:\Users\username\AppData\Local\Temp\ccSuCzK2.s 			page 35


 1629              	.LBB9:
 1630 0046 1A1C     		mov	r2, r3
 1631              	.LVL193:
 1632 0048 0B1C     		mov	r3, r1
 1633              	.L50:
 1634              	.LVL194:
 1635              	.LBE9:
 294:.\GFXmaster.c ****   }
 295:.\GFXmaster.c ****   if (y0 > y1) {
 1636              		.loc 1 295 0
 1637 004a 0899     		ldr	r1, [sp, #32]
 1638 004c 079C     		ldr	r4, [sp, #28]
 1639 004e A142     		cmp	r1, r4
 1640 0050 04DD     		ble	.L51
 1641              	.LBB10:
 296:.\GFXmaster.c ****     swap(y0, y1); swap(x0, x1);
 1642              		.loc 1 296 0
 1643 0052 0894     		str	r4, [sp, #32]
 1644              	.LVL195:
 1645 0054 0791     		str	r1, [sp, #28]
 1646              	.LVL196:
 1647              	.LBE10:
 1648 0056 011C     		mov	r1, r0
 1649              	.LBB11:
 1650 0058 101C     		mov	r0, r2
 1651              	.LVL197:
 1652 005a 0A1C     		mov	r2, r1
 1653              	.LVL198:
 1654              	.L51:
 1655              	.LBE11:
 297:.\GFXmaster.c ****   }
 298:.\GFXmaster.c **** 
 299:.\GFXmaster.c ****   if(y0 == y2) { // Handle awkward all-on-same-line case as its own thing
 1656              		.loc 1 299 0
 1657 005c 0899     		ldr	r1, [sp, #32]
 1658 005e 5145     		cmp	r1, r10
 1659 0060 18D1     		bne	.L52
 1660              	.LVL199:
 300:.\GFXmaster.c ****     a = b = x0;
 301:.\GFXmaster.c ****     if(x1 < a)      a = x1;
 1661              		.loc 1 301 0
 1662 0062 9042     		cmp	r0, r2
 1663 0064 05DC     		bgt	.L53
 302:.\GFXmaster.c ****     else if(x1 > b) b = x1;
 1664              		.loc 1 302 0
 1665 0066 01DB     		blt	.L66
 300:.\GFXmaster.c ****     a = b = x0;
 1666              		.loc 1 300 0
 1667 0068 021C     		mov	r2, r0
 1668              	.LVL200:
 1669 006a 02E0     		b	.L53
 1670              	.LVL201:
 1671              	.L66:
 1672 006c 111C     		mov	r1, r2
 1673 006e 021C     		mov	r2, r0
 1674              	.LVL202:
 1675              		.loc 1 302 0
ARM GAS  C:\Users\username\AppData\Local\Temp\ccSuCzK2.s 			page 36


 1676 0070 081C     		mov	r0, r1
 1677              	.LVL203:
 1678              	.L53:
 303:.\GFXmaster.c ****     if(x2 < a)      a = x2;
 1679              		.loc 1 303 0
 1680 0072 9342     		cmp	r3, r2
 1681 0074 05DB     		blt	.L54
 304:.\GFXmaster.c ****     else if(x2 > b) b = x2;
 1682              		.loc 1 304 0
 1683 0076 8342     		cmp	r3, r0
 1684 0078 01DC     		bgt	.L67
 1685 007a 131C     		mov	r3, r2
 1686              	.LVL204:
 1687 007c 01E0     		b	.L54
 1688              	.LVL205:
 1689              	.L67:
 1690 007e 181C     		mov	r0, r3
 1691              	.LVL206:
 1692 0080 131C     		mov	r3, r2
 1693              	.LVL207:
 1694              	.L54:
 305:.\GFXmaster.c ****     drawFastHLine(a, y0, b-a+1, color);
 1695              		.loc 1 305 0
 1696 0082 C21A     		sub	r2, r0, r3
 1697 0084 501C     		add	r0, r2, #1
 1698              	.LVL208:
 1699 0086 02B2     		sxth	r2, r0
 1700 0088 181C     		mov	r0, r3
 1701 008a 0899     		ldr	r1, [sp, #32]
 1702 008c 019B     		ldr	r3, [sp, #4]
 1703              	.LVL209:
 1704 008e FFF7FEFF 		bl	drawFastHLine
 1705              	.LVL210:
 306:.\GFXmaster.c ****     return;
 1706              		.loc 1 306 0
 1707 0092 92E0     		b	.L48
 1708              	.LVL211:
 1709              	.L52:
 307:.\GFXmaster.c ****   }
 308:.\GFXmaster.c **** 
 309:.\GFXmaster.c ****   int16_t
 310:.\GFXmaster.c ****     dx01 = x1 - x0,
 1710              		.loc 1 310 0
 1711 0094 92B2     		uxth	r2, r2
 1712 0096 9346     		mov	fp, r2
 1713 0098 82B2     		uxth	r2, r0
 1714              	.LVL212:
 1715 009a 9046     		mov	r8, r2
 1716 009c 5A46     		mov	r2, fp
 1717 009e 4146     		mov	r1, r8
 1718 00a0 521A     		sub	r2, r2, r1
 1719 00a2 92B2     		uxth	r2, r2
 1720 00a4 0492     		str	r2, [sp, #16]
 1721              	.LVL213:
 311:.\GFXmaster.c ****     dy01 = y1 - y0,
 1722              		.loc 1 311 0
 1723 00a6 079C     		ldr	r4, [sp, #28]
ARM GAS  C:\Users\username\AppData\Local\Temp\ccSuCzK2.s 			page 37


 1724 00a8 A1B2     		uxth	r1, r4
 1725 00aa 6A46     		mov	r2, sp
 1726 00ac 108C     		ldrh	r0, [r2, #32]
 1727              	.LVL214:
 1728 00ae 0A1A     		sub	r2, r1, r0
 1729 00b0 92B2     		uxth	r2, r2
 1730 00b2 0592     		str	r2, [sp, #20]
 1731              	.LVL215:
 312:.\GFXmaster.c ****     dx02 = x2 - x0,
 1732              		.loc 1 312 0
 1733 00b4 9BB2     		uxth	r3, r3
 1734 00b6 4246     		mov	r2, r8
 1735 00b8 9A1A     		sub	r2, r3, r2
 1736 00ba 92B2     		uxth	r2, r2
 1737 00bc 0392     		str	r2, [sp, #12]
 1738              	.LVL216:
 313:.\GFXmaster.c ****     dy02 = y2 - y0,
 1739              		.loc 1 313 0
 1740 00be 5246     		mov	r2, r10
 1741 00c0 6D46     		mov	r5, sp
 1742 00c2 2A81     		strh	r2, [r5, #8]
 1743 00c4 2A89     		ldrh	r2, [r5, #8]
 1744 00c6 101A     		sub	r0, r2, r0
 1745 00c8 80B2     		uxth	r0, r0
 1746 00ca 0290     		str	r0, [sp, #8]
 1747              	.LVL217:
 314:.\GFXmaster.c ****     dx12 = x2 - x1,
 1748              		.loc 1 314 0
 1749 00cc 5846     		mov	r0, fp
 1750 00ce 1B1A     		sub	r3, r3, r0
 1751              	.LVL218:
 1752 00d0 9BB2     		uxth	r3, r3
 1753 00d2 0993     		str	r3, [sp, #36]
 1754              	.LVL219:
 315:.\GFXmaster.c ****     dy12 = y2 - y1;
 1755              		.loc 1 315 0
 1756 00d4 521A     		sub	r2, r2, r1
 1757 00d6 93B2     		uxth	r3, r2
 1758 00d8 0693     		str	r3, [sp, #24]
 1759              	.LVL220:
 316:.\GFXmaster.c ****   int32_t
 317:.\GFXmaster.c ****     sa   = 0,
 318:.\GFXmaster.c ****     sb   = 0;
 319:.\GFXmaster.c **** 
 320:.\GFXmaster.c ****   // For upper part of triangle, find scanline crossings for segments
 321:.\GFXmaster.c ****   // 0-1 and 0-2.  If y1=y2 (flat-bottomed triangle), the scanline y1
 322:.\GFXmaster.c ****   // is included here (and second loop will be skipped, avoiding a /0
 323:.\GFXmaster.c ****   // error there), otherwise scanline y1 is skipped here and handled
 324:.\GFXmaster.c ****   // in the second loop...which also avoids a /0 error here if y0=y1
 325:.\GFXmaster.c ****   // (flat-topped triangle).
 326:.\GFXmaster.c ****   if(y1 == y2) last = y1;   // Include y1 scanline
 1760              		.loc 1 326 0
 1761 00da 5445     		cmp	r4, r10
 1762 00dc 03D0     		beq	.L68
 327:.\GFXmaster.c ****   else         last = y1-1; // Skip it
 1763              		.loc 1 327 0
 1764 00de 4B1E     		sub	r3, r1, #1
ARM GAS  C:\Users\username\AppData\Local\Temp\ccSuCzK2.s 			page 38


 1765 00e0 1BB2     		sxth	r3, r3
 1766 00e2 9946     		mov	r9, r3
 1767              	.LVL221:
 1768 00e4 01E0     		b	.L56
 1769              	.LVL222:
 1770              	.L68:
 326:.\GFXmaster.c ****   else         last = y1-1; // Skip it
 1771              		.loc 1 326 0
 1772 00e6 079B     		ldr	r3, [sp, #28]
 1773 00e8 9946     		mov	r9, r3
 1774              	.L56:
 1775              	.LVL223:
 328:.\GFXmaster.c **** 
 329:.\GFXmaster.c ****   for(y=y0; y<=last; y++) {
 1776              		.loc 1 329 0
 1777 00ea 089D     		ldr	r5, [sp, #32]
 318:.\GFXmaster.c **** 
 1778              		.loc 1 318 0
 1779 00ec 0027     		mov	r7, #0
 317:.\GFXmaster.c ****     sb   = 0;
 1780              		.loc 1 317 0
 1781 00ee 0026     		mov	r6, #0
 1782              		.loc 1 329 0
 1783 00f0 29E0     		b	.L57
 1784              	.LVL224:
 1785              	.L59:
 330:.\GFXmaster.c ****     a   = x0 + sa / dy01;
 1786              		.loc 1 330 0
 1787 00f2 6B46     		mov	r3, sp
 1788 00f4 1421     		mov	r1, #20
 1789 00f6 595E     		ldrsh	r1, [r3, r1]
 1790 00f8 301C     		mov	r0, r6
 1791 00fa FFF7FEFF 		bl	__aeabi_idiv
 1792              	.LVL225:
 1793 00fe 4044     		add	r0, r0, r8
 1794 0100 84B2     		uxth	r4, r0
 1795              	.LVL226:
 331:.\GFXmaster.c ****     b   = x0 + sb / dy02;
 1796              		.loc 1 331 0
 1797 0102 6B46     		mov	r3, sp
 1798 0104 0821     		mov	r1, #8
 1799 0106 595E     		ldrsh	r1, [r3, r1]
 1800 0108 381C     		mov	r0, r7
 1801 010a FFF7FEFF 		bl	__aeabi_idiv
 1802              	.LVL227:
 1803 010e 021C     		mov	r2, r0
 1804 0110 4244     		add	r2, r2, r8
 1805 0112 92B2     		uxth	r2, r2
 1806              	.LVL228:
 332:.\GFXmaster.c ****     sa += dx01;
 1807              		.loc 1 332 0
 1808 0114 6B46     		mov	r3, sp
 1809 0116 1021     		mov	r1, #16
 1810 0118 5B5E     		ldrsh	r3, [r3, r1]
 1811 011a F618     		add	r6, r6, r3
 1812              	.LVL229:
 333:.\GFXmaster.c ****     sb += dx02;
ARM GAS  C:\Users\username\AppData\Local\Temp\ccSuCzK2.s 			page 39


 1813              		.loc 1 333 0
 1814 011c 6B46     		mov	r3, sp
 1815 011e 0C21     		mov	r1, #12
 1816 0120 5B5E     		ldrsh	r3, [r3, r1]
 1817 0122 FF18     		add	r7, r7, r3
 1818              	.LVL230:
 334:.\GFXmaster.c ****     /* longhand:
 335:.\GFXmaster.c ****     a = x0 + (x1 - x0) * (y - y0) / (y1 - y0);
 336:.\GFXmaster.c ****     b = x0 + (x2 - x0) * (y - y0) / (y2 - y0);
 337:.\GFXmaster.c ****     */
 338:.\GFXmaster.c ****     if(a > b) swap(a,b);
 1819              		.loc 1 338 0
 1820 0124 21B2     		sxth	r1, r4
 1821 0126 13B2     		sxth	r3, r2
 1822 0128 9942     		cmp	r1, r3
 1823 012a 02DC     		bgt	.L58
 1824 012c 131C     		mov	r3, r2
 330:.\GFXmaster.c ****     b   = x0 + sb / dy02;
 1825              		.loc 1 330 0
 1826 012e 221C     		mov	r2, r4
 1827              	.LVL231:
 331:.\GFXmaster.c ****     sa += dx01;
 1828              		.loc 1 331 0
 1829 0130 1C1C     		mov	r4, r3
 1830              	.LVL232:
 1831              	.L58:
 339:.\GFXmaster.c ****     drawFastHLine(a, y, b-a+1, color);
 1832              		.loc 1 339 0 discriminator 2
 1833 0132 10B2     		sxth	r0, r2
 1834 0134 A21A     		sub	r2, r4, r2
 1835              	.LVL233:
 1836 0136 541C     		add	r4, r2, #1
 1837              	.LVL234:
 1838 0138 22B2     		sxth	r2, r4
 1839 013a 291C     		mov	r1, r5
 1840 013c 019B     		ldr	r3, [sp, #4]
 1841 013e FFF7FEFF 		bl	drawFastHLine
 1842              	.LVL235:
 329:.\GFXmaster.c ****     a   = x0 + sa / dy01;
 1843              		.loc 1 329 0 discriminator 2
 1844 0142 0135     		add	r5, r5, #1
 1845              	.LVL236:
 1846 0144 2DB2     		sxth	r5, r5
 1847              	.LVL237:
 1848              	.L57:
 329:.\GFXmaster.c ****     a   = x0 + sa / dy01;
 1849              		.loc 1 329 0 is_stmt 0 discriminator 1
 1850 0146 4D45     		cmp	r5, r9
 1851 0148 D3DD     		ble	.L59
 340:.\GFXmaster.c ****   }
 341:.\GFXmaster.c **** 
 342:.\GFXmaster.c ****   // For lower part of triangle, find scanline crossings for segments
 343:.\GFXmaster.c ****   // 0-2 and 1-2.  This loop is skipped if y1=y2.
 344:.\GFXmaster.c ****   sa = dx12 * (y - y1);
 1852              		.loc 1 344 0 is_stmt 1
 1853 014a 6B46     		mov	r3, sp
 1854 014c 2422     		mov	r2, #36
ARM GAS  C:\Users\username\AppData\Local\Temp\ccSuCzK2.s 			page 40


 1855 014e 9B5E     		ldrsh	r3, [r3, r2]
 1856 0150 0493     		str	r3, [sp, #16]
 1857              	.LVL238:
 1858 0152 079A     		ldr	r2, [sp, #28]
 1859 0154 AE1A     		sub	r6, r5, r2
 1860              	.LVL239:
 1861 0156 5E43     		mul	r6, r3
 1862              	.LVL240:
 345:.\GFXmaster.c ****   sb = dx02 * (y - y0);
 1863              		.loc 1 345 0
 1864 0158 6B46     		mov	r3, sp
 1865 015a 0C22     		mov	r2, #12
 1866 015c 9B5E     		ldrsh	r3, [r3, r2]
 1867 015e 9946     		mov	r9, r3
 1868              	.LVL241:
 1869 0160 089B     		ldr	r3, [sp, #32]
 1870 0162 EF1A     		sub	r7, r5, r3
 1871              	.LVL242:
 1872 0164 4B46     		mov	r3, r9
 1873 0166 5F43     		mul	r7, r3
 1874              	.LVL243:
 346:.\GFXmaster.c ****   for(; y<=y2; y++) {
 1875              		.loc 1 346 0
 1876 0168 25E0     		b	.L60
 1877              	.L62:
 347:.\GFXmaster.c ****     a   = x1 + sa / dy12;
 1878              		.loc 1 347 0
 1879 016a 6B46     		mov	r3, sp
 1880 016c 1821     		mov	r1, #24
 1881 016e 595E     		ldrsh	r1, [r3, r1]
 1882 0170 301C     		mov	r0, r6
 1883 0172 FFF7FEFF 		bl	__aeabi_idiv
 1884              	.LVL244:
 1885 0176 5844     		add	r0, r0, fp
 1886 0178 84B2     		uxth	r4, r0
 1887              	.LVL245:
 348:.\GFXmaster.c ****     b   = x0 + sb / dy02;
 1888              		.loc 1 348 0
 1889 017a 6B46     		mov	r3, sp
 1890 017c 0821     		mov	r1, #8
 1891 017e 595E     		ldrsh	r1, [r3, r1]
 1892 0180 381C     		mov	r0, r7
 1893 0182 FFF7FEFF 		bl	__aeabi_idiv
 1894              	.LVL246:
 1895 0186 021C     		mov	r2, r0
 1896 0188 4244     		add	r2, r2, r8
 1897 018a 92B2     		uxth	r2, r2
 1898              	.LVL247:
 349:.\GFXmaster.c ****     sa += dx12;
 1899              		.loc 1 349 0
 1900 018c 049B     		ldr	r3, [sp, #16]
 1901 018e 9C46     		mov	ip, r3
 1902 0190 6644     		add	r6, r6, ip
 1903              	.LVL248:
 350:.\GFXmaster.c ****     sb += dx02;
 1904              		.loc 1 350 0
 1905 0192 4F44     		add	r7, r7, r9
ARM GAS  C:\Users\username\AppData\Local\Temp\ccSuCzK2.s 			page 41


 1906              	.LVL249:
 351:.\GFXmaster.c ****     /* longhand:
 352:.\GFXmaster.c ****     a = x1 + (x2 - x1) * (y - y1) / (y2 - y1);
 353:.\GFXmaster.c ****     b = x0 + (x2 - x0) * (y - y0) / (y2 - y0);
 354:.\GFXmaster.c ****     */
 355:.\GFXmaster.c ****     if(a > b) swap(a,b);
 1907              		.loc 1 355 0
 1908 0194 21B2     		sxth	r1, r4
 1909 0196 13B2     		sxth	r3, r2
 1910 0198 9942     		cmp	r1, r3
 1911 019a 02DC     		bgt	.L61
 1912 019c 131C     		mov	r3, r2
 347:.\GFXmaster.c ****     b   = x0 + sb / dy02;
 1913              		.loc 1 347 0
 1914 019e 221C     		mov	r2, r4
 1915              	.LVL250:
 348:.\GFXmaster.c ****     sa += dx12;
 1916              		.loc 1 348 0
 1917 01a0 1C1C     		mov	r4, r3
 1918              	.LVL251:
 1919              	.L61:
 356:.\GFXmaster.c ****     drawFastHLine(a, y, b-a+1, color);
 1920              		.loc 1 356 0
 1921 01a2 10B2     		sxth	r0, r2
 1922 01a4 A21A     		sub	r2, r4, r2
 1923              	.LVL252:
 1924 01a6 541C     		add	r4, r2, #1
 1925              	.LVL253:
 1926 01a8 22B2     		sxth	r2, r4
 1927 01aa 291C     		mov	r1, r5
 1928 01ac 019B     		ldr	r3, [sp, #4]
 1929 01ae FFF7FEFF 		bl	drawFastHLine
 1930              	.LVL254:
 346:.\GFXmaster.c ****     a   = x1 + sa / dy12;
 1931              		.loc 1 346 0
 1932 01b2 0135     		add	r5, r5, #1
 1933              	.LVL255:
 1934 01b4 2DB2     		sxth	r5, r5
 1935              	.LVL256:
 1936              	.L60:
 346:.\GFXmaster.c ****     a   = x1 + sa / dy12;
 1937              		.loc 1 346 0 is_stmt 0 discriminator 1
 1938 01b6 5545     		cmp	r5, r10
 1939 01b8 D7DD     		ble	.L62
 1940              	.LVL257:
 1941              	.L48:
 357:.\GFXmaster.c ****   }
 358:.\GFXmaster.c **** }       
 1942              		.loc 1 358 0 is_stmt 1
 1943 01ba 0BB0     		add	sp, sp, #44
 1944              		@ sp needed
 1945              	.LVL258:
 1946 01bc 3CBC     		pop	{r2, r3, r4, r5}
 1947 01be 9046     		mov	r8, r2
 1948 01c0 9946     		mov	r9, r3
 1949 01c2 A246     		mov	r10, r4
 1950 01c4 AB46     		mov	fp, r5
ARM GAS  C:\Users\username\AppData\Local\Temp\ccSuCzK2.s 			page 42


 1951 01c6 F0BD     		pop	{r4, r5, r6, r7, pc}
 1952              		.cfi_endproc
 1953              	.LFE47:
 1954              		.size	fillTriangle, .-fillTriangle
 1955              		.section	.text.drawBitmap,"ax",%progbits
 1956              		.align	2
 1957              		.global	drawBitmap
 1958              		.code	16
 1959              		.thumb_func
 1960              		.type	drawBitmap, %function
 1961              	drawBitmap:
 1962              	.LFB48:
 359:.\GFXmaster.c ****                 
 360:.\GFXmaster.c **** 
 361:.\GFXmaster.c ****                 
 362:.\GFXmaster.c ****                 
 363:.\GFXmaster.c **** /*
 364:.\GFXmaster.c **** void invertDisplay(boolean i) {
 365:.\GFXmaster.c ****   // Do nothing, must be subclassed if supported  ***Comment out if subclassed
 366:.\GFXmaster.c **** }
 367:.\GFXmaster.c **** */                
 368:.\GFXmaster.c ****                 
 369:.\GFXmaster.c ****      
 370:.\GFXmaster.c ****                 
 371:.\GFXmaster.c **** void drawBitmap(int16_t x, int16_t y,
 372:.\GFXmaster.c **** 			      const uint8_t *bitmap, int16_t w, int16_t h,
 373:.\GFXmaster.c **** 			      uint16_t color) {
 1963              		.loc 1 373 0
 1964              		.cfi_startproc
 1965              	.LVL259:
 1966 0000 F0B5     		push	{r4, r5, r6, r7, lr}
 1967              		.cfi_def_cfa_offset 20
 1968              		.cfi_offset 4, -20
 1969              		.cfi_offset 5, -16
 1970              		.cfi_offset 6, -12
 1971              		.cfi_offset 7, -8
 1972              		.cfi_offset 14, -4
 1973 0002 5F46     		mov	r7, fp
 1974 0004 5646     		mov	r6, r10
 1975 0006 4D46     		mov	r5, r9
 1976 0008 E0B4     		push	{r5, r6, r7}
 1977              		.cfi_def_cfa_offset 32
 1978              		.cfi_offset 9, -32
 1979              		.cfi_offset 10, -28
 1980              		.cfi_offset 11, -24
 1981 000a 82B0     		sub	sp, sp, #8
 1982              		.cfi_def_cfa_offset 40
 1983 000c 8246     		mov	r10, r0
 1984 000e 8946     		mov	r9, r1
 1985 0010 171C     		mov	r7, r2
 1986 0012 1E1C     		mov	r6, r3
 1987 0014 0AAB     		add	r3, sp, #40
 1988              	.LVL260:
 1989 0016 0022     		mov	r2, #0
 1990 0018 9B5E     		ldrsh	r3, [r3, r2]
 1991              	.LVL261:
 1992 001a 9B46     		mov	fp, r3
ARM GAS  C:\Users\username\AppData\Local\Temp\ccSuCzK2.s 			page 43


 1993 001c 0BAB     		add	r3, sp, #44
 1994              	.LVL262:
 1995 001e 1B88     		ldrh	r3, [r3]
 1996              	.LVL263:
 1997 0020 0193     		str	r3, [sp, #4]
 374:.\GFXmaster.c **** 
 375:.\GFXmaster.c ****   int16_t i, j;
 376:.\GFXmaster.c ****   int16_t byteWidth = (w + 7) / 8;
 1998              		.loc 1 376 0
 1999 0022 F31D     		add	r3, r6, #7
 2000 0024 DA17     		asr	r2, r3, #31
 2001 0026 520F     		lsr	r2, r2, #29
 2002 0028 D318     		add	r3, r2, r3
 2003 002a DB10     		asr	r3, r3, #3
 2004 002c 9BB2     		uxth	r3, r3
 2005 002e 0093     		str	r3, [sp]
 2006              	.LVL264:
 377:.\GFXmaster.c **** 
 378:.\GFXmaster.c ****   for(j=0; j<h; j++) {
 2007              		.loc 1 378 0
 2008 0030 0025     		mov	r5, #0
 2009 0032 27E0     		b	.L70
 2010              	.LVL265:
 2011              	.L72:
 2012              	.LBB12:
 379:.\GFXmaster.c ****     for(i=0; i<w; i++ ) {
 380:.\GFXmaster.c ****       if(pgm_read_byte(bitmap + j * byteWidth + i / 8) & (128 >> (i & 7))) {
 2013              		.loc 1 380 0
 2014 0034 29B2     		sxth	r1, r5
 2015 0036 6B46     		mov	r3, sp
 2016 0038 0020     		mov	r0, #0
 2017 003a 185E     		ldrsh	r0, [r3, r0]
 2018 003c 021C     		mov	r2, r0
 2019 003e 4A43     		mul	r2, r1
 2020 0040 23B2     		sxth	r3, r4
 2021 0042 D817     		asr	r0, r3, #31
 2022 0044 400F     		lsr	r0, r0, #29
 2023 0046 C018     		add	r0, r0, r3
 2024 0048 C310     		asr	r3, r0, #3
 2025 004a D018     		add	r0, r2, r3
 2026 004c 3818     		add	r0, r7, r0
 2027 004e FFF7FEFF 		bl	pgm_read_byte
 2028              	.LVL266:
 2029 0052 A4B2     		uxth	r4, r4
 2030 0054 0723     		mov	r3, #7
 2031 0056 2340     		and	r3, r4
 2032 0058 8022     		mov	r2, #128
 2033 005a 1A41     		asr	r2, r2, r3
 2034 005c 0242     		tst	r2, r0
 2035 005e 08D0     		beq	.L71
 381:.\GFXmaster.c ****         drawPixel(x+i, y+j, color);
 2036              		.loc 1 381 0
 2037 0060 5346     		mov	r3, r10
 2038 0062 E018     		add	r0, r4, r3
 2039 0064 00B2     		sxth	r0, r0
 2040 0066 4B46     		mov	r3, r9
 2041 0068 5919     		add	r1, r3, r5
ARM GAS  C:\Users\username\AppData\Local\Temp\ccSuCzK2.s 			page 44


 2042 006a 09B2     		sxth	r1, r1
 2043 006c 019A     		ldr	r2, [sp, #4]
 2044 006e FFF7FEFF 		bl	drawPixel
 2045              	.LVL267:
 2046              	.L71:
 2047              	.LBE12:
 379:.\GFXmaster.c ****     for(i=0; i<w; i++ ) {
 2048              		.loc 1 379 0 discriminator 2
 2049 0072 0134     		add	r4, r4, #1
 2050              	.LVL268:
 2051 0074 A4B2     		uxth	r4, r4
 2052              	.LVL269:
 2053 0076 00E0     		b	.L73
 2054              	.LVL270:
 2055              	.L74:
 2056 0078 0024     		mov	r4, #0
 2057              	.L73:
 2058              	.LVL271:
 379:.\GFXmaster.c ****     for(i=0; i<w; i++ ) {
 2059              		.loc 1 379 0 is_stmt 0 discriminator 1
 2060 007a 23B2     		sxth	r3, r4
 2061 007c B342     		cmp	r3, r6
 2062 007e D9DB     		blt	.L72
 378:.\GFXmaster.c ****     for(i=0; i<w; i++ ) {
 2063              		.loc 1 378 0 is_stmt 1 discriminator 2
 2064 0080 0135     		add	r5, r5, #1
 2065              	.LVL272:
 2066 0082 ADB2     		uxth	r5, r5
 2067              	.LVL273:
 2068              	.L70:
 378:.\GFXmaster.c ****     for(i=0; i<w; i++ ) {
 2069              		.loc 1 378 0 is_stmt 0 discriminator 1
 2070 0084 2BB2     		sxth	r3, r5
 2071 0086 5B45     		cmp	r3, fp
 2072 0088 F6DB     		blt	.L74
 382:.\GFXmaster.c ****       }
 383:.\GFXmaster.c ****     }
 384:.\GFXmaster.c ****   }
 385:.\GFXmaster.c **** }
 2073              		.loc 1 385 0 is_stmt 1
 2074 008a 02B0     		add	sp, sp, #8
 2075              	.LVL274:
 2076              		@ sp needed
 2077              	.LVL275:
 2078              	.LVL276:
 2079 008c 1CBC     		pop	{r2, r3, r4}
 2080 008e 9146     		mov	r9, r2
 2081 0090 9A46     		mov	r10, r3
 2082 0092 A346     		mov	fp, r4
 2083 0094 F0BD     		pop	{r4, r5, r6, r7, pc}
 2084              		.cfi_endproc
 2085              	.LFE48:
 2086              		.size	drawBitmap, .-drawBitmap
 2087 0096 C046     		.section	.text.drawBitmapBG,"ax",%progbits
 2088              		.align	2
 2089              		.global	drawBitmapBG
 2090              		.code	16
ARM GAS  C:\Users\username\AppData\Local\Temp\ccSuCzK2.s 			page 45


 2091              		.thumb_func
 2092              		.type	drawBitmapBG, %function
 2093              	drawBitmapBG:
 2094              	.LFB49:
 386:.\GFXmaster.c ****                 
 387:.\GFXmaster.c ****                 
 388:.\GFXmaster.c **** 
 389:.\GFXmaster.c ****                 
 390:.\GFXmaster.c **** // Draw a 1-bit color bitmap at the specified x, y position from the
 391:.\GFXmaster.c **** // provided bitmap buffer (must be PROGMEM memory) using color as the
 392:.\GFXmaster.c **** // foreground color and bg as the background color.
 393:.\GFXmaster.c **** void drawBitmapBG(int16_t x, int16_t y,
 394:.\GFXmaster.c ****             const uint8_t *bitmap, int16_t w, int16_t h,
 395:.\GFXmaster.c ****             uint16_t color, uint16_t bg) {
 2095              		.loc 1 395 0
 2096              		.cfi_startproc
 2097              	.LVL277:
 2098 0000 F0B5     		push	{r4, r5, r6, r7, lr}
 2099              		.cfi_def_cfa_offset 20
 2100              		.cfi_offset 4, -20
 2101              		.cfi_offset 5, -16
 2102              		.cfi_offset 6, -12
 2103              		.cfi_offset 7, -8
 2104              		.cfi_offset 14, -4
 2105 0002 5F46     		mov	r7, fp
 2106 0004 5646     		mov	r6, r10
 2107 0006 4D46     		mov	r5, r9
 2108 0008 E0B4     		push	{r5, r6, r7}
 2109              		.cfi_def_cfa_offset 32
 2110              		.cfi_offset 9, -32
 2111              		.cfi_offset 10, -28
 2112              		.cfi_offset 11, -24
 2113 000a 84B0     		sub	sp, sp, #16
 2114              		.cfi_def_cfa_offset 48
 2115 000c 8246     		mov	r10, r0
 2116 000e 8946     		mov	r9, r1
 2117 0010 171C     		mov	r7, r2
 2118 0012 1E1C     		mov	r6, r3
 2119 0014 0CAB     		add	r3, sp, #48
 2120              	.LVL278:
 2121 0016 0022     		mov	r2, #0
 2122 0018 9B5E     		ldrsh	r3, [r3, r2]
 2123              	.LVL279:
 2124 001a 9B46     		mov	fp, r3
 2125 001c 0DAB     		add	r3, sp, #52
 2126              	.LVL280:
 2127 001e 1B88     		ldrh	r3, [r3]
 2128              	.LVL281:
 2129 0020 0293     		str	r3, [sp, #8]
 2130 0022 0EAB     		add	r3, sp, #56
 2131              	.LVL282:
 2132 0024 1B88     		ldrh	r3, [r3]
 2133              	.LVL283:
 2134 0026 0393     		str	r3, [sp, #12]
 396:.\GFXmaster.c **** 
 397:.\GFXmaster.c ****   int16_t i, j, byteWidth = (w + 7) / 8;
 2135              		.loc 1 397 0
ARM GAS  C:\Users\username\AppData\Local\Temp\ccSuCzK2.s 			page 46


 2136 0028 F31D     		add	r3, r6, #7
 2137 002a DA17     		asr	r2, r3, #31
 2138 002c 520F     		lsr	r2, r2, #29
 2139 002e D318     		add	r3, r2, r3
 2140 0030 DB10     		asr	r3, r3, #3
 2141 0032 9BB2     		uxth	r3, r3
 2142 0034 0193     		str	r3, [sp, #4]
 2143              	.LVL284:
 398:.\GFXmaster.c ****   
 399:.\GFXmaster.c ****   for(j=0; j<h; j++) {
 2144              		.loc 1 399 0
 2145 0036 0025     		mov	r5, #0
 2146 0038 31E0     		b	.L76
 2147              	.LVL285:
 2148              	.L79:
 2149              	.LBB13:
 400:.\GFXmaster.c ****     for(i=0; i<w; i++ ) {
 401:.\GFXmaster.c ****       if(pgm_read_byte(bitmap + j * byteWidth + i / 8) & (128 >> (i & 7))) {
 2150              		.loc 1 401 0
 2151 003a 29B2     		sxth	r1, r5
 2152 003c 6B46     		mov	r3, sp
 2153 003e 0420     		mov	r0, #4
 2154 0040 185E     		ldrsh	r0, [r3, r0]
 2155 0042 021C     		mov	r2, r0
 2156 0044 4A43     		mul	r2, r1
 2157 0046 23B2     		sxth	r3, r4
 2158 0048 D817     		asr	r0, r3, #31
 2159 004a 400F     		lsr	r0, r0, #29
 2160 004c C018     		add	r0, r0, r3
 2161 004e C310     		asr	r3, r0, #3
 2162 0050 D018     		add	r0, r2, r3
 2163 0052 3818     		add	r0, r7, r0
 2164 0054 FFF7FEFF 		bl	pgm_read_byte
 2165              	.LVL286:
 2166 0058 A4B2     		uxth	r4, r4
 2167 005a 0723     		mov	r3, #7
 2168 005c 2340     		and	r3, r4
 2169 005e 8022     		mov	r2, #128
 2170 0060 1A41     		asr	r2, r2, r3
 2171 0062 0242     		tst	r2, r0
 2172 0064 09D0     		beq	.L77
 402:.\GFXmaster.c ****         drawPixel(x+i, y+j, color);
 2173              		.loc 1 402 0
 2174 0066 5346     		mov	r3, r10
 2175 0068 E018     		add	r0, r4, r3
 2176 006a 00B2     		sxth	r0, r0
 2177 006c 4B46     		mov	r3, r9
 2178 006e 5919     		add	r1, r3, r5
 2179 0070 09B2     		sxth	r1, r1
 2180 0072 029A     		ldr	r2, [sp, #8]
 2181 0074 FFF7FEFF 		bl	drawPixel
 2182              	.LVL287:
 2183 0078 08E0     		b	.L78
 2184              	.L77:
 403:.\GFXmaster.c ****       }
 404:.\GFXmaster.c ****       else {
 405:.\GFXmaster.c ****       	drawPixel(x+i, y+j, bg);
ARM GAS  C:\Users\username\AppData\Local\Temp\ccSuCzK2.s 			page 47


 2185              		.loc 1 405 0
 2186 007a 5346     		mov	r3, r10
 2187 007c E018     		add	r0, r4, r3
 2188 007e 00B2     		sxth	r0, r0
 2189 0080 4B46     		mov	r3, r9
 2190 0082 5919     		add	r1, r3, r5
 2191 0084 09B2     		sxth	r1, r1
 2192 0086 039A     		ldr	r2, [sp, #12]
 2193 0088 FFF7FEFF 		bl	drawPixel
 2194              	.LVL288:
 2195              	.L78:
 2196              	.LBE13:
 400:.\GFXmaster.c ****       if(pgm_read_byte(bitmap + j * byteWidth + i / 8) & (128 >> (i & 7))) {
 2197              		.loc 1 400 0 discriminator 2
 2198 008c 0134     		add	r4, r4, #1
 2199              	.LVL289:
 2200 008e A4B2     		uxth	r4, r4
 2201              	.LVL290:
 2202 0090 00E0     		b	.L80
 2203              	.LVL291:
 2204              	.L81:
 2205 0092 0024     		mov	r4, #0
 2206              	.L80:
 2207              	.LVL292:
 400:.\GFXmaster.c ****       if(pgm_read_byte(bitmap + j * byteWidth + i / 8) & (128 >> (i & 7))) {
 2208              		.loc 1 400 0 is_stmt 0 discriminator 1
 2209 0094 23B2     		sxth	r3, r4
 2210 0096 B342     		cmp	r3, r6
 2211 0098 CFDB     		blt	.L79
 399:.\GFXmaster.c ****     for(i=0; i<w; i++ ) {
 2212              		.loc 1 399 0 is_stmt 1 discriminator 2
 2213 009a 0135     		add	r5, r5, #1
 2214              	.LVL293:
 2215 009c ADB2     		uxth	r5, r5
 2216              	.LVL294:
 2217              	.L76:
 399:.\GFXmaster.c ****     for(i=0; i<w; i++ ) {
 2218              		.loc 1 399 0 is_stmt 0 discriminator 1
 2219 009e 2BB2     		sxth	r3, r5
 2220 00a0 5B45     		cmp	r3, fp
 2221 00a2 F6DB     		blt	.L81
 406:.\GFXmaster.c ****       }
 407:.\GFXmaster.c ****     }
 408:.\GFXmaster.c ****   }
 409:.\GFXmaster.c **** }   
 2222              		.loc 1 409 0 is_stmt 1
 2223 00a4 04B0     		add	sp, sp, #16
 2224              		@ sp needed
 2225              	.LVL295:
 2226              	.LVL296:
 2227 00a6 1CBC     		pop	{r2, r3, r4}
 2228 00a8 9146     		mov	r9, r2
 2229 00aa 9A46     		mov	r10, r3
 2230 00ac A346     		mov	fp, r4
 2231 00ae F0BD     		pop	{r4, r5, r6, r7, pc}
 2232              		.cfi_endproc
 2233              	.LFE49:
ARM GAS  C:\Users\username\AppData\Local\Temp\ccSuCzK2.s 			page 48


 2234              		.size	drawBitmapBG, .-drawBitmapBG
 2235              		.section	.text.drawXBitmap,"ax",%progbits
 2236              		.align	2
 2237              		.global	drawXBitmap
 2238              		.code	16
 2239              		.thumb_func
 2240              		.type	drawXBitmap, %function
 2241              	drawXBitmap:
 2242              	.LFB50:
 410:.\GFXmaster.c ****             
 411:.\GFXmaster.c ****             
 412:.\GFXmaster.c ****             
 413:.\GFXmaster.c **** 
 414:.\GFXmaster.c **** //Draw XBitMap Files (*.xbm), exported from GIMP,
 415:.\GFXmaster.c **** //Usage: Export from GIMP to *.xbm, rename *.xbm to *.c and open in editor.
 416:.\GFXmaster.c **** //C Array can be directly used with this function
 417:.\GFXmaster.c **** void drawXBitmap(int16_t x, int16_t y,
 418:.\GFXmaster.c ****                               const uint8_t *bitmap, int16_t w, int16_t h,
 419:.\GFXmaster.c ****                               uint16_t color) {
 2243              		.loc 1 419 0
 2244              		.cfi_startproc
 2245              	.LVL297:
 2246 0000 F0B5     		push	{r4, r5, r6, r7, lr}
 2247              		.cfi_def_cfa_offset 20
 2248              		.cfi_offset 4, -20
 2249              		.cfi_offset 5, -16
 2250              		.cfi_offset 6, -12
 2251              		.cfi_offset 7, -8
 2252              		.cfi_offset 14, -4
 2253 0002 5F46     		mov	r7, fp
 2254 0004 5646     		mov	r6, r10
 2255 0006 4D46     		mov	r5, r9
 2256 0008 4446     		mov	r4, r8
 2257 000a F0B4     		push	{r4, r5, r6, r7}
 2258              		.cfi_def_cfa_offset 36
 2259              		.cfi_offset 8, -36
 2260              		.cfi_offset 9, -32
 2261              		.cfi_offset 10, -28
 2262              		.cfi_offset 11, -24
 2263 000c 85B0     		sub	sp, sp, #20
 2264              		.cfi_def_cfa_offset 56
 2265 000e 8346     		mov	fp, r0
 2266 0010 8A46     		mov	r10, r1
 2267 0012 9146     		mov	r9, r2
 2268 0014 9846     		mov	r8, r3
 2269 0016 0EAB     		add	r3, sp, #56
 2270              	.LVL298:
 2271 0018 0022     		mov	r2, #0
 2272 001a 9B5E     		ldrsh	r3, [r3, r2]
 2273              	.LVL299:
 2274 001c 0393     		str	r3, [sp, #12]
 2275 001e 0FAB     		add	r3, sp, #60
 2276              	.LVL300:
 2277 0020 1B88     		ldrh	r3, [r3]
 2278              	.LVL301:
 2279 0022 0293     		str	r3, [sp, #8]
 420:.\GFXmaster.c ****   
ARM GAS  C:\Users\username\AppData\Local\Temp\ccSuCzK2.s 			page 49


 421:.\GFXmaster.c ****   int16_t i, j, byteWidth = (w + 7) / 8;
 2280              		.loc 1 421 0
 2281 0024 4346     		mov	r3, r8
 2282 0026 0733     		add	r3, r3, #7
 2283 0028 DA17     		asr	r2, r3, #31
 2284 002a 520F     		lsr	r2, r2, #29
 2285 002c D318     		add	r3, r2, r3
 2286 002e DB10     		asr	r3, r3, #3
 2287 0030 9BB2     		uxth	r3, r3
 2288 0032 0193     		str	r3, [sp, #4]
 2289              	.LVL302:
 422:.\GFXmaster.c ****   
 423:.\GFXmaster.c ****   for(j=0; j<h; j++) {
 2290              		.loc 1 423 0
 2291 0034 0027     		mov	r7, #0
 2292 0036 26E0     		b	.L83
 2293              	.LVL303:
 2294              	.L85:
 2295              	.LBB14:
 424:.\GFXmaster.c ****     for(i=0; i<w; i++ ) {
 425:.\GFXmaster.c ****       if(pgm_read_byte(bitmap + j * byteWidth + i / 8) & (1 << (i % 8))) {
 2296              		.loc 1 425 0
 2297 0038 38B2     		sxth	r0, r7
 2298 003a 6B46     		mov	r3, sp
 2299 003c 0422     		mov	r2, #4
 2300 003e 9B5E     		ldrsh	r3, [r3, r2]
 2301 0040 5843     		mul	r0, r3
 2302 0042 2CB2     		sxth	r4, r5
 2303 0044 E617     		asr	r6, r4, #31
 2304 0046 760F     		lsr	r6, r6, #29
 2305 0048 3419     		add	r4, r6, r4
 2306 004a E310     		asr	r3, r4, #3
 2307 004c C018     		add	r0, r0, r3
 2308 004e 4844     		add	r0, r0, r9
 2309 0050 FFF7FEFF 		bl	pgm_read_byte
 2310              	.LVL304:
 2311 0054 0723     		mov	r3, #7
 2312 0056 1C40     		and	r4, r3
 2313 0058 A61B     		sub	r6, r4, r6
 2314 005a 36B2     		sxth	r6, r6
 2315 005c 3041     		asr	r0, r0, r6
 2316 005e C307     		lsl	r3, r0, #31
 2317 0060 08D5     		bpl	.L84
 426:.\GFXmaster.c ****         drawPixel(x+i, y+j, color);
 2318              		.loc 1 426 0
 2319 0062 5B46     		mov	r3, fp
 2320 0064 5819     		add	r0, r3, r5
 2321 0066 00B2     		sxth	r0, r0
 2322 0068 5346     		mov	r3, r10
 2323 006a D919     		add	r1, r3, r7
 2324 006c 09B2     		sxth	r1, r1
 2325 006e 029A     		ldr	r2, [sp, #8]
 2326 0070 FFF7FEFF 		bl	drawPixel
 2327              	.LVL305:
 2328              	.L84:
 2329              	.LBE14:
 424:.\GFXmaster.c ****     for(i=0; i<w; i++ ) {
ARM GAS  C:\Users\username\AppData\Local\Temp\ccSuCzK2.s 			page 50


 2330              		.loc 1 424 0 discriminator 2
 2331 0074 0135     		add	r5, r5, #1
 2332              	.LVL306:
 2333 0076 ADB2     		uxth	r5, r5
 2334              	.LVL307:
 2335 0078 00E0     		b	.L86
 2336              	.LVL308:
 2337              	.L87:
 2338 007a 0025     		mov	r5, #0
 2339              	.L86:
 2340              	.LVL309:
 424:.\GFXmaster.c ****     for(i=0; i<w; i++ ) {
 2341              		.loc 1 424 0 is_stmt 0 discriminator 1
 2342 007c 2BB2     		sxth	r3, r5
 2343 007e 4345     		cmp	r3, r8
 2344 0080 DADB     		blt	.L85
 423:.\GFXmaster.c ****     for(i=0; i<w; i++ ) {
 2345              		.loc 1 423 0 is_stmt 1 discriminator 2
 2346 0082 0137     		add	r7, r7, #1
 2347              	.LVL310:
 2348 0084 BFB2     		uxth	r7, r7
 2349              	.LVL311:
 2350              	.L83:
 423:.\GFXmaster.c ****     for(i=0; i<w; i++ ) {
 2351              		.loc 1 423 0 is_stmt 0 discriminator 1
 2352 0086 3BB2     		sxth	r3, r7
 2353 0088 039A     		ldr	r2, [sp, #12]
 2354 008a 9342     		cmp	r3, r2
 2355 008c F5DB     		blt	.L87
 427:.\GFXmaster.c ****       }
 428:.\GFXmaster.c ****     }
 429:.\GFXmaster.c ****   }
 430:.\GFXmaster.c **** }            
 2356              		.loc 1 430 0 is_stmt 1
 2357 008e 05B0     		add	sp, sp, #20
 2358              		@ sp needed
 2359              	.LVL312:
 2360              	.LVL313:
 2361 0090 3CBC     		pop	{r2, r3, r4, r5}
 2362 0092 9046     		mov	r8, r2
 2363 0094 9946     		mov	r9, r3
 2364 0096 A246     		mov	r10, r4
 2365 0098 AB46     		mov	fp, r5
 2366 009a F0BD     		pop	{r4, r5, r6, r7, pc}
 2367              		.cfi_endproc
 2368              	.LFE50:
 2369              		.size	drawXBitmap, .-drawXBitmap
 2370              		.section	.text.drawChar,"ax",%progbits
 2371              		.align	2
 2372              		.global	drawChar
 2373              		.code	16
 2374              		.thumb_func
 2375              		.type	drawChar, %function
 2376              	drawChar:
 2377              	.LFB53:
 431:.\GFXmaster.c ****             
 432:.\GFXmaster.c ****     
ARM GAS  C:\Users\username\AppData\Local\Temp\ccSuCzK2.s 			page 51


 433:.\GFXmaster.c **** void writeString(char string[]){
 434:.\GFXmaster.c ****     unsigned int iterator = 0;
 435:.\GFXmaster.c ****     for(iterator=0;iterator < strlen(string);iterator++){
 436:.\GFXmaster.c ****         write(string[iterator]);
 437:.\GFXmaster.c ****     }
 438:.\GFXmaster.c **** }
 439:.\GFXmaster.c ****                             
 440:.\GFXmaster.c **** void write(uint8_t c) {
 441:.\GFXmaster.c **** 
 442:.\GFXmaster.c ****   if (c == '\n') {
 443:.\GFXmaster.c ****     cursor_y += textsize*8;
 444:.\GFXmaster.c ****     cursor_x  = 0;
 445:.\GFXmaster.c ****   } else if (c == '\r') {
 446:.\GFXmaster.c ****     // skip em
 447:.\GFXmaster.c ****   } else {
 448:.\GFXmaster.c ****     drawChar(cursor_x, cursor_y, c, textcolor, textbgcolor, textsize);
 449:.\GFXmaster.c ****     cursor_x += textsize*6;
 450:.\GFXmaster.c ****     if (wrap && (cursor_x > (_width - textsize*6))) {
 451:.\GFXmaster.c ****       cursor_y += textsize*8;
 452:.\GFXmaster.c ****       cursor_x = 0;
 453:.\GFXmaster.c ****     }
 454:.\GFXmaster.c ****   }
 455:.\GFXmaster.c **** 
 456:.\GFXmaster.c **** }
 457:.\GFXmaster.c **** 
 458:.\GFXmaster.c **** 
 459:.\GFXmaster.c **** 
 460:.\GFXmaster.c **** // Draw a character
 461:.\GFXmaster.c **** void drawChar(int16_t x, int16_t y, unsigned char c,
 462:.\GFXmaster.c **** 			    uint16_t color, uint16_t bg, uint8_t size) {
 2378              		.loc 1 462 0
 2379              		.cfi_startproc
 2380              	.LVL314:
 2381 0000 F0B5     		push	{r4, r5, r6, r7, lr}
 2382              		.cfi_def_cfa_offset 20
 2383              		.cfi_offset 4, -20
 2384              		.cfi_offset 5, -16
 2385              		.cfi_offset 6, -12
 2386              		.cfi_offset 7, -8
 2387              		.cfi_offset 14, -4
 2388 0002 5F46     		mov	r7, fp
 2389 0004 5646     		mov	r6, r10
 2390 0006 4D46     		mov	r5, r9
 2391 0008 4446     		mov	r4, r8
 2392 000a F0B4     		push	{r4, r5, r6, r7}
 2393              		.cfi_def_cfa_offset 36
 2394              		.cfi_offset 8, -36
 2395              		.cfi_offset 9, -32
 2396              		.cfi_offset 10, -28
 2397              		.cfi_offset 11, -24
 2398 000c 85B0     		sub	sp, sp, #20
 2399              		.cfi_def_cfa_offset 56
 2400 000e 8146     		mov	r9, r0
 2401 0010 8A46     		mov	r10, r1
 2402 0012 0392     		str	r2, [sp, #12]
 2403 0014 9846     		mov	r8, r3
 2404 0016 0EAB     		add	r3, sp, #56
ARM GAS  C:\Users\username\AppData\Local\Temp\ccSuCzK2.s 			page 52


 2405              	.LVL315:
 2406 0018 1B88     		ldrh	r3, [r3]
 2407              	.LVL316:
 2408 001a 9B46     		mov	fp, r3
 2409 001c 0FAB     		add	r3, sp, #60
 2410              	.LVL317:
 2411 001e 1F78     		ldrb	r7, [r3]
 463:.\GFXmaster.c **** 
 464:.\GFXmaster.c ****   if((x >= _width)            || // Clip right
 2412              		.loc 1 464 0
 2413 0020 3C4B     		ldr	r3, .L101
 2414              	.LVL318:
 2415 0022 0022     		mov	r2, #0
 2416 0024 9B5E     		ldrsh	r3, [r3, r2]
 2417              	.LVL319:
 2418 0026 9842     		cmp	r0, r3
 2419 0028 6DDA     		bge	.L88
 2420              		.loc 1 464 0 is_stmt 0 discriminator 1
 2421 002a 3B4B     		ldr	r3, .L101+4
 2422 002c 0022     		mov	r2, #0
 2423 002e 9B5E     		ldrsh	r3, [r3, r2]
 2424 0030 9942     		cmp	r1, r3
 2425 0032 68DA     		bge	.L88
 465:.\GFXmaster.c ****      (y >= _height)           || // Clip bottom
 466:.\GFXmaster.c ****      ((x + 6 * size - 1) < 0) || // Clip left
 2426              		.loc 1 466 0 is_stmt 1
 2427 0034 7B00     		lsl	r3, r7, #1
 2428 0036 DB19     		add	r3, r3, r7
 2429 0038 5B00     		lsl	r3, r3, #1
 2430 003a 4B44     		add	r3, r3, r9
 465:.\GFXmaster.c ****      (y >= _height)           || // Clip bottom
 2431              		.loc 1 465 0
 2432 003c 012B     		cmp	r3, #1
 2433 003e 62D4     		bmi	.L88
 467:.\GFXmaster.c ****      ((y + 8 * size - 1) < 0))   // Clip top
 2434              		.loc 1 467 0
 2435 0040 FB00     		lsl	r3, r7, #3
 2436 0042 5344     		add	r3, r3, r10
 466:.\GFXmaster.c ****      ((y + 8 * size - 1) < 0))   // Clip top
 2437              		.loc 1 466 0
 2438 0044 012B     		cmp	r3, #1
 2439 0046 5ED4     		bmi	.L88
 468:.\GFXmaster.c ****     return;
 469:.\GFXmaster.c **** 
 470:.\GFXmaster.c ****   if(!_cp437 && (c >= 176)) c++; // Handle 'classic' charset behavior
 2440              		.loc 1 470 0
 2441 0048 344B     		ldr	r3, .L101+8
 2442 004a 1B78     		ldrb	r3, [r3]
 2443 004c 002B     		cmp	r3, #0
 2444 004e 05D1     		bne	.L90
 2445              		.loc 1 470 0 is_stmt 0 discriminator 1
 2446 0050 039B     		ldr	r3, [sp, #12]
 2447 0052 AF2B     		cmp	r3, #175
 2448 0054 02D9     		bls	.L90
 2449              		.loc 1 470 0 discriminator 2
 2450 0056 0133     		add	r3, r3, #1
 2451 0058 DBB2     		uxtb	r3, r3
ARM GAS  C:\Users\username\AppData\Local\Temp\ccSuCzK2.s 			page 53


 2452 005a 0393     		str	r3, [sp, #12]
 2453              	.LVL320:
 2454              	.L90:
 471:.\GFXmaster.c **** 
 472:.\GFXmaster.c ****   int8_t i = 0;
 473:.\GFXmaster.c ****   int8_t j =0;
 474:.\GFXmaster.c ****   for (i=0; i<6; i++ ) {
 2455              		.loc 1 474 0 is_stmt 1
 2456 005c 0026     		mov	r6, #0
 2457 005e 4FE0     		b	.L91
 2458              	.LVL321:
 2459              	.L99:
 2460              	.LBB15:
 475:.\GFXmaster.c ****     unsigned char line;
 476:.\GFXmaster.c **** 
 477:.\GFXmaster.c ****     if (i == 5) 
 2461              		.loc 1 477 0
 2462 0060 052E     		cmp	r6, #5
 2463 0062 07D0     		beq	.L100
 478:.\GFXmaster.c ****       line = 0x0;
 479:.\GFXmaster.c ****     else 
 480:.\GFXmaster.c ****         line = *(font+(c*5)+i);//line = pgm_read_byte(font+(c*5)+i);
 2464              		.loc 1 480 0
 2465 0064 039A     		ldr	r2, [sp, #12]
 2466 0066 9300     		lsl	r3, r2, #2
 2467 0068 9A18     		add	r2, r3, r2
 2468 006a 73B2     		sxtb	r3, r6
 2469 006c D318     		add	r3, r2, r3
 2470 006e 2C4A     		ldr	r2, .L101+12
 2471 0070 D55C     		ldrb	r5, [r2, r3]
 2472              	.LVL322:
 2473 0072 00E0     		b	.L92
 2474              	.LVL323:
 2475              	.L100:
 478:.\GFXmaster.c ****       line = 0x0;
 2476              		.loc 1 478 0
 2477 0074 0025     		mov	r5, #0
 2478              	.L92:
 478:.\GFXmaster.c ****       line = 0x0;
 2479              		.loc 1 478 0 is_stmt 0 discriminator 1
 2480 0076 0024     		mov	r4, #0
 2481 0078 3DE0     		b	.L93
 2482              	.LVL324:
 2483              	.L98:
 481:.\GFXmaster.c ****     for (j = 0; j<8; j++) {
 482:.\GFXmaster.c ****       if (line & 0x1) {
 2484              		.loc 1 482 0 is_stmt 1
 2485 007a EB07     		lsl	r3, r5, #31
 2486 007c 1BD5     		bpl	.L94
 483:.\GFXmaster.c ****         if (size == 1) // default size
 2487              		.loc 1 483 0
 2488 007e 012F     		cmp	r7, #1
 2489 0080 09D1     		bne	.L95
 484:.\GFXmaster.c ****           drawPixel(x+i, y+j, color);
 2490              		.loc 1 484 0
 2491 0082 70B2     		sxtb	r0, r6
 2492 0084 4844     		add	r0, r0, r9
ARM GAS  C:\Users\username\AppData\Local\Temp\ccSuCzK2.s 			page 54


 2493 0086 00B2     		sxth	r0, r0
 2494 0088 61B2     		sxtb	r1, r4
 2495 008a 5144     		add	r1, r1, r10
 2496 008c 09B2     		sxth	r1, r1
 2497 008e 4246     		mov	r2, r8
 2498 0090 FFF7FEFF 		bl	drawPixel
 2499              	.LVL325:
 2500 0094 2CE0     		b	.L96
 2501              	.L95:
 485:.\GFXmaster.c ****         else {  // big size
 486:.\GFXmaster.c ****           fillRect(x+(i*size), y+(j*size), size, size, color);
 2502              		.loc 1 486 0
 2503 0096 BBB2     		uxth	r3, r7
 2504 0098 70B2     		sxtb	r0, r6
 2505 009a 5843     		mul	r0, r3
 2506 009c 4844     		add	r0, r0, r9
 2507 009e 00B2     		sxth	r0, r0
 2508 00a0 61B2     		sxtb	r1, r4
 2509 00a2 5943     		mul	r1, r3
 2510 00a4 5144     		add	r1, r1, r10
 2511 00a6 09B2     		sxth	r1, r1
 2512 00a8 1BB2     		sxth	r3, r3
 2513 00aa 4246     		mov	r2, r8
 2514 00ac 0092     		str	r2, [sp]
 2515 00ae 1A1C     		mov	r2, r3
 2516 00b0 FFF7FEFF 		bl	fillRect
 2517              	.LVL326:
 2518 00b4 1CE0     		b	.L96
 2519              	.L94:
 487:.\GFXmaster.c ****         } 
 488:.\GFXmaster.c ****       } 
 489:.\GFXmaster.c ****       else if (bg != color) {
 2520              		.loc 1 489 0
 2521 00b6 C345     		cmp	fp, r8
 2522 00b8 1AD0     		beq	.L96
 490:.\GFXmaster.c ****         if (size == 1) // default size
 2523              		.loc 1 490 0
 2524 00ba 012F     		cmp	r7, #1
 2525 00bc 09D1     		bne	.L97
 491:.\GFXmaster.c ****           drawPixel(x+i, y+j, bg);
 2526              		.loc 1 491 0
 2527 00be 70B2     		sxtb	r0, r6
 2528 00c0 4844     		add	r0, r0, r9
 2529 00c2 00B2     		sxth	r0, r0
 2530 00c4 61B2     		sxtb	r1, r4
 2531 00c6 5144     		add	r1, r1, r10
 2532 00c8 09B2     		sxth	r1, r1
 2533 00ca 5A46     		mov	r2, fp
 2534 00cc FFF7FEFF 		bl	drawPixel
 2535              	.LVL327:
 2536 00d0 0EE0     		b	.L96
 2537              	.L97:
 492:.\GFXmaster.c ****         else {  // big size
 493:.\GFXmaster.c ****           fillRect(x+i*size, y+j*size, size, size, bg);
 2538              		.loc 1 493 0
 2539 00d2 BBB2     		uxth	r3, r7
 2540 00d4 70B2     		sxtb	r0, r6
ARM GAS  C:\Users\username\AppData\Local\Temp\ccSuCzK2.s 			page 55


 2541 00d6 5843     		mul	r0, r3
 2542 00d8 4844     		add	r0, r0, r9
 2543 00da 00B2     		sxth	r0, r0
 2544 00dc 61B2     		sxtb	r1, r4
 2545 00de 5943     		mul	r1, r3
 2546 00e0 5144     		add	r1, r1, r10
 2547 00e2 09B2     		sxth	r1, r1
 2548 00e4 1BB2     		sxth	r3, r3
 2549 00e6 5A46     		mov	r2, fp
 2550 00e8 0092     		str	r2, [sp]
 2551 00ea 1A1C     		mov	r2, r3
 2552 00ec FFF7FEFF 		bl	fillRect
 2553              	.LVL328:
 2554              	.L96:
 494:.\GFXmaster.c ****         }
 495:.\GFXmaster.c ****       }
 496:.\GFXmaster.c ****       line >>= 1;
 2555              		.loc 1 496 0 discriminator 2
 2556 00f0 6D08     		lsr	r5, r5, #1
 2557              	.LVL329:
 481:.\GFXmaster.c ****       if (line & 0x1) {
 2558              		.loc 1 481 0 discriminator 2
 2559 00f2 0134     		add	r4, r4, #1
 2560              	.LVL330:
 2561 00f4 E4B2     		uxtb	r4, r4
 2562              	.LVL331:
 2563              	.L93:
 481:.\GFXmaster.c ****       if (line & 0x1) {
 2564              		.loc 1 481 0 is_stmt 0 discriminator 1
 2565 00f6 63B2     		sxtb	r3, r4
 2566 00f8 072B     		cmp	r3, #7
 2567 00fa BEDD     		ble	.L98
 2568              	.LBE15:
 474:.\GFXmaster.c ****     unsigned char line;
 2569              		.loc 1 474 0 is_stmt 1 discriminator 2
 2570 00fc 0136     		add	r6, r6, #1
 2571              	.LVL332:
 2572 00fe F6B2     		uxtb	r6, r6
 2573              	.LVL333:
 2574              	.L91:
 474:.\GFXmaster.c ****     unsigned char line;
 2575              		.loc 1 474 0 is_stmt 0 discriminator 1
 2576 0100 73B2     		sxtb	r3, r6
 2577 0102 052B     		cmp	r3, #5
 2578 0104 ACDD     		ble	.L99
 2579              	.LVL334:
 2580              	.L88:
 497:.\GFXmaster.c ****     }
 498:.\GFXmaster.c ****   }
 499:.\GFXmaster.c **** }
 2581              		.loc 1 499 0 is_stmt 1
 2582 0106 05B0     		add	sp, sp, #20
 2583              		@ sp needed
 2584 0108 3CBC     		pop	{r2, r3, r4, r5}
 2585 010a 9046     		mov	r8, r2
 2586 010c 9946     		mov	r9, r3
 2587 010e A246     		mov	r10, r4
ARM GAS  C:\Users\username\AppData\Local\Temp\ccSuCzK2.s 			page 56


 2588 0110 AB46     		mov	fp, r5
 2589 0112 F0BD     		pop	{r4, r5, r6, r7, pc}
 2590              	.L102:
 2591              		.align	2
 2592              	.L101:
 2593 0114 00000000 		.word	_width
 2594 0118 00000000 		.word	_height
 2595 011c 00000000 		.word	_cp437
 2596 0120 00000000 		.word	.LANCHOR0
 2597              		.cfi_endproc
 2598              	.LFE53:
 2599              		.size	drawChar, .-drawChar
 2600              		.section	.text.write,"ax",%progbits
 2601              		.align	2
 2602              		.global	write
 2603              		.code	16
 2604              		.thumb_func
 2605              		.type	write, %function
 2606              	write:
 2607              	.LFB52:
 440:.\GFXmaster.c **** 
 2608              		.loc 1 440 0
 2609              		.cfi_startproc
 2610              	.LVL335:
 2611 0000 70B5     		push	{r4, r5, r6, lr}
 2612              		.cfi_def_cfa_offset 16
 2613              		.cfi_offset 4, -16
 2614              		.cfi_offset 5, -12
 2615              		.cfi_offset 6, -8
 2616              		.cfi_offset 14, -4
 2617 0002 82B0     		sub	sp, sp, #8
 2618              		.cfi_def_cfa_offset 24
 442:.\GFXmaster.c ****     cursor_y += textsize*8;
 2619              		.loc 1 442 0
 2620 0004 0A28     		cmp	r0, #10
 2621 0006 0AD1     		bne	.L104
 443:.\GFXmaster.c ****     cursor_x  = 0;
 2622              		.loc 1 443 0
 2623 0008 1F49     		ldr	r1, .L106
 2624 000a 204B     		ldr	r3, .L106+4
 2625 000c 1B78     		ldrb	r3, [r3]
 2626 000e DB00     		lsl	r3, r3, #3
 2627 0010 0A88     		ldrh	r2, [r1]
 2628 0012 9B18     		add	r3, r3, r2
 2629 0014 0B80     		strh	r3, [r1]
 444:.\GFXmaster.c ****   } else if (c == '\r') {
 2630              		.loc 1 444 0
 2631 0016 0022     		mov	r2, #0
 2632 0018 1D4B     		ldr	r3, .L106+8
 2633 001a 1A80     		strh	r2, [r3]
 2634 001c 31E0     		b	.L103
 2635              	.L104:
 445:.\GFXmaster.c ****     // skip em
 2636              		.loc 1 445 0
 2637 001e 0D28     		cmp	r0, #13
 2638 0020 2FD0     		beq	.L103
 2639 0022 021C     		mov	r2, r0
ARM GAS  C:\Users\username\AppData\Local\Temp\ccSuCzK2.s 			page 57


 448:.\GFXmaster.c ****     cursor_x += textsize*6;
 2640              		.loc 1 448 0
 2641 0024 1A4C     		ldr	r4, .L106+8
 2642 0026 0023     		mov	r3, #0
 2643 0028 E05E     		ldrsh	r0, [r4, r3]
 2644              	.LVL336:
 2645 002a 174B     		ldr	r3, .L106
 2646 002c 0021     		mov	r1, #0
 2647 002e 595E     		ldrsh	r1, [r3, r1]
 2648 0030 184B     		ldr	r3, .L106+12
 2649 0032 1B88     		ldrh	r3, [r3]
 2650 0034 184D     		ldr	r5, .L106+16
 2651 0036 2D88     		ldrh	r5, [r5]
 2652 0038 0095     		str	r5, [sp]
 2653 003a 144D     		ldr	r5, .L106+4
 2654 003c 2E78     		ldrb	r6, [r5]
 2655 003e 0196     		str	r6, [sp, #4]
 2656 0040 FFF7FEFF 		bl	drawChar
 2657              	.LVL337:
 449:.\GFXmaster.c ****     if (wrap && (cursor_x > (_width - textsize*6))) {
 2658              		.loc 1 449 0
 2659 0044 2A78     		ldrb	r2, [r5]
 2660 0046 90B2     		uxth	r0, r2
 2661 0048 4100     		lsl	r1, r0, #1
 2662 004a 4118     		add	r1, r0, r1
 2663 004c 4D00     		lsl	r5, r1, #1
 2664 004e 2388     		ldrh	r3, [r4]
 2665 0050 EB18     		add	r3, r5, r3
 2666 0052 9BB2     		uxth	r3, r3
 2667 0054 2380     		strh	r3, [r4]
 450:.\GFXmaster.c ****       cursor_y += textsize*8;
 2668              		.loc 1 450 0
 2669 0056 1149     		ldr	r1, .L106+20
 2670 0058 0978     		ldrb	r1, [r1]
 2671 005a 0029     		cmp	r1, #0
 2672 005c 11D0     		beq	.L103
 450:.\GFXmaster.c ****       cursor_y += textsize*8;
 2673              		.loc 1 450 0 is_stmt 0 discriminator 1
 2674 005e 1BB2     		sxth	r3, r3
 2675 0060 9100     		lsl	r1, r2, #2
 2676 0062 521A     		sub	r2, r2, r1
 2677 0064 5200     		lsl	r2, r2, #1
 2678 0066 0E49     		ldr	r1, .L106+24
 2679 0068 0024     		mov	r4, #0
 2680 006a 095F     		ldrsh	r1, [r1, r4]
 2681 006c 8A18     		add	r2, r1, r2
 2682 006e 9342     		cmp	r3, r2
 2683 0070 07DD     		ble	.L103
 451:.\GFXmaster.c ****       cursor_x = 0;
 2684              		.loc 1 451 0 is_stmt 1
 2685 0072 054A     		ldr	r2, .L106
 2686 0074 C000     		lsl	r0, r0, #3
 2687 0076 1388     		ldrh	r3, [r2]
 2688 0078 C018     		add	r0, r0, r3
 2689 007a 1080     		strh	r0, [r2]
 452:.\GFXmaster.c ****     }
 2690              		.loc 1 452 0
ARM GAS  C:\Users\username\AppData\Local\Temp\ccSuCzK2.s 			page 58


 2691 007c 0022     		mov	r2, #0
 2692 007e 044B     		ldr	r3, .L106+8
 2693 0080 1A80     		strh	r2, [r3]
 2694              	.L103:
 456:.\GFXmaster.c **** 
 2695              		.loc 1 456 0
 2696 0082 02B0     		add	sp, sp, #8
 2697              		@ sp needed
 2698 0084 70BD     		pop	{r4, r5, r6, pc}
 2699              	.L107:
 2700 0086 C046     		.align	2
 2701              	.L106:
 2702 0088 00000000 		.word	cursor_y
 2703 008c 00000000 		.word	textsize
 2704 0090 00000000 		.word	cursor_x
 2705 0094 00000000 		.word	textcolor
 2706 0098 00000000 		.word	textbgcolor
 2707 009c 00000000 		.word	wrap
 2708 00a0 00000000 		.word	_width
 2709              		.cfi_endproc
 2710              	.LFE52:
 2711              		.size	write, .-write
 2712              		.section	.text.writeString,"ax",%progbits
 2713              		.align	2
 2714              		.global	writeString
 2715              		.code	16
 2716              		.thumb_func
 2717              		.type	writeString, %function
 2718              	writeString:
 2719              	.LFB51:
 433:.\GFXmaster.c ****     unsigned int iterator = 0;
 2720              		.loc 1 433 0
 2721              		.cfi_startproc
 2722              	.LVL338:
 2723 0000 38B5     		push	{r3, r4, r5, lr}
 2724              		.cfi_def_cfa_offset 16
 2725              		.cfi_offset 3, -16
 2726              		.cfi_offset 4, -12
 2727              		.cfi_offset 5, -8
 2728              		.cfi_offset 14, -4
 2729 0002 051C     		mov	r5, r0
 2730              	.LVL339:
 435:.\GFXmaster.c ****         write(string[iterator]);
 2731              		.loc 1 435 0
 2732 0004 0024     		mov	r4, #0
 2733 0006 03E0     		b	.L109
 2734              	.LVL340:
 2735              	.L110:
 436:.\GFXmaster.c ****     }
 2736              		.loc 1 436 0 discriminator 3
 2737 0008 285D     		ldrb	r0, [r5, r4]
 2738 000a FFF7FEFF 		bl	write
 2739              	.LVL341:
 435:.\GFXmaster.c ****         write(string[iterator]);
 2740              		.loc 1 435 0 discriminator 3
 2741 000e 0134     		add	r4, r4, #1
 2742              	.LVL342:
ARM GAS  C:\Users\username\AppData\Local\Temp\ccSuCzK2.s 			page 59


 2743              	.L109:
 435:.\GFXmaster.c ****         write(string[iterator]);
 2744              		.loc 1 435 0 is_stmt 0 discriminator 1
 2745 0010 281C     		mov	r0, r5
 2746 0012 FFF7FEFF 		bl	strlen
 2747              	.LVL343:
 2748 0016 A042     		cmp	r0, r4
 2749 0018 F6D8     		bhi	.L110
 438:.\GFXmaster.c ****                             
 2750              		.loc 1 438 0 is_stmt 1
 2751              		@ sp needed
 2752              	.LVL344:
 2753              	.LVL345:
 2754 001a 38BD     		pop	{r3, r4, r5, pc}
 2755              		.cfi_endproc
 2756              	.LFE51:
 2757              		.size	writeString, .-writeString
 2758              		.section	.text.setCursor,"ax",%progbits
 2759              		.align	2
 2760              		.global	setCursor
 2761              		.code	16
 2762              		.thumb_func
 2763              		.type	setCursor, %function
 2764              	setCursor:
 2765              	.LFB54:
 500:.\GFXmaster.c **** 
 501:.\GFXmaster.c **** 
 502:.\GFXmaster.c ****                 
 503:.\GFXmaster.c **** void setCursor(int16_t x, int16_t y) {
 2766              		.loc 1 503 0
 2767              		.cfi_startproc
 2768              	.LVL346:
 504:.\GFXmaster.c ****   cursor_x = x;
 2769              		.loc 1 504 0
 2770 0000 024B     		ldr	r3, .L112
 2771 0002 1880     		strh	r0, [r3]
 505:.\GFXmaster.c ****   cursor_y = y;
 2772              		.loc 1 505 0
 2773 0004 024B     		ldr	r3, .L112+4
 2774 0006 1980     		strh	r1, [r3]
 506:.\GFXmaster.c **** }
 2775              		.loc 1 506 0
 2776              		@ sp needed
 2777 0008 7047     		bx	lr
 2778              	.L113:
 2779 000a C046     		.align	2
 2780              	.L112:
 2781 000c 00000000 		.word	cursor_x
 2782 0010 00000000 		.word	cursor_y
 2783              		.cfi_endproc
 2784              	.LFE54:
 2785              		.size	setCursor, .-setCursor
 2786              		.section	.text.getCursorX,"ax",%progbits
 2787              		.align	2
 2788              		.global	getCursorX
 2789              		.code	16
 2790              		.thumb_func
ARM GAS  C:\Users\username\AppData\Local\Temp\ccSuCzK2.s 			page 60


 2791              		.type	getCursorX, %function
 2792              	getCursorX:
 2793              	.LFB55:
 507:.\GFXmaster.c **** 
 508:.\GFXmaster.c **** 
 509:.\GFXmaster.c **** int16_t getCursorX(void) {          //used to be a const method
 2794              		.loc 1 509 0
 2795              		.cfi_startproc
 510:.\GFXmaster.c ****   return cursor_x;
 2796              		.loc 1 510 0
 2797 0000 014B     		ldr	r3, .L115
 2798 0002 0020     		mov	r0, #0
 2799 0004 185E     		ldrsh	r0, [r3, r0]
 511:.\GFXmaster.c **** }
 2800              		.loc 1 511 0
 2801              		@ sp needed
 2802 0006 7047     		bx	lr
 2803              	.L116:
 2804              		.align	2
 2805              	.L115:
 2806 0008 00000000 		.word	cursor_x
 2807              		.cfi_endproc
 2808              	.LFE55:
 2809              		.size	getCursorX, .-getCursorX
 2810              		.section	.text.getCursorY,"ax",%progbits
 2811              		.align	2
 2812              		.global	getCursorY
 2813              		.code	16
 2814              		.thumb_func
 2815              		.type	getCursorY, %function
 2816              	getCursorY:
 2817              	.LFB56:
 512:.\GFXmaster.c **** 
 513:.\GFXmaster.c ****   
 514:.\GFXmaster.c **** 
 515:.\GFXmaster.c **** int16_t getCursorY(void) {          // used to be a const method
 2818              		.loc 1 515 0
 2819              		.cfi_startproc
 516:.\GFXmaster.c ****   return cursor_y;
 2820              		.loc 1 516 0
 2821 0000 014B     		ldr	r3, .L118
 2822 0002 0020     		mov	r0, #0
 2823 0004 185E     		ldrsh	r0, [r3, r0]
 517:.\GFXmaster.c **** }
 2824              		.loc 1 517 0
 2825              		@ sp needed
 2826 0006 7047     		bx	lr
 2827              	.L119:
 2828              		.align	2
 2829              	.L118:
 2830 0008 00000000 		.word	cursor_y
 2831              		.cfi_endproc
 2832              	.LFE56:
 2833              		.size	getCursorY, .-getCursorY
 2834              		.section	.text.setTextSize,"ax",%progbits
 2835              		.align	2
 2836              		.global	setTextSize
ARM GAS  C:\Users\username\AppData\Local\Temp\ccSuCzK2.s 			page 61


 2837              		.code	16
 2838              		.thumb_func
 2839              		.type	setTextSize, %function
 2840              	setTextSize:
 2841              	.LFB57:
 518:.\GFXmaster.c **** 
 519:.\GFXmaster.c **** 
 520:.\GFXmaster.c **** void setTextSize(uint8_t s) {
 2842              		.loc 1 520 0
 2843              		.cfi_startproc
 2844              	.LVL347:
 521:.\GFXmaster.c ****   textsize = (s > 0) ? s : 1;
 2845              		.loc 1 521 0
 2846 0000 0028     		cmp	r0, #0
 2847 0002 00D1     		bne	.L121
 2848 0004 0130     		add	r0, r0, #1
 2849              	.LVL348:
 2850              	.L121:
 2851              		.loc 1 521 0 is_stmt 0 discriminator 4
 2852 0006 014B     		ldr	r3, .L123
 2853 0008 1870     		strb	r0, [r3]
 522:.\GFXmaster.c **** }
 2854              		.loc 1 522 0 is_stmt 1 discriminator 4
 2855              		@ sp needed
 2856 000a 7047     		bx	lr
 2857              	.L124:
 2858              		.align	2
 2859              	.L123:
 2860 000c 00000000 		.word	textsize
 2861              		.cfi_endproc
 2862              	.LFE57:
 2863              		.size	setTextSize, .-setTextSize
 2864              		.section	.text.setTextColor,"ax",%progbits
 2865              		.align	2
 2866              		.global	setTextColor
 2867              		.code	16
 2868              		.thumb_func
 2869              		.type	setTextColor, %function
 2870              	setTextColor:
 2871              	.LFB58:
 523:.\GFXmaster.c **** 
 524:.\GFXmaster.c **** 
 525:.\GFXmaster.c **** void setTextColor(uint16_t c) {
 2872              		.loc 1 525 0
 2873              		.cfi_startproc
 2874              	.LVL349:
 526:.\GFXmaster.c ****   // For 'transparent' background, we'll set the bg 
 527:.\GFXmaster.c ****   // to the same as fg instead of using a flag
 528:.\GFXmaster.c ****   textcolor = textbgcolor = c;
 2875              		.loc 1 528 0
 2876 0000 024B     		ldr	r3, .L126
 2877 0002 1880     		strh	r0, [r3]
 2878 0004 024B     		ldr	r3, .L126+4
 2879 0006 1880     		strh	r0, [r3]
 529:.\GFXmaster.c **** }
 2880              		.loc 1 529 0
 2881              		@ sp needed
ARM GAS  C:\Users\username\AppData\Local\Temp\ccSuCzK2.s 			page 62


 2882 0008 7047     		bx	lr
 2883              	.L127:
 2884 000a C046     		.align	2
 2885              	.L126:
 2886 000c 00000000 		.word	textbgcolor
 2887 0010 00000000 		.word	textcolor
 2888              		.cfi_endproc
 2889              	.LFE58:
 2890              		.size	setTextColor, .-setTextColor
 2891              		.section	.text.setTextColorBG,"ax",%progbits
 2892              		.align	2
 2893              		.global	setTextColorBG
 2894              		.code	16
 2895              		.thumb_func
 2896              		.type	setTextColorBG, %function
 2897              	setTextColorBG:
 2898              	.LFB59:
 530:.\GFXmaster.c **** 
 531:.\GFXmaster.c **** 
 532:.\GFXmaster.c **** void setTextColorBG(uint16_t c, uint16_t b) {
 2899              		.loc 1 532 0
 2900              		.cfi_startproc
 2901              	.LVL350:
 533:.\GFXmaster.c ****   textcolor   = c;
 2902              		.loc 1 533 0
 2903 0000 024B     		ldr	r3, .L129
 2904 0002 1880     		strh	r0, [r3]
 534:.\GFXmaster.c ****   textbgcolor = b; 
 2905              		.loc 1 534 0
 2906 0004 024B     		ldr	r3, .L129+4
 2907 0006 1980     		strh	r1, [r3]
 535:.\GFXmaster.c **** }
 2908              		.loc 1 535 0
 2909              		@ sp needed
 2910 0008 7047     		bx	lr
 2911              	.L130:
 2912 000a C046     		.align	2
 2913              	.L129:
 2914 000c 00000000 		.word	textcolor
 2915 0010 00000000 		.word	textbgcolor
 2916              		.cfi_endproc
 2917              	.LFE59:
 2918              		.size	setTextColorBG, .-setTextColorBG
 2919              		.section	.text.setTextWrap,"ax",%progbits
 2920              		.align	2
 2921              		.global	setTextWrap
 2922              		.code	16
 2923              		.thumb_func
 2924              		.type	setTextWrap, %function
 2925              	setTextWrap:
 2926              	.LFB60:
 536:.\GFXmaster.c **** 
 537:.\GFXmaster.c **** void setTextWrap(uint8_t w) {               //changed from boolean
 2927              		.loc 1 537 0
 2928              		.cfi_startproc
 2929              	.LVL351:
 538:.\GFXmaster.c ****   wrap = w;
ARM GAS  C:\Users\username\AppData\Local\Temp\ccSuCzK2.s 			page 63


 2930              		.loc 1 538 0
 2931 0000 014B     		ldr	r3, .L132
 2932 0002 1870     		strb	r0, [r3]
 539:.\GFXmaster.c **** }
 2933              		.loc 1 539 0
 2934              		@ sp needed
 2935 0004 7047     		bx	lr
 2936              	.L133:
 2937 0006 C046     		.align	2
 2938              	.L132:
 2939 0008 00000000 		.word	wrap
 2940              		.cfi_endproc
 2941              	.LFE60:
 2942              		.size	setTextWrap, .-setTextWrap
 2943              		.section	.text.getRotation,"ax",%progbits
 2944              		.align	2
 2945              		.global	getRotation
 2946              		.code	16
 2947              		.thumb_func
 2948              		.type	getRotation, %function
 2949              	getRotation:
 2950              	.LFB61:
 540:.\GFXmaster.c **** 
 541:.\GFXmaster.c **** uint8_t getRotation(void) {         // used to be a const method
 2951              		.loc 1 541 0
 2952              		.cfi_startproc
 542:.\GFXmaster.c ****   return rotation;
 2953              		.loc 1 542 0
 2954 0000 014B     		ldr	r3, .L135
 2955 0002 1878     		ldrb	r0, [r3]
 543:.\GFXmaster.c **** }
 2956              		.loc 1 543 0
 2957              		@ sp needed
 2958 0004 7047     		bx	lr
 2959              	.L136:
 2960 0006 C046     		.align	2
 2961              	.L135:
 2962 0008 00000000 		.word	rotation
 2963              		.cfi_endproc
 2964              	.LFE61:
 2965              		.size	getRotation, .-getRotation
 2966              		.section	.text.setRotation,"ax",%progbits
 2967              		.align	2
 2968              		.global	setRotation
 2969              		.code	16
 2970              		.thumb_func
 2971              		.type	setRotation, %function
 2972              	setRotation:
 2973              	.LFB62:
 544:.\GFXmaster.c **** 
 545:.\GFXmaster.c **** 
 546:.\GFXmaster.c **** void setRotation(uint8_t x) {
 2974              		.loc 1 546 0
 2975              		.cfi_startproc
 2976              	.LVL352:
 547:.\GFXmaster.c ****   rotation = (x & 3);
 2977              		.loc 1 547 0
ARM GAS  C:\Users\username\AppData\Local\Temp\ccSuCzK2.s 			page 64


 2978 0000 0323     		mov	r3, #3
 2979 0002 1840     		and	r0, r3
 2980              	.LVL353:
 2981 0004 0E4B     		ldr	r3, .L141
 2982 0006 1870     		strb	r0, [r3]
 548:.\GFXmaster.c ****   switch(rotation) {
 2983              		.loc 1 548 0
 2984 0008 0128     		cmp	r0, #1
 2985 000a 0FD0     		beq	.L139
 2986 000c 0028     		cmp	r0, #0
 2987 000e 04D0     		beq	.L140
 2988 0010 0228     		cmp	r0, #2
 2989 0012 02D0     		beq	.L140
 2990 0014 0328     		cmp	r0, #3
 2991 0016 11D1     		bne	.L137
 2992 0018 08E0     		b	.L139
 2993              	.L140:
 549:.\GFXmaster.c ****    case 0:
 550:.\GFXmaster.c ****    case 2:
 551:.\GFXmaster.c ****     _width  = WIDTH;
 2994              		.loc 1 551 0
 2995 001a 0A4B     		ldr	r3, .L141+4
 2996 001c 1A88     		ldrh	r2, [r3]
 2997 001e 0A4B     		ldr	r3, .L141+8
 2998 0020 1A80     		strh	r2, [r3]
 552:.\GFXmaster.c ****     _height = HEIGHT;
 2999              		.loc 1 552 0
 3000 0022 0A4B     		ldr	r3, .L141+12
 3001 0024 1A88     		ldrh	r2, [r3]
 3002 0026 0A4B     		ldr	r3, .L141+16
 3003 0028 1A80     		strh	r2, [r3]
 553:.\GFXmaster.c ****     break;
 3004              		.loc 1 553 0
 3005 002a 07E0     		b	.L137
 3006              	.L139:
 554:.\GFXmaster.c ****    case 1:
 555:.\GFXmaster.c ****    case 3:
 556:.\GFXmaster.c ****     _width  = HEIGHT;
 3007              		.loc 1 556 0
 3008 002c 074B     		ldr	r3, .L141+12
 3009 002e 1A88     		ldrh	r2, [r3]
 3010 0030 054B     		ldr	r3, .L141+8
 3011 0032 1A80     		strh	r2, [r3]
 557:.\GFXmaster.c ****     _height = WIDTH;
 3012              		.loc 1 557 0
 3013 0034 034B     		ldr	r3, .L141+4
 3014 0036 1A88     		ldrh	r2, [r3]
 3015 0038 054B     		ldr	r3, .L141+16
 3016 003a 1A80     		strh	r2, [r3]
 3017              	.L137:
 558:.\GFXmaster.c ****     break;
 559:.\GFXmaster.c ****   }
 560:.\GFXmaster.c **** }
 3018              		.loc 1 560 0
 3019              		@ sp needed
 3020 003c 7047     		bx	lr
 3021              	.L142:
ARM GAS  C:\Users\username\AppData\Local\Temp\ccSuCzK2.s 			page 65


 3022 003e C046     		.align	2
 3023              	.L141:
 3024 0040 00000000 		.word	rotation
 3025 0044 00000000 		.word	WIDTH
 3026 0048 00000000 		.word	_width
 3027 004c 00000000 		.word	HEIGHT
 3028 0050 00000000 		.word	_height
 3029              		.cfi_endproc
 3030              	.LFE62:
 3031              		.size	setRotation, .-setRotation
 3032              		.section	.text.cp437,"ax",%progbits
 3033              		.align	2
 3034              		.global	cp437
 3035              		.code	16
 3036              		.thumb_func
 3037              		.type	cp437, %function
 3038              	cp437:
 3039              	.LFB63:
 561:.\GFXmaster.c **** 
 562:.\GFXmaster.c **** 
 563:.\GFXmaster.c **** 
 564:.\GFXmaster.c **** 
 565:.\GFXmaster.c **** // Enable (or disable) Code Page 437-compatible charset.
 566:.\GFXmaster.c **** // There was an error in glcdfont.c for the longest time -- one character
 567:.\GFXmaster.c **** // (#176, the 'light shade' block) was missing -- this threw off the index
 568:.\GFXmaster.c **** // of every character that followed it.  But a TON of code has been written
 569:.\GFXmaster.c **** // with the erroneous character indices.  By default, the library uses the
 570:.\GFXmaster.c **** // original 'wrong' behavior and old sketches will still work.  Pass 'true'
 571:.\GFXmaster.c **** // to this function to use correct CP437 character values in your code.
 572:.\GFXmaster.c **** 
 573:.\GFXmaster.c **** void cp437(uint8_t x) {            //changed from boolean
 3040              		.loc 1 573 0
 3041              		.cfi_startproc
 3042              	.LVL354:
 574:.\GFXmaster.c ****   _cp437 = x;
 3043              		.loc 1 574 0
 3044 0000 014B     		ldr	r3, .L144
 3045 0002 1870     		strb	r0, [r3]
 575:.\GFXmaster.c **** }
 3046              		.loc 1 575 0
 3047              		@ sp needed
 3048 0004 7047     		bx	lr
 3049              	.L145:
 3050 0006 C046     		.align	2
 3051              	.L144:
 3052 0008 00000000 		.word	_cp437
 3053              		.cfi_endproc
 3054              	.LFE63:
 3055              		.size	cp437, .-cp437
 3056              		.section	.text.width,"ax",%progbits
 3057              		.align	2
 3058              		.global	width
 3059              		.code	16
 3060              		.thumb_func
 3061              		.type	width, %function
 3062              	width:
 3063              	.LFB64:
ARM GAS  C:\Users\username\AppData\Local\Temp\ccSuCzK2.s 			page 66


 576:.\GFXmaster.c **** 
 577:.\GFXmaster.c **** 
 578:.\GFXmaster.c **** 
 579:.\GFXmaster.c **** // Return the size of the display (per current rotation)
 580:.\GFXmaster.c **** int16_t width(void) {                   //used to be a const method
 3064              		.loc 1 580 0
 3065              		.cfi_startproc
 581:.\GFXmaster.c ****   return _width;
 3066              		.loc 1 581 0
 3067 0000 014B     		ldr	r3, .L147
 3068 0002 0020     		mov	r0, #0
 3069 0004 185E     		ldrsh	r0, [r3, r0]
 582:.\GFXmaster.c **** }
 3070              		.loc 1 582 0
 3071              		@ sp needed
 3072 0006 7047     		bx	lr
 3073              	.L148:
 3074              		.align	2
 3075              	.L147:
 3076 0008 00000000 		.word	_width
 3077              		.cfi_endproc
 3078              	.LFE64:
 3079              		.size	width, .-width
 3080              		.section	.text.height,"ax",%progbits
 3081              		.align	2
 3082              		.global	height
 3083              		.code	16
 3084              		.thumb_func
 3085              		.type	height, %function
 3086              	height:
 3087              	.LFB65:
 583:.\GFXmaster.c **** 
 584:.\GFXmaster.c **** int16_t height(void) {                  //used to be a const method
 3088              		.loc 1 584 0
 3089              		.cfi_startproc
 585:.\GFXmaster.c ****   return _height;
 3090              		.loc 1 585 0
 3091 0000 014B     		ldr	r3, .L150
 3092 0002 0020     		mov	r0, #0
 3093 0004 185E     		ldrsh	r0, [r3, r0]
 586:.\GFXmaster.c **** }
 3094              		.loc 1 586 0
 3095              		@ sp needed
 3096 0006 7047     		bx	lr
 3097              	.L151:
 3098              		.align	2
 3099              	.L150:
 3100 0008 00000000 		.word	_height
 3101              		.cfi_endproc
 3102              	.LFE65:
 3103              		.size	height, .-height
 3104              		.comm	_cp437,1,1
 3105              		.comm	wrap,1,1
 3106              		.comm	rotation,1,1
 3107              		.comm	textsize,1,1
 3108              		.comm	textbgcolor,2,2
 3109              		.comm	textcolor,2,2
ARM GAS  C:\Users\username\AppData\Local\Temp\ccSuCzK2.s 			page 67


 3110              		.comm	cursor_y,2,2
 3111              		.comm	cursor_x,2,2
 3112              		.comm	_height,2,2
 3113              		.comm	_width,2,2
 3114              		.comm	HEIGHT,2,2
 3115              		.comm	WIDTH,2,2
 3116              		.section	.rodata
 3117              		.align	2
 3118              		.set	.LANCHOR0,. + 0
 3119              		.type	font, %object
 3120              		.size	font, 1280
 3121              	font:
 3122 0000 00       		.byte	0
 3123 0001 00       		.byte	0
 3124 0002 00       		.byte	0
 3125 0003 00       		.byte	0
 3126 0004 00       		.byte	0
 3127 0005 3E       		.byte	62
 3128 0006 5B       		.byte	91
 3129 0007 4F       		.byte	79
 3130 0008 5B       		.byte	91
 3131 0009 3E       		.byte	62
 3132 000a 3E       		.byte	62
 3133 000b 6B       		.byte	107
 3134 000c 4F       		.byte	79
 3135 000d 6B       		.byte	107
 3136 000e 3E       		.byte	62
 3137 000f 1C       		.byte	28
 3138 0010 3E       		.byte	62
 3139 0011 7C       		.byte	124
 3140 0012 3E       		.byte	62
 3141 0013 1C       		.byte	28
 3142 0014 18       		.byte	24
 3143 0015 3C       		.byte	60
 3144 0016 7E       		.byte	126
 3145 0017 3C       		.byte	60
 3146 0018 18       		.byte	24
 3147 0019 1C       		.byte	28
 3148 001a 57       		.byte	87
 3149 001b 7D       		.byte	125
 3150 001c 57       		.byte	87
 3151 001d 1C       		.byte	28
 3152 001e 1C       		.byte	28
 3153 001f 5E       		.byte	94
 3154 0020 7F       		.byte	127
 3155 0021 5E       		.byte	94
 3156 0022 1C       		.byte	28
 3157 0023 00       		.byte	0
 3158 0024 18       		.byte	24
 3159 0025 3C       		.byte	60
 3160 0026 18       		.byte	24
 3161 0027 00       		.byte	0
 3162 0028 FF       		.byte	-1
 3163 0029 E7       		.byte	-25
 3164 002a C3       		.byte	-61
 3165 002b E7       		.byte	-25
 3166 002c FF       		.byte	-1
ARM GAS  C:\Users\username\AppData\Local\Temp\ccSuCzK2.s 			page 68


 3167 002d 00       		.byte	0
 3168 002e 18       		.byte	24
 3169 002f 24       		.byte	36
 3170 0030 18       		.byte	24
 3171 0031 00       		.byte	0
 3172 0032 FF       		.byte	-1
 3173 0033 E7       		.byte	-25
 3174 0034 DB       		.byte	-37
 3175 0035 E7       		.byte	-25
 3176 0036 FF       		.byte	-1
 3177 0037 30       		.byte	48
 3178 0038 48       		.byte	72
 3179 0039 3A       		.byte	58
 3180 003a 06       		.byte	6
 3181 003b 0E       		.byte	14
 3182 003c 26       		.byte	38
 3183 003d 29       		.byte	41
 3184 003e 79       		.byte	121
 3185 003f 29       		.byte	41
 3186 0040 26       		.byte	38
 3187 0041 40       		.byte	64
 3188 0042 7F       		.byte	127
 3189 0043 05       		.byte	5
 3190 0044 05       		.byte	5
 3191 0045 07       		.byte	7
 3192 0046 40       		.byte	64
 3193 0047 7F       		.byte	127
 3194 0048 05       		.byte	5
 3195 0049 25       		.byte	37
 3196 004a 3F       		.byte	63
 3197 004b 5A       		.byte	90
 3198 004c 3C       		.byte	60
 3199 004d E7       		.byte	-25
 3200 004e 3C       		.byte	60
 3201 004f 5A       		.byte	90
 3202 0050 7F       		.byte	127
 3203 0051 3E       		.byte	62
 3204 0052 1C       		.byte	28
 3205 0053 1C       		.byte	28
 3206 0054 08       		.byte	8
 3207 0055 08       		.byte	8
 3208 0056 1C       		.byte	28
 3209 0057 1C       		.byte	28
 3210 0058 3E       		.byte	62
 3211 0059 7F       		.byte	127
 3212 005a 14       		.byte	20
 3213 005b 22       		.byte	34
 3214 005c 7F       		.byte	127
 3215 005d 22       		.byte	34
 3216 005e 14       		.byte	20
 3217 005f 5F       		.byte	95
 3218 0060 5F       		.byte	95
 3219 0061 00       		.byte	0
 3220 0062 5F       		.byte	95
 3221 0063 5F       		.byte	95
 3222 0064 06       		.byte	6
 3223 0065 09       		.byte	9
ARM GAS  C:\Users\username\AppData\Local\Temp\ccSuCzK2.s 			page 69


 3224 0066 7F       		.byte	127
 3225 0067 01       		.byte	1
 3226 0068 7F       		.byte	127
 3227 0069 00       		.byte	0
 3228 006a 66       		.byte	102
 3229 006b 89       		.byte	-119
 3230 006c 95       		.byte	-107
 3231 006d 6A       		.byte	106
 3232 006e 60       		.byte	96
 3233 006f 60       		.byte	96
 3234 0070 60       		.byte	96
 3235 0071 60       		.byte	96
 3236 0072 60       		.byte	96
 3237 0073 94       		.byte	-108
 3238 0074 A2       		.byte	-94
 3239 0075 FF       		.byte	-1
 3240 0076 A2       		.byte	-94
 3241 0077 94       		.byte	-108
 3242 0078 08       		.byte	8
 3243 0079 04       		.byte	4
 3244 007a 7E       		.byte	126
 3245 007b 04       		.byte	4
 3246 007c 08       		.byte	8
 3247 007d 10       		.byte	16
 3248 007e 20       		.byte	32
 3249 007f 7E       		.byte	126
 3250 0080 20       		.byte	32
 3251 0081 10       		.byte	16
 3252 0082 08       		.byte	8
 3253 0083 08       		.byte	8
 3254 0084 2A       		.byte	42
 3255 0085 1C       		.byte	28
 3256 0086 08       		.byte	8
 3257 0087 08       		.byte	8
 3258 0088 1C       		.byte	28
 3259 0089 2A       		.byte	42
 3260 008a 08       		.byte	8
 3261 008b 08       		.byte	8
 3262 008c 1E       		.byte	30
 3263 008d 10       		.byte	16
 3264 008e 10       		.byte	16
 3265 008f 10       		.byte	16
 3266 0090 10       		.byte	16
 3267 0091 0C       		.byte	12
 3268 0092 1E       		.byte	30
 3269 0093 0C       		.byte	12
 3270 0094 1E       		.byte	30
 3271 0095 0C       		.byte	12
 3272 0096 30       		.byte	48
 3273 0097 38       		.byte	56
 3274 0098 3E       		.byte	62
 3275 0099 38       		.byte	56
 3276 009a 30       		.byte	48
 3277 009b 06       		.byte	6
 3278 009c 0E       		.byte	14
 3279 009d 3E       		.byte	62
 3280 009e 0E       		.byte	14
ARM GAS  C:\Users\username\AppData\Local\Temp\ccSuCzK2.s 			page 70


 3281 009f 06       		.byte	6
 3282 00a0 00       		.byte	0
 3283 00a1 00       		.byte	0
 3284 00a2 00       		.byte	0
 3285 00a3 00       		.byte	0
 3286 00a4 00       		.byte	0
 3287 00a5 00       		.byte	0
 3288 00a6 00       		.byte	0
 3289 00a7 5F       		.byte	95
 3290 00a8 00       		.byte	0
 3291 00a9 00       		.byte	0
 3292 00aa 00       		.byte	0
 3293 00ab 07       		.byte	7
 3294 00ac 00       		.byte	0
 3295 00ad 07       		.byte	7
 3296 00ae 00       		.byte	0
 3297 00af 14       		.byte	20
 3298 00b0 7F       		.byte	127
 3299 00b1 14       		.byte	20
 3300 00b2 7F       		.byte	127
 3301 00b3 14       		.byte	20
 3302 00b4 24       		.byte	36
 3303 00b5 2A       		.byte	42
 3304 00b6 7F       		.byte	127
 3305 00b7 2A       		.byte	42
 3306 00b8 12       		.byte	18
 3307 00b9 23       		.byte	35
 3308 00ba 13       		.byte	19
 3309 00bb 08       		.byte	8
 3310 00bc 64       		.byte	100
 3311 00bd 62       		.byte	98
 3312 00be 36       		.byte	54
 3313 00bf 49       		.byte	73
 3314 00c0 56       		.byte	86
 3315 00c1 20       		.byte	32
 3316 00c2 50       		.byte	80
 3317 00c3 00       		.byte	0
 3318 00c4 08       		.byte	8
 3319 00c5 07       		.byte	7
 3320 00c6 03       		.byte	3
 3321 00c7 00       		.byte	0
 3322 00c8 00       		.byte	0
 3323 00c9 1C       		.byte	28
 3324 00ca 22       		.byte	34
 3325 00cb 41       		.byte	65
 3326 00cc 00       		.byte	0
 3327 00cd 00       		.byte	0
 3328 00ce 41       		.byte	65
 3329 00cf 22       		.byte	34
 3330 00d0 1C       		.byte	28
 3331 00d1 00       		.byte	0
 3332 00d2 2A       		.byte	42
 3333 00d3 1C       		.byte	28
 3334 00d4 7F       		.byte	127
 3335 00d5 1C       		.byte	28
 3336 00d6 2A       		.byte	42
 3337 00d7 08       		.byte	8
ARM GAS  C:\Users\username\AppData\Local\Temp\ccSuCzK2.s 			page 71


 3338 00d8 08       		.byte	8
 3339 00d9 3E       		.byte	62
 3340 00da 08       		.byte	8
 3341 00db 08       		.byte	8
 3342 00dc 00       		.byte	0
 3343 00dd 80       		.byte	-128
 3344 00de 70       		.byte	112
 3345 00df 30       		.byte	48
 3346 00e0 00       		.byte	0
 3347 00e1 08       		.byte	8
 3348 00e2 08       		.byte	8
 3349 00e3 08       		.byte	8
 3350 00e4 08       		.byte	8
 3351 00e5 08       		.byte	8
 3352 00e6 00       		.byte	0
 3353 00e7 00       		.byte	0
 3354 00e8 60       		.byte	96
 3355 00e9 60       		.byte	96
 3356 00ea 00       		.byte	0
 3357 00eb 20       		.byte	32
 3358 00ec 10       		.byte	16
 3359 00ed 08       		.byte	8
 3360 00ee 04       		.byte	4
 3361 00ef 02       		.byte	2
 3362 00f0 3E       		.byte	62
 3363 00f1 51       		.byte	81
 3364 00f2 49       		.byte	73
 3365 00f3 45       		.byte	69
 3366 00f4 3E       		.byte	62
 3367 00f5 00       		.byte	0
 3368 00f6 42       		.byte	66
 3369 00f7 7F       		.byte	127
 3370 00f8 40       		.byte	64
 3371 00f9 00       		.byte	0
 3372 00fa 72       		.byte	114
 3373 00fb 49       		.byte	73
 3374 00fc 49       		.byte	73
 3375 00fd 49       		.byte	73
 3376 00fe 46       		.byte	70
 3377 00ff 21       		.byte	33
 3378 0100 41       		.byte	65
 3379 0101 49       		.byte	73
 3380 0102 4D       		.byte	77
 3381 0103 33       		.byte	51
 3382 0104 18       		.byte	24
 3383 0105 14       		.byte	20
 3384 0106 12       		.byte	18
 3385 0107 7F       		.byte	127
 3386 0108 10       		.byte	16
 3387 0109 27       		.byte	39
 3388 010a 45       		.byte	69
 3389 010b 45       		.byte	69
 3390 010c 45       		.byte	69
 3391 010d 39       		.byte	57
 3392 010e 3C       		.byte	60
 3393 010f 4A       		.byte	74
 3394 0110 49       		.byte	73
ARM GAS  C:\Users\username\AppData\Local\Temp\ccSuCzK2.s 			page 72


 3395 0111 49       		.byte	73
 3396 0112 31       		.byte	49
 3397 0113 41       		.byte	65
 3398 0114 21       		.byte	33
 3399 0115 11       		.byte	17
 3400 0116 09       		.byte	9
 3401 0117 07       		.byte	7
 3402 0118 36       		.byte	54
 3403 0119 49       		.byte	73
 3404 011a 49       		.byte	73
 3405 011b 49       		.byte	73
 3406 011c 36       		.byte	54
 3407 011d 46       		.byte	70
 3408 011e 49       		.byte	73
 3409 011f 49       		.byte	73
 3410 0120 29       		.byte	41
 3411 0121 1E       		.byte	30
 3412 0122 00       		.byte	0
 3413 0123 00       		.byte	0
 3414 0124 14       		.byte	20
 3415 0125 00       		.byte	0
 3416 0126 00       		.byte	0
 3417 0127 00       		.byte	0
 3418 0128 40       		.byte	64
 3419 0129 34       		.byte	52
 3420 012a 00       		.byte	0
 3421 012b 00       		.byte	0
 3422 012c 00       		.byte	0
 3423 012d 08       		.byte	8
 3424 012e 14       		.byte	20
 3425 012f 22       		.byte	34
 3426 0130 41       		.byte	65
 3427 0131 14       		.byte	20
 3428 0132 14       		.byte	20
 3429 0133 14       		.byte	20
 3430 0134 14       		.byte	20
 3431 0135 14       		.byte	20
 3432 0136 00       		.byte	0
 3433 0137 41       		.byte	65
 3434 0138 22       		.byte	34
 3435 0139 14       		.byte	20
 3436 013a 08       		.byte	8
 3437 013b 02       		.byte	2
 3438 013c 01       		.byte	1
 3439 013d 59       		.byte	89
 3440 013e 09       		.byte	9
 3441 013f 06       		.byte	6
 3442 0140 3E       		.byte	62
 3443 0141 41       		.byte	65
 3444 0142 5D       		.byte	93
 3445 0143 59       		.byte	89
 3446 0144 4E       		.byte	78
 3447 0145 7C       		.byte	124
 3448 0146 12       		.byte	18
 3449 0147 11       		.byte	17
 3450 0148 12       		.byte	18
 3451 0149 7C       		.byte	124
ARM GAS  C:\Users\username\AppData\Local\Temp\ccSuCzK2.s 			page 73


 3452 014a 7F       		.byte	127
 3453 014b 49       		.byte	73
 3454 014c 49       		.byte	73
 3455 014d 49       		.byte	73
 3456 014e 36       		.byte	54
 3457 014f 3E       		.byte	62
 3458 0150 41       		.byte	65
 3459 0151 41       		.byte	65
 3460 0152 41       		.byte	65
 3461 0153 22       		.byte	34
 3462 0154 7F       		.byte	127
 3463 0155 41       		.byte	65
 3464 0156 41       		.byte	65
 3465 0157 41       		.byte	65
 3466 0158 3E       		.byte	62
 3467 0159 7F       		.byte	127
 3468 015a 49       		.byte	73
 3469 015b 49       		.byte	73
 3470 015c 49       		.byte	73
 3471 015d 41       		.byte	65
 3472 015e 7F       		.byte	127
 3473 015f 09       		.byte	9
 3474 0160 09       		.byte	9
 3475 0161 09       		.byte	9
 3476 0162 01       		.byte	1
 3477 0163 3E       		.byte	62
 3478 0164 41       		.byte	65
 3479 0165 41       		.byte	65
 3480 0166 51       		.byte	81
 3481 0167 73       		.byte	115
 3482 0168 7F       		.byte	127
 3483 0169 08       		.byte	8
 3484 016a 08       		.byte	8
 3485 016b 08       		.byte	8
 3486 016c 7F       		.byte	127
 3487 016d 00       		.byte	0
 3488 016e 41       		.byte	65
 3489 016f 7F       		.byte	127
 3490 0170 41       		.byte	65
 3491 0171 00       		.byte	0
 3492 0172 20       		.byte	32
 3493 0173 40       		.byte	64
 3494 0174 41       		.byte	65
 3495 0175 3F       		.byte	63
 3496 0176 01       		.byte	1
 3497 0177 7F       		.byte	127
 3498 0178 08       		.byte	8
 3499 0179 14       		.byte	20
 3500 017a 22       		.byte	34
 3501 017b 41       		.byte	65
 3502 017c 7F       		.byte	127
 3503 017d 40       		.byte	64
 3504 017e 40       		.byte	64
 3505 017f 40       		.byte	64
 3506 0180 40       		.byte	64
 3507 0181 7F       		.byte	127
 3508 0182 02       		.byte	2
ARM GAS  C:\Users\username\AppData\Local\Temp\ccSuCzK2.s 			page 74


 3509 0183 1C       		.byte	28
 3510 0184 02       		.byte	2
 3511 0185 7F       		.byte	127
 3512 0186 7F       		.byte	127
 3513 0187 04       		.byte	4
 3514 0188 08       		.byte	8
 3515 0189 10       		.byte	16
 3516 018a 7F       		.byte	127
 3517 018b 3E       		.byte	62
 3518 018c 41       		.byte	65
 3519 018d 41       		.byte	65
 3520 018e 41       		.byte	65
 3521 018f 3E       		.byte	62
 3522 0190 7F       		.byte	127
 3523 0191 09       		.byte	9
 3524 0192 09       		.byte	9
 3525 0193 09       		.byte	9
 3526 0194 06       		.byte	6
 3527 0195 3E       		.byte	62
 3528 0196 41       		.byte	65
 3529 0197 51       		.byte	81
 3530 0198 21       		.byte	33
 3531 0199 5E       		.byte	94
 3532 019a 7F       		.byte	127
 3533 019b 09       		.byte	9
 3534 019c 19       		.byte	25
 3535 019d 29       		.byte	41
 3536 019e 46       		.byte	70
 3537 019f 26       		.byte	38
 3538 01a0 49       		.byte	73
 3539 01a1 49       		.byte	73
 3540 01a2 49       		.byte	73
 3541 01a3 32       		.byte	50
 3542 01a4 03       		.byte	3
 3543 01a5 01       		.byte	1
 3544 01a6 7F       		.byte	127
 3545 01a7 01       		.byte	1
 3546 01a8 03       		.byte	3
 3547 01a9 3F       		.byte	63
 3548 01aa 40       		.byte	64
 3549 01ab 40       		.byte	64
 3550 01ac 40       		.byte	64
 3551 01ad 3F       		.byte	63
 3552 01ae 1F       		.byte	31
 3553 01af 20       		.byte	32
 3554 01b0 40       		.byte	64
 3555 01b1 20       		.byte	32
 3556 01b2 1F       		.byte	31
 3557 01b3 3F       		.byte	63
 3558 01b4 40       		.byte	64
 3559 01b5 38       		.byte	56
 3560 01b6 40       		.byte	64
 3561 01b7 3F       		.byte	63
 3562 01b8 63       		.byte	99
 3563 01b9 14       		.byte	20
 3564 01ba 08       		.byte	8
 3565 01bb 14       		.byte	20
ARM GAS  C:\Users\username\AppData\Local\Temp\ccSuCzK2.s 			page 75


 3566 01bc 63       		.byte	99
 3567 01bd 03       		.byte	3
 3568 01be 04       		.byte	4
 3569 01bf 78       		.byte	120
 3570 01c0 04       		.byte	4
 3571 01c1 03       		.byte	3
 3572 01c2 61       		.byte	97
 3573 01c3 59       		.byte	89
 3574 01c4 49       		.byte	73
 3575 01c5 4D       		.byte	77
 3576 01c6 43       		.byte	67
 3577 01c7 00       		.byte	0
 3578 01c8 7F       		.byte	127
 3579 01c9 41       		.byte	65
 3580 01ca 41       		.byte	65
 3581 01cb 41       		.byte	65
 3582 01cc 02       		.byte	2
 3583 01cd 04       		.byte	4
 3584 01ce 08       		.byte	8
 3585 01cf 10       		.byte	16
 3586 01d0 20       		.byte	32
 3587 01d1 00       		.byte	0
 3588 01d2 41       		.byte	65
 3589 01d3 41       		.byte	65
 3590 01d4 41       		.byte	65
 3591 01d5 7F       		.byte	127
 3592 01d6 04       		.byte	4
 3593 01d7 02       		.byte	2
 3594 01d8 01       		.byte	1
 3595 01d9 02       		.byte	2
 3596 01da 04       		.byte	4
 3597 01db 40       		.byte	64
 3598 01dc 40       		.byte	64
 3599 01dd 40       		.byte	64
 3600 01de 40       		.byte	64
 3601 01df 40       		.byte	64
 3602 01e0 00       		.byte	0
 3603 01e1 03       		.byte	3
 3604 01e2 07       		.byte	7
 3605 01e3 08       		.byte	8
 3606 01e4 00       		.byte	0
 3607 01e5 20       		.byte	32
 3608 01e6 54       		.byte	84
 3609 01e7 54       		.byte	84
 3610 01e8 78       		.byte	120
 3611 01e9 40       		.byte	64
 3612 01ea 7F       		.byte	127
 3613 01eb 28       		.byte	40
 3614 01ec 44       		.byte	68
 3615 01ed 44       		.byte	68
 3616 01ee 38       		.byte	56
 3617 01ef 38       		.byte	56
 3618 01f0 44       		.byte	68
 3619 01f1 44       		.byte	68
 3620 01f2 44       		.byte	68
 3621 01f3 28       		.byte	40
 3622 01f4 38       		.byte	56
ARM GAS  C:\Users\username\AppData\Local\Temp\ccSuCzK2.s 			page 76


 3623 01f5 44       		.byte	68
 3624 01f6 44       		.byte	68
 3625 01f7 28       		.byte	40
 3626 01f8 7F       		.byte	127
 3627 01f9 38       		.byte	56
 3628 01fa 54       		.byte	84
 3629 01fb 54       		.byte	84
 3630 01fc 54       		.byte	84
 3631 01fd 18       		.byte	24
 3632 01fe 00       		.byte	0
 3633 01ff 08       		.byte	8
 3634 0200 7E       		.byte	126
 3635 0201 09       		.byte	9
 3636 0202 02       		.byte	2
 3637 0203 18       		.byte	24
 3638 0204 A4       		.byte	-92
 3639 0205 A4       		.byte	-92
 3640 0206 9C       		.byte	-100
 3641 0207 78       		.byte	120
 3642 0208 7F       		.byte	127
 3643 0209 08       		.byte	8
 3644 020a 04       		.byte	4
 3645 020b 04       		.byte	4
 3646 020c 78       		.byte	120
 3647 020d 00       		.byte	0
 3648 020e 44       		.byte	68
 3649 020f 7D       		.byte	125
 3650 0210 40       		.byte	64
 3651 0211 00       		.byte	0
 3652 0212 20       		.byte	32
 3653 0213 40       		.byte	64
 3654 0214 40       		.byte	64
 3655 0215 3D       		.byte	61
 3656 0216 00       		.byte	0
 3657 0217 7F       		.byte	127
 3658 0218 10       		.byte	16
 3659 0219 28       		.byte	40
 3660 021a 44       		.byte	68
 3661 021b 00       		.byte	0
 3662 021c 00       		.byte	0
 3663 021d 41       		.byte	65
 3664 021e 7F       		.byte	127
 3665 021f 40       		.byte	64
 3666 0220 00       		.byte	0
 3667 0221 7C       		.byte	124
 3668 0222 04       		.byte	4
 3669 0223 78       		.byte	120
 3670 0224 04       		.byte	4
 3671 0225 78       		.byte	120
 3672 0226 7C       		.byte	124
 3673 0227 08       		.byte	8
 3674 0228 04       		.byte	4
 3675 0229 04       		.byte	4
 3676 022a 78       		.byte	120
 3677 022b 38       		.byte	56
 3678 022c 44       		.byte	68
 3679 022d 44       		.byte	68
ARM GAS  C:\Users\username\AppData\Local\Temp\ccSuCzK2.s 			page 77


 3680 022e 44       		.byte	68
 3681 022f 38       		.byte	56
 3682 0230 FC       		.byte	-4
 3683 0231 18       		.byte	24
 3684 0232 24       		.byte	36
 3685 0233 24       		.byte	36
 3686 0234 18       		.byte	24
 3687 0235 18       		.byte	24
 3688 0236 24       		.byte	36
 3689 0237 24       		.byte	36
 3690 0238 18       		.byte	24
 3691 0239 FC       		.byte	-4
 3692 023a 7C       		.byte	124
 3693 023b 08       		.byte	8
 3694 023c 04       		.byte	4
 3695 023d 04       		.byte	4
 3696 023e 08       		.byte	8
 3697 023f 48       		.byte	72
 3698 0240 54       		.byte	84
 3699 0241 54       		.byte	84
 3700 0242 54       		.byte	84
 3701 0243 24       		.byte	36
 3702 0244 04       		.byte	4
 3703 0245 04       		.byte	4
 3704 0246 3F       		.byte	63
 3705 0247 44       		.byte	68
 3706 0248 24       		.byte	36
 3707 0249 3C       		.byte	60
 3708 024a 40       		.byte	64
 3709 024b 40       		.byte	64
 3710 024c 20       		.byte	32
 3711 024d 7C       		.byte	124
 3712 024e 1C       		.byte	28
 3713 024f 20       		.byte	32
 3714 0250 40       		.byte	64
 3715 0251 20       		.byte	32
 3716 0252 1C       		.byte	28
 3717 0253 3C       		.byte	60
 3718 0254 40       		.byte	64
 3719 0255 30       		.byte	48
 3720 0256 40       		.byte	64
 3721 0257 3C       		.byte	60
 3722 0258 44       		.byte	68
 3723 0259 28       		.byte	40
 3724 025a 10       		.byte	16
 3725 025b 28       		.byte	40
 3726 025c 44       		.byte	68
 3727 025d 4C       		.byte	76
 3728 025e 90       		.byte	-112
 3729 025f 90       		.byte	-112
 3730 0260 90       		.byte	-112
 3731 0261 7C       		.byte	124
 3732 0262 44       		.byte	68
 3733 0263 64       		.byte	100
 3734 0264 54       		.byte	84
 3735 0265 4C       		.byte	76
 3736 0266 44       		.byte	68
ARM GAS  C:\Users\username\AppData\Local\Temp\ccSuCzK2.s 			page 78


 3737 0267 00       		.byte	0
 3738 0268 08       		.byte	8
 3739 0269 36       		.byte	54
 3740 026a 41       		.byte	65
 3741 026b 00       		.byte	0
 3742 026c 00       		.byte	0
 3743 026d 00       		.byte	0
 3744 026e 77       		.byte	119
 3745 026f 00       		.byte	0
 3746 0270 00       		.byte	0
 3747 0271 00       		.byte	0
 3748 0272 41       		.byte	65
 3749 0273 36       		.byte	54
 3750 0274 08       		.byte	8
 3751 0275 00       		.byte	0
 3752 0276 02       		.byte	2
 3753 0277 01       		.byte	1
 3754 0278 02       		.byte	2
 3755 0279 04       		.byte	4
 3756 027a 02       		.byte	2
 3757 027b 3C       		.byte	60
 3758 027c 26       		.byte	38
 3759 027d 23       		.byte	35
 3760 027e 26       		.byte	38
 3761 027f 3C       		.byte	60
 3762 0280 1E       		.byte	30
 3763 0281 A1       		.byte	-95
 3764 0282 A1       		.byte	-95
 3765 0283 61       		.byte	97
 3766 0284 12       		.byte	18
 3767 0285 3A       		.byte	58
 3768 0286 40       		.byte	64
 3769 0287 40       		.byte	64
 3770 0288 20       		.byte	32
 3771 0289 7A       		.byte	122
 3772 028a 38       		.byte	56
 3773 028b 54       		.byte	84
 3774 028c 54       		.byte	84
 3775 028d 55       		.byte	85
 3776 028e 59       		.byte	89
 3777 028f 21       		.byte	33
 3778 0290 55       		.byte	85
 3779 0291 55       		.byte	85
 3780 0292 79       		.byte	121
 3781 0293 41       		.byte	65
 3782 0294 22       		.byte	34
 3783 0295 54       		.byte	84
 3784 0296 54       		.byte	84
 3785 0297 78       		.byte	120
 3786 0298 42       		.byte	66
 3787 0299 21       		.byte	33
 3788 029a 55       		.byte	85
 3789 029b 54       		.byte	84
 3790 029c 78       		.byte	120
 3791 029d 40       		.byte	64
 3792 029e 20       		.byte	32
 3793 029f 54       		.byte	84
ARM GAS  C:\Users\username\AppData\Local\Temp\ccSuCzK2.s 			page 79


 3794 02a0 55       		.byte	85
 3795 02a1 79       		.byte	121
 3796 02a2 40       		.byte	64
 3797 02a3 0C       		.byte	12
 3798 02a4 1E       		.byte	30
 3799 02a5 52       		.byte	82
 3800 02a6 72       		.byte	114
 3801 02a7 12       		.byte	18
 3802 02a8 39       		.byte	57
 3803 02a9 55       		.byte	85
 3804 02aa 55       		.byte	85
 3805 02ab 55       		.byte	85
 3806 02ac 59       		.byte	89
 3807 02ad 39       		.byte	57
 3808 02ae 54       		.byte	84
 3809 02af 54       		.byte	84
 3810 02b0 54       		.byte	84
 3811 02b1 59       		.byte	89
 3812 02b2 39       		.byte	57
 3813 02b3 55       		.byte	85
 3814 02b4 54       		.byte	84
 3815 02b5 54       		.byte	84
 3816 02b6 58       		.byte	88
 3817 02b7 00       		.byte	0
 3818 02b8 00       		.byte	0
 3819 02b9 45       		.byte	69
 3820 02ba 7C       		.byte	124
 3821 02bb 41       		.byte	65
 3822 02bc 00       		.byte	0
 3823 02bd 02       		.byte	2
 3824 02be 45       		.byte	69
 3825 02bf 7D       		.byte	125
 3826 02c0 42       		.byte	66
 3827 02c1 00       		.byte	0
 3828 02c2 01       		.byte	1
 3829 02c3 45       		.byte	69
 3830 02c4 7C       		.byte	124
 3831 02c5 40       		.byte	64
 3832 02c6 7D       		.byte	125
 3833 02c7 12       		.byte	18
 3834 02c8 11       		.byte	17
 3835 02c9 12       		.byte	18
 3836 02ca 7D       		.byte	125
 3837 02cb F0       		.byte	-16
 3838 02cc 28       		.byte	40
 3839 02cd 25       		.byte	37
 3840 02ce 28       		.byte	40
 3841 02cf F0       		.byte	-16
 3842 02d0 7C       		.byte	124
 3843 02d1 54       		.byte	84
 3844 02d2 55       		.byte	85
 3845 02d3 45       		.byte	69
 3846 02d4 00       		.byte	0
 3847 02d5 20       		.byte	32
 3848 02d6 54       		.byte	84
 3849 02d7 54       		.byte	84
 3850 02d8 7C       		.byte	124
ARM GAS  C:\Users\username\AppData\Local\Temp\ccSuCzK2.s 			page 80


 3851 02d9 54       		.byte	84
 3852 02da 7C       		.byte	124
 3853 02db 0A       		.byte	10
 3854 02dc 09       		.byte	9
 3855 02dd 7F       		.byte	127
 3856 02de 49       		.byte	73
 3857 02df 32       		.byte	50
 3858 02e0 49       		.byte	73
 3859 02e1 49       		.byte	73
 3860 02e2 49       		.byte	73
 3861 02e3 32       		.byte	50
 3862 02e4 3A       		.byte	58
 3863 02e5 44       		.byte	68
 3864 02e6 44       		.byte	68
 3865 02e7 44       		.byte	68
 3866 02e8 3A       		.byte	58
 3867 02e9 32       		.byte	50
 3868 02ea 4A       		.byte	74
 3869 02eb 48       		.byte	72
 3870 02ec 48       		.byte	72
 3871 02ed 30       		.byte	48
 3872 02ee 3A       		.byte	58
 3873 02ef 41       		.byte	65
 3874 02f0 41       		.byte	65
 3875 02f1 21       		.byte	33
 3876 02f2 7A       		.byte	122
 3877 02f3 3A       		.byte	58
 3878 02f4 42       		.byte	66
 3879 02f5 40       		.byte	64
 3880 02f6 20       		.byte	32
 3881 02f7 78       		.byte	120
 3882 02f8 00       		.byte	0
 3883 02f9 9D       		.byte	-99
 3884 02fa A0       		.byte	-96
 3885 02fb A0       		.byte	-96
 3886 02fc 7D       		.byte	125
 3887 02fd 3D       		.byte	61
 3888 02fe 42       		.byte	66
 3889 02ff 42       		.byte	66
 3890 0300 42       		.byte	66
 3891 0301 3D       		.byte	61
 3892 0302 3D       		.byte	61
 3893 0303 40       		.byte	64
 3894 0304 40       		.byte	64
 3895 0305 40       		.byte	64
 3896 0306 3D       		.byte	61
 3897 0307 3C       		.byte	60
 3898 0308 24       		.byte	36
 3899 0309 FF       		.byte	-1
 3900 030a 24       		.byte	36
 3901 030b 24       		.byte	36
 3902 030c 48       		.byte	72
 3903 030d 7E       		.byte	126
 3904 030e 49       		.byte	73
 3905 030f 43       		.byte	67
 3906 0310 66       		.byte	102
 3907 0311 2B       		.byte	43
ARM GAS  C:\Users\username\AppData\Local\Temp\ccSuCzK2.s 			page 81


 3908 0312 2F       		.byte	47
 3909 0313 FC       		.byte	-4
 3910 0314 2F       		.byte	47
 3911 0315 2B       		.byte	43
 3912 0316 FF       		.byte	-1
 3913 0317 09       		.byte	9
 3914 0318 29       		.byte	41
 3915 0319 F6       		.byte	-10
 3916 031a 20       		.byte	32
 3917 031b C0       		.byte	-64
 3918 031c 88       		.byte	-120
 3919 031d 7E       		.byte	126
 3920 031e 09       		.byte	9
 3921 031f 03       		.byte	3
 3922 0320 20       		.byte	32
 3923 0321 54       		.byte	84
 3924 0322 54       		.byte	84
 3925 0323 79       		.byte	121
 3926 0324 41       		.byte	65
 3927 0325 00       		.byte	0
 3928 0326 00       		.byte	0
 3929 0327 44       		.byte	68
 3930 0328 7D       		.byte	125
 3931 0329 41       		.byte	65
 3932 032a 30       		.byte	48
 3933 032b 48       		.byte	72
 3934 032c 48       		.byte	72
 3935 032d 4A       		.byte	74
 3936 032e 32       		.byte	50
 3937 032f 38       		.byte	56
 3938 0330 40       		.byte	64
 3939 0331 40       		.byte	64
 3940 0332 22       		.byte	34
 3941 0333 7A       		.byte	122
 3942 0334 00       		.byte	0
 3943 0335 7A       		.byte	122
 3944 0336 0A       		.byte	10
 3945 0337 0A       		.byte	10
 3946 0338 72       		.byte	114
 3947 0339 7D       		.byte	125
 3948 033a 0D       		.byte	13
 3949 033b 19       		.byte	25
 3950 033c 31       		.byte	49
 3951 033d 7D       		.byte	125
 3952 033e 26       		.byte	38
 3953 033f 29       		.byte	41
 3954 0340 29       		.byte	41
 3955 0341 2F       		.byte	47
 3956 0342 28       		.byte	40
 3957 0343 26       		.byte	38
 3958 0344 29       		.byte	41
 3959 0345 29       		.byte	41
 3960 0346 29       		.byte	41
 3961 0347 26       		.byte	38
 3962 0348 30       		.byte	48
 3963 0349 48       		.byte	72
 3964 034a 4D       		.byte	77
ARM GAS  C:\Users\username\AppData\Local\Temp\ccSuCzK2.s 			page 82


 3965 034b 40       		.byte	64
 3966 034c 20       		.byte	32
 3967 034d 38       		.byte	56
 3968 034e 08       		.byte	8
 3969 034f 08       		.byte	8
 3970 0350 08       		.byte	8
 3971 0351 08       		.byte	8
 3972 0352 08       		.byte	8
 3973 0353 08       		.byte	8
 3974 0354 08       		.byte	8
 3975 0355 08       		.byte	8
 3976 0356 38       		.byte	56
 3977 0357 2F       		.byte	47
 3978 0358 10       		.byte	16
 3979 0359 C8       		.byte	-56
 3980 035a AC       		.byte	-84
 3981 035b BA       		.byte	-70
 3982 035c 2F       		.byte	47
 3983 035d 10       		.byte	16
 3984 035e 28       		.byte	40
 3985 035f 34       		.byte	52
 3986 0360 FA       		.byte	-6
 3987 0361 00       		.byte	0
 3988 0362 00       		.byte	0
 3989 0363 7B       		.byte	123
 3990 0364 00       		.byte	0
 3991 0365 00       		.byte	0
 3992 0366 08       		.byte	8
 3993 0367 14       		.byte	20
 3994 0368 2A       		.byte	42
 3995 0369 14       		.byte	20
 3996 036a 22       		.byte	34
 3997 036b 22       		.byte	34
 3998 036c 14       		.byte	20
 3999 036d 2A       		.byte	42
 4000 036e 14       		.byte	20
 4001 036f 08       		.byte	8
 4002 0370 55       		.byte	85
 4003 0371 00       		.byte	0
 4004 0372 55       		.byte	85
 4005 0373 00       		.byte	0
 4006 0374 55       		.byte	85
 4007 0375 AA       		.byte	-86
 4008 0376 55       		.byte	85
 4009 0377 AA       		.byte	-86
 4010 0378 55       		.byte	85
 4011 0379 AA       		.byte	-86
 4012 037a FF       		.byte	-1
 4013 037b 55       		.byte	85
 4014 037c FF       		.byte	-1
 4015 037d 55       		.byte	85
 4016 037e FF       		.byte	-1
 4017 037f 00       		.byte	0
 4018 0380 00       		.byte	0
 4019 0381 00       		.byte	0
 4020 0382 FF       		.byte	-1
 4021 0383 00       		.byte	0
ARM GAS  C:\Users\username\AppData\Local\Temp\ccSuCzK2.s 			page 83


 4022 0384 10       		.byte	16
 4023 0385 10       		.byte	16
 4024 0386 10       		.byte	16
 4025 0387 FF       		.byte	-1
 4026 0388 00       		.byte	0
 4027 0389 14       		.byte	20
 4028 038a 14       		.byte	20
 4029 038b 14       		.byte	20
 4030 038c FF       		.byte	-1
 4031 038d 00       		.byte	0
 4032 038e 10       		.byte	16
 4033 038f 10       		.byte	16
 4034 0390 FF       		.byte	-1
 4035 0391 00       		.byte	0
 4036 0392 FF       		.byte	-1
 4037 0393 10       		.byte	16
 4038 0394 10       		.byte	16
 4039 0395 F0       		.byte	-16
 4040 0396 10       		.byte	16
 4041 0397 F0       		.byte	-16
 4042 0398 14       		.byte	20
 4043 0399 14       		.byte	20
 4044 039a 14       		.byte	20
 4045 039b FC       		.byte	-4
 4046 039c 00       		.byte	0
 4047 039d 14       		.byte	20
 4048 039e 14       		.byte	20
 4049 039f F7       		.byte	-9
 4050 03a0 00       		.byte	0
 4051 03a1 FF       		.byte	-1
 4052 03a2 00       		.byte	0
 4053 03a3 00       		.byte	0
 4054 03a4 FF       		.byte	-1
 4055 03a5 00       		.byte	0
 4056 03a6 FF       		.byte	-1
 4057 03a7 14       		.byte	20
 4058 03a8 14       		.byte	20
 4059 03a9 F4       		.byte	-12
 4060 03aa 04       		.byte	4
 4061 03ab FC       		.byte	-4
 4062 03ac 14       		.byte	20
 4063 03ad 14       		.byte	20
 4064 03ae 17       		.byte	23
 4065 03af 10       		.byte	16
 4066 03b0 1F       		.byte	31
 4067 03b1 10       		.byte	16
 4068 03b2 10       		.byte	16
 4069 03b3 1F       		.byte	31
 4070 03b4 10       		.byte	16
 4071 03b5 1F       		.byte	31
 4072 03b6 14       		.byte	20
 4073 03b7 14       		.byte	20
 4074 03b8 14       		.byte	20
 4075 03b9 1F       		.byte	31
 4076 03ba 00       		.byte	0
 4077 03bb 10       		.byte	16
 4078 03bc 10       		.byte	16
ARM GAS  C:\Users\username\AppData\Local\Temp\ccSuCzK2.s 			page 84


 4079 03bd 10       		.byte	16
 4080 03be F0       		.byte	-16
 4081 03bf 00       		.byte	0
 4082 03c0 00       		.byte	0
 4083 03c1 00       		.byte	0
 4084 03c2 00       		.byte	0
 4085 03c3 1F       		.byte	31
 4086 03c4 10       		.byte	16
 4087 03c5 10       		.byte	16
 4088 03c6 10       		.byte	16
 4089 03c7 10       		.byte	16
 4090 03c8 1F       		.byte	31
 4091 03c9 10       		.byte	16
 4092 03ca 10       		.byte	16
 4093 03cb 10       		.byte	16
 4094 03cc 10       		.byte	16
 4095 03cd F0       		.byte	-16
 4096 03ce 10       		.byte	16
 4097 03cf 00       		.byte	0
 4098 03d0 00       		.byte	0
 4099 03d1 00       		.byte	0
 4100 03d2 FF       		.byte	-1
 4101 03d3 10       		.byte	16
 4102 03d4 10       		.byte	16
 4103 03d5 10       		.byte	16
 4104 03d6 10       		.byte	16
 4105 03d7 10       		.byte	16
 4106 03d8 10       		.byte	16
 4107 03d9 10       		.byte	16
 4108 03da 10       		.byte	16
 4109 03db 10       		.byte	16
 4110 03dc FF       		.byte	-1
 4111 03dd 10       		.byte	16
 4112 03de 00       		.byte	0
 4113 03df 00       		.byte	0
 4114 03e0 00       		.byte	0
 4115 03e1 FF       		.byte	-1
 4116 03e2 14       		.byte	20
 4117 03e3 00       		.byte	0
 4118 03e4 00       		.byte	0
 4119 03e5 FF       		.byte	-1
 4120 03e6 00       		.byte	0
 4121 03e7 FF       		.byte	-1
 4122 03e8 00       		.byte	0
 4123 03e9 00       		.byte	0
 4124 03ea 1F       		.byte	31
 4125 03eb 10       		.byte	16
 4126 03ec 17       		.byte	23
 4127 03ed 00       		.byte	0
 4128 03ee 00       		.byte	0
 4129 03ef FC       		.byte	-4
 4130 03f0 04       		.byte	4
 4131 03f1 F4       		.byte	-12
 4132 03f2 14       		.byte	20
 4133 03f3 14       		.byte	20
 4134 03f4 17       		.byte	23
 4135 03f5 10       		.byte	16
ARM GAS  C:\Users\username\AppData\Local\Temp\ccSuCzK2.s 			page 85


 4136 03f6 17       		.byte	23
 4137 03f7 14       		.byte	20
 4138 03f8 14       		.byte	20
 4139 03f9 F4       		.byte	-12
 4140 03fa 04       		.byte	4
 4141 03fb F4       		.byte	-12
 4142 03fc 00       		.byte	0
 4143 03fd 00       		.byte	0
 4144 03fe FF       		.byte	-1
 4145 03ff 00       		.byte	0
 4146 0400 F7       		.byte	-9
 4147 0401 14       		.byte	20
 4148 0402 14       		.byte	20
 4149 0403 14       		.byte	20
 4150 0404 14       		.byte	20
 4151 0405 14       		.byte	20
 4152 0406 14       		.byte	20
 4153 0407 14       		.byte	20
 4154 0408 F7       		.byte	-9
 4155 0409 00       		.byte	0
 4156 040a F7       		.byte	-9
 4157 040b 14       		.byte	20
 4158 040c 14       		.byte	20
 4159 040d 14       		.byte	20
 4160 040e 17       		.byte	23
 4161 040f 14       		.byte	20
 4162 0410 10       		.byte	16
 4163 0411 10       		.byte	16
 4164 0412 1F       		.byte	31
 4165 0413 10       		.byte	16
 4166 0414 1F       		.byte	31
 4167 0415 14       		.byte	20
 4168 0416 14       		.byte	20
 4169 0417 14       		.byte	20
 4170 0418 F4       		.byte	-12
 4171 0419 14       		.byte	20
 4172 041a 10       		.byte	16
 4173 041b 10       		.byte	16
 4174 041c F0       		.byte	-16
 4175 041d 10       		.byte	16
 4176 041e F0       		.byte	-16
 4177 041f 00       		.byte	0
 4178 0420 00       		.byte	0
 4179 0421 1F       		.byte	31
 4180 0422 10       		.byte	16
 4181 0423 1F       		.byte	31
 4182 0424 00       		.byte	0
 4183 0425 00       		.byte	0
 4184 0426 00       		.byte	0
 4185 0427 1F       		.byte	31
 4186 0428 14       		.byte	20
 4187 0429 00       		.byte	0
 4188 042a 00       		.byte	0
 4189 042b 00       		.byte	0
 4190 042c FC       		.byte	-4
 4191 042d 14       		.byte	20
 4192 042e 00       		.byte	0
ARM GAS  C:\Users\username\AppData\Local\Temp\ccSuCzK2.s 			page 86


 4193 042f 00       		.byte	0
 4194 0430 F0       		.byte	-16
 4195 0431 10       		.byte	16
 4196 0432 F0       		.byte	-16
 4197 0433 10       		.byte	16
 4198 0434 10       		.byte	16
 4199 0435 FF       		.byte	-1
 4200 0436 10       		.byte	16
 4201 0437 FF       		.byte	-1
 4202 0438 14       		.byte	20
 4203 0439 14       		.byte	20
 4204 043a 14       		.byte	20
 4205 043b FF       		.byte	-1
 4206 043c 14       		.byte	20
 4207 043d 10       		.byte	16
 4208 043e 10       		.byte	16
 4209 043f 10       		.byte	16
 4210 0440 1F       		.byte	31
 4211 0441 00       		.byte	0
 4212 0442 00       		.byte	0
 4213 0443 00       		.byte	0
 4214 0444 00       		.byte	0
 4215 0445 F0       		.byte	-16
 4216 0446 10       		.byte	16
 4217 0447 FF       		.byte	-1
 4218 0448 FF       		.byte	-1
 4219 0449 FF       		.byte	-1
 4220 044a FF       		.byte	-1
 4221 044b FF       		.byte	-1
 4222 044c F0       		.byte	-16
 4223 044d F0       		.byte	-16
 4224 044e F0       		.byte	-16
 4225 044f F0       		.byte	-16
 4226 0450 F0       		.byte	-16
 4227 0451 FF       		.byte	-1
 4228 0452 FF       		.byte	-1
 4229 0453 FF       		.byte	-1
 4230 0454 00       		.byte	0
 4231 0455 00       		.byte	0
 4232 0456 00       		.byte	0
 4233 0457 00       		.byte	0
 4234 0458 00       		.byte	0
 4235 0459 FF       		.byte	-1
 4236 045a FF       		.byte	-1
 4237 045b 0F       		.byte	15
 4238 045c 0F       		.byte	15
 4239 045d 0F       		.byte	15
 4240 045e 0F       		.byte	15
 4241 045f 0F       		.byte	15
 4242 0460 38       		.byte	56
 4243 0461 44       		.byte	68
 4244 0462 44       		.byte	68
 4245 0463 38       		.byte	56
 4246 0464 44       		.byte	68
 4247 0465 FC       		.byte	-4
 4248 0466 4A       		.byte	74
 4249 0467 4A       		.byte	74
ARM GAS  C:\Users\username\AppData\Local\Temp\ccSuCzK2.s 			page 87


 4250 0468 4A       		.byte	74
 4251 0469 34       		.byte	52
 4252 046a 7E       		.byte	126
 4253 046b 02       		.byte	2
 4254 046c 02       		.byte	2
 4255 046d 06       		.byte	6
 4256 046e 06       		.byte	6
 4257 046f 02       		.byte	2
 4258 0470 7E       		.byte	126
 4259 0471 02       		.byte	2
 4260 0472 7E       		.byte	126
 4261 0473 02       		.byte	2
 4262 0474 63       		.byte	99
 4263 0475 55       		.byte	85
 4264 0476 49       		.byte	73
 4265 0477 41       		.byte	65
 4266 0478 63       		.byte	99
 4267 0479 38       		.byte	56
 4268 047a 44       		.byte	68
 4269 047b 44       		.byte	68
 4270 047c 3C       		.byte	60
 4271 047d 04       		.byte	4
 4272 047e 40       		.byte	64
 4273 047f 7E       		.byte	126
 4274 0480 20       		.byte	32
 4275 0481 1E       		.byte	30
 4276 0482 20       		.byte	32
 4277 0483 06       		.byte	6
 4278 0484 02       		.byte	2
 4279 0485 7E       		.byte	126
 4280 0486 02       		.byte	2
 4281 0487 02       		.byte	2
 4282 0488 99       		.byte	-103
 4283 0489 A5       		.byte	-91
 4284 048a E7       		.byte	-25
 4285 048b A5       		.byte	-91
 4286 048c 99       		.byte	-103
 4287 048d 1C       		.byte	28
 4288 048e 2A       		.byte	42
 4289 048f 49       		.byte	73
 4290 0490 2A       		.byte	42
 4291 0491 1C       		.byte	28
 4292 0492 4C       		.byte	76
 4293 0493 72       		.byte	114
 4294 0494 01       		.byte	1
 4295 0495 72       		.byte	114
 4296 0496 4C       		.byte	76
 4297 0497 30       		.byte	48
 4298 0498 4A       		.byte	74
 4299 0499 4D       		.byte	77
 4300 049a 4D       		.byte	77
 4301 049b 30       		.byte	48
 4302 049c 30       		.byte	48
 4303 049d 48       		.byte	72
 4304 049e 78       		.byte	120
 4305 049f 48       		.byte	72
 4306 04a0 30       		.byte	48
ARM GAS  C:\Users\username\AppData\Local\Temp\ccSuCzK2.s 			page 88


 4307 04a1 BC       		.byte	-68
 4308 04a2 62       		.byte	98
 4309 04a3 5A       		.byte	90
 4310 04a4 46       		.byte	70
 4311 04a5 3D       		.byte	61
 4312 04a6 3E       		.byte	62
 4313 04a7 49       		.byte	73
 4314 04a8 49       		.byte	73
 4315 04a9 49       		.byte	73
 4316 04aa 00       		.byte	0
 4317 04ab 7E       		.byte	126
 4318 04ac 01       		.byte	1
 4319 04ad 01       		.byte	1
 4320 04ae 01       		.byte	1
 4321 04af 7E       		.byte	126
 4322 04b0 2A       		.byte	42
 4323 04b1 2A       		.byte	42
 4324 04b2 2A       		.byte	42
 4325 04b3 2A       		.byte	42
 4326 04b4 2A       		.byte	42
 4327 04b5 44       		.byte	68
 4328 04b6 44       		.byte	68
 4329 04b7 5F       		.byte	95
 4330 04b8 44       		.byte	68
 4331 04b9 44       		.byte	68
 4332 04ba 40       		.byte	64
 4333 04bb 51       		.byte	81
 4334 04bc 4A       		.byte	74
 4335 04bd 44       		.byte	68
 4336 04be 40       		.byte	64
 4337 04bf 40       		.byte	64
 4338 04c0 44       		.byte	68
 4339 04c1 4A       		.byte	74
 4340 04c2 51       		.byte	81
 4341 04c3 40       		.byte	64
 4342 04c4 00       		.byte	0
 4343 04c5 00       		.byte	0
 4344 04c6 FF       		.byte	-1
 4345 04c7 01       		.byte	1
 4346 04c8 03       		.byte	3
 4347 04c9 E0       		.byte	-32
 4348 04ca 80       		.byte	-128
 4349 04cb FF       		.byte	-1
 4350 04cc 00       		.byte	0
 4351 04cd 00       		.byte	0
 4352 04ce 08       		.byte	8
 4353 04cf 08       		.byte	8
 4354 04d0 6B       		.byte	107
 4355 04d1 6B       		.byte	107
 4356 04d2 08       		.byte	8
 4357 04d3 36       		.byte	54
 4358 04d4 12       		.byte	18
 4359 04d5 36       		.byte	54
 4360 04d6 24       		.byte	36
 4361 04d7 36       		.byte	54
 4362 04d8 06       		.byte	6
 4363 04d9 0F       		.byte	15
ARM GAS  C:\Users\username\AppData\Local\Temp\ccSuCzK2.s 			page 89


 4364 04da 09       		.byte	9
 4365 04db 0F       		.byte	15
 4366 04dc 06       		.byte	6
 4367 04dd 00       		.byte	0
 4368 04de 00       		.byte	0
 4369 04df 18       		.byte	24
 4370 04e0 18       		.byte	24
 4371 04e1 00       		.byte	0
 4372 04e2 00       		.byte	0
 4373 04e3 00       		.byte	0
 4374 04e4 10       		.byte	16
 4375 04e5 10       		.byte	16
 4376 04e6 00       		.byte	0
 4377 04e7 30       		.byte	48
 4378 04e8 40       		.byte	64
 4379 04e9 FF       		.byte	-1
 4380 04ea 01       		.byte	1
 4381 04eb 01       		.byte	1
 4382 04ec 00       		.byte	0
 4383 04ed 1F       		.byte	31
 4384 04ee 01       		.byte	1
 4385 04ef 01       		.byte	1
 4386 04f0 1E       		.byte	30
 4387 04f1 00       		.byte	0
 4388 04f2 19       		.byte	25
 4389 04f3 1D       		.byte	29
 4390 04f4 17       		.byte	23
 4391 04f5 12       		.byte	18
 4392 04f6 00       		.byte	0
 4393 04f7 3C       		.byte	60
 4394 04f8 3C       		.byte	60
 4395 04f9 3C       		.byte	60
 4396 04fa 3C       		.byte	60
 4397 04fb 00       		.byte	0
 4398 04fc 00       		.byte	0
 4399 04fd 00       		.byte	0
 4400 04fe 00       		.byte	0
 4401 04ff 00       		.byte	0
 4402              		.text
 4403              	.Letext0:
 4404              		.file 2 "c:\\program files (x86)\\cypress\\psoc creator\\3.3\\psoc creator\\import\\gnu\\arm\\4.9.
 4405              		.file 3 "c:\\program files (x86)\\cypress\\psoc creator\\3.3\\psoc creator\\import\\gnu\\arm\\4.9.
 4406              		.file 4 "c:\\program files (x86)\\cypress\\psoc creator\\3.3\\psoc creator\\import\\gnu\\arm\\4.9.
 4407              		.file 5 ".\\glcdfont.c"
 4408              		.file 6 ".\\GFXmaster.h"
 4409              		.file 7 ".\\SSD1306.h"
 4410              		.file 8 "c:\\program files (x86)\\cypress\\psoc creator\\3.3\\psoc creator\\import\\gnu\\arm\\4.9.
 4411              		.section	.debug_info,"",%progbits
 4412              	.Ldebug_info0:
 4413 0000 03190000 		.4byte	0x1903
 4414 0004 0400     		.2byte	0x4
 4415 0006 00000000 		.4byte	.Ldebug_abbrev0
 4416 000a 04       		.byte	0x4
 4417 000b 01       		.uleb128 0x1
 4418 000c DB030000 		.4byte	.LASF93
 4419 0010 01       		.byte	0x1
 4420 0011 81000000 		.4byte	.LASF94
ARM GAS  C:\Users\username\AppData\Local\Temp\ccSuCzK2.s 			page 90


 4421 0015 82020000 		.4byte	.LASF95
 4422 0019 00000000 		.4byte	.Ldebug_ranges0+0
 4423 001d 00000000 		.4byte	0
 4424 0021 00000000 		.4byte	.Ldebug_line0
 4425 0025 02       		.uleb128 0x2
 4426 0026 38000000 		.4byte	.LASF0
 4427 002a 02       		.byte	0x2
 4428 002b 1B       		.byte	0x1b
 4429 002c 30000000 		.4byte	0x30
 4430 0030 03       		.uleb128 0x3
 4431 0031 01       		.byte	0x1
 4432 0032 06       		.byte	0x6
 4433 0033 EA010000 		.4byte	.LASF2
 4434 0037 02       		.uleb128 0x2
 4435 0038 70010000 		.4byte	.LASF1
 4436 003c 02       		.byte	0x2
 4437 003d 1D       		.byte	0x1d
 4438 003e 42000000 		.4byte	0x42
 4439 0042 03       		.uleb128 0x3
 4440 0043 01       		.byte	0x1
 4441 0044 08       		.byte	0x8
 4442 0045 B8010000 		.4byte	.LASF3
 4443 0049 02       		.uleb128 0x2
 4444 004a BC030000 		.4byte	.LASF4
 4445 004e 02       		.byte	0x2
 4446 004f 29       		.byte	0x29
 4447 0050 54000000 		.4byte	0x54
 4448 0054 03       		.uleb128 0x3
 4449 0055 02       		.byte	0x2
 4450 0056 05       		.byte	0x5
 4451 0057 46000000 		.4byte	.LASF5
 4452 005b 02       		.uleb128 0x2
 4453 005c AE000000 		.4byte	.LASF6
 4454 0060 02       		.byte	0x2
 4455 0061 2B       		.byte	0x2b
 4456 0062 66000000 		.4byte	0x66
 4457 0066 03       		.uleb128 0x3
 4458 0067 02       		.byte	0x2
 4459 0068 07       		.byte	0x7
 4460 0069 0B030000 		.4byte	.LASF7
 4461 006d 02       		.uleb128 0x2
 4462 006e AB030000 		.4byte	.LASF8
 4463 0072 02       		.byte	0x2
 4464 0073 3F       		.byte	0x3f
 4465 0074 78000000 		.4byte	0x78
 4466 0078 03       		.uleb128 0x3
 4467 0079 04       		.byte	0x4
 4468 007a 05       		.byte	0x5
 4469 007b 55010000 		.4byte	.LASF9
 4470 007f 03       		.uleb128 0x3
 4471 0080 04       		.byte	0x4
 4472 0081 07       		.byte	0x7
 4473 0082 5E030000 		.4byte	.LASF10
 4474 0086 03       		.uleb128 0x3
 4475 0087 08       		.byte	0x8
 4476 0088 05       		.byte	0x5
 4477 0089 9B000000 		.4byte	.LASF11
ARM GAS  C:\Users\username\AppData\Local\Temp\ccSuCzK2.s 			page 91


 4478 008d 03       		.uleb128 0x3
 4479 008e 08       		.byte	0x8
 4480 008f 07       		.byte	0x7
 4481 0090 02020000 		.4byte	.LASF12
 4482 0094 04       		.uleb128 0x4
 4483 0095 04       		.byte	0x4
 4484 0096 05       		.byte	0x5
 4485 0097 696E7400 		.ascii	"int\000"
 4486 009b 03       		.uleb128 0x3
 4487 009c 04       		.byte	0x4
 4488 009d 07       		.byte	0x7
 4489 009e 2E020000 		.4byte	.LASF13
 4490 00a2 02       		.uleb128 0x2
 4491 00a3 26000000 		.4byte	.LASF14
 4492 00a7 03       		.byte	0x3
 4493 00a8 14       		.byte	0x14
 4494 00a9 25000000 		.4byte	0x25
 4495 00ad 02       		.uleb128 0x2
 4496 00ae D6000000 		.4byte	.LASF15
 4497 00b2 03       		.byte	0x3
 4498 00b3 15       		.byte	0x15
 4499 00b4 37000000 		.4byte	0x37
 4500 00b8 02       		.uleb128 0x2
 4501 00b9 1E030000 		.4byte	.LASF16
 4502 00bd 03       		.byte	0x3
 4503 00be 20       		.byte	0x20
 4504 00bf 49000000 		.4byte	0x49
 4505 00c3 02       		.uleb128 0x2
 4506 00c4 3B020000 		.4byte	.LASF17
 4507 00c8 03       		.byte	0x3
 4508 00c9 21       		.byte	0x21
 4509 00ca 5B000000 		.4byte	0x5b
 4510 00ce 02       		.uleb128 0x2
 4511 00cf F5020000 		.4byte	.LASF18
 4512 00d3 03       		.byte	0x3
 4513 00d4 2C       		.byte	0x2c
 4514 00d5 6D000000 		.4byte	0x6d
 4515 00d9 02       		.uleb128 0x2
 4516 00da 50000000 		.4byte	.LASF19
 4517 00de 04       		.byte	0x4
 4518 00df D4       		.byte	0xd4
 4519 00e0 9B000000 		.4byte	0x9b
 4520 00e4 03       		.uleb128 0x3
 4521 00e5 04       		.byte	0x4
 4522 00e6 07       		.byte	0x7
 4523 00e7 57000000 		.4byte	.LASF20
 4524 00eb 05       		.uleb128 0x5
 4525 00ec 04       		.byte	0x4
 4526 00ed F1000000 		.4byte	0xf1
 4527 00f1 03       		.uleb128 0x3
 4528 00f2 01       		.byte	0x1
 4529 00f3 08       		.byte	0x8
 4530 00f4 E0020000 		.4byte	.LASF21
 4531 00f8 05       		.uleb128 0x5
 4532 00f9 04       		.byte	0x4
 4533 00fa FE000000 		.4byte	0xfe
 4534 00fe 06       		.uleb128 0x6
ARM GAS  C:\Users\username\AppData\Local\Temp\ccSuCzK2.s 			page 92


 4535 00ff F1000000 		.4byte	0xf1
 4536 0103 03       		.uleb128 0x3
 4537 0104 04       		.byte	0x4
 4538 0105 04       		.byte	0x4
 4539 0106 00000000 		.4byte	.LASF22
 4540 010a 03       		.uleb128 0x3
 4541 010b 08       		.byte	0x8
 4542 010c 04       		.byte	0x4
 4543 010d 7C030000 		.4byte	.LASF23
 4544 0111 07       		.uleb128 0x7
 4545 0112 A1010000 		.4byte	.LASF24
 4546 0116 01       		.byte	0x1
 4547 0117 24       		.byte	0x24
 4548 0118 00000000 		.4byte	.LFB35
 4549 011c 5C000000 		.4byte	.LFE35-.LFB35
 4550 0120 01       		.uleb128 0x1
 4551 0121 9C       		.byte	0x9c
 4552 0122 3F010000 		.4byte	0x13f
 4553 0126 08       		.uleb128 0x8
 4554 0127 6800     		.ascii	"h\000"
 4555 0129 01       		.byte	0x1
 4556 012a 24       		.byte	0x24
 4557 012b C3000000 		.4byte	0xc3
 4558 012f 01       		.uleb128 0x1
 4559 0130 50       		.byte	0x50
 4560 0131 09       		.uleb128 0x9
 4561 0132 7700     		.ascii	"w\000"
 4562 0134 01       		.byte	0x1
 4563 0135 24       		.byte	0x24
 4564 0136 C3000000 		.4byte	0xc3
 4565 013a 00000000 		.4byte	.LLST0
 4566 013e 00       		.byte	0
 4567 013f 07       		.uleb128 0x7
 4568 0140 2D000000 		.4byte	.LASF25
 4569 0144 01       		.byte	0x1
 4570 0145 34       		.byte	0x34
 4571 0146 00000000 		.4byte	.LFB36
 4572 014a 50010000 		.4byte	.LFE36-.LFB36
 4573 014e 01       		.uleb128 0x1
 4574 014f 9C       		.byte	0x9c
 4575 0150 68030000 		.4byte	0x368
 4576 0154 09       		.uleb128 0x9
 4577 0155 783000   		.ascii	"x0\000"
 4578 0158 01       		.byte	0x1
 4579 0159 34       		.byte	0x34
 4580 015a B8000000 		.4byte	0xb8
 4581 015e 22000000 		.4byte	.LLST1
 4582 0162 09       		.uleb128 0x9
 4583 0163 793000   		.ascii	"y0\000"
 4584 0166 01       		.byte	0x1
 4585 0167 34       		.byte	0x34
 4586 0168 B8000000 		.4byte	0xb8
 4587 016c 43000000 		.4byte	.LLST2
 4588 0170 09       		.uleb128 0x9
 4589 0171 7200     		.ascii	"r\000"
 4590 0173 01       		.byte	0x1
 4591 0174 34       		.byte	0x34
ARM GAS  C:\Users\username\AppData\Local\Temp\ccSuCzK2.s 			page 93


 4592 0175 B8000000 		.4byte	0xb8
 4593 0179 7A000000 		.4byte	.LLST3
 4594 017d 0A       		.uleb128 0xa
 4595 017e 9B010000 		.4byte	.LASF26
 4596 0182 01       		.byte	0x1
 4597 0183 34       		.byte	0x34
 4598 0184 C3000000 		.4byte	0xc3
 4599 0188 A6000000 		.4byte	.LLST4
 4600 018c 0B       		.uleb128 0xb
 4601 018d 6600     		.ascii	"f\000"
 4602 018f 01       		.byte	0x1
 4603 0190 35       		.byte	0x35
 4604 0191 B8000000 		.4byte	0xb8
 4605 0195 C7000000 		.4byte	.LLST5
 4606 0199 0C       		.uleb128 0xc
 4607 019a 70030000 		.4byte	.LASF27
 4608 019e 01       		.byte	0x1
 4609 019f 36       		.byte	0x36
 4610 01a0 B8000000 		.4byte	0xb8
 4611 01a4 DA000000 		.4byte	.LLST6
 4612 01a8 0D       		.uleb128 0xd
 4613 01a9 76030000 		.4byte	.LASF28
 4614 01ad 01       		.byte	0x1
 4615 01ae 37       		.byte	0x37
 4616 01af B8000000 		.4byte	0xb8
 4617 01b3 02       		.uleb128 0x2
 4618 01b4 91       		.byte	0x91
 4619 01b5 54       		.sleb128 -44
 4620 01b6 0B       		.uleb128 0xb
 4621 01b7 7800     		.ascii	"x\000"
 4622 01b9 01       		.byte	0x1
 4623 01ba 38       		.byte	0x38
 4624 01bb B8000000 		.4byte	0xb8
 4625 01bf F9000000 		.4byte	.LLST7
 4626 01c3 0E       		.uleb128 0xe
 4627 01c4 7900     		.ascii	"y\000"
 4628 01c6 01       		.byte	0x1
 4629 01c7 39       		.byte	0x39
 4630 01c8 B8000000 		.4byte	0xb8
 4631 01cc 02       		.uleb128 0x2
 4632 01cd 91       		.byte	0x91
 4633 01ce 48       		.sleb128 -56
 4634 01cf 0F       		.uleb128 0xf
 4635 01d0 3A000000 		.4byte	.LVL8
 4636 01d4 88180000 		.4byte	0x1888
 4637 01d8 F2010000 		.4byte	0x1f2
 4638 01dc 10       		.uleb128 0x10
 4639 01dd 01       		.uleb128 0x1
 4640 01de 52       		.byte	0x52
 4641 01df 02       		.uleb128 0x2
 4642 01e0 77       		.byte	0x77
 4643 01e1 00       		.sleb128 0
 4644 01e2 10       		.uleb128 0x10
 4645 01e3 01       		.uleb128 0x1
 4646 01e4 51       		.byte	0x51
 4647 01e5 05       		.uleb128 0x5
 4648 01e6 76       		.byte	0x76
ARM GAS  C:\Users\username\AppData\Local\Temp\ccSuCzK2.s 			page 94


 4649 01e7 00       		.sleb128 0
 4650 01e8 7A       		.byte	0x7a
 4651 01e9 00       		.sleb128 0
 4652 01ea 22       		.byte	0x22
 4653 01eb 10       		.uleb128 0x10
 4654 01ec 01       		.uleb128 0x1
 4655 01ed 50       		.byte	0x50
 4656 01ee 02       		.uleb128 0x2
 4657 01ef 75       		.byte	0x75
 4658 01f0 00       		.sleb128 0
 4659 01f1 00       		.byte	0
 4660 01f2 0F       		.uleb128 0xf
 4661 01f3 48000000 		.4byte	.LVL9
 4662 01f7 88180000 		.4byte	0x1888
 4663 01fb 15020000 		.4byte	0x215
 4664 01ff 10       		.uleb128 0x10
 4665 0200 01       		.uleb128 0x1
 4666 0201 52       		.byte	0x52
 4667 0202 02       		.uleb128 0x2
 4668 0203 77       		.byte	0x77
 4669 0204 00       		.sleb128 0
 4670 0205 10       		.uleb128 0x10
 4671 0206 01       		.uleb128 0x1
 4672 0207 51       		.byte	0x51
 4673 0208 05       		.uleb128 0x5
 4674 0209 7A       		.byte	0x7a
 4675 020a 00       		.sleb128 0
 4676 020b 76       		.byte	0x76
 4677 020c 00       		.sleb128 0
 4678 020d 1C       		.byte	0x1c
 4679 020e 10       		.uleb128 0x10
 4680 020f 01       		.uleb128 0x1
 4681 0210 50       		.byte	0x50
 4682 0211 02       		.uleb128 0x2
 4683 0212 75       		.byte	0x75
 4684 0213 00       		.sleb128 0
 4685 0214 00       		.byte	0
 4686 0215 0F       		.uleb128 0xf
 4687 0216 58000000 		.4byte	.LVL10
 4688 021a 88180000 		.4byte	0x1888
 4689 021e 38020000 		.4byte	0x238
 4690 0222 10       		.uleb128 0x10
 4691 0223 01       		.uleb128 0x1
 4692 0224 52       		.byte	0x52
 4693 0225 02       		.uleb128 0x2
 4694 0226 77       		.byte	0x77
 4695 0227 00       		.sleb128 0
 4696 0228 10       		.uleb128 0x10
 4697 0229 01       		.uleb128 0x1
 4698 022a 51       		.byte	0x51
 4699 022b 02       		.uleb128 0x2
 4700 022c 74       		.byte	0x74
 4701 022d 00       		.sleb128 0
 4702 022e 10       		.uleb128 0x10
 4703 022f 01       		.uleb128 0x1
 4704 0230 50       		.byte	0x50
 4705 0231 05       		.uleb128 0x5
ARM GAS  C:\Users\username\AppData\Local\Temp\ccSuCzK2.s 			page 95


 4706 0232 76       		.byte	0x76
 4707 0233 00       		.sleb128 0
 4708 0234 79       		.byte	0x79
 4709 0235 00       		.sleb128 0
 4710 0236 22       		.byte	0x22
 4711 0237 00       		.byte	0
 4712 0238 0F       		.uleb128 0xf
 4713 0239 66000000 		.4byte	.LVL11
 4714 023d 88180000 		.4byte	0x1888
 4715 0241 5B020000 		.4byte	0x25b
 4716 0245 10       		.uleb128 0x10
 4717 0246 01       		.uleb128 0x1
 4718 0247 52       		.byte	0x52
 4719 0248 02       		.uleb128 0x2
 4720 0249 77       		.byte	0x77
 4721 024a 00       		.sleb128 0
 4722 024b 10       		.uleb128 0x10
 4723 024c 01       		.uleb128 0x1
 4724 024d 51       		.byte	0x51
 4725 024e 02       		.uleb128 0x2
 4726 024f 74       		.byte	0x74
 4727 0250 00       		.sleb128 0
 4728 0251 10       		.uleb128 0x10
 4729 0252 01       		.uleb128 0x1
 4730 0253 50       		.byte	0x50
 4731 0254 05       		.uleb128 0x5
 4732 0255 79       		.byte	0x79
 4733 0256 00       		.sleb128 0
 4734 0257 76       		.byte	0x76
 4735 0258 00       		.sleb128 0
 4736 0259 1C       		.byte	0x1c
 4737 025a 00       		.byte	0
 4738 025b 0F       		.uleb128 0xf
 4739 025c C4000000 		.4byte	.LVL19
 4740 0260 88180000 		.4byte	0x1888
 4741 0264 7D020000 		.4byte	0x27d
 4742 0268 10       		.uleb128 0x10
 4743 0269 01       		.uleb128 0x1
 4744 026a 52       		.byte	0x52
 4745 026b 04       		.uleb128 0x4
 4746 026c 91       		.byte	0x91
 4747 026d 44       		.sleb128 -60
 4748 026e 94       		.byte	0x94
 4749 026f 02       		.byte	0x2
 4750 0270 10       		.uleb128 0x10
 4751 0271 01       		.uleb128 0x1
 4752 0272 51       		.byte	0x51
 4753 0273 02       		.uleb128 0x2
 4754 0274 76       		.byte	0x76
 4755 0275 00       		.sleb128 0
 4756 0276 10       		.uleb128 0x10
 4757 0277 01       		.uleb128 0x1
 4758 0278 50       		.byte	0x50
 4759 0279 02       		.uleb128 0x2
 4760 027a 77       		.byte	0x77
 4761 027b 00       		.sleb128 0
 4762 027c 00       		.byte	0
ARM GAS  C:\Users\username\AppData\Local\Temp\ccSuCzK2.s 			page 96


 4763 027d 0F       		.uleb128 0xf
 4764 027e D6000000 		.4byte	.LVL20
 4765 0282 88180000 		.4byte	0x1888
 4766 0286 A1020000 		.4byte	0x2a1
 4767 028a 10       		.uleb128 0x10
 4768 028b 01       		.uleb128 0x1
 4769 028c 52       		.byte	0x52
 4770 028d 04       		.uleb128 0x4
 4771 028e 91       		.byte	0x91
 4772 028f 44       		.sleb128 -60
 4773 0290 94       		.byte	0x94
 4774 0291 02       		.byte	0x2
 4775 0292 10       		.uleb128 0x10
 4776 0293 01       		.uleb128 0x1
 4777 0294 51       		.byte	0x51
 4778 0295 02       		.uleb128 0x2
 4779 0296 76       		.byte	0x76
 4780 0297 00       		.sleb128 0
 4781 0298 10       		.uleb128 0x10
 4782 0299 01       		.uleb128 0x1
 4783 029a 50       		.byte	0x50
 4784 029b 04       		.uleb128 0x4
 4785 029c 91       		.byte	0x91
 4786 029d 50       		.sleb128 -48
 4787 029e 94       		.byte	0x94
 4788 029f 02       		.byte	0x2
 4789 02a0 00       		.byte	0
 4790 02a1 0F       		.uleb128 0xf
 4791 02a2 E8000000 		.4byte	.LVL21
 4792 02a6 88180000 		.4byte	0x1888
 4793 02aa C4020000 		.4byte	0x2c4
 4794 02ae 10       		.uleb128 0x10
 4795 02af 01       		.uleb128 0x1
 4796 02b0 52       		.byte	0x52
 4797 02b1 02       		.uleb128 0x2
 4798 02b2 77       		.byte	0x77
 4799 02b3 00       		.sleb128 0
 4800 02b4 10       		.uleb128 0x10
 4801 02b5 01       		.uleb128 0x1
 4802 02b6 51       		.byte	0x51
 4803 02b7 02       		.uleb128 0x2
 4804 02b8 76       		.byte	0x76
 4805 02b9 00       		.sleb128 0
 4806 02ba 10       		.uleb128 0x10
 4807 02bb 01       		.uleb128 0x1
 4808 02bc 50       		.byte	0x50
 4809 02bd 05       		.uleb128 0x5
 4810 02be 79       		.byte	0x79
 4811 02bf 00       		.sleb128 0
 4812 02c0 74       		.byte	0x74
 4813 02c1 00       		.sleb128 0
 4814 02c2 22       		.byte	0x22
 4815 02c3 00       		.byte	0
 4816 02c4 0F       		.uleb128 0xf
 4817 02c5 F4000000 		.4byte	.LVL22
 4818 02c9 88180000 		.4byte	0x1888
 4819 02cd E6020000 		.4byte	0x2e6
ARM GAS  C:\Users\username\AppData\Local\Temp\ccSuCzK2.s 			page 97


 4820 02d1 10       		.uleb128 0x10
 4821 02d2 01       		.uleb128 0x1
 4822 02d3 52       		.byte	0x52
 4823 02d4 02       		.uleb128 0x2
 4824 02d5 77       		.byte	0x77
 4825 02d6 00       		.sleb128 0
 4826 02d7 10       		.uleb128 0x10
 4827 02d8 01       		.uleb128 0x1
 4828 02d9 51       		.byte	0x51
 4829 02da 02       		.uleb128 0x2
 4830 02db 76       		.byte	0x76
 4831 02dc 00       		.sleb128 0
 4832 02dd 10       		.uleb128 0x10
 4833 02de 01       		.uleb128 0x1
 4834 02df 50       		.byte	0x50
 4835 02e0 04       		.uleb128 0x4
 4836 02e1 91       		.byte	0x91
 4837 02e2 50       		.sleb128 -48
 4838 02e3 94       		.byte	0x94
 4839 02e4 02       		.byte	0x2
 4840 02e5 00       		.byte	0
 4841 02e6 0F       		.uleb128 0xf
 4842 02e7 0A010000 		.4byte	.LVL23
 4843 02eb 88180000 		.4byte	0x1888
 4844 02ef 08030000 		.4byte	0x308
 4845 02f3 10       		.uleb128 0x10
 4846 02f4 01       		.uleb128 0x1
 4847 02f5 52       		.byte	0x52
 4848 02f6 04       		.uleb128 0x4
 4849 02f7 91       		.byte	0x91
 4850 02f8 44       		.sleb128 -60
 4851 02f9 94       		.byte	0x94
 4852 02fa 02       		.byte	0x2
 4853 02fb 10       		.uleb128 0x10
 4854 02fc 01       		.uleb128 0x1
 4855 02fd 51       		.byte	0x51
 4856 02fe 02       		.uleb128 0x2
 4857 02ff 77       		.byte	0x77
 4858 0300 00       		.sleb128 0
 4859 0301 10       		.uleb128 0x10
 4860 0302 01       		.uleb128 0x1
 4861 0303 50       		.byte	0x50
 4862 0304 02       		.uleb128 0x2
 4863 0305 76       		.byte	0x76
 4864 0306 00       		.sleb128 0
 4865 0307 00       		.byte	0
 4866 0308 0F       		.uleb128 0xf
 4867 0309 1C010000 		.4byte	.LVL24
 4868 030d 88180000 		.4byte	0x1888
 4869 0311 2B030000 		.4byte	0x32b
 4870 0315 10       		.uleb128 0x10
 4871 0316 01       		.uleb128 0x1
 4872 0317 52       		.byte	0x52
 4873 0318 02       		.uleb128 0x2
 4874 0319 77       		.byte	0x77
 4875 031a 00       		.sleb128 0
 4876 031b 10       		.uleb128 0x10
ARM GAS  C:\Users\username\AppData\Local\Temp\ccSuCzK2.s 			page 98


 4877 031c 01       		.uleb128 0x1
 4878 031d 51       		.byte	0x51
 4879 031e 05       		.uleb128 0x5
 4880 031f 7A       		.byte	0x7a
 4881 0320 00       		.sleb128 0
 4882 0321 74       		.byte	0x74
 4883 0322 00       		.sleb128 0
 4884 0323 22       		.byte	0x22
 4885 0324 10       		.uleb128 0x10
 4886 0325 01       		.uleb128 0x1
 4887 0326 50       		.byte	0x50
 4888 0327 02       		.uleb128 0x2
 4889 0328 75       		.byte	0x75
 4890 0329 00       		.sleb128 0
 4891 032a 00       		.byte	0
 4892 032b 0F       		.uleb128 0xf
 4893 032c 2C010000 		.4byte	.LVL25
 4894 0330 88180000 		.4byte	0x1888
 4895 0334 4B030000 		.4byte	0x34b
 4896 0338 10       		.uleb128 0x10
 4897 0339 01       		.uleb128 0x1
 4898 033a 52       		.byte	0x52
 4899 033b 02       		.uleb128 0x2
 4900 033c 77       		.byte	0x77
 4901 033d 00       		.sleb128 0
 4902 033e 10       		.uleb128 0x10
 4903 033f 01       		.uleb128 0x1
 4904 0340 51       		.byte	0x51
 4905 0341 02       		.uleb128 0x2
 4906 0342 74       		.byte	0x74
 4907 0343 00       		.sleb128 0
 4908 0344 10       		.uleb128 0x10
 4909 0345 01       		.uleb128 0x1
 4910 0346 50       		.byte	0x50
 4911 0347 02       		.uleb128 0x2
 4912 0348 76       		.byte	0x76
 4913 0349 00       		.sleb128 0
 4914 034a 00       		.byte	0
 4915 034b 11       		.uleb128 0x11
 4916 034c 36010000 		.4byte	.LVL26
 4917 0350 88180000 		.4byte	0x1888
 4918 0354 10       		.uleb128 0x10
 4919 0355 01       		.uleb128 0x1
 4920 0356 52       		.byte	0x52
 4921 0357 02       		.uleb128 0x2
 4922 0358 77       		.byte	0x77
 4923 0359 00       		.sleb128 0
 4924 035a 10       		.uleb128 0x10
 4925 035b 01       		.uleb128 0x1
 4926 035c 51       		.byte	0x51
 4927 035d 02       		.uleb128 0x2
 4928 035e 74       		.byte	0x74
 4929 035f 00       		.sleb128 0
 4930 0360 10       		.uleb128 0x10
 4931 0361 01       		.uleb128 0x1
 4932 0362 50       		.byte	0x50
 4933 0363 02       		.uleb128 0x2
ARM GAS  C:\Users\username\AppData\Local\Temp\ccSuCzK2.s 			page 99


 4934 0364 75       		.byte	0x75
 4935 0365 00       		.sleb128 0
 4936 0366 00       		.byte	0
 4937 0367 00       		.byte	0
 4938 0368 07       		.uleb128 0x7
 4939 0369 50020000 		.4byte	.LASF29
 4940 036d 01       		.byte	0x1
 4941 036e 56       		.byte	0x56
 4942 036f 00000000 		.4byte	.LFB37
 4943 0373 4E010000 		.4byte	.LFE37-.LFB37
 4944 0377 01       		.uleb128 0x1
 4945 0378 9C       		.byte	0x9c
 4946 0379 4B050000 		.4byte	0x54b
 4947 037d 09       		.uleb128 0x9
 4948 037e 783000   		.ascii	"x0\000"
 4949 0381 01       		.byte	0x1
 4950 0382 56       		.byte	0x56
 4951 0383 B8000000 		.4byte	0xb8
 4952 0387 19010000 		.4byte	.LLST8
 4953 038b 09       		.uleb128 0x9
 4954 038c 793000   		.ascii	"y0\000"
 4955 038f 01       		.byte	0x1
 4956 0390 56       		.byte	0x56
 4957 0391 B8000000 		.4byte	0xb8
 4958 0395 3A010000 		.4byte	.LLST9
 4959 0399 09       		.uleb128 0x9
 4960 039a 7200     		.ascii	"r\000"
 4961 039c 01       		.byte	0x1
 4962 039d 56       		.byte	0x56
 4963 039e B8000000 		.4byte	0xb8
 4964 03a2 5B010000 		.4byte	.LLST10
 4965 03a6 0A       		.uleb128 0xa
 4966 03a7 CB030000 		.4byte	.LASF30
 4967 03ab 01       		.byte	0x1
 4968 03ac 56       		.byte	0x56
 4969 03ad AD000000 		.4byte	0xad
 4970 03b1 7C010000 		.4byte	.LLST11
 4971 03b5 0A       		.uleb128 0xa
 4972 03b6 9B010000 		.4byte	.LASF26
 4973 03ba 01       		.byte	0x1
 4974 03bb 56       		.byte	0x56
 4975 03bc C3000000 		.4byte	0xc3
 4976 03c0 9D010000 		.4byte	.LLST12
 4977 03c4 0B       		.uleb128 0xb
 4978 03c5 6600     		.ascii	"f\000"
 4979 03c7 01       		.byte	0x1
 4980 03c8 57       		.byte	0x57
 4981 03c9 B8000000 		.4byte	0xb8
 4982 03cd C9010000 		.4byte	.LLST13
 4983 03d1 0C       		.uleb128 0xc
 4984 03d2 70030000 		.4byte	.LASF27
 4985 03d6 01       		.byte	0x1
 4986 03d7 58       		.byte	0x58
 4987 03d8 B8000000 		.4byte	0xb8
 4988 03dc F2010000 		.4byte	.LLST14
 4989 03e0 0C       		.uleb128 0xc
 4990 03e1 76030000 		.4byte	.LASF28
ARM GAS  C:\Users\username\AppData\Local\Temp\ccSuCzK2.s 			page 100


 4991 03e5 01       		.byte	0x1
 4992 03e6 59       		.byte	0x59
 4993 03e7 B8000000 		.4byte	0xb8
 4994 03eb 11020000 		.4byte	.LLST15
 4995 03ef 0B       		.uleb128 0xb
 4996 03f0 7800     		.ascii	"x\000"
 4997 03f2 01       		.byte	0x1
 4998 03f3 5A       		.byte	0x5a
 4999 03f4 B8000000 		.4byte	0xb8
 5000 03f8 24020000 		.4byte	.LLST16
 5001 03fc 0B       		.uleb128 0xb
 5002 03fd 7900     		.ascii	"y\000"
 5003 03ff 01       		.byte	0x1
 5004 0400 5B       		.byte	0x5b
 5005 0401 B8000000 		.4byte	0xb8
 5006 0405 44020000 		.4byte	.LLST17
 5007 0409 0F       		.uleb128 0xf
 5008 040a 8A000000 		.4byte	.LVL46
 5009 040e 88180000 		.4byte	0x1888
 5010 0412 32040000 		.4byte	0x432
 5011 0416 10       		.uleb128 0x10
 5012 0417 01       		.uleb128 0x1
 5013 0418 52       		.byte	0x52
 5014 0419 04       		.uleb128 0x4
 5015 041a 91       		.byte	0x91
 5016 041b 48       		.sleb128 -56
 5017 041c 94       		.byte	0x94
 5018 041d 02       		.byte	0x2
 5019 041e 10       		.uleb128 0x10
 5020 041f 01       		.uleb128 0x1
 5021 0420 51       		.byte	0x51
 5022 0421 05       		.uleb128 0x5
 5023 0422 79       		.byte	0x79
 5024 0423 00       		.sleb128 0
 5025 0424 7B       		.byte	0x7b
 5026 0425 00       		.sleb128 0
 5027 0426 22       		.byte	0x22
 5028 0427 10       		.uleb128 0x10
 5029 0428 01       		.uleb128 0x1
 5030 0429 50       		.byte	0x50
 5031 042a 06       		.uleb128 0x6
 5032 042b 75       		.byte	0x75
 5033 042c 00       		.sleb128 0
 5034 042d 91       		.byte	0x91
 5035 042e 54       		.sleb128 -44
 5036 042f 06       		.byte	0x6
 5037 0430 22       		.byte	0x22
 5038 0431 00       		.byte	0
 5039 0432 0F       		.uleb128 0xf
 5040 0433 9C000000 		.4byte	.LVL47
 5041 0437 88180000 		.4byte	0x1888
 5042 043b 5B040000 		.4byte	0x45b
 5043 043f 10       		.uleb128 0x10
 5044 0440 01       		.uleb128 0x1
 5045 0441 52       		.byte	0x52
 5046 0442 04       		.uleb128 0x4
 5047 0443 91       		.byte	0x91
ARM GAS  C:\Users\username\AppData\Local\Temp\ccSuCzK2.s 			page 101


 5048 0444 48       		.sleb128 -56
 5049 0445 94       		.byte	0x94
 5050 0446 02       		.byte	0x2
 5051 0447 10       		.uleb128 0x10
 5052 0448 01       		.uleb128 0x1
 5053 0449 51       		.byte	0x51
 5054 044a 05       		.uleb128 0x5
 5055 044b 75       		.byte	0x75
 5056 044c 00       		.sleb128 0
 5057 044d 79       		.byte	0x79
 5058 044e 00       		.sleb128 0
 5059 044f 22       		.byte	0x22
 5060 0450 10       		.uleb128 0x10
 5061 0451 01       		.uleb128 0x1
 5062 0452 50       		.byte	0x50
 5063 0453 06       		.uleb128 0x6
 5064 0454 91       		.byte	0x91
 5065 0455 54       		.sleb128 -44
 5066 0456 06       		.byte	0x6
 5067 0457 7B       		.byte	0x7b
 5068 0458 00       		.sleb128 0
 5069 0459 22       		.byte	0x22
 5070 045a 00       		.byte	0
 5071 045b 0F       		.uleb128 0xf
 5072 045c BC000000 		.4byte	.LVL48
 5073 0460 88180000 		.4byte	0x1888
 5074 0464 84040000 		.4byte	0x484
 5075 0468 10       		.uleb128 0x10
 5076 0469 01       		.uleb128 0x1
 5077 046a 52       		.byte	0x52
 5078 046b 04       		.uleb128 0x4
 5079 046c 91       		.byte	0x91
 5080 046d 48       		.sleb128 -56
 5081 046e 94       		.byte	0x94
 5082 046f 02       		.byte	0x2
 5083 0470 10       		.uleb128 0x10
 5084 0471 01       		.uleb128 0x1
 5085 0472 51       		.byte	0x51
 5086 0473 05       		.uleb128 0x5
 5087 0474 79       		.byte	0x79
 5088 0475 00       		.sleb128 0
 5089 0476 7B       		.byte	0x7b
 5090 0477 00       		.sleb128 0
 5091 0478 1C       		.byte	0x1c
 5092 0479 10       		.uleb128 0x10
 5093 047a 01       		.uleb128 0x1
 5094 047b 50       		.byte	0x50
 5095 047c 06       		.uleb128 0x6
 5096 047d 75       		.byte	0x75
 5097 047e 00       		.sleb128 0
 5098 047f 91       		.byte	0x91
 5099 0480 54       		.sleb128 -44
 5100 0481 06       		.byte	0x6
 5101 0482 22       		.byte	0x22
 5102 0483 00       		.byte	0
 5103 0484 0F       		.uleb128 0xf
 5104 0485 CE000000 		.4byte	.LVL49
ARM GAS  C:\Users\username\AppData\Local\Temp\ccSuCzK2.s 			page 102


 5105 0489 88180000 		.4byte	0x1888
 5106 048d AD040000 		.4byte	0x4ad
 5107 0491 10       		.uleb128 0x10
 5108 0492 01       		.uleb128 0x1
 5109 0493 52       		.byte	0x52
 5110 0494 04       		.uleb128 0x4
 5111 0495 91       		.byte	0x91
 5112 0496 48       		.sleb128 -56
 5113 0497 94       		.byte	0x94
 5114 0498 02       		.byte	0x2
 5115 0499 10       		.uleb128 0x10
 5116 049a 01       		.uleb128 0x1
 5117 049b 51       		.byte	0x51
 5118 049c 05       		.uleb128 0x5
 5119 049d 79       		.byte	0x79
 5120 049e 00       		.sleb128 0
 5121 049f 75       		.byte	0x75
 5122 04a0 00       		.sleb128 0
 5123 04a1 1C       		.byte	0x1c
 5124 04a2 10       		.uleb128 0x10
 5125 04a3 01       		.uleb128 0x1
 5126 04a4 50       		.byte	0x50
 5127 04a5 06       		.uleb128 0x6
 5128 04a6 91       		.byte	0x91
 5129 04a7 54       		.sleb128 -44
 5130 04a8 06       		.byte	0x6
 5131 04a9 7B       		.byte	0x7b
 5132 04aa 00       		.sleb128 0
 5133 04ab 22       		.byte	0x22
 5134 04ac 00       		.byte	0
 5135 04ad 0F       		.uleb128 0xf
 5136 04ae EE000000 		.4byte	.LVL50
 5137 04b2 88180000 		.4byte	0x1888
 5138 04b6 D6040000 		.4byte	0x4d6
 5139 04ba 10       		.uleb128 0x10
 5140 04bb 01       		.uleb128 0x1
 5141 04bc 52       		.byte	0x52
 5142 04bd 04       		.uleb128 0x4
 5143 04be 91       		.byte	0x91
 5144 04bf 48       		.sleb128 -56
 5145 04c0 94       		.byte	0x94
 5146 04c1 02       		.byte	0x2
 5147 04c2 10       		.uleb128 0x10
 5148 04c3 01       		.uleb128 0x1
 5149 04c4 51       		.byte	0x51
 5150 04c5 05       		.uleb128 0x5
 5151 04c6 75       		.byte	0x75
 5152 04c7 00       		.sleb128 0
 5153 04c8 79       		.byte	0x79
 5154 04c9 00       		.sleb128 0
 5155 04ca 22       		.byte	0x22
 5156 04cb 10       		.uleb128 0x10
 5157 04cc 01       		.uleb128 0x1
 5158 04cd 50       		.byte	0x50
 5159 04ce 06       		.uleb128 0x6
 5160 04cf 7B       		.byte	0x7b
 5161 04d0 00       		.sleb128 0
ARM GAS  C:\Users\username\AppData\Local\Temp\ccSuCzK2.s 			page 103


 5162 04d1 91       		.byte	0x91
 5163 04d2 54       		.sleb128 -44
 5164 04d3 06       		.byte	0x6
 5165 04d4 1C       		.byte	0x1c
 5166 04d5 00       		.byte	0
 5167 04d6 0F       		.uleb128 0xf
 5168 04d7 00010000 		.4byte	.LVL51
 5169 04db 88180000 		.4byte	0x1888
 5170 04df FF040000 		.4byte	0x4ff
 5171 04e3 10       		.uleb128 0x10
 5172 04e4 01       		.uleb128 0x1
 5173 04e5 52       		.byte	0x52
 5174 04e6 04       		.uleb128 0x4
 5175 04e7 91       		.byte	0x91
 5176 04e8 48       		.sleb128 -56
 5177 04e9 94       		.byte	0x94
 5178 04ea 02       		.byte	0x2
 5179 04eb 10       		.uleb128 0x10
 5180 04ec 01       		.uleb128 0x1
 5181 04ed 51       		.byte	0x51
 5182 04ee 06       		.uleb128 0x6
 5183 04ef 91       		.byte	0x91
 5184 04f0 54       		.sleb128 -44
 5185 04f1 06       		.byte	0x6
 5186 04f2 79       		.byte	0x79
 5187 04f3 00       		.sleb128 0
 5188 04f4 22       		.byte	0x22
 5189 04f5 10       		.uleb128 0x10
 5190 04f6 01       		.uleb128 0x1
 5191 04f7 50       		.byte	0x50
 5192 04f8 05       		.uleb128 0x5
 5193 04f9 7B       		.byte	0x7b
 5194 04fa 00       		.sleb128 0
 5195 04fb 75       		.byte	0x75
 5196 04fc 00       		.sleb128 0
 5197 04fd 1C       		.byte	0x1c
 5198 04fe 00       		.byte	0
 5199 04ff 0F       		.uleb128 0xf
 5200 0500 20010000 		.4byte	.LVL52
 5201 0504 88180000 		.4byte	0x1888
 5202 0508 28050000 		.4byte	0x528
 5203 050c 10       		.uleb128 0x10
 5204 050d 01       		.uleb128 0x1
 5205 050e 52       		.byte	0x52
 5206 050f 04       		.uleb128 0x4
 5207 0510 91       		.byte	0x91
 5208 0511 48       		.sleb128 -56
 5209 0512 94       		.byte	0x94
 5210 0513 02       		.byte	0x2
 5211 0514 10       		.uleb128 0x10
 5212 0515 01       		.uleb128 0x1
 5213 0516 51       		.byte	0x51
 5214 0517 05       		.uleb128 0x5
 5215 0518 79       		.byte	0x79
 5216 0519 00       		.sleb128 0
 5217 051a 75       		.byte	0x75
 5218 051b 00       		.sleb128 0
ARM GAS  C:\Users\username\AppData\Local\Temp\ccSuCzK2.s 			page 104


 5219 051c 1C       		.byte	0x1c
 5220 051d 10       		.uleb128 0x10
 5221 051e 01       		.uleb128 0x1
 5222 051f 50       		.byte	0x50
 5223 0520 06       		.uleb128 0x6
 5224 0521 7B       		.byte	0x7b
 5225 0522 00       		.sleb128 0
 5226 0523 91       		.byte	0x91
 5227 0524 54       		.sleb128 -44
 5228 0525 06       		.byte	0x6
 5229 0526 1C       		.byte	0x1c
 5230 0527 00       		.byte	0
 5231 0528 11       		.uleb128 0x11
 5232 0529 34010000 		.4byte	.LVL53
 5233 052d 88180000 		.4byte	0x1888
 5234 0531 10       		.uleb128 0x10
 5235 0532 01       		.uleb128 0x1
 5236 0533 52       		.byte	0x52
 5237 0534 04       		.uleb128 0x4
 5238 0535 91       		.byte	0x91
 5239 0536 48       		.sleb128 -56
 5240 0537 94       		.byte	0x94
 5241 0538 02       		.byte	0x2
 5242 0539 10       		.uleb128 0x10
 5243 053a 01       		.uleb128 0x1
 5244 053b 51       		.byte	0x51
 5245 053c 06       		.uleb128 0x6
 5246 053d 79       		.byte	0x79
 5247 053e 00       		.sleb128 0
 5248 053f 91       		.byte	0x91
 5249 0540 54       		.sleb128 -44
 5250 0541 06       		.byte	0x6
 5251 0542 1C       		.byte	0x1c
 5252 0543 10       		.uleb128 0x10
 5253 0544 01       		.uleb128 0x1
 5254 0545 50       		.byte	0x50
 5255 0546 02       		.uleb128 0x2
 5256 0547 75       		.byte	0x75
 5257 0548 00       		.sleb128 0
 5258 0549 00       		.byte	0
 5259 054a 00       		.byte	0
 5260 054b 07       		.uleb128 0x7
 5261 054c 8A010000 		.4byte	.LASF31
 5262 0550 01       		.byte	0x1
 5263 0551 81       		.byte	0x81
 5264 0552 00000000 		.4byte	.LFB39
 5265 0556 2E010000 		.4byte	.LFE39-.LFB39
 5266 055a 01       		.uleb128 0x1
 5267 055b 9C       		.byte	0x9c
 5268 055c D0060000 		.4byte	0x6d0
 5269 0560 09       		.uleb128 0x9
 5270 0561 783000   		.ascii	"x0\000"
 5271 0564 01       		.byte	0x1
 5272 0565 81       		.byte	0x81
 5273 0566 B8000000 		.4byte	0xb8
 5274 056a 62020000 		.4byte	.LLST18
 5275 056e 09       		.uleb128 0x9
ARM GAS  C:\Users\username\AppData\Local\Temp\ccSuCzK2.s 			page 105


 5276 056f 793000   		.ascii	"y0\000"
 5277 0572 01       		.byte	0x1
 5278 0573 81       		.byte	0x81
 5279 0574 B8000000 		.4byte	0xb8
 5280 0578 83020000 		.4byte	.LLST19
 5281 057c 09       		.uleb128 0x9
 5282 057d 7200     		.ascii	"r\000"
 5283 057f 01       		.byte	0x1
 5284 0580 81       		.byte	0x81
 5285 0581 B8000000 		.4byte	0xb8
 5286 0585 A4020000 		.4byte	.LLST20
 5287 0589 0A       		.uleb128 0xa
 5288 058a CB030000 		.4byte	.LASF30
 5289 058e 01       		.byte	0x1
 5290 058f 82       		.byte	0x82
 5291 0590 AD000000 		.4byte	0xad
 5292 0594 C5020000 		.4byte	.LLST21
 5293 0598 0A       		.uleb128 0xa
 5294 0599 7B000000 		.4byte	.LASF32
 5295 059d 01       		.byte	0x1
 5296 059e 82       		.byte	0x82
 5297 059f B8000000 		.4byte	0xb8
 5298 05a3 E6020000 		.4byte	.LLST22
 5299 05a7 0A       		.uleb128 0xa
 5300 05a8 9B010000 		.4byte	.LASF26
 5301 05ac 01       		.byte	0x1
 5302 05ad 82       		.byte	0x82
 5303 05ae C3000000 		.4byte	0xc3
 5304 05b2 12030000 		.4byte	.LLST23
 5305 05b6 0B       		.uleb128 0xb
 5306 05b7 6600     		.ascii	"f\000"
 5307 05b9 01       		.byte	0x1
 5308 05ba 84       		.byte	0x84
 5309 05bb B8000000 		.4byte	0xb8
 5310 05bf 56030000 		.4byte	.LLST24
 5311 05c3 0C       		.uleb128 0xc
 5312 05c4 70030000 		.4byte	.LASF27
 5313 05c8 01       		.byte	0x1
 5314 05c9 85       		.byte	0x85
 5315 05ca B8000000 		.4byte	0xb8
 5316 05ce 7F030000 		.4byte	.LLST25
 5317 05d2 0C       		.uleb128 0xc
 5318 05d3 76030000 		.4byte	.LASF28
 5319 05d7 01       		.byte	0x1
 5320 05d8 86       		.byte	0x86
 5321 05d9 B8000000 		.4byte	0xb8
 5322 05dd 9E030000 		.4byte	.LLST26
 5323 05e1 0B       		.uleb128 0xb
 5324 05e2 7800     		.ascii	"x\000"
 5325 05e4 01       		.byte	0x1
 5326 05e5 87       		.byte	0x87
 5327 05e6 B8000000 		.4byte	0xb8
 5328 05ea B1030000 		.4byte	.LLST27
 5329 05ee 0B       		.uleb128 0xb
 5330 05ef 7900     		.ascii	"y\000"
 5331 05f1 01       		.byte	0x1
 5332 05f2 88       		.byte	0x88
ARM GAS  C:\Users\username\AppData\Local\Temp\ccSuCzK2.s 			page 106


 5333 05f3 B8000000 		.4byte	0xb8
 5334 05f7 E6030000 		.4byte	.LLST28
 5335 05fb 0F       		.uleb128 0xf
 5336 05fc A8000000 		.4byte	.LVL76
 5337 0600 A3180000 		.4byte	0x18a3
 5338 0604 34060000 		.4byte	0x634
 5339 0608 10       		.uleb128 0x10
 5340 0609 01       		.uleb128 0x1
 5341 060a 53       		.byte	0x53
 5342 060b 05       		.uleb128 0x5
 5343 060c 91       		.byte	0x91
 5344 060d BC7F     		.sleb128 -68
 5345 060f 94       		.byte	0x94
 5346 0610 02       		.byte	0x2
 5347 0611 10       		.uleb128 0x10
 5348 0612 01       		.uleb128 0x1
 5349 0613 52       		.byte	0x52
 5350 0614 0A       		.uleb128 0xa
 5351 0615 78       		.byte	0x78
 5352 0616 00       		.sleb128 0
 5353 0617 31       		.byte	0x31
 5354 0618 24       		.byte	0x24
 5355 0619 91       		.byte	0x91
 5356 061a 54       		.sleb128 -44
 5357 061b 06       		.byte	0x6
 5358 061c 22       		.byte	0x22
 5359 061d 23       		.byte	0x23
 5360 061e 01       		.uleb128 0x1
 5361 061f 10       		.uleb128 0x10
 5362 0620 01       		.uleb128 0x1
 5363 0621 51       		.byte	0x51
 5364 0622 06       		.uleb128 0x6
 5365 0623 91       		.byte	0x91
 5366 0624 50       		.sleb128 -48
 5367 0625 06       		.byte	0x6
 5368 0626 78       		.byte	0x78
 5369 0627 00       		.sleb128 0
 5370 0628 1C       		.byte	0x1c
 5371 0629 10       		.uleb128 0x10
 5372 062a 01       		.uleb128 0x1
 5373 062b 50       		.byte	0x50
 5374 062c 06       		.uleb128 0x6
 5375 062d 75       		.byte	0x75
 5376 062e 00       		.sleb128 0
 5377 062f 91       		.byte	0x91
 5378 0630 4C       		.sleb128 -52
 5379 0631 06       		.byte	0x6
 5380 0632 22       		.byte	0x22
 5381 0633 00       		.byte	0
 5382 0634 0F       		.uleb128 0xf
 5383 0635 C6000000 		.4byte	.LVL77
 5384 0639 A3180000 		.4byte	0x18a3
 5385 063d 6D060000 		.4byte	0x66d
 5386 0641 10       		.uleb128 0x10
 5387 0642 01       		.uleb128 0x1
 5388 0643 53       		.byte	0x53
 5389 0644 05       		.uleb128 0x5
ARM GAS  C:\Users\username\AppData\Local\Temp\ccSuCzK2.s 			page 107


 5390 0645 91       		.byte	0x91
 5391 0646 BC7F     		.sleb128 -68
 5392 0648 94       		.byte	0x94
 5393 0649 02       		.byte	0x2
 5394 064a 10       		.uleb128 0x10
 5395 064b 01       		.uleb128 0x1
 5396 064c 52       		.byte	0x52
 5397 064d 0A       		.uleb128 0xa
 5398 064e 75       		.byte	0x75
 5399 064f 00       		.sleb128 0
 5400 0650 31       		.byte	0x31
 5401 0651 24       		.byte	0x24
 5402 0652 91       		.byte	0x91
 5403 0653 54       		.sleb128 -44
 5404 0654 06       		.byte	0x6
 5405 0655 22       		.byte	0x22
 5406 0656 23       		.byte	0x23
 5407 0657 01       		.uleb128 0x1
 5408 0658 10       		.uleb128 0x10
 5409 0659 01       		.uleb128 0x1
 5410 065a 51       		.byte	0x51
 5411 065b 06       		.uleb128 0x6
 5412 065c 91       		.byte	0x91
 5413 065d 50       		.sleb128 -48
 5414 065e 06       		.byte	0x6
 5415 065f 75       		.byte	0x75
 5416 0660 00       		.sleb128 0
 5417 0661 1C       		.byte	0x1c
 5418 0662 10       		.uleb128 0x10
 5419 0663 01       		.uleb128 0x1
 5420 0664 50       		.byte	0x50
 5421 0665 06       		.uleb128 0x6
 5422 0666 91       		.byte	0x91
 5423 0667 4C       		.sleb128 -52
 5424 0668 06       		.byte	0x6
 5425 0669 78       		.byte	0x78
 5426 066a 00       		.sleb128 0
 5427 066b 22       		.byte	0x22
 5428 066c 00       		.byte	0
 5429 066d 0F       		.uleb128 0xf
 5430 066e FC000000 		.4byte	.LVL78
 5431 0672 A3180000 		.4byte	0x18a3
 5432 0676 A6060000 		.4byte	0x6a6
 5433 067a 10       		.uleb128 0x10
 5434 067b 01       		.uleb128 0x1
 5435 067c 53       		.byte	0x53
 5436 067d 05       		.uleb128 0x5
 5437 067e 91       		.byte	0x91
 5438 067f BC7F     		.sleb128 -68
 5439 0681 94       		.byte	0x94
 5440 0682 02       		.byte	0x2
 5441 0683 10       		.uleb128 0x10
 5442 0684 01       		.uleb128 0x1
 5443 0685 52       		.byte	0x52
 5444 0686 0A       		.uleb128 0xa
 5445 0687 78       		.byte	0x78
 5446 0688 00       		.sleb128 0
ARM GAS  C:\Users\username\AppData\Local\Temp\ccSuCzK2.s 			page 108


 5447 0689 31       		.byte	0x31
 5448 068a 24       		.byte	0x24
 5449 068b 91       		.byte	0x91
 5450 068c 54       		.sleb128 -44
 5451 068d 06       		.byte	0x6
 5452 068e 22       		.byte	0x22
 5453 068f 23       		.byte	0x23
 5454 0690 01       		.uleb128 0x1
 5455 0691 10       		.uleb128 0x10
 5456 0692 01       		.uleb128 0x1
 5457 0693 51       		.byte	0x51
 5458 0694 06       		.uleb128 0x6
 5459 0695 91       		.byte	0x91
 5460 0696 50       		.sleb128 -48
 5461 0697 06       		.byte	0x6
 5462 0698 78       		.byte	0x78
 5463 0699 00       		.sleb128 0
 5464 069a 1C       		.byte	0x1c
 5465 069b 10       		.uleb128 0x10
 5466 069c 01       		.uleb128 0x1
 5467 069d 50       		.byte	0x50
 5468 069e 06       		.uleb128 0x6
 5469 069f 91       		.byte	0x91
 5470 06a0 4C       		.sleb128 -52
 5471 06a1 06       		.byte	0x6
 5472 06a2 75       		.byte	0x75
 5473 06a3 00       		.sleb128 0
 5474 06a4 1C       		.byte	0x1c
 5475 06a5 00       		.byte	0
 5476 06a6 11       		.uleb128 0x11
 5477 06a7 1A010000 		.4byte	.LVL79
 5478 06ab A3180000 		.4byte	0x18a3
 5479 06af 10       		.uleb128 0x10
 5480 06b0 01       		.uleb128 0x1
 5481 06b1 53       		.byte	0x53
 5482 06b2 05       		.uleb128 0x5
 5483 06b3 91       		.byte	0x91
 5484 06b4 BC7F     		.sleb128 -68
 5485 06b6 94       		.byte	0x94
 5486 06b7 02       		.byte	0x2
 5487 06b8 10       		.uleb128 0x10
 5488 06b9 01       		.uleb128 0x1
 5489 06ba 52       		.byte	0x52
 5490 06bb 08       		.uleb128 0x8
 5491 06bc 91       		.byte	0x91
 5492 06bd 54       		.sleb128 -44
 5493 06be 06       		.byte	0x6
 5494 06bf 75       		.byte	0x75
 5495 06c0 00       		.sleb128 0
 5496 06c1 22       		.byte	0x22
 5497 06c2 23       		.byte	0x23
 5498 06c3 01       		.uleb128 0x1
 5499 06c4 10       		.uleb128 0x10
 5500 06c5 01       		.uleb128 0x1
 5501 06c6 50       		.byte	0x50
 5502 06c7 06       		.uleb128 0x6
 5503 06c8 91       		.byte	0x91
ARM GAS  C:\Users\username\AppData\Local\Temp\ccSuCzK2.s 			page 109


 5504 06c9 4C       		.sleb128 -52
 5505 06ca 06       		.byte	0x6
 5506 06cb 78       		.byte	0x78
 5507 06cc 00       		.sleb128 0
 5508 06cd 1C       		.byte	0x1c
 5509 06ce 00       		.byte	0
 5510 06cf 00       		.byte	0
 5511 06d0 07       		.uleb128 0x7
 5512 06d1 4A010000 		.4byte	.LASF33
 5513 06d5 01       		.byte	0x1
 5514 06d6 7B       		.byte	0x7b
 5515 06d7 00000000 		.4byte	.LFB38
 5516 06db 32000000 		.4byte	.LFE38-.LFB38
 5517 06df 01       		.uleb128 0x1
 5518 06e0 9C       		.byte	0x9c
 5519 06e1 83070000 		.4byte	0x783
 5520 06e5 09       		.uleb128 0x9
 5521 06e6 783000   		.ascii	"x0\000"
 5522 06e9 01       		.byte	0x1
 5523 06ea 7B       		.byte	0x7b
 5524 06eb B8000000 		.4byte	0xb8
 5525 06ef 0F040000 		.4byte	.LLST29
 5526 06f3 09       		.uleb128 0x9
 5527 06f4 793000   		.ascii	"y0\000"
 5528 06f7 01       		.byte	0x1
 5529 06f8 7B       		.byte	0x7b
 5530 06f9 B8000000 		.4byte	0xb8
 5531 06fd 30040000 		.4byte	.LLST30
 5532 0701 09       		.uleb128 0x9
 5533 0702 7200     		.ascii	"r\000"
 5534 0704 01       		.byte	0x1
 5535 0705 7B       		.byte	0x7b
 5536 0706 B8000000 		.4byte	0xb8
 5537 070a 51040000 		.4byte	.LLST31
 5538 070e 0A       		.uleb128 0xa
 5539 070f 9B010000 		.4byte	.LASF26
 5540 0713 01       		.byte	0x1
 5541 0714 7B       		.byte	0x7b
 5542 0715 C3000000 		.4byte	0xc3
 5543 0719 72040000 		.4byte	.LLST32
 5544 071d 0F       		.uleb128 0xf
 5545 071e 1C000000 		.4byte	.LVL88
 5546 0722 A3180000 		.4byte	0x18a3
 5547 0726 54070000 		.4byte	0x754
 5548 072a 10       		.uleb128 0x10
 5549 072b 01       		.uleb128 0x1
 5550 072c 53       		.byte	0x53
 5551 072d 02       		.uleb128 0x2
 5552 072e 77       		.byte	0x77
 5553 072f 00       		.sleb128 0
 5554 0730 10       		.uleb128 0x10
 5555 0731 01       		.uleb128 0x1
 5556 0732 52       		.byte	0x52
 5557 0733 0B       		.uleb128 0xb
 5558 0734 F3       		.byte	0xf3
 5559 0735 01       		.uleb128 0x1
 5560 0736 52       		.byte	0x52
ARM GAS  C:\Users\username\AppData\Local\Temp\ccSuCzK2.s 			page 110


 5561 0737 0A       		.byte	0xa
 5562 0738 FFFF     		.2byte	0xffff
 5563 073a 1A       		.byte	0x1a
 5564 073b 31       		.byte	0x31
 5565 073c 24       		.byte	0x24
 5566 073d 23       		.byte	0x23
 5567 073e 01       		.uleb128 0x1
 5568 073f 10       		.uleb128 0x10
 5569 0740 01       		.uleb128 0x1
 5570 0741 51       		.byte	0x51
 5571 0742 0A       		.uleb128 0xa
 5572 0743 75       		.byte	0x75
 5573 0744 00       		.sleb128 0
 5574 0745 F3       		.byte	0xf3
 5575 0746 01       		.uleb128 0x1
 5576 0747 52       		.byte	0x52
 5577 0748 0A       		.byte	0xa
 5578 0749 FFFF     		.2byte	0xffff
 5579 074b 1A       		.byte	0x1a
 5580 074c 1C       		.byte	0x1c
 5581 074d 10       		.uleb128 0x10
 5582 074e 01       		.uleb128 0x1
 5583 074f 50       		.byte	0x50
 5584 0750 02       		.uleb128 0x2
 5585 0751 76       		.byte	0x76
 5586 0752 00       		.sleb128 0
 5587 0753 00       		.byte	0
 5588 0754 11       		.uleb128 0x11
 5589 0755 2E000000 		.4byte	.LVL89
 5590 0759 4B050000 		.4byte	0x54b
 5591 075d 10       		.uleb128 0x10
 5592 075e 01       		.uleb128 0x1
 5593 075f 53       		.byte	0x53
 5594 0760 01       		.uleb128 0x1
 5595 0761 33       		.byte	0x33
 5596 0762 10       		.uleb128 0x10
 5597 0763 01       		.uleb128 0x1
 5598 0764 52       		.byte	0x52
 5599 0765 02       		.uleb128 0x2
 5600 0766 74       		.byte	0x74
 5601 0767 00       		.sleb128 0
 5602 0768 10       		.uleb128 0x10
 5603 0769 01       		.uleb128 0x1
 5604 076a 51       		.byte	0x51
 5605 076b 02       		.uleb128 0x2
 5606 076c 75       		.byte	0x75
 5607 076d 00       		.sleb128 0
 5608 076e 10       		.uleb128 0x10
 5609 076f 01       		.uleb128 0x1
 5610 0770 50       		.byte	0x50
 5611 0771 02       		.uleb128 0x2
 5612 0772 76       		.byte	0x76
 5613 0773 00       		.sleb128 0
 5614 0774 10       		.uleb128 0x10
 5615 0775 02       		.uleb128 0x2
 5616 0776 7D       		.byte	0x7d
 5617 0777 04       		.sleb128 4
ARM GAS  C:\Users\username\AppData\Local\Temp\ccSuCzK2.s 			page 111


 5618 0778 02       		.uleb128 0x2
 5619 0779 77       		.byte	0x77
 5620 077a 00       		.sleb128 0
 5621 077b 10       		.uleb128 0x10
 5622 077c 02       		.uleb128 0x2
 5623 077d 7D       		.byte	0x7d
 5624 077e 00       		.sleb128 0
 5625 077f 01       		.uleb128 0x1
 5626 0780 30       		.byte	0x30
 5627 0781 00       		.byte	0
 5628 0782 00       		.byte	0
 5629 0783 07       		.uleb128 0x7
 5630 0784 F7000000 		.4byte	.LASF34
 5631 0788 01       		.byte	0x1
 5632 0789 A1       		.byte	0xa1
 5633 078a 00000000 		.4byte	.LFB40
 5634 078e D0000000 		.4byte	.LFE40-.LFB40
 5635 0792 01       		.uleb128 0x1
 5636 0793 9C       		.byte	0x9c
 5637 0794 C5080000 		.4byte	0x8c5
 5638 0798 09       		.uleb128 0x9
 5639 0799 783000   		.ascii	"x0\000"
 5640 079c 01       		.byte	0x1
 5641 079d A1       		.byte	0xa1
 5642 079e B8000000 		.4byte	0xb8
 5643 07a2 93040000 		.4byte	.LLST33
 5644 07a6 09       		.uleb128 0x9
 5645 07a7 793000   		.ascii	"y0\000"
 5646 07aa 01       		.byte	0x1
 5647 07ab A1       		.byte	0xa1
 5648 07ac B8000000 		.4byte	0xb8
 5649 07b0 D5040000 		.4byte	.LLST34
 5650 07b4 09       		.uleb128 0x9
 5651 07b5 783100   		.ascii	"x1\000"
 5652 07b8 01       		.byte	0x1
 5653 07b9 A1       		.byte	0xa1
 5654 07ba B8000000 		.4byte	0xb8
 5655 07be 17050000 		.4byte	.LLST35
 5656 07c2 09       		.uleb128 0x9
 5657 07c3 793100   		.ascii	"y1\000"
 5658 07c6 01       		.byte	0x1
 5659 07c7 A1       		.byte	0xa1
 5660 07c8 B8000000 		.4byte	0xb8
 5661 07cc 43050000 		.4byte	.LLST36
 5662 07d0 0A       		.uleb128 0xa
 5663 07d1 9B010000 		.4byte	.LASF26
 5664 07d5 01       		.byte	0x1
 5665 07d6 A1       		.byte	0xa1
 5666 07d7 C3000000 		.4byte	0xc3
 5667 07db 85050000 		.4byte	.LLST37
 5668 07df 0C       		.uleb128 0xc
 5669 07e0 6C000000 		.4byte	.LASF35
 5670 07e4 01       		.byte	0x1
 5671 07e5 A3       		.byte	0xa3
 5672 07e6 B8000000 		.4byte	0xb8
 5673 07ea B1050000 		.4byte	.LLST38
 5674 07ee 0B       		.uleb128 0xb
ARM GAS  C:\Users\username\AppData\Local\Temp\ccSuCzK2.s 			page 112


 5675 07ef 647800   		.ascii	"dx\000"
 5676 07f2 01       		.byte	0x1
 5677 07f3 AF       		.byte	0xaf
 5678 07f4 B8000000 		.4byte	0xb8
 5679 07f8 FB050000 		.4byte	.LLST39
 5680 07fc 0B       		.uleb128 0xb
 5681 07fd 647900   		.ascii	"dy\000"
 5682 0800 01       		.byte	0x1
 5683 0801 AF       		.byte	0xaf
 5684 0802 B8000000 		.4byte	0xb8
 5685 0806 0E060000 		.4byte	.LLST40
 5686 080a 0B       		.uleb128 0xb
 5687 080b 65727200 		.ascii	"err\000"
 5688 080f 01       		.byte	0x1
 5689 0810 B3       		.byte	0xb3
 5690 0811 B8000000 		.4byte	0xb8
 5691 0815 21060000 		.4byte	.LLST41
 5692 0819 0C       		.uleb128 0xc
 5693 081a 83030000 		.4byte	.LASF36
 5694 081e 01       		.byte	0x1
 5695 081f B4       		.byte	0xb4
 5696 0820 B8000000 		.4byte	0xb8
 5697 0824 3F060000 		.4byte	.LLST42
 5698 0828 12       		.uleb128 0x12
 5699 0829 3E000000 		.4byte	.LBB2
 5700 082d 04000000 		.4byte	.LBE2-.LBB2
 5701 0831 3F080000 		.4byte	0x83f
 5702 0835 13       		.uleb128 0x13
 5703 0836 7400     		.ascii	"t\000"
 5704 0838 01       		.byte	0x1
 5705 0839 A7       		.byte	0xa7
 5706 083a B8000000 		.4byte	0xb8
 5707 083e 00       		.byte	0
 5708 083f 12       		.uleb128 0x12
 5709 0840 44000000 		.4byte	.LBB3
 5710 0844 04000000 		.4byte	.LBE3-.LBB3
 5711 0848 56080000 		.4byte	0x856
 5712 084c 13       		.uleb128 0x13
 5713 084d 7400     		.ascii	"t\000"
 5714 084f 01       		.byte	0x1
 5715 0850 A6       		.byte	0xa6
 5716 0851 B8000000 		.4byte	0xb8
 5717 0855 00       		.byte	0
 5718 0856 12       		.uleb128 0x12
 5719 0857 4E000000 		.4byte	.LBB4
 5720 085b 04000000 		.4byte	.LBE4-.LBB4
 5721 085f 6D080000 		.4byte	0x86d
 5722 0863 13       		.uleb128 0x13
 5723 0864 7400     		.ascii	"t\000"
 5724 0866 01       		.byte	0x1
 5725 0867 AC       		.byte	0xac
 5726 0868 B8000000 		.4byte	0xb8
 5727 086c 00       		.byte	0
 5728 086d 12       		.uleb128 0x12
 5729 086e 54000000 		.4byte	.LBB5
 5730 0872 04000000 		.4byte	.LBE5-.LBB5
 5731 0876 84080000 		.4byte	0x884
ARM GAS  C:\Users\username\AppData\Local\Temp\ccSuCzK2.s 			page 113


 5732 087a 13       		.uleb128 0x13
 5733 087b 7400     		.ascii	"t\000"
 5734 087d 01       		.byte	0x1
 5735 087e AB       		.byte	0xab
 5736 087f B8000000 		.4byte	0xb8
 5737 0883 00       		.byte	0
 5738 0884 0F       		.uleb128 0xf
 5739 0885 94000000 		.4byte	.LVL111
 5740 0889 88180000 		.4byte	0x1888
 5741 088d A6080000 		.4byte	0x8a6
 5742 0891 10       		.uleb128 0x10
 5743 0892 01       		.uleb128 0x1
 5744 0893 52       		.byte	0x52
 5745 0894 04       		.uleb128 0x4
 5746 0895 91       		.byte	0x91
 5747 0896 54       		.sleb128 -44
 5748 0897 94       		.byte	0x94
 5749 0898 02       		.byte	0x2
 5750 0899 10       		.uleb128 0x10
 5751 089a 01       		.uleb128 0x1
 5752 089b 51       		.byte	0x51
 5753 089c 02       		.uleb128 0x2
 5754 089d 74       		.byte	0x74
 5755 089e 00       		.sleb128 0
 5756 089f 10       		.uleb128 0x10
 5757 08a0 01       		.uleb128 0x1
 5758 08a1 50       		.byte	0x50
 5759 08a2 02       		.uleb128 0x2
 5760 08a3 76       		.byte	0x76
 5761 08a4 00       		.sleb128 0
 5762 08a5 00       		.byte	0
 5763 08a6 11       		.uleb128 0x11
 5764 08a7 A0000000 		.4byte	.LVL113
 5765 08ab 88180000 		.4byte	0x1888
 5766 08af 10       		.uleb128 0x10
 5767 08b0 01       		.uleb128 0x1
 5768 08b1 52       		.byte	0x52
 5769 08b2 04       		.uleb128 0x4
 5770 08b3 91       		.byte	0x91
 5771 08b4 54       		.sleb128 -44
 5772 08b5 94       		.byte	0x94
 5773 08b6 02       		.byte	0x2
 5774 08b7 10       		.uleb128 0x10
 5775 08b8 01       		.uleb128 0x1
 5776 08b9 51       		.byte	0x51
 5777 08ba 02       		.uleb128 0x2
 5778 08bb 76       		.byte	0x76
 5779 08bc 00       		.sleb128 0
 5780 08bd 10       		.uleb128 0x10
 5781 08be 01       		.uleb128 0x1
 5782 08bf 50       		.byte	0x50
 5783 08c0 02       		.uleb128 0x2
 5784 08c1 74       		.byte	0x74
 5785 08c2 00       		.sleb128 0
 5786 08c3 00       		.byte	0
 5787 08c4 00       		.byte	0
 5788 08c5 07       		.uleb128 0x7
ARM GAS  C:\Users\username\AppData\Local\Temp\ccSuCzK2.s 			page 114


 5789 08c6 7A010000 		.4byte	.LASF37
 5790 08ca 01       		.byte	0x1
 5791 08cb CC       		.byte	0xcc
 5792 08cc 00000000 		.4byte	.LFB41
 5793 08d0 48000000 		.4byte	.LFE41-.LFB41
 5794 08d4 01       		.uleb128 0x1
 5795 08d5 9C       		.byte	0x9c
 5796 08d6 C1090000 		.4byte	0x9c1
 5797 08da 09       		.uleb128 0x9
 5798 08db 7800     		.ascii	"x\000"
 5799 08dd 01       		.byte	0x1
 5800 08de CC       		.byte	0xcc
 5801 08df B8000000 		.4byte	0xb8
 5802 08e3 52060000 		.4byte	.LLST43
 5803 08e7 09       		.uleb128 0x9
 5804 08e8 7900     		.ascii	"y\000"
 5805 08ea 01       		.byte	0x1
 5806 08eb CC       		.byte	0xcc
 5807 08ec B8000000 		.4byte	0xb8
 5808 08f0 73060000 		.4byte	.LLST44
 5809 08f4 09       		.uleb128 0x9
 5810 08f5 7700     		.ascii	"w\000"
 5811 08f7 01       		.byte	0x1
 5812 08f8 CD       		.byte	0xcd
 5813 08f9 B8000000 		.4byte	0xb8
 5814 08fd 94060000 		.4byte	.LLST45
 5815 0901 09       		.uleb128 0x9
 5816 0902 6800     		.ascii	"h\000"
 5817 0904 01       		.byte	0x1
 5818 0905 CD       		.byte	0xcd
 5819 0906 B8000000 		.4byte	0xb8
 5820 090a B5060000 		.4byte	.LLST46
 5821 090e 0A       		.uleb128 0xa
 5822 090f 9B010000 		.4byte	.LASF26
 5823 0913 01       		.byte	0x1
 5824 0914 CE       		.byte	0xce
 5825 0915 C3000000 		.4byte	0xc3
 5826 0919 D6060000 		.4byte	.LLST47
 5827 091d 0F       		.uleb128 0xf
 5828 091e 16000000 		.4byte	.LVL132
 5829 0922 C3180000 		.4byte	0x18c3
 5830 0926 43090000 		.4byte	0x943
 5831 092a 10       		.uleb128 0x10
 5832 092b 01       		.uleb128 0x1
 5833 092c 53       		.byte	0x53
 5834 092d 02       		.uleb128 0x2
 5835 092e 75       		.byte	0x75
 5836 092f 00       		.sleb128 0
 5837 0930 10       		.uleb128 0x10
 5838 0931 01       		.uleb128 0x1
 5839 0932 52       		.byte	0x52
 5840 0933 02       		.uleb128 0x2
 5841 0934 74       		.byte	0x74
 5842 0935 00       		.sleb128 0
 5843 0936 10       		.uleb128 0x10
 5844 0937 01       		.uleb128 0x1
 5845 0938 51       		.byte	0x51
ARM GAS  C:\Users\username\AppData\Local\Temp\ccSuCzK2.s 			page 115


 5846 0939 02       		.uleb128 0x2
 5847 093a 76       		.byte	0x76
 5848 093b 00       		.sleb128 0
 5849 093c 10       		.uleb128 0x10
 5850 093d 01       		.uleb128 0x1
 5851 093e 50       		.byte	0x50
 5852 093f 02       		.uleb128 0x2
 5853 0940 77       		.byte	0x77
 5854 0941 00       		.sleb128 0
 5855 0942 00       		.byte	0
 5856 0943 0F       		.uleb128 0xf
 5857 0944 28000000 		.4byte	.LVL133
 5858 0948 C3180000 		.4byte	0x18c3
 5859 094c 6F090000 		.4byte	0x96f
 5860 0950 10       		.uleb128 0x10
 5861 0951 01       		.uleb128 0x1
 5862 0952 53       		.byte	0x53
 5863 0953 02       		.uleb128 0x2
 5864 0954 75       		.byte	0x75
 5865 0955 00       		.sleb128 0
 5866 0956 10       		.uleb128 0x10
 5867 0957 01       		.uleb128 0x1
 5868 0958 52       		.byte	0x52
 5869 0959 02       		.uleb128 0x2
 5870 095a 74       		.byte	0x74
 5871 095b 00       		.sleb128 0
 5872 095c 10       		.uleb128 0x10
 5873 095d 01       		.uleb128 0x1
 5874 095e 51       		.byte	0x51
 5875 095f 08       		.uleb128 0x8
 5876 0960 76       		.byte	0x76
 5877 0961 00       		.sleb128 0
 5878 0962 91       		.byte	0x91
 5879 0963 64       		.sleb128 -28
 5880 0964 06       		.byte	0x6
 5881 0965 22       		.byte	0x22
 5882 0966 31       		.byte	0x31
 5883 0967 1C       		.byte	0x1c
 5884 0968 10       		.uleb128 0x10
 5885 0969 01       		.uleb128 0x1
 5886 096a 50       		.byte	0x50
 5887 096b 02       		.uleb128 0x2
 5888 096c 77       		.byte	0x77
 5889 096d 00       		.sleb128 0
 5890 096e 00       		.byte	0
 5891 096f 0F       		.uleb128 0xf
 5892 0970 34000000 		.4byte	.LVL134
 5893 0974 A3180000 		.4byte	0x18a3
 5894 0978 97090000 		.4byte	0x997
 5895 097c 10       		.uleb128 0x10
 5896 097d 01       		.uleb128 0x1
 5897 097e 53       		.byte	0x53
 5898 097f 02       		.uleb128 0x2
 5899 0980 75       		.byte	0x75
 5900 0981 00       		.sleb128 0
 5901 0982 10       		.uleb128 0x10
 5902 0983 01       		.uleb128 0x1
ARM GAS  C:\Users\username\AppData\Local\Temp\ccSuCzK2.s 			page 116


 5903 0984 52       		.byte	0x52
 5904 0985 04       		.uleb128 0x4
 5905 0986 91       		.byte	0x91
 5906 0987 64       		.sleb128 -28
 5907 0988 94       		.byte	0x94
 5908 0989 02       		.byte	0x2
 5909 098a 10       		.uleb128 0x10
 5910 098b 01       		.uleb128 0x1
 5911 098c 51       		.byte	0x51
 5912 098d 02       		.uleb128 0x2
 5913 098e 76       		.byte	0x76
 5914 098f 00       		.sleb128 0
 5915 0990 10       		.uleb128 0x10
 5916 0991 01       		.uleb128 0x1
 5917 0992 50       		.byte	0x50
 5918 0993 02       		.uleb128 0x2
 5919 0994 77       		.byte	0x77
 5920 0995 00       		.sleb128 0
 5921 0996 00       		.byte	0
 5922 0997 11       		.uleb128 0x11
 5923 0998 44000000 		.4byte	.LVL135
 5924 099c A3180000 		.4byte	0x18a3
 5925 09a0 10       		.uleb128 0x10
 5926 09a1 01       		.uleb128 0x1
 5927 09a2 53       		.byte	0x53
 5928 09a3 02       		.uleb128 0x2
 5929 09a4 75       		.byte	0x75
 5930 09a5 00       		.sleb128 0
 5931 09a6 10       		.uleb128 0x10
 5932 09a7 01       		.uleb128 0x1
 5933 09a8 52       		.byte	0x52
 5934 09a9 04       		.uleb128 0x4
 5935 09aa 91       		.byte	0x91
 5936 09ab 64       		.sleb128 -28
 5937 09ac 94       		.byte	0x94
 5938 09ad 02       		.byte	0x2
 5939 09ae 10       		.uleb128 0x10
 5940 09af 01       		.uleb128 0x1
 5941 09b0 51       		.byte	0x51
 5942 09b1 02       		.uleb128 0x2
 5943 09b2 76       		.byte	0x76
 5944 09b3 00       		.sleb128 0
 5945 09b4 10       		.uleb128 0x10
 5946 09b5 01       		.uleb128 0x1
 5947 09b6 50       		.byte	0x50
 5948 09b7 07       		.uleb128 0x7
 5949 09b8 74       		.byte	0x74
 5950 09b9 00       		.sleb128 0
 5951 09ba 77       		.byte	0x77
 5952 09bb 00       		.sleb128 0
 5953 09bc 22       		.byte	0x22
 5954 09bd 31       		.byte	0x31
 5955 09be 1C       		.byte	0x1c
 5956 09bf 00       		.byte	0
 5957 09c0 00       		.byte	0
 5958 09c1 07       		.uleb128 0x7
 5959 09c2 08010000 		.4byte	.LASF38
ARM GAS  C:\Users\username\AppData\Local\Temp\ccSuCzK2.s 			page 117


 5960 09c6 01       		.byte	0x1
 5961 09c7 E6       		.byte	0xe6
 5962 09c8 00000000 		.4byte	.LFB42
 5963 09cc 2E000000 		.4byte	.LFE42-.LFB42
 5964 09d0 01       		.uleb128 0x1
 5965 09d1 9C       		.byte	0x9c
 5966 09d2 4D0A0000 		.4byte	0xa4d
 5967 09d6 09       		.uleb128 0x9
 5968 09d7 7800     		.ascii	"x\000"
 5969 09d9 01       		.byte	0x1
 5970 09da E6       		.byte	0xe6
 5971 09db B8000000 		.4byte	0xb8
 5972 09df 02070000 		.4byte	.LLST48
 5973 09e3 09       		.uleb128 0x9
 5974 09e4 7900     		.ascii	"y\000"
 5975 09e6 01       		.byte	0x1
 5976 09e7 E6       		.byte	0xe6
 5977 09e8 B8000000 		.4byte	0xb8
 5978 09ec 23070000 		.4byte	.LLST49
 5979 09f0 09       		.uleb128 0x9
 5980 09f1 7700     		.ascii	"w\000"
 5981 09f3 01       		.byte	0x1
 5982 09f4 E6       		.byte	0xe6
 5983 09f5 B8000000 		.4byte	0xb8
 5984 09f9 44070000 		.4byte	.LLST50
 5985 09fd 09       		.uleb128 0x9
 5986 09fe 6800     		.ascii	"h\000"
 5987 0a00 01       		.byte	0x1
 5988 0a01 E6       		.byte	0xe6
 5989 0a02 B8000000 		.4byte	0xb8
 5990 0a06 65070000 		.4byte	.LLST51
 5991 0a0a 0A       		.uleb128 0xa
 5992 0a0b 9B010000 		.4byte	.LASF26
 5993 0a0f 01       		.byte	0x1
 5994 0a10 E6       		.byte	0xe6
 5995 0a11 C3000000 		.4byte	0xc3
 5996 0a15 86070000 		.4byte	.LLST52
 5997 0a19 0B       		.uleb128 0xb
 5998 0a1a 6900     		.ascii	"i\000"
 5999 0a1c 01       		.byte	0x1
 6000 0a1d E8       		.byte	0xe8
 6001 0a1e B8000000 		.4byte	0xb8
 6002 0a22 B2070000 		.4byte	.LLST53
 6003 0a26 11       		.uleb128 0x11
 6004 0a27 20000000 		.4byte	.LVL140
 6005 0a2b A3180000 		.4byte	0x18a3
 6006 0a2f 10       		.uleb128 0x10
 6007 0a30 01       		.uleb128 0x1
 6008 0a31 53       		.byte	0x53
 6009 0a32 02       		.uleb128 0x2
 6010 0a33 75       		.byte	0x75
 6011 0a34 00       		.sleb128 0
 6012 0a35 10       		.uleb128 0x10
 6013 0a36 01       		.uleb128 0x1
 6014 0a37 52       		.byte	0x52
 6015 0a38 04       		.uleb128 0x4
 6016 0a39 91       		.byte	0x91
ARM GAS  C:\Users\username\AppData\Local\Temp\ccSuCzK2.s 			page 118


 6017 0a3a 64       		.sleb128 -28
 6018 0a3b 94       		.byte	0x94
 6019 0a3c 02       		.byte	0x2
 6020 0a3d 10       		.uleb128 0x10
 6021 0a3e 01       		.uleb128 0x1
 6022 0a3f 51       		.byte	0x51
 6023 0a40 04       		.uleb128 0x4
 6024 0a41 7D       		.byte	0x7d
 6025 0a42 00       		.sleb128 0
 6026 0a43 94       		.byte	0x94
 6027 0a44 02       		.byte	0x2
 6028 0a45 10       		.uleb128 0x10
 6029 0a46 01       		.uleb128 0x1
 6030 0a47 50       		.byte	0x50
 6031 0a48 02       		.uleb128 0x2
 6032 0a49 74       		.byte	0x74
 6033 0a4a 00       		.sleb128 0
 6034 0a4b 00       		.byte	0
 6035 0a4c 00       		.byte	0
 6036 0a4d 07       		.uleb128 0x7
 6037 0a4e 26030000 		.4byte	.LASF39
 6038 0a52 01       		.byte	0x1
 6039 0a53 EE       		.byte	0xee
 6040 0a54 00000000 		.4byte	.LFB43
 6041 0a58 28000000 		.4byte	.LFE43-.LFB43
 6042 0a5c 01       		.uleb128 0x1
 6043 0a5d 9C       		.byte	0x9c
 6044 0a5e 860A0000 		.4byte	0xa86
 6045 0a62 0A       		.uleb128 0xa
 6046 0a63 9B010000 		.4byte	.LASF26
 6047 0a67 01       		.byte	0x1
 6048 0a68 EE       		.byte	0xee
 6049 0a69 C3000000 		.4byte	0xc3
 6050 0a6d DB070000 		.4byte	.LLST54
 6051 0a71 11       		.uleb128 0x11
 6052 0a72 1A000000 		.4byte	.LVL146
 6053 0a76 C1090000 		.4byte	0x9c1
 6054 0a7a 10       		.uleb128 0x10
 6055 0a7b 01       		.uleb128 0x1
 6056 0a7c 51       		.byte	0x51
 6057 0a7d 01       		.uleb128 0x1
 6058 0a7e 30       		.byte	0x30
 6059 0a7f 10       		.uleb128 0x10
 6060 0a80 01       		.uleb128 0x1
 6061 0a81 50       		.byte	0x50
 6062 0a82 01       		.uleb128 0x1
 6063 0a83 30       		.byte	0x30
 6064 0a84 00       		.byte	0
 6065 0a85 00       		.byte	0
 6066 0a86 07       		.uleb128 0x7
 6067 0a87 AA010000 		.4byte	.LASF40
 6068 0a8b 01       		.byte	0x1
 6069 0a8c F5       		.byte	0xf5
 6070 0a8d 00000000 		.4byte	.LFB44
 6071 0a91 F8000000 		.4byte	.LFE44-.LFB44
 6072 0a95 01       		.uleb128 0x1
 6073 0a96 9C       		.byte	0x9c
ARM GAS  C:\Users\username\AppData\Local\Temp\ccSuCzK2.s 			page 119


 6074 0a97 3E0C0000 		.4byte	0xc3e
 6075 0a9b 09       		.uleb128 0x9
 6076 0a9c 7800     		.ascii	"x\000"
 6077 0a9e 01       		.byte	0x1
 6078 0a9f F5       		.byte	0xf5
 6079 0aa0 B8000000 		.4byte	0xb8
 6080 0aa4 FC070000 		.4byte	.LLST55
 6081 0aa8 09       		.uleb128 0x9
 6082 0aa9 7900     		.ascii	"y\000"
 6083 0aab 01       		.byte	0x1
 6084 0aac F5       		.byte	0xf5
 6085 0aad B8000000 		.4byte	0xb8
 6086 0ab1 1D080000 		.4byte	.LLST56
 6087 0ab5 09       		.uleb128 0x9
 6088 0ab6 7700     		.ascii	"w\000"
 6089 0ab8 01       		.byte	0x1
 6090 0ab9 F5       		.byte	0xf5
 6091 0aba B8000000 		.4byte	0xb8
 6092 0abe 3E080000 		.4byte	.LLST57
 6093 0ac2 09       		.uleb128 0x9
 6094 0ac3 6800     		.ascii	"h\000"
 6095 0ac5 01       		.byte	0x1
 6096 0ac6 F5       		.byte	0xf5
 6097 0ac7 B8000000 		.4byte	0xb8
 6098 0acb 6A080000 		.4byte	.LLST58
 6099 0acf 09       		.uleb128 0x9
 6100 0ad0 7200     		.ascii	"r\000"
 6101 0ad2 01       		.byte	0x1
 6102 0ad3 F5       		.byte	0xf5
 6103 0ad4 B8000000 		.4byte	0xb8
 6104 0ad8 8B080000 		.4byte	.LLST59
 6105 0adc 0A       		.uleb128 0xa
 6106 0add 9B010000 		.4byte	.LASF26
 6107 0ae1 01       		.byte	0x1
 6108 0ae2 F5       		.byte	0xf5
 6109 0ae3 C3000000 		.4byte	0xc3
 6110 0ae7 B7080000 		.4byte	.LLST60
 6111 0aeb 0F       		.uleb128 0xf
 6112 0aec 5C000000 		.4byte	.LVL154
 6113 0af0 C3180000 		.4byte	0x18c3
 6114 0af4 150B0000 		.4byte	0xb15
 6115 0af8 10       		.uleb128 0x10
 6116 0af9 01       		.uleb128 0x1
 6117 0afa 53       		.byte	0x53
 6118 0afb 02       		.uleb128 0x2
 6119 0afc 78       		.byte	0x78
 6120 0afd 00       		.sleb128 0
 6121 0afe 10       		.uleb128 0x10
 6122 0aff 01       		.uleb128 0x1
 6123 0b00 52       		.byte	0x52
 6124 0b01 04       		.uleb128 0x4
 6125 0b02 91       		.byte	0x91
 6126 0b03 54       		.sleb128 -44
 6127 0b04 94       		.byte	0x94
 6128 0b05 02       		.byte	0x2
 6129 0b06 10       		.uleb128 0x10
 6130 0b07 01       		.uleb128 0x1
ARM GAS  C:\Users\username\AppData\Local\Temp\ccSuCzK2.s 			page 120


 6131 0b08 51       		.byte	0x51
 6132 0b09 02       		.uleb128 0x2
 6133 0b0a 75       		.byte	0x75
 6134 0b0b 00       		.sleb128 0
 6135 0b0c 10       		.uleb128 0x10
 6136 0b0d 01       		.uleb128 0x1
 6137 0b0e 50       		.byte	0x50
 6138 0b0f 04       		.uleb128 0x4
 6139 0b10 91       		.byte	0x91
 6140 0b11 48       		.sleb128 -56
 6141 0b12 94       		.byte	0x94
 6142 0b13 02       		.byte	0x2
 6143 0b14 00       		.byte	0
 6144 0b15 0F       		.uleb128 0xf
 6145 0b16 72000000 		.4byte	.LVL155
 6146 0b1a C3180000 		.4byte	0x18c3
 6147 0b1e 3F0B0000 		.4byte	0xb3f
 6148 0b22 10       		.uleb128 0x10
 6149 0b23 01       		.uleb128 0x1
 6150 0b24 53       		.byte	0x53
 6151 0b25 02       		.uleb128 0x2
 6152 0b26 78       		.byte	0x78
 6153 0b27 00       		.sleb128 0
 6154 0b28 10       		.uleb128 0x10
 6155 0b29 01       		.uleb128 0x1
 6156 0b2a 52       		.byte	0x52
 6157 0b2b 04       		.uleb128 0x4
 6158 0b2c 91       		.byte	0x91
 6159 0b2d 54       		.sleb128 -44
 6160 0b2e 94       		.byte	0x94
 6161 0b2f 02       		.byte	0x2
 6162 0b30 10       		.uleb128 0x10
 6163 0b31 01       		.uleb128 0x1
 6164 0b32 51       		.byte	0x51
 6165 0b33 02       		.uleb128 0x2
 6166 0b34 76       		.byte	0x76
 6167 0b35 7F       		.sleb128 -1
 6168 0b36 10       		.uleb128 0x10
 6169 0b37 01       		.uleb128 0x1
 6170 0b38 50       		.byte	0x50
 6171 0b39 04       		.uleb128 0x4
 6172 0b3a 91       		.byte	0x91
 6173 0b3b 48       		.sleb128 -56
 6174 0b3c 94       		.byte	0x94
 6175 0b3d 02       		.byte	0x2
 6176 0b3e 00       		.byte	0
 6177 0b3f 0F       		.uleb128 0xf
 6178 0b40 86000000 		.4byte	.LVL156
 6179 0b44 A3180000 		.4byte	0x18a3
 6180 0b48 670B0000 		.4byte	0xb67
 6181 0b4c 10       		.uleb128 0x10
 6182 0b4d 01       		.uleb128 0x1
 6183 0b4e 53       		.byte	0x53
 6184 0b4f 02       		.uleb128 0x2
 6185 0b50 78       		.byte	0x78
 6186 0b51 00       		.sleb128 0
 6187 0b52 10       		.uleb128 0x10
ARM GAS  C:\Users\username\AppData\Local\Temp\ccSuCzK2.s 			page 121


 6188 0b53 01       		.uleb128 0x1
 6189 0b54 52       		.byte	0x52
 6190 0b55 02       		.uleb128 0x2
 6191 0b56 77       		.byte	0x77
 6192 0b57 00       		.sleb128 0
 6193 0b58 10       		.uleb128 0x10
 6194 0b59 01       		.uleb128 0x1
 6195 0b5a 51       		.byte	0x51
 6196 0b5b 02       		.uleb128 0x2
 6197 0b5c 75       		.byte	0x75
 6198 0b5d 00       		.sleb128 0
 6199 0b5e 10       		.uleb128 0x10
 6200 0b5f 01       		.uleb128 0x1
 6201 0b60 50       		.byte	0x50
 6202 0b61 04       		.uleb128 0x4
 6203 0b62 91       		.byte	0x91
 6204 0b63 4C       		.sleb128 -52
 6205 0b64 94       		.byte	0x94
 6206 0b65 02       		.byte	0x2
 6207 0b66 00       		.byte	0
 6208 0b67 0F       		.uleb128 0xf
 6209 0b68 98000000 		.4byte	.LVL158
 6210 0b6c A3180000 		.4byte	0x18a3
 6211 0b70 8D0B0000 		.4byte	0xb8d
 6212 0b74 10       		.uleb128 0x10
 6213 0b75 01       		.uleb128 0x1
 6214 0b76 53       		.byte	0x53
 6215 0b77 02       		.uleb128 0x2
 6216 0b78 78       		.byte	0x78
 6217 0b79 00       		.sleb128 0
 6218 0b7a 10       		.uleb128 0x10
 6219 0b7b 01       		.uleb128 0x1
 6220 0b7c 52       		.byte	0x52
 6221 0b7d 02       		.uleb128 0x2
 6222 0b7e 77       		.byte	0x77
 6223 0b7f 00       		.sleb128 0
 6224 0b80 10       		.uleb128 0x10
 6225 0b81 01       		.uleb128 0x1
 6226 0b82 51       		.byte	0x51
 6227 0b83 02       		.uleb128 0x2
 6228 0b84 75       		.byte	0x75
 6229 0b85 00       		.sleb128 0
 6230 0b86 10       		.uleb128 0x10
 6231 0b87 01       		.uleb128 0x1
 6232 0b88 50       		.byte	0x50
 6233 0b89 02       		.uleb128 0x2
 6234 0b8a 74       		.byte	0x74
 6235 0b8b 7F       		.sleb128 -1
 6236 0b8c 00       		.byte	0
 6237 0b8d 0F       		.uleb128 0xf
 6238 0b8e AA000000 		.4byte	.LVL159
 6239 0b92 68030000 		.4byte	0x368
 6240 0b96 BB0B0000 		.4byte	0xbbb
 6241 0b9a 10       		.uleb128 0x10
 6242 0b9b 01       		.uleb128 0x1
 6243 0b9c 53       		.byte	0x53
 6244 0b9d 01       		.uleb128 0x1
ARM GAS  C:\Users\username\AppData\Local\Temp\ccSuCzK2.s 			page 122


 6245 0b9e 31       		.byte	0x31
 6246 0b9f 10       		.uleb128 0x10
 6247 0ba0 01       		.uleb128 0x1
 6248 0ba1 52       		.byte	0x52
 6249 0ba2 02       		.uleb128 0x2
 6250 0ba3 77       		.byte	0x77
 6251 0ba4 00       		.sleb128 0
 6252 0ba5 10       		.uleb128 0x10
 6253 0ba6 01       		.uleb128 0x1
 6254 0ba7 51       		.byte	0x51
 6255 0ba8 02       		.uleb128 0x2
 6256 0ba9 75       		.byte	0x75
 6257 0baa 00       		.sleb128 0
 6258 0bab 10       		.uleb128 0x10
 6259 0bac 01       		.uleb128 0x1
 6260 0bad 50       		.byte	0x50
 6261 0bae 04       		.uleb128 0x4
 6262 0baf 91       		.byte	0x91
 6263 0bb0 48       		.sleb128 -56
 6264 0bb1 94       		.byte	0x94
 6265 0bb2 02       		.byte	0x2
 6266 0bb3 10       		.uleb128 0x10
 6267 0bb4 02       		.uleb128 0x2
 6268 0bb5 7D       		.byte	0x7d
 6269 0bb6 00       		.sleb128 0
 6270 0bb7 02       		.uleb128 0x2
 6271 0bb8 78       		.byte	0x78
 6272 0bb9 00       		.sleb128 0
 6273 0bba 00       		.byte	0
 6274 0bbb 0F       		.uleb128 0xf
 6275 0bbc C2000000 		.4byte	.LVL160
 6276 0bc0 68030000 		.4byte	0x368
 6277 0bc4 E70B0000 		.4byte	0xbe7
 6278 0bc8 10       		.uleb128 0x10
 6279 0bc9 01       		.uleb128 0x1
 6280 0bca 53       		.byte	0x53
 6281 0bcb 01       		.uleb128 0x1
 6282 0bcc 32       		.byte	0x32
 6283 0bcd 10       		.uleb128 0x10
 6284 0bce 01       		.uleb128 0x1
 6285 0bcf 52       		.byte	0x52
 6286 0bd0 02       		.uleb128 0x2
 6287 0bd1 77       		.byte	0x77
 6288 0bd2 00       		.sleb128 0
 6289 0bd3 10       		.uleb128 0x10
 6290 0bd4 01       		.uleb128 0x1
 6291 0bd5 51       		.byte	0x51
 6292 0bd6 02       		.uleb128 0x2
 6293 0bd7 75       		.byte	0x75
 6294 0bd8 00       		.sleb128 0
 6295 0bd9 10       		.uleb128 0x10
 6296 0bda 01       		.uleb128 0x1
 6297 0bdb 50       		.byte	0x50
 6298 0bdc 02       		.uleb128 0x2
 6299 0bdd 74       		.byte	0x74
 6300 0bde 00       		.sleb128 0
 6301 0bdf 10       		.uleb128 0x10
ARM GAS  C:\Users\username\AppData\Local\Temp\ccSuCzK2.s 			page 123


 6302 0be0 02       		.uleb128 0x2
 6303 0be1 7D       		.byte	0x7d
 6304 0be2 00       		.sleb128 0
 6305 0be3 02       		.uleb128 0x2
 6306 0be4 78       		.byte	0x78
 6307 0be5 00       		.sleb128 0
 6308 0be6 00       		.byte	0
 6309 0be7 0F       		.uleb128 0xf
 6310 0be8 DA000000 		.4byte	.LVL161
 6311 0bec 68030000 		.4byte	0x368
 6312 0bf0 130C0000 		.4byte	0xc13
 6313 0bf4 10       		.uleb128 0x10
 6314 0bf5 01       		.uleb128 0x1
 6315 0bf6 53       		.byte	0x53
 6316 0bf7 01       		.uleb128 0x1
 6317 0bf8 34       		.byte	0x34
 6318 0bf9 10       		.uleb128 0x10
 6319 0bfa 01       		.uleb128 0x1
 6320 0bfb 52       		.byte	0x52
 6321 0bfc 02       		.uleb128 0x2
 6322 0bfd 77       		.byte	0x77
 6323 0bfe 00       		.sleb128 0
 6324 0bff 10       		.uleb128 0x10
 6325 0c00 01       		.uleb128 0x1
 6326 0c01 51       		.byte	0x51
 6327 0c02 02       		.uleb128 0x2
 6328 0c03 76       		.byte	0x76
 6329 0c04 00       		.sleb128 0
 6330 0c05 10       		.uleb128 0x10
 6331 0c06 01       		.uleb128 0x1
 6332 0c07 50       		.byte	0x50
 6333 0c08 02       		.uleb128 0x2
 6334 0c09 74       		.byte	0x74
 6335 0c0a 00       		.sleb128 0
 6336 0c0b 10       		.uleb128 0x10
 6337 0c0c 02       		.uleb128 0x2
 6338 0c0d 7D       		.byte	0x7d
 6339 0c0e 00       		.sleb128 0
 6340 0c0f 02       		.uleb128 0x2
 6341 0c10 78       		.byte	0x78
 6342 0c11 00       		.sleb128 0
 6343 0c12 00       		.byte	0
 6344 0c13 11       		.uleb128 0x11
 6345 0c14 EA000000 		.4byte	.LVL162
 6346 0c18 68030000 		.4byte	0x368
 6347 0c1c 10       		.uleb128 0x10
 6348 0c1d 01       		.uleb128 0x1
 6349 0c1e 53       		.byte	0x53
 6350 0c1f 01       		.uleb128 0x1
 6351 0c20 38       		.byte	0x38
 6352 0c21 10       		.uleb128 0x10
 6353 0c22 01       		.uleb128 0x1
 6354 0c23 52       		.byte	0x52
 6355 0c24 02       		.uleb128 0x2
 6356 0c25 77       		.byte	0x77
 6357 0c26 00       		.sleb128 0
 6358 0c27 10       		.uleb128 0x10
ARM GAS  C:\Users\username\AppData\Local\Temp\ccSuCzK2.s 			page 124


 6359 0c28 01       		.uleb128 0x1
 6360 0c29 51       		.byte	0x51
 6361 0c2a 02       		.uleb128 0x2
 6362 0c2b 76       		.byte	0x76
 6363 0c2c 00       		.sleb128 0
 6364 0c2d 10       		.uleb128 0x10
 6365 0c2e 01       		.uleb128 0x1
 6366 0c2f 50       		.byte	0x50
 6367 0c30 04       		.uleb128 0x4
 6368 0c31 91       		.byte	0x91
 6369 0c32 48       		.sleb128 -56
 6370 0c33 94       		.byte	0x94
 6371 0c34 02       		.byte	0x2
 6372 0c35 10       		.uleb128 0x10
 6373 0c36 02       		.uleb128 0x2
 6374 0c37 7D       		.byte	0x7d
 6375 0c38 00       		.sleb128 0
 6376 0c39 02       		.uleb128 0x2
 6377 0c3a 78       		.byte	0x78
 6378 0c3b 00       		.sleb128 0
 6379 0c3c 00       		.byte	0
 6380 0c3d 00       		.byte	0
 6381 0c3e 14       		.uleb128 0x14
 6382 0c3f 50030000 		.4byte	.LASF41
 6383 0c43 01       		.byte	0x1
 6384 0c44 0401     		.2byte	0x104
 6385 0c46 00000000 		.4byte	.LFB45
 6386 0c4a 82000000 		.4byte	.LFE45-.LFB45
 6387 0c4e 01       		.uleb128 0x1
 6388 0c4f 9C       		.byte	0x9c
 6389 0c50 570D0000 		.4byte	0xd57
 6390 0c54 15       		.uleb128 0x15
 6391 0c55 7800     		.ascii	"x\000"
 6392 0c57 01       		.byte	0x1
 6393 0c58 0401     		.2byte	0x104
 6394 0c5a B8000000 		.4byte	0xb8
 6395 0c5e FB080000 		.4byte	.LLST61
 6396 0c62 15       		.uleb128 0x15
 6397 0c63 7900     		.ascii	"y\000"
 6398 0c65 01       		.byte	0x1
 6399 0c66 0401     		.2byte	0x104
 6400 0c68 B8000000 		.4byte	0xb8
 6401 0c6c 27090000 		.4byte	.LLST62
 6402 0c70 15       		.uleb128 0x15
 6403 0c71 7700     		.ascii	"w\000"
 6404 0c73 01       		.byte	0x1
 6405 0c74 0401     		.2byte	0x104
 6406 0c76 B8000000 		.4byte	0xb8
 6407 0c7a 48090000 		.4byte	.LLST63
 6408 0c7e 15       		.uleb128 0x15
 6409 0c7f 6800     		.ascii	"h\000"
 6410 0c81 01       		.byte	0x1
 6411 0c82 0401     		.2byte	0x104
 6412 0c84 B8000000 		.4byte	0xb8
 6413 0c88 74090000 		.4byte	.LLST64
 6414 0c8c 15       		.uleb128 0x15
 6415 0c8d 7200     		.ascii	"r\000"
ARM GAS  C:\Users\username\AppData\Local\Temp\ccSuCzK2.s 			page 125


 6416 0c8f 01       		.byte	0x1
 6417 0c90 0401     		.2byte	0x104
 6418 0c92 B8000000 		.4byte	0xb8
 6419 0c96 95090000 		.4byte	.LLST65
 6420 0c9a 16       		.uleb128 0x16
 6421 0c9b 9B010000 		.4byte	.LASF26
 6422 0c9f 01       		.byte	0x1
 6423 0ca0 0401     		.2byte	0x104
 6424 0ca2 C3000000 		.4byte	0xc3
 6425 0ca6 C1090000 		.4byte	.LLST66
 6426 0caa 0F       		.uleb128 0xf
 6427 0cab 40000000 		.4byte	.LVL170
 6428 0caf C1090000 		.4byte	0x9c1
 6429 0cb3 E00C0000 		.4byte	0xce0
 6430 0cb7 10       		.uleb128 0x10
 6431 0cb8 01       		.uleb128 0x1
 6432 0cb9 53       		.byte	0x53
 6433 0cba 04       		.uleb128 0x4
 6434 0cbb 91       		.byte	0x91
 6435 0cbc 5C       		.sleb128 -36
 6436 0cbd 94       		.byte	0x94
 6437 0cbe 02       		.byte	0x2
 6438 0cbf 10       		.uleb128 0x10
 6439 0cc0 01       		.uleb128 0x1
 6440 0cc1 52       		.byte	0x52
 6441 0cc2 05       		.uleb128 0x5
 6442 0cc3 75       		.byte	0x75
 6443 0cc4 00       		.sleb128 0
 6444 0cc5 74       		.byte	0x74
 6445 0cc6 00       		.sleb128 0
 6446 0cc7 22       		.byte	0x22
 6447 0cc8 10       		.uleb128 0x10
 6448 0cc9 01       		.uleb128 0x1
 6449 0cca 51       		.byte	0x51
 6450 0ccb 04       		.uleb128 0x4
 6451 0ccc 91       		.byte	0x91
 6452 0ccd 58       		.sleb128 -40
 6453 0cce 94       		.byte	0x94
 6454 0ccf 02       		.byte	0x2
 6455 0cd0 10       		.uleb128 0x10
 6456 0cd1 01       		.uleb128 0x1
 6457 0cd2 50       		.byte	0x50
 6458 0cd3 04       		.uleb128 0x4
 6459 0cd4 91       		.byte	0x91
 6460 0cd5 64       		.sleb128 -28
 6461 0cd6 94       		.byte	0x94
 6462 0cd7 02       		.byte	0x2
 6463 0cd8 10       		.uleb128 0x10
 6464 0cd9 02       		.uleb128 0x2
 6465 0cda 7D       		.byte	0x7d
 6466 0cdb 00       		.sleb128 0
 6467 0cdc 02       		.uleb128 0x2
 6468 0cdd 77       		.byte	0x77
 6469 0cde 00       		.sleb128 0
 6470 0cdf 00       		.byte	0
 6471 0ce0 0F       		.uleb128 0xf
 6472 0ce1 6A000000 		.4byte	.LVL172
ARM GAS  C:\Users\username\AppData\Local\Temp\ccSuCzK2.s 			page 126


 6473 0ce5 4B050000 		.4byte	0x54b
 6474 0ce9 250D0000 		.4byte	0xd25
 6475 0ced 10       		.uleb128 0x10
 6476 0cee 01       		.uleb128 0x1
 6477 0cef 53       		.byte	0x53
 6478 0cf0 01       		.uleb128 0x1
 6479 0cf1 31       		.byte	0x31
 6480 0cf2 10       		.uleb128 0x10
 6481 0cf3 01       		.uleb128 0x1
 6482 0cf4 52       		.byte	0x52
 6483 0cf5 02       		.uleb128 0x2
 6484 0cf6 74       		.byte	0x74
 6485 0cf7 00       		.sleb128 0
 6486 0cf8 10       		.uleb128 0x10
 6487 0cf9 01       		.uleb128 0x1
 6488 0cfa 51       		.byte	0x51
 6489 0cfb 02       		.uleb128 0x2
 6490 0cfc 76       		.byte	0x76
 6491 0cfd 00       		.sleb128 0
 6492 0cfe 10       		.uleb128 0x10
 6493 0cff 01       		.uleb128 0x1
 6494 0d00 50       		.byte	0x50
 6495 0d01 14       		.uleb128 0x14
 6496 0d02 7D       		.byte	0x7d
 6497 0d03 10       		.sleb128 16
 6498 0d04 94       		.byte	0x94
 6499 0d05 02       		.byte	0x2
 6500 0d06 0A       		.byte	0xa
 6501 0d07 FFFF     		.2byte	0xffff
 6502 0d09 1A       		.byte	0x1a
 6503 0d0a 20       		.byte	0x20
 6504 0d0b F3       		.byte	0xf3
 6505 0d0c 01       		.uleb128 0x1
 6506 0d0d 52       		.byte	0x52
 6507 0d0e 0A       		.byte	0xa
 6508 0d0f FFFF     		.2byte	0xffff
 6509 0d11 1A       		.byte	0x1a
 6510 0d12 22       		.byte	0x22
 6511 0d13 7A       		.byte	0x7a
 6512 0d14 00       		.sleb128 0
 6513 0d15 22       		.byte	0x22
 6514 0d16 10       		.uleb128 0x10
 6515 0d17 02       		.uleb128 0x2
 6516 0d18 7D       		.byte	0x7d
 6517 0d19 04       		.sleb128 4
 6518 0d1a 02       		.uleb128 0x2
 6519 0d1b 77       		.byte	0x77
 6520 0d1c 00       		.sleb128 0
 6521 0d1d 10       		.uleb128 0x10
 6522 0d1e 02       		.uleb128 0x2
 6523 0d1f 7D       		.byte	0x7d
 6524 0d20 00       		.sleb128 0
 6525 0d21 02       		.uleb128 0x2
 6526 0d22 75       		.byte	0x75
 6527 0d23 00       		.sleb128 0
 6528 0d24 00       		.byte	0
 6529 0d25 11       		.uleb128 0x11
ARM GAS  C:\Users\username\AppData\Local\Temp\ccSuCzK2.s 			page 127


 6530 0d26 7A000000 		.4byte	.LVL173
 6531 0d2a 4B050000 		.4byte	0x54b
 6532 0d2e 10       		.uleb128 0x10
 6533 0d2f 01       		.uleb128 0x1
 6534 0d30 53       		.byte	0x53
 6535 0d31 01       		.uleb128 0x1
 6536 0d32 32       		.byte	0x32
 6537 0d33 10       		.uleb128 0x10
 6538 0d34 01       		.uleb128 0x1
 6539 0d35 52       		.byte	0x52
 6540 0d36 02       		.uleb128 0x2
 6541 0d37 74       		.byte	0x74
 6542 0d38 00       		.sleb128 0
 6543 0d39 10       		.uleb128 0x10
 6544 0d3a 01       		.uleb128 0x1
 6545 0d3b 51       		.byte	0x51
 6546 0d3c 02       		.uleb128 0x2
 6547 0d3d 76       		.byte	0x76
 6548 0d3e 00       		.sleb128 0
 6549 0d3f 10       		.uleb128 0x10
 6550 0d40 01       		.uleb128 0x1
 6551 0d41 50       		.byte	0x50
 6552 0d42 04       		.uleb128 0x4
 6553 0d43 91       		.byte	0x91
 6554 0d44 64       		.sleb128 -28
 6555 0d45 94       		.byte	0x94
 6556 0d46 02       		.byte	0x2
 6557 0d47 10       		.uleb128 0x10
 6558 0d48 02       		.uleb128 0x2
 6559 0d49 7D       		.byte	0x7d
 6560 0d4a 04       		.sleb128 4
 6561 0d4b 02       		.uleb128 0x2
 6562 0d4c 77       		.byte	0x77
 6563 0d4d 00       		.sleb128 0
 6564 0d4e 10       		.uleb128 0x10
 6565 0d4f 02       		.uleb128 0x2
 6566 0d50 7D       		.byte	0x7d
 6567 0d51 00       		.sleb128 0
 6568 0d52 02       		.uleb128 0x2
 6569 0d53 75       		.byte	0x75
 6570 0d54 00       		.sleb128 0
 6571 0d55 00       		.byte	0
 6572 0d56 00       		.byte	0
 6573 0d57 14       		.uleb128 0x14
 6574 0d58 E5000000 		.4byte	.LASF42
 6575 0d5c 01       		.byte	0x1
 6576 0d5d 1001     		.2byte	0x110
 6577 0d5f 00000000 		.4byte	.LFB46
 6578 0d63 46000000 		.4byte	.LFE46-.LFB46
 6579 0d67 01       		.uleb128 0x1
 6580 0d68 9C       		.byte	0x9c
 6581 0d69 670E0000 		.4byte	0xe67
 6582 0d6d 15       		.uleb128 0x15
 6583 0d6e 783000   		.ascii	"x0\000"
 6584 0d71 01       		.byte	0x1
 6585 0d72 1001     		.2byte	0x110
 6586 0d74 B8000000 		.4byte	0xb8
ARM GAS  C:\Users\username\AppData\Local\Temp\ccSuCzK2.s 			page 128


 6587 0d78 F9090000 		.4byte	.LLST67
 6588 0d7c 15       		.uleb128 0x15
 6589 0d7d 793000   		.ascii	"y0\000"
 6590 0d80 01       		.byte	0x1
 6591 0d81 1001     		.2byte	0x110
 6592 0d83 B8000000 		.4byte	0xb8
 6593 0d87 1A0A0000 		.4byte	.LLST68
 6594 0d8b 15       		.uleb128 0x15
 6595 0d8c 783100   		.ascii	"x1\000"
 6596 0d8f 01       		.byte	0x1
 6597 0d90 1001     		.2byte	0x110
 6598 0d92 B8000000 		.4byte	0xb8
 6599 0d96 3B0A0000 		.4byte	.LLST69
 6600 0d9a 15       		.uleb128 0x15
 6601 0d9b 793100   		.ascii	"y1\000"
 6602 0d9e 01       		.byte	0x1
 6603 0d9f 1001     		.2byte	0x110
 6604 0da1 B8000000 		.4byte	0xb8
 6605 0da5 5C0A0000 		.4byte	.LLST70
 6606 0da9 15       		.uleb128 0x15
 6607 0daa 783200   		.ascii	"x2\000"
 6608 0dad 01       		.byte	0x1
 6609 0dae 1101     		.2byte	0x111
 6610 0db0 B8000000 		.4byte	0xb8
 6611 0db4 7D0A0000 		.4byte	.LLST71
 6612 0db8 15       		.uleb128 0x15
 6613 0db9 793200   		.ascii	"y2\000"
 6614 0dbc 01       		.byte	0x1
 6615 0dbd 1101     		.2byte	0x111
 6616 0dbf B8000000 		.4byte	0xb8
 6617 0dc3 A90A0000 		.4byte	.LLST72
 6618 0dc7 16       		.uleb128 0x16
 6619 0dc8 9B010000 		.4byte	.LASF26
 6620 0dcc 01       		.byte	0x1
 6621 0dcd 1101     		.2byte	0x111
 6622 0dcf C3000000 		.4byte	0xc3
 6623 0dd3 E10A0000 		.4byte	.LLST73
 6624 0dd7 0F       		.uleb128 0xf
 6625 0dd8 26000000 		.4byte	.LVL181
 6626 0ddc 83070000 		.4byte	0x783
 6627 0de0 0A0E0000 		.4byte	0xe0a
 6628 0de4 10       		.uleb128 0x10
 6629 0de5 01       		.uleb128 0x1
 6630 0de6 53       		.byte	0x53
 6631 0de7 04       		.uleb128 0x4
 6632 0de8 91       		.byte	0x91
 6633 0de9 5C       		.sleb128 -36
 6634 0dea 94       		.byte	0x94
 6635 0deb 02       		.byte	0x2
 6636 0dec 10       		.uleb128 0x10
 6637 0ded 01       		.uleb128 0x1
 6638 0dee 52       		.byte	0x52
 6639 0def 02       		.uleb128 0x2
 6640 0df0 77       		.byte	0x77
 6641 0df1 00       		.sleb128 0
 6642 0df2 10       		.uleb128 0x10
 6643 0df3 01       		.uleb128 0x1
ARM GAS  C:\Users\username\AppData\Local\Temp\ccSuCzK2.s 			page 129


 6644 0df4 51       		.byte	0x51
 6645 0df5 04       		.uleb128 0x4
 6646 0df6 91       		.byte	0x91
 6647 0df7 64       		.sleb128 -28
 6648 0df8 94       		.byte	0x94
 6649 0df9 02       		.byte	0x2
 6650 0dfa 10       		.uleb128 0x10
 6651 0dfb 01       		.uleb128 0x1
 6652 0dfc 50       		.byte	0x50
 6653 0dfd 04       		.uleb128 0x4
 6654 0dfe 91       		.byte	0x91
 6655 0dff 60       		.sleb128 -32
 6656 0e00 94       		.byte	0x94
 6657 0e01 02       		.byte	0x2
 6658 0e02 10       		.uleb128 0x10
 6659 0e03 02       		.uleb128 0x2
 6660 0e04 7D       		.byte	0x7d
 6661 0e05 00       		.sleb128 0
 6662 0e06 02       		.uleb128 0x2
 6663 0e07 76       		.byte	0x76
 6664 0e08 00       		.sleb128 0
 6665 0e09 00       		.byte	0
 6666 0e0a 0F       		.uleb128 0xf
 6667 0e0b 34000000 		.4byte	.LVL182
 6668 0e0f 83070000 		.4byte	0x783
 6669 0e13 390E0000 		.4byte	0xe39
 6670 0e17 10       		.uleb128 0x10
 6671 0e18 01       		.uleb128 0x1
 6672 0e19 53       		.byte	0x53
 6673 0e1a 02       		.uleb128 0x2
 6674 0e1b 74       		.byte	0x74
 6675 0e1c 00       		.sleb128 0
 6676 0e1d 10       		.uleb128 0x10
 6677 0e1e 01       		.uleb128 0x1
 6678 0e1f 52       		.byte	0x52
 6679 0e20 02       		.uleb128 0x2
 6680 0e21 75       		.byte	0x75
 6681 0e22 00       		.sleb128 0
 6682 0e23 10       		.uleb128 0x10
 6683 0e24 01       		.uleb128 0x1
 6684 0e25 51       		.byte	0x51
 6685 0e26 04       		.uleb128 0x4
 6686 0e27 91       		.byte	0x91
 6687 0e28 5C       		.sleb128 -36
 6688 0e29 94       		.byte	0x94
 6689 0e2a 02       		.byte	0x2
 6690 0e2b 10       		.uleb128 0x10
 6691 0e2c 01       		.uleb128 0x1
 6692 0e2d 50       		.byte	0x50
 6693 0e2e 02       		.uleb128 0x2
 6694 0e2f 77       		.byte	0x77
 6695 0e30 00       		.sleb128 0
 6696 0e31 10       		.uleb128 0x10
 6697 0e32 02       		.uleb128 0x2
 6698 0e33 7D       		.byte	0x7d
 6699 0e34 00       		.sleb128 0
 6700 0e35 02       		.uleb128 0x2
ARM GAS  C:\Users\username\AppData\Local\Temp\ccSuCzK2.s 			page 130


 6701 0e36 76       		.byte	0x76
 6702 0e37 00       		.sleb128 0
 6703 0e38 00       		.byte	0
 6704 0e39 11       		.uleb128 0x11
 6705 0e3a 42000000 		.4byte	.LVL183
 6706 0e3e 83070000 		.4byte	0x783
 6707 0e42 10       		.uleb128 0x10
 6708 0e43 01       		.uleb128 0x1
 6709 0e44 53       		.byte	0x53
 6710 0e45 04       		.uleb128 0x4
 6711 0e46 91       		.byte	0x91
 6712 0e47 64       		.sleb128 -28
 6713 0e48 94       		.byte	0x94
 6714 0e49 02       		.byte	0x2
 6715 0e4a 10       		.uleb128 0x10
 6716 0e4b 01       		.uleb128 0x1
 6717 0e4c 52       		.byte	0x52
 6718 0e4d 04       		.uleb128 0x4
 6719 0e4e 91       		.byte	0x91
 6720 0e4f 60       		.sleb128 -32
 6721 0e50 94       		.byte	0x94
 6722 0e51 02       		.byte	0x2
 6723 0e52 10       		.uleb128 0x10
 6724 0e53 01       		.uleb128 0x1
 6725 0e54 51       		.byte	0x51
 6726 0e55 02       		.uleb128 0x2
 6727 0e56 74       		.byte	0x74
 6728 0e57 00       		.sleb128 0
 6729 0e58 10       		.uleb128 0x10
 6730 0e59 01       		.uleb128 0x1
 6731 0e5a 50       		.byte	0x50
 6732 0e5b 02       		.uleb128 0x2
 6733 0e5c 75       		.byte	0x75
 6734 0e5d 00       		.sleb128 0
 6735 0e5e 10       		.uleb128 0x10
 6736 0e5f 02       		.uleb128 0x2
 6737 0e60 7D       		.byte	0x7d
 6738 0e61 00       		.sleb128 0
 6739 0e62 02       		.uleb128 0x2
 6740 0e63 76       		.byte	0x76
 6741 0e64 00       		.sleb128 0
 6742 0e65 00       		.byte	0
 6743 0e66 00       		.byte	0
 6744 0e67 17       		.uleb128 0x17
 6745 0e68 C9000000 		.4byte	.LASF43
 6746 0e6c 01       		.byte	0x1
 6747 0e6d 1A01     		.2byte	0x11a
 6748 0e6f 00000000 		.4byte	.LFB47
 6749 0e73 C8010000 		.4byte	.LFE47-.LFB47
 6750 0e77 01       		.uleb128 0x1
 6751 0e78 9C       		.byte	0x9c
 6752 0e79 91100000 		.4byte	0x1091
 6753 0e7d 15       		.uleb128 0x15
 6754 0e7e 783000   		.ascii	"x0\000"
 6755 0e81 01       		.byte	0x1
 6756 0e82 1A01     		.2byte	0x11a
 6757 0e84 B8000000 		.4byte	0xb8
ARM GAS  C:\Users\username\AppData\Local\Temp\ccSuCzK2.s 			page 131


 6758 0e88 250B0000 		.4byte	.LLST74
 6759 0e8c 15       		.uleb128 0x15
 6760 0e8d 793000   		.ascii	"y0\000"
 6761 0e90 01       		.byte	0x1
 6762 0e91 1A01     		.2byte	0x11a
 6763 0e93 B8000000 		.4byte	0xb8
 6764 0e97 720B0000 		.4byte	.LLST75
 6765 0e9b 15       		.uleb128 0x15
 6766 0e9c 783100   		.ascii	"x1\000"
 6767 0e9f 01       		.byte	0x1
 6768 0ea0 1B01     		.2byte	0x11b
 6769 0ea2 B8000000 		.4byte	0xb8
 6770 0ea6 AB0B0000 		.4byte	.LLST76
 6771 0eaa 15       		.uleb128 0x15
 6772 0eab 793100   		.ascii	"y1\000"
 6773 0eae 01       		.byte	0x1
 6774 0eaf 1B01     		.2byte	0x11b
 6775 0eb1 B8000000 		.4byte	0xb8
 6776 0eb5 F50B0000 		.4byte	.LLST77
 6777 0eb9 15       		.uleb128 0x15
 6778 0eba 783200   		.ascii	"x2\000"
 6779 0ebd 01       		.byte	0x1
 6780 0ebe 1C01     		.2byte	0x11c
 6781 0ec0 B8000000 		.4byte	0xb8
 6782 0ec4 3A0C0000 		.4byte	.LLST78
 6783 0ec8 15       		.uleb128 0x15
 6784 0ec9 793200   		.ascii	"y2\000"
 6785 0ecc 01       		.byte	0x1
 6786 0ecd 1C01     		.2byte	0x11c
 6787 0ecf B8000000 		.4byte	0xb8
 6788 0ed3 870C0000 		.4byte	.LLST79
 6789 0ed7 16       		.uleb128 0x16
 6790 0ed8 9B010000 		.4byte	.LASF26
 6791 0edc 01       		.byte	0x1
 6792 0edd 1C01     		.2byte	0x11c
 6793 0edf C3000000 		.4byte	0xc3
 6794 0ee3 D60C0000 		.4byte	.LLST80
 6795 0ee7 18       		.uleb128 0x18
 6796 0ee8 6100     		.ascii	"a\000"
 6797 0eea 01       		.byte	0x1
 6798 0eeb 1E01     		.2byte	0x11e
 6799 0eed B8000000 		.4byte	0xb8
 6800 0ef1 1A0D0000 		.4byte	.LLST81
 6801 0ef5 18       		.uleb128 0x18
 6802 0ef6 6200     		.ascii	"b\000"
 6803 0ef8 01       		.byte	0x1
 6804 0ef9 1E01     		.2byte	0x11e
 6805 0efb B8000000 		.4byte	0xb8
 6806 0eff 850D0000 		.4byte	.LLST82
 6807 0f03 18       		.uleb128 0x18
 6808 0f04 7900     		.ascii	"y\000"
 6809 0f06 01       		.byte	0x1
 6810 0f07 1E01     		.2byte	0x11e
 6811 0f09 B8000000 		.4byte	0xb8
 6812 0f0d E50D0000 		.4byte	.LLST83
 6813 0f11 19       		.uleb128 0x19
 6814 0f12 D6030000 		.4byte	.LASF44
ARM GAS  C:\Users\username\AppData\Local\Temp\ccSuCzK2.s 			page 132


 6815 0f16 01       		.byte	0x1
 6816 0f17 1E01     		.2byte	0x11e
 6817 0f19 B8000000 		.4byte	0xb8
 6818 0f1d 1A0E0000 		.4byte	.LLST84
 6819 0f21 19       		.uleb128 0x19
 6820 0f22 3A030000 		.4byte	.LASF45
 6821 0f26 01       		.byte	0x1
 6822 0f27 3601     		.2byte	0x136
 6823 0f29 B8000000 		.4byte	0xb8
 6824 0f2d 380E0000 		.4byte	.LLST85
 6825 0f31 19       		.uleb128 0x19
 6826 0f32 6E020000 		.4byte	.LASF46
 6827 0f36 01       		.byte	0x1
 6828 0f37 3701     		.2byte	0x137
 6829 0f39 B8000000 		.4byte	0xb8
 6830 0f3d 4C0E0000 		.4byte	.LLST86
 6831 0f41 19       		.uleb128 0x19
 6832 0f42 3F030000 		.4byte	.LASF47
 6833 0f46 01       		.byte	0x1
 6834 0f47 3801     		.2byte	0x138
 6835 0f49 B8000000 		.4byte	0xb8
 6836 0f4d 600E0000 		.4byte	.LLST87
 6837 0f51 19       		.uleb128 0x19
 6838 0f52 73020000 		.4byte	.LASF48
 6839 0f56 01       		.byte	0x1
 6840 0f57 3901     		.2byte	0x139
 6841 0f59 B8000000 		.4byte	0xb8
 6842 0f5d 750E0000 		.4byte	.LLST88
 6843 0f61 19       		.uleb128 0x19
 6844 0f62 6F040000 		.4byte	.LASF49
 6845 0f66 01       		.byte	0x1
 6846 0f67 3A01     		.2byte	0x13a
 6847 0f69 B8000000 		.4byte	0xb8
 6848 0f6d 8A0E0000 		.4byte	.LLST89
 6849 0f71 19       		.uleb128 0x19
 6850 0f72 C6030000 		.4byte	.LASF50
 6851 0f76 01       		.byte	0x1
 6852 0f77 3B01     		.2byte	0x13b
 6853 0f79 B8000000 		.4byte	0xb8
 6854 0f7d 9E0E0000 		.4byte	.LLST90
 6855 0f81 18       		.uleb128 0x18
 6856 0f82 736100   		.ascii	"sa\000"
 6857 0f85 01       		.byte	0x1
 6858 0f86 3D01     		.2byte	0x13d
 6859 0f88 CE000000 		.4byte	0xce
 6860 0f8c B20E0000 		.4byte	.LLST91
 6861 0f90 18       		.uleb128 0x18
 6862 0f91 736200   		.ascii	"sb\000"
 6863 0f94 01       		.byte	0x1
 6864 0f95 3E01     		.2byte	0x13e
 6865 0f97 CE000000 		.4byte	0xce
 6866 0f9b DC0E0000 		.4byte	.LLST92
 6867 0f9f 12       		.uleb128 0x12
 6868 0fa0 2E000000 		.4byte	.LBB6
 6869 0fa4 04000000 		.4byte	.LBE6-.LBB6
 6870 0fa8 B70F0000 		.4byte	0xfb7
 6871 0fac 1A       		.uleb128 0x1a
ARM GAS  C:\Users\username\AppData\Local\Temp\ccSuCzK2.s 			page 133


 6872 0fad 7400     		.ascii	"t\000"
 6873 0faf 01       		.byte	0x1
 6874 0fb0 2201     		.2byte	0x122
 6875 0fb2 B8000000 		.4byte	0xb8
 6876 0fb6 00       		.byte	0
 6877 0fb7 12       		.uleb128 0x12
 6878 0fb8 34000000 		.4byte	.LBB7
 6879 0fbc 04000000 		.4byte	.LBE7-.LBB7
 6880 0fc0 CF0F0000 		.4byte	0xfcf
 6881 0fc4 1A       		.uleb128 0x1a
 6882 0fc5 7400     		.ascii	"t\000"
 6883 0fc7 01       		.byte	0x1
 6884 0fc8 2201     		.2byte	0x122
 6885 0fca B8000000 		.4byte	0xb8
 6886 0fce 00       		.byte	0
 6887 0fcf 12       		.uleb128 0x12
 6888 0fd0 3E000000 		.4byte	.LBB8
 6889 0fd4 06000000 		.4byte	.LBE8-.LBB8
 6890 0fd8 E70F0000 		.4byte	0xfe7
 6891 0fdc 1A       		.uleb128 0x1a
 6892 0fdd 7400     		.ascii	"t\000"
 6893 0fdf 01       		.byte	0x1
 6894 0fe0 2501     		.2byte	0x125
 6895 0fe2 B8000000 		.4byte	0xb8
 6896 0fe6 00       		.byte	0
 6897 0fe7 12       		.uleb128 0x12
 6898 0fe8 46000000 		.4byte	.LBB9
 6899 0fec 04000000 		.4byte	.LBE9-.LBB9
 6900 0ff0 FF0F0000 		.4byte	0xfff
 6901 0ff4 1A       		.uleb128 0x1a
 6902 0ff5 7400     		.ascii	"t\000"
 6903 0ff7 01       		.byte	0x1
 6904 0ff8 2501     		.2byte	0x125
 6905 0ffa B8000000 		.4byte	0xb8
 6906 0ffe 00       		.byte	0
 6907 0fff 12       		.uleb128 0x12
 6908 1000 52000000 		.4byte	.LBB10
 6909 1004 04000000 		.4byte	.LBE10-.LBB10
 6910 1008 17100000 		.4byte	0x1017
 6911 100c 1A       		.uleb128 0x1a
 6912 100d 7400     		.ascii	"t\000"
 6913 100f 01       		.byte	0x1
 6914 1010 2801     		.2byte	0x128
 6915 1012 B8000000 		.4byte	0xb8
 6916 1016 00       		.byte	0
 6917 1017 12       		.uleb128 0x12
 6918 1018 58000000 		.4byte	.LBB11
 6919 101c 04000000 		.4byte	.LBE11-.LBB11
 6920 1020 2F100000 		.4byte	0x102f
 6921 1024 1A       		.uleb128 0x1a
 6922 1025 7400     		.ascii	"t\000"
 6923 1027 01       		.byte	0x1
 6924 1028 2801     		.2byte	0x128
 6925 102a B8000000 		.4byte	0xb8
 6926 102e 00       		.byte	0
 6927 102f 0F       		.uleb128 0xf
 6928 1030 92000000 		.4byte	.LVL210
ARM GAS  C:\Users\username\AppData\Local\Temp\ccSuCzK2.s 			page 134


 6929 1034 C3180000 		.4byte	0x18c3
 6930 1038 4E100000 		.4byte	0x104e
 6931 103c 10       		.uleb128 0x10
 6932 103d 01       		.uleb128 0x1
 6933 103e 53       		.byte	0x53
 6934 103f 05       		.uleb128 0x5
 6935 1040 91       		.byte	0x91
 6936 1041 B47F     		.sleb128 -76
 6937 1043 94       		.byte	0x94
 6938 1044 02       		.byte	0x2
 6939 1045 10       		.uleb128 0x10
 6940 1046 01       		.uleb128 0x1
 6941 1047 51       		.byte	0x51
 6942 1048 04       		.uleb128 0x4
 6943 1049 91       		.byte	0x91
 6944 104a 50       		.sleb128 -48
 6945 104b 94       		.byte	0x94
 6946 104c 02       		.byte	0x2
 6947 104d 00       		.byte	0
 6948 104e 0F       		.uleb128 0xf
 6949 104f 42010000 		.4byte	.LVL235
 6950 1053 C3180000 		.4byte	0x18c3
 6951 1057 71100000 		.4byte	0x1071
 6952 105b 10       		.uleb128 0x10
 6953 105c 01       		.uleb128 0x1
 6954 105d 53       		.byte	0x53
 6955 105e 05       		.uleb128 0x5
 6956 105f 91       		.byte	0x91
 6957 1060 B47F     		.sleb128 -76
 6958 1062 94       		.byte	0x94
 6959 1063 02       		.byte	0x2
 6960 1064 10       		.uleb128 0x10
 6961 1065 01       		.uleb128 0x1
 6962 1066 52       		.byte	0x52
 6963 1067 02       		.uleb128 0x2
 6964 1068 74       		.byte	0x74
 6965 1069 00       		.sleb128 0
 6966 106a 10       		.uleb128 0x10
 6967 106b 01       		.uleb128 0x1
 6968 106c 51       		.byte	0x51
 6969 106d 02       		.uleb128 0x2
 6970 106e 75       		.byte	0x75
 6971 106f 00       		.sleb128 0
 6972 1070 00       		.byte	0
 6973 1071 11       		.uleb128 0x11
 6974 1072 B2010000 		.4byte	.LVL254
 6975 1076 C3180000 		.4byte	0x18c3
 6976 107a 10       		.uleb128 0x10
 6977 107b 01       		.uleb128 0x1
 6978 107c 53       		.byte	0x53
 6979 107d 05       		.uleb128 0x5
 6980 107e 91       		.byte	0x91
 6981 107f B47F     		.sleb128 -76
 6982 1081 94       		.byte	0x94
 6983 1082 02       		.byte	0x2
 6984 1083 10       		.uleb128 0x10
 6985 1084 01       		.uleb128 0x1
ARM GAS  C:\Users\username\AppData\Local\Temp\ccSuCzK2.s 			page 135


 6986 1085 52       		.byte	0x52
 6987 1086 02       		.uleb128 0x2
 6988 1087 74       		.byte	0x74
 6989 1088 00       		.sleb128 0
 6990 1089 10       		.uleb128 0x10
 6991 108a 01       		.uleb128 0x1
 6992 108b 51       		.byte	0x51
 6993 108c 02       		.uleb128 0x2
 6994 108d 75       		.byte	0x75
 6995 108e 00       		.sleb128 0
 6996 108f 00       		.byte	0
 6997 1090 00       		.byte	0
 6998 1091 14       		.uleb128 0x14
 6999 1092 19020000 		.4byte	.LASF51
 7000 1096 01       		.byte	0x1
 7001 1097 7301     		.2byte	0x173
 7002 1099 00000000 		.4byte	.LFB48
 7003 109d 96000000 		.4byte	.LFE48-.LFB48
 7004 10a1 01       		.uleb128 0x1
 7005 10a2 9C       		.byte	0x9c
 7006 10a3 A4110000 		.4byte	0x11a4
 7007 10a7 15       		.uleb128 0x15
 7008 10a8 7800     		.ascii	"x\000"
 7009 10aa 01       		.byte	0x1
 7010 10ab 7301     		.2byte	0x173
 7011 10ad B8000000 		.4byte	0xb8
 7012 10b1 060F0000 		.4byte	.LLST93
 7013 10b5 15       		.uleb128 0x15
 7014 10b6 7900     		.ascii	"y\000"
 7015 10b8 01       		.byte	0x1
 7016 10b9 7301     		.2byte	0x173
 7017 10bb B8000000 		.4byte	0xb8
 7018 10bf 270F0000 		.4byte	.LLST94
 7019 10c3 16       		.uleb128 0x16
 7020 10c4 DE000000 		.4byte	.LASF52
 7021 10c8 01       		.byte	0x1
 7022 10c9 7401     		.2byte	0x174
 7023 10cb A4110000 		.4byte	0x11a4
 7024 10cf 480F0000 		.4byte	.LLST95
 7025 10d3 15       		.uleb128 0x15
 7026 10d4 7700     		.ascii	"w\000"
 7027 10d6 01       		.byte	0x1
 7028 10d7 7401     		.2byte	0x174
 7029 10d9 B8000000 		.4byte	0xb8
 7030 10dd 740F0000 		.4byte	.LLST96
 7031 10e1 15       		.uleb128 0x15
 7032 10e2 6800     		.ascii	"h\000"
 7033 10e4 01       		.byte	0x1
 7034 10e5 7401     		.2byte	0x174
 7035 10e7 B8000000 		.4byte	0xb8
 7036 10eb 950F0000 		.4byte	.LLST97
 7037 10ef 16       		.uleb128 0x16
 7038 10f0 9B010000 		.4byte	.LASF26
 7039 10f4 01       		.byte	0x1
 7040 10f5 7501     		.2byte	0x175
 7041 10f7 C3000000 		.4byte	0xc3
 7042 10fb C10F0000 		.4byte	.LLST98
ARM GAS  C:\Users\username\AppData\Local\Temp\ccSuCzK2.s 			page 136


 7043 10ff 18       		.uleb128 0x18
 7044 1100 6900     		.ascii	"i\000"
 7045 1102 01       		.byte	0x1
 7046 1103 7701     		.2byte	0x177
 7047 1105 B8000000 		.4byte	0xb8
 7048 1109 05100000 		.4byte	.LLST99
 7049 110d 18       		.uleb128 0x18
 7050 110e 6A00     		.ascii	"j\000"
 7051 1110 01       		.byte	0x1
 7052 1111 7701     		.2byte	0x177
 7053 1113 B8000000 		.4byte	0xb8
 7054 1117 3B100000 		.4byte	.LLST100
 7055 111b 19       		.uleb128 0x19
 7056 111c D2010000 		.4byte	.LASF53
 7057 1120 01       		.byte	0x1
 7058 1121 7801     		.2byte	0x178
 7059 1123 B8000000 		.4byte	0xb8
 7060 1127 70100000 		.4byte	.LLST101
 7061 112b 1B       		.uleb128 0x1b
 7062 112c 34000000 		.4byte	.LBB12
 7063 1130 3E000000 		.4byte	.LBE12-.LBB12
 7064 1134 1C       		.uleb128 0x1c
 7065 1135 DC010000 		.4byte	.LASF55
 7066 1139 01       		.byte	0x1
 7067 113a 7C01     		.2byte	0x17c
 7068 113c 94000000 		.4byte	0x94
 7069 1140 46110000 		.4byte	0x1146
 7070 1144 1D       		.uleb128 0x1d
 7071 1145 00       		.byte	0
 7072 1146 0F       		.uleb128 0xf
 7073 1147 52000000 		.4byte	.LVL266
 7074 114b E3180000 		.4byte	0x18e3
 7075 114f 7E110000 		.4byte	0x117e
 7076 1153 10       		.uleb128 0x10
 7077 1154 01       		.uleb128 0x1
 7078 1155 50       		.byte	0x50
 7079 1156 26       		.uleb128 0x26
 7080 1157 7D       		.byte	0x7d
 7081 1158 00       		.sleb128 0
 7082 1159 94       		.byte	0x94
 7083 115a 02       		.byte	0x2
 7084 115b 40       		.byte	0x40
 7085 115c 24       		.byte	0x24
 7086 115d 40       		.byte	0x40
 7087 115e 26       		.byte	0x26
 7088 115f 75       		.byte	0x75
 7089 1160 00       		.sleb128 0
 7090 1161 40       		.byte	0x40
 7091 1162 24       		.byte	0x24
 7092 1163 40       		.byte	0x40
 7093 1164 26       		.byte	0x26
 7094 1165 1E       		.byte	0x1e
 7095 1166 74       		.byte	0x74
 7096 1167 00       		.sleb128 0
 7097 1168 40       		.byte	0x40
 7098 1169 24       		.byte	0x24
 7099 116a 40       		.byte	0x40
ARM GAS  C:\Users\username\AppData\Local\Temp\ccSuCzK2.s 			page 137


 7100 116b 26       		.byte	0x26
 7101 116c 4F       		.byte	0x4f
 7102 116d 26       		.byte	0x26
 7103 116e 4D       		.byte	0x4d
 7104 116f 25       		.byte	0x25
 7105 1170 74       		.byte	0x74
 7106 1171 00       		.sleb128 0
 7107 1172 40       		.byte	0x40
 7108 1173 24       		.byte	0x24
 7109 1174 40       		.byte	0x40
 7110 1175 26       		.byte	0x26
 7111 1176 22       		.byte	0x22
 7112 1177 33       		.byte	0x33
 7113 1178 26       		.byte	0x26
 7114 1179 22       		.byte	0x22
 7115 117a 77       		.byte	0x77
 7116 117b 00       		.sleb128 0
 7117 117c 22       		.byte	0x22
 7118 117d 00       		.byte	0
 7119 117e 11       		.uleb128 0x11
 7120 117f 72000000 		.4byte	.LVL267
 7121 1183 88180000 		.4byte	0x1888
 7122 1187 10       		.uleb128 0x10
 7123 1188 01       		.uleb128 0x1
 7124 1189 52       		.byte	0x52
 7125 118a 04       		.uleb128 0x4
 7126 118b 91       		.byte	0x91
 7127 118c 5C       		.sleb128 -36
 7128 118d 94       		.byte	0x94
 7129 118e 02       		.byte	0x2
 7130 118f 10       		.uleb128 0x10
 7131 1190 01       		.uleb128 0x1
 7132 1191 51       		.byte	0x51
 7133 1192 05       		.uleb128 0x5
 7134 1193 79       		.byte	0x79
 7135 1194 00       		.sleb128 0
 7136 1195 75       		.byte	0x75
 7137 1196 00       		.sleb128 0
 7138 1197 22       		.byte	0x22
 7139 1198 10       		.uleb128 0x10
 7140 1199 01       		.uleb128 0x1
 7141 119a 50       		.byte	0x50
 7142 119b 05       		.uleb128 0x5
 7143 119c 74       		.byte	0x74
 7144 119d 00       		.sleb128 0
 7145 119e 7A       		.byte	0x7a
 7146 119f 00       		.sleb128 0
 7147 11a0 22       		.byte	0x22
 7148 11a1 00       		.byte	0
 7149 11a2 00       		.byte	0
 7150 11a3 00       		.byte	0
 7151 11a4 05       		.uleb128 0x5
 7152 11a5 04       		.byte	0x4
 7153 11a6 AA110000 		.4byte	0x11aa
 7154 11aa 06       		.uleb128 0x6
 7155 11ab AD000000 		.4byte	0xad
 7156 11af 14       		.uleb128 0x14
ARM GAS  C:\Users\username\AppData\Local\Temp\ccSuCzK2.s 			page 138


 7157 11b0 61020000 		.4byte	.LASF54
 7158 11b4 01       		.byte	0x1
 7159 11b5 8901     		.2byte	0x189
 7160 11b7 00000000 		.4byte	.LFB49
 7161 11bb B0000000 		.4byte	.LFE49-.LFB49
 7162 11bf 01       		.uleb128 0x1
 7163 11c0 9C       		.byte	0x9c
 7164 11c1 F8120000 		.4byte	0x12f8
 7165 11c5 15       		.uleb128 0x15
 7166 11c6 7800     		.ascii	"x\000"
 7167 11c8 01       		.byte	0x1
 7168 11c9 8901     		.2byte	0x189
 7169 11cb B8000000 		.4byte	0xb8
 7170 11cf 90100000 		.4byte	.LLST102
 7171 11d3 15       		.uleb128 0x15
 7172 11d4 7900     		.ascii	"y\000"
 7173 11d6 01       		.byte	0x1
 7174 11d7 8901     		.2byte	0x189
 7175 11d9 B8000000 		.4byte	0xb8
 7176 11dd B1100000 		.4byte	.LLST103
 7177 11e1 16       		.uleb128 0x16
 7178 11e2 DE000000 		.4byte	.LASF52
 7179 11e6 01       		.byte	0x1
 7180 11e7 8A01     		.2byte	0x18a
 7181 11e9 A4110000 		.4byte	0x11a4
 7182 11ed D2100000 		.4byte	.LLST104
 7183 11f1 15       		.uleb128 0x15
 7184 11f2 7700     		.ascii	"w\000"
 7185 11f4 01       		.byte	0x1
 7186 11f5 8A01     		.2byte	0x18a
 7187 11f7 B8000000 		.4byte	0xb8
 7188 11fb FE100000 		.4byte	.LLST105
 7189 11ff 15       		.uleb128 0x15
 7190 1200 6800     		.ascii	"h\000"
 7191 1202 01       		.byte	0x1
 7192 1203 8A01     		.2byte	0x18a
 7193 1205 B8000000 		.4byte	0xb8
 7194 1209 1F110000 		.4byte	.LLST106
 7195 120d 16       		.uleb128 0x16
 7196 120e 9B010000 		.4byte	.LASF26
 7197 1212 01       		.byte	0x1
 7198 1213 8B01     		.2byte	0x18b
 7199 1215 C3000000 		.4byte	0xc3
 7200 1219 4B110000 		.4byte	.LLST107
 7201 121d 15       		.uleb128 0x15
 7202 121e 626700   		.ascii	"bg\000"
 7203 1221 01       		.byte	0x1
 7204 1222 8B01     		.2byte	0x18b
 7205 1224 C3000000 		.4byte	0xc3
 7206 1228 8F110000 		.4byte	.LLST108
 7207 122c 18       		.uleb128 0x18
 7208 122d 6900     		.ascii	"i\000"
 7209 122f 01       		.byte	0x1
 7210 1230 8D01     		.2byte	0x18d
 7211 1232 B8000000 		.4byte	0xb8
 7212 1236 D3110000 		.4byte	.LLST109
 7213 123a 18       		.uleb128 0x18
ARM GAS  C:\Users\username\AppData\Local\Temp\ccSuCzK2.s 			page 139


 7214 123b 6A00     		.ascii	"j\000"
 7215 123d 01       		.byte	0x1
 7216 123e 8D01     		.2byte	0x18d
 7217 1240 B8000000 		.4byte	0xb8
 7218 1244 09120000 		.4byte	.LLST110
 7219 1248 1E       		.uleb128 0x1e
 7220 1249 D2010000 		.4byte	.LASF53
 7221 124d 01       		.byte	0x1
 7222 124e 8D01     		.2byte	0x18d
 7223 1250 B8000000 		.4byte	0xb8
 7224 1254 02       		.uleb128 0x2
 7225 1255 91       		.byte	0x91
 7226 1256 54       		.sleb128 -44
 7227 1257 1B       		.uleb128 0x1b
 7228 1258 3A000000 		.4byte	.LBB13
 7229 125c 52000000 		.4byte	.LBE13-.LBB13
 7230 1260 1C       		.uleb128 0x1c
 7231 1261 DC010000 		.4byte	.LASF55
 7232 1265 01       		.byte	0x1
 7233 1266 7C01     		.2byte	0x17c
 7234 1268 94000000 		.4byte	0x94
 7235 126c 72120000 		.4byte	0x1272
 7236 1270 1D       		.uleb128 0x1d
 7237 1271 00       		.byte	0
 7238 1272 0F       		.uleb128 0xf
 7239 1273 58000000 		.4byte	.LVL286
 7240 1277 E3180000 		.4byte	0x18e3
 7241 127b AA120000 		.4byte	0x12aa
 7242 127f 10       		.uleb128 0x10
 7243 1280 01       		.uleb128 0x1
 7244 1281 50       		.byte	0x50
 7245 1282 26       		.uleb128 0x26
 7246 1283 7D       		.byte	0x7d
 7247 1284 04       		.sleb128 4
 7248 1285 94       		.byte	0x94
 7249 1286 02       		.byte	0x2
 7250 1287 40       		.byte	0x40
 7251 1288 24       		.byte	0x24
 7252 1289 40       		.byte	0x40
 7253 128a 26       		.byte	0x26
 7254 128b 75       		.byte	0x75
 7255 128c 00       		.sleb128 0
 7256 128d 40       		.byte	0x40
 7257 128e 24       		.byte	0x24
 7258 128f 40       		.byte	0x40
 7259 1290 26       		.byte	0x26
 7260 1291 1E       		.byte	0x1e
 7261 1292 74       		.byte	0x74
 7262 1293 00       		.sleb128 0
 7263 1294 40       		.byte	0x40
 7264 1295 24       		.byte	0x24
 7265 1296 40       		.byte	0x40
 7266 1297 26       		.byte	0x26
 7267 1298 4F       		.byte	0x4f
 7268 1299 26       		.byte	0x26
 7269 129a 4D       		.byte	0x4d
 7270 129b 25       		.byte	0x25
ARM GAS  C:\Users\username\AppData\Local\Temp\ccSuCzK2.s 			page 140


 7271 129c 74       		.byte	0x74
 7272 129d 00       		.sleb128 0
 7273 129e 40       		.byte	0x40
 7274 129f 24       		.byte	0x24
 7275 12a0 40       		.byte	0x40
 7276 12a1 26       		.byte	0x26
 7277 12a2 22       		.byte	0x22
 7278 12a3 33       		.byte	0x33
 7279 12a4 26       		.byte	0x26
 7280 12a5 22       		.byte	0x22
 7281 12a6 77       		.byte	0x77
 7282 12a7 00       		.sleb128 0
 7283 12a8 22       		.byte	0x22
 7284 12a9 00       		.byte	0
 7285 12aa 0F       		.uleb128 0xf
 7286 12ab 78000000 		.4byte	.LVL287
 7287 12af 88180000 		.4byte	0x1888
 7288 12b3 D2120000 		.4byte	0x12d2
 7289 12b7 10       		.uleb128 0x10
 7290 12b8 01       		.uleb128 0x1
 7291 12b9 52       		.byte	0x52
 7292 12ba 04       		.uleb128 0x4
 7293 12bb 91       		.byte	0x91
 7294 12bc 58       		.sleb128 -40
 7295 12bd 94       		.byte	0x94
 7296 12be 02       		.byte	0x2
 7297 12bf 10       		.uleb128 0x10
 7298 12c0 01       		.uleb128 0x1
 7299 12c1 51       		.byte	0x51
 7300 12c2 05       		.uleb128 0x5
 7301 12c3 79       		.byte	0x79
 7302 12c4 00       		.sleb128 0
 7303 12c5 75       		.byte	0x75
 7304 12c6 00       		.sleb128 0
 7305 12c7 22       		.byte	0x22
 7306 12c8 10       		.uleb128 0x10
 7307 12c9 01       		.uleb128 0x1
 7308 12ca 50       		.byte	0x50
 7309 12cb 05       		.uleb128 0x5
 7310 12cc 74       		.byte	0x74
 7311 12cd 00       		.sleb128 0
 7312 12ce 7A       		.byte	0x7a
 7313 12cf 00       		.sleb128 0
 7314 12d0 22       		.byte	0x22
 7315 12d1 00       		.byte	0
 7316 12d2 11       		.uleb128 0x11
 7317 12d3 8C000000 		.4byte	.LVL288
 7318 12d7 88180000 		.4byte	0x1888
 7319 12db 10       		.uleb128 0x10
 7320 12dc 01       		.uleb128 0x1
 7321 12dd 52       		.byte	0x52
 7322 12de 04       		.uleb128 0x4
 7323 12df 91       		.byte	0x91
 7324 12e0 5C       		.sleb128 -36
 7325 12e1 94       		.byte	0x94
 7326 12e2 02       		.byte	0x2
 7327 12e3 10       		.uleb128 0x10
ARM GAS  C:\Users\username\AppData\Local\Temp\ccSuCzK2.s 			page 141


 7328 12e4 01       		.uleb128 0x1
 7329 12e5 51       		.byte	0x51
 7330 12e6 05       		.uleb128 0x5
 7331 12e7 79       		.byte	0x79
 7332 12e8 00       		.sleb128 0
 7333 12e9 75       		.byte	0x75
 7334 12ea 00       		.sleb128 0
 7335 12eb 22       		.byte	0x22
 7336 12ec 10       		.uleb128 0x10
 7337 12ed 01       		.uleb128 0x1
 7338 12ee 50       		.byte	0x50
 7339 12ef 05       		.uleb128 0x5
 7340 12f0 74       		.byte	0x74
 7341 12f1 00       		.sleb128 0
 7342 12f2 7A       		.byte	0x7a
 7343 12f3 00       		.sleb128 0
 7344 12f4 22       		.byte	0x22
 7345 12f5 00       		.byte	0
 7346 12f6 00       		.byte	0
 7347 12f7 00       		.byte	0
 7348 12f8 14       		.uleb128 0x14
 7349 12f9 44020000 		.4byte	.LASF56
 7350 12fd 01       		.byte	0x1
 7351 12fe A101     		.2byte	0x1a1
 7352 1300 00000000 		.4byte	.LFB50
 7353 1304 9C000000 		.4byte	.LFE50-.LFB50
 7354 1308 01       		.uleb128 0x1
 7355 1309 9C       		.byte	0x9c
 7356 130a FB130000 		.4byte	0x13fb
 7357 130e 15       		.uleb128 0x15
 7358 130f 7800     		.ascii	"x\000"
 7359 1311 01       		.byte	0x1
 7360 1312 A101     		.2byte	0x1a1
 7361 1314 B8000000 		.4byte	0xb8
 7362 1318 3E120000 		.4byte	.LLST111
 7363 131c 15       		.uleb128 0x15
 7364 131d 7900     		.ascii	"y\000"
 7365 131f 01       		.byte	0x1
 7366 1320 A101     		.2byte	0x1a1
 7367 1322 B8000000 		.4byte	0xb8
 7368 1326 5F120000 		.4byte	.LLST112
 7369 132a 16       		.uleb128 0x16
 7370 132b DE000000 		.4byte	.LASF52
 7371 132f 01       		.byte	0x1
 7372 1330 A201     		.2byte	0x1a2
 7373 1332 A4110000 		.4byte	0x11a4
 7374 1336 80120000 		.4byte	.LLST113
 7375 133a 15       		.uleb128 0x15
 7376 133b 7700     		.ascii	"w\000"
 7377 133d 01       		.byte	0x1
 7378 133e A201     		.2byte	0x1a2
 7379 1340 B8000000 		.4byte	0xb8
 7380 1344 AC120000 		.4byte	.LLST114
 7381 1348 15       		.uleb128 0x15
 7382 1349 6800     		.ascii	"h\000"
 7383 134b 01       		.byte	0x1
 7384 134c A201     		.2byte	0x1a2
ARM GAS  C:\Users\username\AppData\Local\Temp\ccSuCzK2.s 			page 142


 7385 134e B8000000 		.4byte	0xb8
 7386 1352 CD120000 		.4byte	.LLST115
 7387 1356 16       		.uleb128 0x16
 7388 1357 9B010000 		.4byte	.LASF26
 7389 135b 01       		.byte	0x1
 7390 135c A301     		.2byte	0x1a3
 7391 135e C3000000 		.4byte	0xc3
 7392 1362 F9120000 		.4byte	.LLST116
 7393 1366 18       		.uleb128 0x18
 7394 1367 6900     		.ascii	"i\000"
 7395 1369 01       		.byte	0x1
 7396 136a A501     		.2byte	0x1a5
 7397 136c B8000000 		.4byte	0xb8
 7398 1370 3D130000 		.4byte	.LLST117
 7399 1374 18       		.uleb128 0x18
 7400 1375 6A00     		.ascii	"j\000"
 7401 1377 01       		.byte	0x1
 7402 1378 A501     		.2byte	0x1a5
 7403 137a B8000000 		.4byte	0xb8
 7404 137e 66130000 		.4byte	.LLST118
 7405 1382 1E       		.uleb128 0x1e
 7406 1383 D2010000 		.4byte	.LASF53
 7407 1387 01       		.byte	0x1
 7408 1388 A501     		.2byte	0x1a5
 7409 138a B8000000 		.4byte	0xb8
 7410 138e 02       		.uleb128 0x2
 7411 138f 91       		.byte	0x91
 7412 1390 4C       		.sleb128 -52
 7413 1391 1B       		.uleb128 0x1b
 7414 1392 38000000 		.4byte	.LBB14
 7415 1396 3C000000 		.4byte	.LBE14-.LBB14
 7416 139a 1C       		.uleb128 0x1c
 7417 139b DC010000 		.4byte	.LASF55
 7418 139f 01       		.byte	0x1
 7419 13a0 7C01     		.2byte	0x17c
 7420 13a2 94000000 		.4byte	0x94
 7421 13a6 AC130000 		.4byte	0x13ac
 7422 13aa 1D       		.uleb128 0x1d
 7423 13ab 00       		.byte	0
 7424 13ac 0F       		.uleb128 0xf
 7425 13ad 54000000 		.4byte	.LVL304
 7426 13b1 E3180000 		.4byte	0x18e3
 7427 13b5 D5130000 		.4byte	0x13d5
 7428 13b9 10       		.uleb128 0x10
 7429 13ba 01       		.uleb128 0x1
 7430 13bb 50       		.byte	0x50
 7431 13bc 17       		.uleb128 0x17
 7432 13bd 7D       		.byte	0x7d
 7433 13be 04       		.sleb128 4
 7434 13bf 94       		.byte	0x94
 7435 13c0 02       		.byte	0x2
 7436 13c1 40       		.byte	0x40
 7437 13c2 24       		.byte	0x24
 7438 13c3 40       		.byte	0x40
 7439 13c4 26       		.byte	0x26
 7440 13c5 77       		.byte	0x77
 7441 13c6 00       		.sleb128 0
ARM GAS  C:\Users\username\AppData\Local\Temp\ccSuCzK2.s 			page 143


 7442 13c7 40       		.byte	0x40
 7443 13c8 24       		.byte	0x24
 7444 13c9 40       		.byte	0x40
 7445 13ca 26       		.byte	0x26
 7446 13cb 1E       		.byte	0x1e
 7447 13cc 74       		.byte	0x74
 7448 13cd 00       		.sleb128 0
 7449 13ce 33       		.byte	0x33
 7450 13cf 26       		.byte	0x26
 7451 13d0 22       		.byte	0x22
 7452 13d1 79       		.byte	0x79
 7453 13d2 00       		.sleb128 0
 7454 13d3 22       		.byte	0x22
 7455 13d4 00       		.byte	0
 7456 13d5 11       		.uleb128 0x11
 7457 13d6 74000000 		.4byte	.LVL305
 7458 13da 88180000 		.4byte	0x1888
 7459 13de 10       		.uleb128 0x10
 7460 13df 01       		.uleb128 0x1
 7461 13e0 52       		.byte	0x52
 7462 13e1 04       		.uleb128 0x4
 7463 13e2 91       		.byte	0x91
 7464 13e3 50       		.sleb128 -48
 7465 13e4 94       		.byte	0x94
 7466 13e5 02       		.byte	0x2
 7467 13e6 10       		.uleb128 0x10
 7468 13e7 01       		.uleb128 0x1
 7469 13e8 51       		.byte	0x51
 7470 13e9 05       		.uleb128 0x5
 7471 13ea 7A       		.byte	0x7a
 7472 13eb 00       		.sleb128 0
 7473 13ec 77       		.byte	0x77
 7474 13ed 00       		.sleb128 0
 7475 13ee 22       		.byte	0x22
 7476 13ef 10       		.uleb128 0x10
 7477 13f0 01       		.uleb128 0x1
 7478 13f1 50       		.byte	0x50
 7479 13f2 05       		.uleb128 0x5
 7480 13f3 7B       		.byte	0x7b
 7481 13f4 00       		.sleb128 0
 7482 13f5 75       		.byte	0x75
 7483 13f6 00       		.sleb128 0
 7484 13f7 22       		.byte	0x22
 7485 13f8 00       		.byte	0
 7486 13f9 00       		.byte	0
 7487 13fa 00       		.byte	0
 7488 13fb 14       		.uleb128 0x14
 7489 13fc E5020000 		.4byte	.LASF57
 7490 1400 01       		.byte	0x1
 7491 1401 CD01     		.2byte	0x1cd
 7492 1403 00000000 		.4byte	.LFB53
 7493 1407 24010000 		.4byte	.LFE53-.LFB53
 7494 140b 01       		.uleb128 0x1
 7495 140c 9C       		.byte	0x9c
 7496 140d 8B150000 		.4byte	0x158b
 7497 1411 15       		.uleb128 0x15
 7498 1412 7800     		.ascii	"x\000"
ARM GAS  C:\Users\username\AppData\Local\Temp\ccSuCzK2.s 			page 144


 7499 1414 01       		.byte	0x1
 7500 1415 CD01     		.2byte	0x1cd
 7501 1417 B8000000 		.4byte	0xb8
 7502 141b 9B130000 		.4byte	.LLST119
 7503 141f 15       		.uleb128 0x15
 7504 1420 7900     		.ascii	"y\000"
 7505 1422 01       		.byte	0x1
 7506 1423 CD01     		.2byte	0x1cd
 7507 1425 B8000000 		.4byte	0xb8
 7508 1429 BC130000 		.4byte	.LLST120
 7509 142d 15       		.uleb128 0x15
 7510 142e 6300     		.ascii	"c\000"
 7511 1430 01       		.byte	0x1
 7512 1431 CD01     		.2byte	0x1cd
 7513 1433 42000000 		.4byte	0x42
 7514 1437 DD130000 		.4byte	.LLST121
 7515 143b 16       		.uleb128 0x16
 7516 143c 9B010000 		.4byte	.LASF26
 7517 1440 01       		.byte	0x1
 7518 1441 CE01     		.2byte	0x1ce
 7519 1443 C3000000 		.4byte	0xc3
 7520 1447 0A140000 		.4byte	.LLST122
 7521 144b 15       		.uleb128 0x15
 7522 144c 626700   		.ascii	"bg\000"
 7523 144f 01       		.byte	0x1
 7524 1450 CE01     		.2byte	0x1ce
 7525 1452 C3000000 		.4byte	0xc3
 7526 1456 2B140000 		.4byte	.LLST123
 7527 145a 16       		.uleb128 0x16
 7528 145b 99030000 		.4byte	.LASF58
 7529 145f 01       		.byte	0x1
 7530 1460 CE01     		.2byte	0x1ce
 7531 1462 AD000000 		.4byte	0xad
 7532 1466 57140000 		.4byte	.LLST124
 7533 146a 18       		.uleb128 0x18
 7534 146b 6900     		.ascii	"i\000"
 7535 146d 01       		.byte	0x1
 7536 146e D801     		.2byte	0x1d8
 7537 1470 A2000000 		.4byte	0xa2
 7538 1474 9B140000 		.4byte	.LLST125
 7539 1478 18       		.uleb128 0x18
 7540 1479 6A00     		.ascii	"j\000"
 7541 147b 01       		.byte	0x1
 7542 147c D901     		.2byte	0x1d9
 7543 147e A2000000 		.4byte	0xa2
 7544 1482 C5140000 		.4byte	.LLST126
 7545 1486 1B       		.uleb128 0x1b
 7546 1487 60000000 		.4byte	.LBB15
 7547 148b 9C000000 		.4byte	.LBE15-.LBB15
 7548 148f 19       		.uleb128 0x19
 7549 1490 F2000000 		.4byte	.LASF59
 7550 1494 01       		.byte	0x1
 7551 1495 DB01     		.2byte	0x1db
 7552 1497 42000000 		.4byte	0x42
 7553 149b EF140000 		.4byte	.LLST127
 7554 149f 0F       		.uleb128 0xf
 7555 14a0 94000000 		.4byte	.LVL325
ARM GAS  C:\Users\username\AppData\Local\Temp\ccSuCzK2.s 			page 145


 7556 14a4 88180000 		.4byte	0x1888
 7557 14a8 CD140000 		.4byte	0x14cd
 7558 14ac 10       		.uleb128 0x10
 7559 14ad 01       		.uleb128 0x1
 7560 14ae 52       		.byte	0x52
 7561 14af 02       		.uleb128 0x2
 7562 14b0 78       		.byte	0x78
 7563 14b1 00       		.sleb128 0
 7564 14b2 10       		.uleb128 0x10
 7565 14b3 01       		.uleb128 0x1
 7566 14b4 51       		.byte	0x51
 7567 14b5 09       		.uleb128 0x9
 7568 14b6 74       		.byte	0x74
 7569 14b7 00       		.sleb128 0
 7570 14b8 48       		.byte	0x48
 7571 14b9 24       		.byte	0x24
 7572 14ba 48       		.byte	0x48
 7573 14bb 26       		.byte	0x26
 7574 14bc 7A       		.byte	0x7a
 7575 14bd 00       		.sleb128 0
 7576 14be 22       		.byte	0x22
 7577 14bf 10       		.uleb128 0x10
 7578 14c0 01       		.uleb128 0x1
 7579 14c1 50       		.byte	0x50
 7580 14c2 09       		.uleb128 0x9
 7581 14c3 76       		.byte	0x76
 7582 14c4 00       		.sleb128 0
 7583 14c5 48       		.byte	0x48
 7584 14c6 24       		.byte	0x24
 7585 14c7 48       		.byte	0x48
 7586 14c8 26       		.byte	0x26
 7587 14c9 79       		.byte	0x79
 7588 14ca 00       		.sleb128 0
 7589 14cb 22       		.byte	0x22
 7590 14cc 00       		.byte	0
 7591 14cd 0F       		.uleb128 0xf
 7592 14ce B4000000 		.4byte	.LVL326
 7593 14d2 C1090000 		.4byte	0x9c1
 7594 14d6 16150000 		.4byte	0x1516
 7595 14da 10       		.uleb128 0x10
 7596 14db 01       		.uleb128 0x1
 7597 14dc 53       		.byte	0x53
 7598 14dd 02       		.uleb128 0x2
 7599 14de 77       		.byte	0x77
 7600 14df 00       		.sleb128 0
 7601 14e0 10       		.uleb128 0x10
 7602 14e1 01       		.uleb128 0x1
 7603 14e2 52       		.byte	0x52
 7604 14e3 02       		.uleb128 0x2
 7605 14e4 77       		.byte	0x77
 7606 14e5 00       		.sleb128 0
 7607 14e6 10       		.uleb128 0x10
 7608 14e7 01       		.uleb128 0x1
 7609 14e8 51       		.byte	0x51
 7610 14e9 10       		.uleb128 0x10
 7611 14ea 74       		.byte	0x74
 7612 14eb 00       		.sleb128 0
ARM GAS  C:\Users\username\AppData\Local\Temp\ccSuCzK2.s 			page 146


 7613 14ec 48       		.byte	0x48
 7614 14ed 24       		.byte	0x24
 7615 14ee 48       		.byte	0x48
 7616 14ef 26       		.byte	0x26
 7617 14f0 77       		.byte	0x77
 7618 14f1 00       		.sleb128 0
 7619 14f2 0A       		.byte	0xa
 7620 14f3 FFFF     		.2byte	0xffff
 7621 14f5 1A       		.byte	0x1a
 7622 14f6 1E       		.byte	0x1e
 7623 14f7 7A       		.byte	0x7a
 7624 14f8 00       		.sleb128 0
 7625 14f9 22       		.byte	0x22
 7626 14fa 10       		.uleb128 0x10
 7627 14fb 01       		.uleb128 0x1
 7628 14fc 50       		.byte	0x50
 7629 14fd 10       		.uleb128 0x10
 7630 14fe 76       		.byte	0x76
 7631 14ff 00       		.sleb128 0
 7632 1500 48       		.byte	0x48
 7633 1501 24       		.byte	0x24
 7634 1502 48       		.byte	0x48
 7635 1503 26       		.byte	0x26
 7636 1504 77       		.byte	0x77
 7637 1505 00       		.sleb128 0
 7638 1506 0A       		.byte	0xa
 7639 1507 FFFF     		.2byte	0xffff
 7640 1509 1A       		.byte	0x1a
 7641 150a 1E       		.byte	0x1e
 7642 150b 79       		.byte	0x79
 7643 150c 00       		.sleb128 0
 7644 150d 22       		.byte	0x22
 7645 150e 10       		.uleb128 0x10
 7646 150f 02       		.uleb128 0x2
 7647 1510 7D       		.byte	0x7d
 7648 1511 00       		.sleb128 0
 7649 1512 02       		.uleb128 0x2
 7650 1513 78       		.byte	0x78
 7651 1514 00       		.sleb128 0
 7652 1515 00       		.byte	0
 7653 1516 0F       		.uleb128 0xf
 7654 1517 D0000000 		.4byte	.LVL327
 7655 151b 88180000 		.4byte	0x1888
 7656 151f 44150000 		.4byte	0x1544
 7657 1523 10       		.uleb128 0x10
 7658 1524 01       		.uleb128 0x1
 7659 1525 52       		.byte	0x52
 7660 1526 02       		.uleb128 0x2
 7661 1527 7B       		.byte	0x7b
 7662 1528 00       		.sleb128 0
 7663 1529 10       		.uleb128 0x10
 7664 152a 01       		.uleb128 0x1
 7665 152b 51       		.byte	0x51
 7666 152c 09       		.uleb128 0x9
 7667 152d 74       		.byte	0x74
 7668 152e 00       		.sleb128 0
 7669 152f 48       		.byte	0x48
ARM GAS  C:\Users\username\AppData\Local\Temp\ccSuCzK2.s 			page 147


 7670 1530 24       		.byte	0x24
 7671 1531 48       		.byte	0x48
 7672 1532 26       		.byte	0x26
 7673 1533 7A       		.byte	0x7a
 7674 1534 00       		.sleb128 0
 7675 1535 22       		.byte	0x22
 7676 1536 10       		.uleb128 0x10
 7677 1537 01       		.uleb128 0x1
 7678 1538 50       		.byte	0x50
 7679 1539 09       		.uleb128 0x9
 7680 153a 76       		.byte	0x76
 7681 153b 00       		.sleb128 0
 7682 153c 48       		.byte	0x48
 7683 153d 24       		.byte	0x24
 7684 153e 48       		.byte	0x48
 7685 153f 26       		.byte	0x26
 7686 1540 79       		.byte	0x79
 7687 1541 00       		.sleb128 0
 7688 1542 22       		.byte	0x22
 7689 1543 00       		.byte	0
 7690 1544 11       		.uleb128 0x11
 7691 1545 F0000000 		.4byte	.LVL328
 7692 1549 C1090000 		.4byte	0x9c1
 7693 154d 10       		.uleb128 0x10
 7694 154e 01       		.uleb128 0x1
 7695 154f 53       		.byte	0x53
 7696 1550 02       		.uleb128 0x2
 7697 1551 77       		.byte	0x77
 7698 1552 00       		.sleb128 0
 7699 1553 10       		.uleb128 0x10
 7700 1554 01       		.uleb128 0x1
 7701 1555 52       		.byte	0x52
 7702 1556 02       		.uleb128 0x2
 7703 1557 77       		.byte	0x77
 7704 1558 00       		.sleb128 0
 7705 1559 10       		.uleb128 0x10
 7706 155a 01       		.uleb128 0x1
 7707 155b 51       		.byte	0x51
 7708 155c 10       		.uleb128 0x10
 7709 155d 74       		.byte	0x74
 7710 155e 00       		.sleb128 0
 7711 155f 48       		.byte	0x48
 7712 1560 24       		.byte	0x24
 7713 1561 48       		.byte	0x48
 7714 1562 26       		.byte	0x26
 7715 1563 77       		.byte	0x77
 7716 1564 00       		.sleb128 0
 7717 1565 0A       		.byte	0xa
 7718 1566 FFFF     		.2byte	0xffff
 7719 1568 1A       		.byte	0x1a
 7720 1569 1E       		.byte	0x1e
 7721 156a 7A       		.byte	0x7a
 7722 156b 00       		.sleb128 0
 7723 156c 22       		.byte	0x22
 7724 156d 10       		.uleb128 0x10
 7725 156e 01       		.uleb128 0x1
 7726 156f 50       		.byte	0x50
ARM GAS  C:\Users\username\AppData\Local\Temp\ccSuCzK2.s 			page 148


 7727 1570 10       		.uleb128 0x10
 7728 1571 76       		.byte	0x76
 7729 1572 00       		.sleb128 0
 7730 1573 48       		.byte	0x48
 7731 1574 24       		.byte	0x24
 7732 1575 48       		.byte	0x48
 7733 1576 26       		.byte	0x26
 7734 1577 77       		.byte	0x77
 7735 1578 00       		.sleb128 0
 7736 1579 0A       		.byte	0xa
 7737 157a FFFF     		.2byte	0xffff
 7738 157c 1A       		.byte	0x1a
 7739 157d 1E       		.byte	0x1e
 7740 157e 79       		.byte	0x79
 7741 157f 00       		.sleb128 0
 7742 1580 22       		.byte	0x22
 7743 1581 10       		.uleb128 0x10
 7744 1582 02       		.uleb128 0x2
 7745 1583 7D       		.byte	0x7d
 7746 1584 00       		.sleb128 0
 7747 1585 02       		.uleb128 0x2
 7748 1586 7B       		.byte	0x7b
 7749 1587 00       		.sleb128 0
 7750 1588 00       		.byte	0
 7751 1589 00       		.byte	0
 7752 158a 00       		.byte	0
 7753 158b 14       		.uleb128 0x14
 7754 158c 06000000 		.4byte	.LASF60
 7755 1590 01       		.byte	0x1
 7756 1591 B801     		.2byte	0x1b8
 7757 1593 00000000 		.4byte	.LFB52
 7758 1597 A4000000 		.4byte	.LFE52-.LFB52
 7759 159b 01       		.uleb128 0x1
 7760 159c 9C       		.byte	0x9c
 7761 159d C1150000 		.4byte	0x15c1
 7762 15a1 15       		.uleb128 0x15
 7763 15a2 6300     		.ascii	"c\000"
 7764 15a4 01       		.byte	0x1
 7765 15a5 B801     		.2byte	0x1b8
 7766 15a7 AD000000 		.4byte	0xad
 7767 15ab 0D150000 		.4byte	.LLST128
 7768 15af 11       		.uleb128 0x11
 7769 15b0 44000000 		.4byte	.LVL337
 7770 15b4 FB130000 		.4byte	0x13fb
 7771 15b8 10       		.uleb128 0x10
 7772 15b9 02       		.uleb128 0x2
 7773 15ba 7D       		.byte	0x7d
 7774 15bb 04       		.sleb128 4
 7775 15bc 02       		.uleb128 0x2
 7776 15bd 76       		.byte	0x76
 7777 15be 00       		.sleb128 0
 7778 15bf 00       		.byte	0
 7779 15c0 00       		.byte	0
 7780 15c1 14       		.uleb128 0x14
 7781 15c2 8F000000 		.4byte	.LASF61
 7782 15c6 01       		.byte	0x1
 7783 15c7 B101     		.2byte	0x1b1
ARM GAS  C:\Users\username\AppData\Local\Temp\ccSuCzK2.s 			page 149


 7784 15c9 00000000 		.4byte	.LFB51
 7785 15cd 1C000000 		.4byte	.LFE51-.LFB51
 7786 15d1 01       		.uleb128 0x1
 7787 15d2 9C       		.byte	0x9c
 7788 15d3 11160000 		.4byte	0x1611
 7789 15d7 16       		.uleb128 0x16
 7790 15d8 69010000 		.4byte	.LASF62
 7791 15dc 01       		.byte	0x1
 7792 15dd B101     		.2byte	0x1b1
 7793 15df EB000000 		.4byte	0xeb
 7794 15e3 2E150000 		.4byte	.LLST129
 7795 15e7 19       		.uleb128 0x19
 7796 15e8 90030000 		.4byte	.LASF63
 7797 15ec 01       		.byte	0x1
 7798 15ed B201     		.2byte	0x1b2
 7799 15ef 9B000000 		.4byte	0x9b
 7800 15f3 5A150000 		.4byte	.LLST130
 7801 15f7 1F       		.uleb128 0x1f
 7802 15f8 0E000000 		.4byte	.LVL341
 7803 15fc 8B150000 		.4byte	0x158b
 7804 1600 11       		.uleb128 0x11
 7805 1601 16000000 		.4byte	.LVL343
 7806 1605 F5180000 		.4byte	0x18f5
 7807 1609 10       		.uleb128 0x10
 7808 160a 01       		.uleb128 0x1
 7809 160b 50       		.byte	0x50
 7810 160c 02       		.uleb128 0x2
 7811 160d 75       		.byte	0x75
 7812 160e 00       		.sleb128 0
 7813 160f 00       		.byte	0
 7814 1610 00       		.byte	0
 7815 1611 14       		.uleb128 0x14
 7816 1612 35010000 		.4byte	.LASF64
 7817 1616 01       		.byte	0x1
 7818 1617 F701     		.2byte	0x1f7
 7819 1619 00000000 		.4byte	.LFB54
 7820 161d 14000000 		.4byte	.LFE54-.LFB54
 7821 1621 01       		.uleb128 0x1
 7822 1622 9C       		.byte	0x9c
 7823 1623 40160000 		.4byte	0x1640
 7824 1627 20       		.uleb128 0x20
 7825 1628 7800     		.ascii	"x\000"
 7826 162a 01       		.byte	0x1
 7827 162b F701     		.2byte	0x1f7
 7828 162d B8000000 		.4byte	0xb8
 7829 1631 01       		.uleb128 0x1
 7830 1632 50       		.byte	0x50
 7831 1633 20       		.uleb128 0x20
 7832 1634 7900     		.ascii	"y\000"
 7833 1636 01       		.byte	0x1
 7834 1637 F701     		.2byte	0x1f7
 7835 1639 B8000000 		.4byte	0xb8
 7836 163d 01       		.uleb128 0x1
 7837 163e 51       		.byte	0x51
 7838 163f 00       		.byte	0
 7839 1640 21       		.uleb128 0x21
 7840 1641 3F010000 		.4byte	.LASF65
ARM GAS  C:\Users\username\AppData\Local\Temp\ccSuCzK2.s 			page 150


 7841 1645 01       		.byte	0x1
 7842 1646 FD01     		.2byte	0x1fd
 7843 1648 B8000000 		.4byte	0xb8
 7844 164c 00000000 		.4byte	.LFB55
 7845 1650 0C000000 		.4byte	.LFE55-.LFB55
 7846 1654 01       		.uleb128 0x1
 7847 1655 9C       		.byte	0x9c
 7848 1656 21       		.uleb128 0x21
 7849 1657 5E010000 		.4byte	.LASF66
 7850 165b 01       		.byte	0x1
 7851 165c 0302     		.2byte	0x203
 7852 165e B8000000 		.4byte	0xb8
 7853 1662 00000000 		.4byte	.LFB56
 7854 1666 0C000000 		.4byte	.LFE56-.LFB56
 7855 166a 01       		.uleb128 0x1
 7856 166b 9C       		.byte	0x9c
 7857 166c 14       		.uleb128 0x14
 7858 166d 60000000 		.4byte	.LASF67
 7859 1671 01       		.byte	0x1
 7860 1672 0802     		.2byte	0x208
 7861 1674 00000000 		.4byte	.LFB57
 7862 1678 10000000 		.4byte	.LFE57-.LFB57
 7863 167c 01       		.uleb128 0x1
 7864 167d 9C       		.byte	0x9c
 7865 167e 91160000 		.4byte	0x1691
 7866 1682 15       		.uleb128 0x15
 7867 1683 7300     		.ascii	"s\000"
 7868 1685 01       		.byte	0x1
 7869 1686 0802     		.2byte	0x208
 7870 1688 AD000000 		.4byte	0xad
 7871 168c 79150000 		.4byte	.LLST131
 7872 1690 00       		.byte	0
 7873 1691 14       		.uleb128 0x14
 7874 1692 9E030000 		.4byte	.LASF68
 7875 1696 01       		.byte	0x1
 7876 1697 0D02     		.2byte	0x20d
 7877 1699 00000000 		.4byte	.LFB58
 7878 169d 14000000 		.4byte	.LFE58-.LFB58
 7879 16a1 01       		.uleb128 0x1
 7880 16a2 9C       		.byte	0x9c
 7881 16a3 B4160000 		.4byte	0x16b4
 7882 16a7 20       		.uleb128 0x20
 7883 16a8 6300     		.ascii	"c\000"
 7884 16aa 01       		.byte	0x1
 7885 16ab 0D02     		.2byte	0x20d
 7886 16ad C3000000 		.4byte	0xc3
 7887 16b1 01       		.uleb128 0x1
 7888 16b2 50       		.byte	0x50
 7889 16b3 00       		.byte	0
 7890 16b4 14       		.uleb128 0x14
 7891 16b5 26010000 		.4byte	.LASF69
 7892 16b9 01       		.byte	0x1
 7893 16ba 1402     		.2byte	0x214
 7894 16bc 00000000 		.4byte	.LFB59
 7895 16c0 14000000 		.4byte	.LFE59-.LFB59
 7896 16c4 01       		.uleb128 0x1
 7897 16c5 9C       		.byte	0x9c
ARM GAS  C:\Users\username\AppData\Local\Temp\ccSuCzK2.s 			page 151


 7898 16c6 E3160000 		.4byte	0x16e3
 7899 16ca 20       		.uleb128 0x20
 7900 16cb 6300     		.ascii	"c\000"
 7901 16cd 01       		.byte	0x1
 7902 16ce 1402     		.2byte	0x214
 7903 16d0 C3000000 		.4byte	0xc3
 7904 16d4 01       		.uleb128 0x1
 7905 16d5 50       		.byte	0x50
 7906 16d6 20       		.uleb128 0x20
 7907 16d7 6200     		.ascii	"b\000"
 7908 16d9 01       		.byte	0x1
 7909 16da 1402     		.2byte	0x214
 7910 16dc C3000000 		.4byte	0xc3
 7911 16e0 01       		.uleb128 0x1
 7912 16e1 51       		.byte	0x51
 7913 16e2 00       		.byte	0
 7914 16e3 14       		.uleb128 0x14
 7915 16e4 C6010000 		.4byte	.LASF70
 7916 16e8 01       		.byte	0x1
 7917 16e9 1902     		.2byte	0x219
 7918 16eb 00000000 		.4byte	.LFB60
 7919 16ef 0C000000 		.4byte	.LFE60-.LFB60
 7920 16f3 01       		.uleb128 0x1
 7921 16f4 9C       		.byte	0x9c
 7922 16f5 06170000 		.4byte	0x1706
 7923 16f9 20       		.uleb128 0x20
 7924 16fa 7700     		.ascii	"w\000"
 7925 16fc 01       		.byte	0x1
 7926 16fd 1902     		.2byte	0x219
 7927 16ff AD000000 		.4byte	0xad
 7928 1703 01       		.uleb128 0x1
 7929 1704 50       		.byte	0x50
 7930 1705 00       		.byte	0
 7931 1706 21       		.uleb128 0x21
 7932 1707 F6010000 		.4byte	.LASF71
 7933 170b 01       		.byte	0x1
 7934 170c 1D02     		.2byte	0x21d
 7935 170e AD000000 		.4byte	0xad
 7936 1712 00000000 		.4byte	.LFB61
 7937 1716 0C000000 		.4byte	.LFE61-.LFB61
 7938 171a 01       		.uleb128 0x1
 7939 171b 9C       		.byte	0x9c
 7940 171c 14       		.uleb128 0x14
 7941 171d 0C000000 		.4byte	.LASF72
 7942 1721 01       		.byte	0x1
 7943 1722 2202     		.2byte	0x222
 7944 1724 00000000 		.4byte	.LFB62
 7945 1728 54000000 		.4byte	.LFE62-.LFB62
 7946 172c 01       		.uleb128 0x1
 7947 172d 9C       		.byte	0x9c
 7948 172e 41170000 		.4byte	0x1741
 7949 1732 15       		.uleb128 0x15
 7950 1733 7800     		.ascii	"x\000"
 7951 1735 01       		.byte	0x1
 7952 1736 2202     		.2byte	0x222
 7953 1738 AD000000 		.4byte	0xad
 7954 173c 9A150000 		.4byte	.LLST132
ARM GAS  C:\Users\username\AppData\Local\Temp\ccSuCzK2.s 			page 152


 7955 1740 00       		.byte	0
 7956 1741 14       		.uleb128 0x14
 7957 1742 69040000 		.4byte	.LASF73
 7958 1746 01       		.byte	0x1
 7959 1747 3D02     		.2byte	0x23d
 7960 1749 00000000 		.4byte	.LFB63
 7961 174d 0C000000 		.4byte	.LFE63-.LFB63
 7962 1751 01       		.uleb128 0x1
 7963 1752 9C       		.byte	0x9c
 7964 1753 64170000 		.4byte	0x1764
 7965 1757 20       		.uleb128 0x20
 7966 1758 7800     		.ascii	"x\000"
 7967 175a 01       		.byte	0x1
 7968 175b 3D02     		.2byte	0x23d
 7969 175d AD000000 		.4byte	0xad
 7970 1761 01       		.uleb128 0x1
 7971 1762 50       		.byte	0x50
 7972 1763 00       		.byte	0
 7973 1764 21       		.uleb128 0x21
 7974 1765 11010000 		.4byte	.LASF74
 7975 1769 01       		.byte	0x1
 7976 176a 4402     		.2byte	0x244
 7977 176c B8000000 		.4byte	0xb8
 7978 1770 00000000 		.4byte	.LFB64
 7979 1774 0C000000 		.4byte	.LFE64-.LFB64
 7980 1778 01       		.uleb128 0x1
 7981 1779 9C       		.byte	0x9c
 7982 177a 21       		.uleb128 0x21
 7983 177b B5030000 		.4byte	.LASF75
 7984 177f 01       		.byte	0x1
 7985 1780 4802     		.2byte	0x248
 7986 1782 B8000000 		.4byte	0xb8
 7987 1786 00000000 		.4byte	.LFB65
 7988 178a 0C000000 		.4byte	.LFE65-.LFB65
 7989 178e 01       		.uleb128 0x1
 7990 178f 9C       		.byte	0x9c
 7991 1790 22       		.uleb128 0x22
 7992 1791 42000000 		.4byte	0x42
 7993 1795 A1170000 		.4byte	0x17a1
 7994 1799 23       		.uleb128 0x23
 7995 179a E4000000 		.4byte	0xe4
 7996 179e FF04     		.2byte	0x4ff
 7997 17a0 00       		.byte	0
 7998 17a1 0D       		.uleb128 0xd
 7999 17a2 41000000 		.4byte	.LASF76
 8000 17a6 05       		.byte	0x5
 8001 17a7 0C       		.byte	0xc
 8002 17a8 B2170000 		.4byte	0x17b2
 8003 17ac 05       		.uleb128 0x5
 8004 17ad 03       		.byte	0x3
 8005 17ae 00000000 		.4byte	font
 8006 17b2 06       		.uleb128 0x6
 8007 17b3 90170000 		.4byte	0x1790
 8008 17b7 24       		.uleb128 0x24
 8009 17b8 17010000 		.4byte	.LASF77
 8010 17bc 06       		.byte	0x6
 8011 17bd 60       		.byte	0x60
ARM GAS  C:\Users\username\AppData\Local\Temp\ccSuCzK2.s 			page 153


 8012 17be C8170000 		.4byte	0x17c8
 8013 17c2 05       		.uleb128 0x5
 8014 17c3 03       		.byte	0x3
 8015 17c4 00000000 		.4byte	WIDTH
 8016 17c8 06       		.uleb128 0x6
 8017 17c9 B8000000 		.4byte	0xb8
 8018 17cd 24       		.uleb128 0x24
 8019 17ce 89030000 		.4byte	.LASF78
 8020 17d2 06       		.byte	0x6
 8021 17d3 60       		.byte	0x60
 8022 17d4 C8170000 		.4byte	0x17c8
 8023 17d8 05       		.uleb128 0x5
 8024 17d9 03       		.byte	0x3
 8025 17da 00000000 		.4byte	HEIGHT
 8026 17de 24       		.uleb128 0x24
 8027 17df 83010000 		.4byte	.LASF79
 8028 17e3 06       		.byte	0x6
 8029 17e4 61       		.byte	0x61
 8030 17e5 B8000000 		.4byte	0xb8
 8031 17e9 05       		.uleb128 0x5
 8032 17ea 03       		.byte	0x3
 8033 17eb 00000000 		.4byte	_width
 8034 17ef 24       		.uleb128 0x24
 8035 17f0 00010000 		.4byte	.LASF80
 8036 17f4 06       		.byte	0x6
 8037 17f5 61       		.byte	0x61
 8038 17f6 B8000000 		.4byte	0xb8
 8039 17fa 05       		.uleb128 0x5
 8040 17fb 03       		.byte	0x3
 8041 17fc 00000000 		.4byte	_height
 8042 1800 24       		.uleb128 0x24
 8043 1801 B9000000 		.4byte	.LASF81
 8044 1805 06       		.byte	0x6
 8045 1806 62       		.byte	0x62
 8046 1807 B8000000 		.4byte	0xb8
 8047 180b 05       		.uleb128 0x5
 8048 180c 03       		.byte	0x3
 8049 180d 00000000 		.4byte	cursor_x
 8050 1811 24       		.uleb128 0x24
 8051 1812 72000000 		.4byte	.LASF82
 8052 1816 06       		.byte	0x6
 8053 1817 62       		.byte	0x62
 8054 1818 B8000000 		.4byte	0xb8
 8055 181c 05       		.uleb128 0x5
 8056 181d 03       		.byte	0x3
 8057 181e 00000000 		.4byte	cursor_y
 8058 1822 24       		.uleb128 0x24
 8059 1823 24020000 		.4byte	.LASF83
 8060 1827 06       		.byte	0x6
 8061 1828 63       		.byte	0x63
 8062 1829 C3000000 		.4byte	0xc3
 8063 182d 05       		.uleb128 0x5
 8064 182e 03       		.byte	0x3
 8065 182f 00000000 		.4byte	textcolor
 8066 1833 24       		.uleb128 0x24
 8067 1834 44030000 		.4byte	.LASF84
 8068 1838 06       		.byte	0x6
ARM GAS  C:\Users\username\AppData\Local\Temp\ccSuCzK2.s 			page 154


 8069 1839 63       		.byte	0x63
 8070 183a C3000000 		.4byte	0xc3
 8071 183e 05       		.uleb128 0x5
 8072 183f 03       		.byte	0x3
 8073 1840 00000000 		.4byte	textbgcolor
 8074 1844 24       		.uleb128 0x24
 8075 1845 1D010000 		.4byte	.LASF85
 8076 1849 06       		.byte	0x6
 8077 184a 64       		.byte	0x64
 8078 184b AD000000 		.4byte	0xad
 8079 184f 05       		.uleb128 0x5
 8080 1850 03       		.byte	0x3
 8081 1851 00000000 		.4byte	textsize
 8082 1855 24       		.uleb128 0x24
 8083 1856 31030000 		.4byte	.LASF86
 8084 185a 06       		.byte	0x6
 8085 185b 64       		.byte	0x64
 8086 185c AD000000 		.4byte	0xad
 8087 1860 05       		.uleb128 0x5
 8088 1861 03       		.byte	0x3
 8089 1862 00000000 		.4byte	rotation
 8090 1866 24       		.uleb128 0x24
 8091 1867 A9000000 		.4byte	.LASF87
 8092 186b 06       		.byte	0x6
 8093 186c 65       		.byte	0x65
 8094 186d AD000000 		.4byte	0xad
 8095 1871 05       		.uleb128 0x5
 8096 1872 03       		.byte	0x3
 8097 1873 00000000 		.4byte	wrap
 8098 1877 24       		.uleb128 0x24
 8099 1878 C2000000 		.4byte	.LASF88
 8100 187c 06       		.byte	0x6
 8101 187d 66       		.byte	0x66
 8102 187e AD000000 		.4byte	0xad
 8103 1882 05       		.uleb128 0x5
 8104 1883 03       		.byte	0x3
 8105 1884 00000000 		.4byte	_cp437
 8106 1888 25       		.uleb128 0x25
 8107 1889 78020000 		.4byte	.LASF89
 8108 188d 07       		.byte	0x7
 8109 188e 4D       		.byte	0x4d
 8110 188f A3180000 		.4byte	0x18a3
 8111 1893 26       		.uleb128 0x26
 8112 1894 B8000000 		.4byte	0xb8
 8113 1898 26       		.uleb128 0x26
 8114 1899 B8000000 		.4byte	0xb8
 8115 189d 26       		.uleb128 0x26
 8116 189e C3000000 		.4byte	0xc3
 8117 18a2 00       		.byte	0
 8118 18a3 25       		.uleb128 0x25
 8119 18a4 18000000 		.4byte	.LASF90
 8120 18a8 07       		.byte	0x7
 8121 18a9 57       		.byte	0x57
 8122 18aa C3180000 		.4byte	0x18c3
 8123 18ae 26       		.uleb128 0x26
 8124 18af B8000000 		.4byte	0xb8
 8125 18b3 26       		.uleb128 0x26
ARM GAS  C:\Users\username\AppData\Local\Temp\ccSuCzK2.s 			page 155


 8126 18b4 B8000000 		.4byte	0xb8
 8127 18b8 26       		.uleb128 0x26
 8128 18b9 B8000000 		.4byte	0xb8
 8129 18bd 26       		.uleb128 0x26
 8130 18be C3000000 		.4byte	0xc3
 8131 18c2 00       		.byte	0
 8132 18c3 25       		.uleb128 0x25
 8133 18c4 FD020000 		.4byte	.LASF91
 8134 18c8 07       		.byte	0x7
 8135 18c9 55       		.byte	0x55
 8136 18ca E3180000 		.4byte	0x18e3
 8137 18ce 26       		.uleb128 0x26
 8138 18cf B8000000 		.4byte	0xb8
 8139 18d3 26       		.uleb128 0x26
 8140 18d4 B8000000 		.4byte	0xb8
 8141 18d8 26       		.uleb128 0x26
 8142 18d9 B8000000 		.4byte	0xb8
 8143 18dd 26       		.uleb128 0x26
 8144 18de C3000000 		.4byte	0xc3
 8145 18e2 00       		.byte	0
 8146 18e3 1C       		.uleb128 0x1c
 8147 18e4 DC010000 		.4byte	.LASF55
 8148 18e8 01       		.byte	0x1
 8149 18e9 7C01     		.2byte	0x17c
 8150 18eb 94000000 		.4byte	0x94
 8151 18ef F5180000 		.4byte	0x18f5
 8152 18f3 1D       		.uleb128 0x1d
 8153 18f4 00       		.byte	0
 8154 18f5 27       		.uleb128 0x27
 8155 18f6 EE020000 		.4byte	.LASF92
 8156 18fa 08       		.byte	0x8
 8157 18fb 21       		.byte	0x21
 8158 18fc D9000000 		.4byte	0xd9
 8159 1900 26       		.uleb128 0x26
 8160 1901 F8000000 		.4byte	0xf8
 8161 1905 00       		.byte	0
 8162 1906 00       		.byte	0
 8163              		.section	.debug_abbrev,"",%progbits
 8164              	.Ldebug_abbrev0:
 8165 0000 01       		.uleb128 0x1
 8166 0001 11       		.uleb128 0x11
 8167 0002 01       		.byte	0x1
 8168 0003 25       		.uleb128 0x25
 8169 0004 0E       		.uleb128 0xe
 8170 0005 13       		.uleb128 0x13
 8171 0006 0B       		.uleb128 0xb
 8172 0007 03       		.uleb128 0x3
 8173 0008 0E       		.uleb128 0xe
 8174 0009 1B       		.uleb128 0x1b
 8175 000a 0E       		.uleb128 0xe
 8176 000b 55       		.uleb128 0x55
 8177 000c 17       		.uleb128 0x17
 8178 000d 11       		.uleb128 0x11
 8179 000e 01       		.uleb128 0x1
 8180 000f 10       		.uleb128 0x10
 8181 0010 17       		.uleb128 0x17
 8182 0011 00       		.byte	0
ARM GAS  C:\Users\username\AppData\Local\Temp\ccSuCzK2.s 			page 156


 8183 0012 00       		.byte	0
 8184 0013 02       		.uleb128 0x2
 8185 0014 16       		.uleb128 0x16
 8186 0015 00       		.byte	0
 8187 0016 03       		.uleb128 0x3
 8188 0017 0E       		.uleb128 0xe
 8189 0018 3A       		.uleb128 0x3a
 8190 0019 0B       		.uleb128 0xb
 8191 001a 3B       		.uleb128 0x3b
 8192 001b 0B       		.uleb128 0xb
 8193 001c 49       		.uleb128 0x49
 8194 001d 13       		.uleb128 0x13
 8195 001e 00       		.byte	0
 8196 001f 00       		.byte	0
 8197 0020 03       		.uleb128 0x3
 8198 0021 24       		.uleb128 0x24
 8199 0022 00       		.byte	0
 8200 0023 0B       		.uleb128 0xb
 8201 0024 0B       		.uleb128 0xb
 8202 0025 3E       		.uleb128 0x3e
 8203 0026 0B       		.uleb128 0xb
 8204 0027 03       		.uleb128 0x3
 8205 0028 0E       		.uleb128 0xe
 8206 0029 00       		.byte	0
 8207 002a 00       		.byte	0
 8208 002b 04       		.uleb128 0x4
 8209 002c 24       		.uleb128 0x24
 8210 002d 00       		.byte	0
 8211 002e 0B       		.uleb128 0xb
 8212 002f 0B       		.uleb128 0xb
 8213 0030 3E       		.uleb128 0x3e
 8214 0031 0B       		.uleb128 0xb
 8215 0032 03       		.uleb128 0x3
 8216 0033 08       		.uleb128 0x8
 8217 0034 00       		.byte	0
 8218 0035 00       		.byte	0
 8219 0036 05       		.uleb128 0x5
 8220 0037 0F       		.uleb128 0xf
 8221 0038 00       		.byte	0
 8222 0039 0B       		.uleb128 0xb
 8223 003a 0B       		.uleb128 0xb
 8224 003b 49       		.uleb128 0x49
 8225 003c 13       		.uleb128 0x13
 8226 003d 00       		.byte	0
 8227 003e 00       		.byte	0
 8228 003f 06       		.uleb128 0x6
 8229 0040 26       		.uleb128 0x26
 8230 0041 00       		.byte	0
 8231 0042 49       		.uleb128 0x49
 8232 0043 13       		.uleb128 0x13
 8233 0044 00       		.byte	0
 8234 0045 00       		.byte	0
 8235 0046 07       		.uleb128 0x7
 8236 0047 2E       		.uleb128 0x2e
 8237 0048 01       		.byte	0x1
 8238 0049 3F       		.uleb128 0x3f
 8239 004a 19       		.uleb128 0x19
ARM GAS  C:\Users\username\AppData\Local\Temp\ccSuCzK2.s 			page 157


 8240 004b 03       		.uleb128 0x3
 8241 004c 0E       		.uleb128 0xe
 8242 004d 3A       		.uleb128 0x3a
 8243 004e 0B       		.uleb128 0xb
 8244 004f 3B       		.uleb128 0x3b
 8245 0050 0B       		.uleb128 0xb
 8246 0051 27       		.uleb128 0x27
 8247 0052 19       		.uleb128 0x19
 8248 0053 11       		.uleb128 0x11
 8249 0054 01       		.uleb128 0x1
 8250 0055 12       		.uleb128 0x12
 8251 0056 06       		.uleb128 0x6
 8252 0057 40       		.uleb128 0x40
 8253 0058 18       		.uleb128 0x18
 8254 0059 9742     		.uleb128 0x2117
 8255 005b 19       		.uleb128 0x19
 8256 005c 01       		.uleb128 0x1
 8257 005d 13       		.uleb128 0x13
 8258 005e 00       		.byte	0
 8259 005f 00       		.byte	0
 8260 0060 08       		.uleb128 0x8
 8261 0061 05       		.uleb128 0x5
 8262 0062 00       		.byte	0
 8263 0063 03       		.uleb128 0x3
 8264 0064 08       		.uleb128 0x8
 8265 0065 3A       		.uleb128 0x3a
 8266 0066 0B       		.uleb128 0xb
 8267 0067 3B       		.uleb128 0x3b
 8268 0068 0B       		.uleb128 0xb
 8269 0069 49       		.uleb128 0x49
 8270 006a 13       		.uleb128 0x13
 8271 006b 02       		.uleb128 0x2
 8272 006c 18       		.uleb128 0x18
 8273 006d 00       		.byte	0
 8274 006e 00       		.byte	0
 8275 006f 09       		.uleb128 0x9
 8276 0070 05       		.uleb128 0x5
 8277 0071 00       		.byte	0
 8278 0072 03       		.uleb128 0x3
 8279 0073 08       		.uleb128 0x8
 8280 0074 3A       		.uleb128 0x3a
 8281 0075 0B       		.uleb128 0xb
 8282 0076 3B       		.uleb128 0x3b
 8283 0077 0B       		.uleb128 0xb
 8284 0078 49       		.uleb128 0x49
 8285 0079 13       		.uleb128 0x13
 8286 007a 02       		.uleb128 0x2
 8287 007b 17       		.uleb128 0x17
 8288 007c 00       		.byte	0
 8289 007d 00       		.byte	0
 8290 007e 0A       		.uleb128 0xa
 8291 007f 05       		.uleb128 0x5
 8292 0080 00       		.byte	0
 8293 0081 03       		.uleb128 0x3
 8294 0082 0E       		.uleb128 0xe
 8295 0083 3A       		.uleb128 0x3a
 8296 0084 0B       		.uleb128 0xb
ARM GAS  C:\Users\username\AppData\Local\Temp\ccSuCzK2.s 			page 158


 8297 0085 3B       		.uleb128 0x3b
 8298 0086 0B       		.uleb128 0xb
 8299 0087 49       		.uleb128 0x49
 8300 0088 13       		.uleb128 0x13
 8301 0089 02       		.uleb128 0x2
 8302 008a 17       		.uleb128 0x17
 8303 008b 00       		.byte	0
 8304 008c 00       		.byte	0
 8305 008d 0B       		.uleb128 0xb
 8306 008e 34       		.uleb128 0x34
 8307 008f 00       		.byte	0
 8308 0090 03       		.uleb128 0x3
 8309 0091 08       		.uleb128 0x8
 8310 0092 3A       		.uleb128 0x3a
 8311 0093 0B       		.uleb128 0xb
 8312 0094 3B       		.uleb128 0x3b
 8313 0095 0B       		.uleb128 0xb
 8314 0096 49       		.uleb128 0x49
 8315 0097 13       		.uleb128 0x13
 8316 0098 02       		.uleb128 0x2
 8317 0099 17       		.uleb128 0x17
 8318 009a 00       		.byte	0
 8319 009b 00       		.byte	0
 8320 009c 0C       		.uleb128 0xc
 8321 009d 34       		.uleb128 0x34
 8322 009e 00       		.byte	0
 8323 009f 03       		.uleb128 0x3
 8324 00a0 0E       		.uleb128 0xe
 8325 00a1 3A       		.uleb128 0x3a
 8326 00a2 0B       		.uleb128 0xb
 8327 00a3 3B       		.uleb128 0x3b
 8328 00a4 0B       		.uleb128 0xb
 8329 00a5 49       		.uleb128 0x49
 8330 00a6 13       		.uleb128 0x13
 8331 00a7 02       		.uleb128 0x2
 8332 00a8 17       		.uleb128 0x17
 8333 00a9 00       		.byte	0
 8334 00aa 00       		.byte	0
 8335 00ab 0D       		.uleb128 0xd
 8336 00ac 34       		.uleb128 0x34
 8337 00ad 00       		.byte	0
 8338 00ae 03       		.uleb128 0x3
 8339 00af 0E       		.uleb128 0xe
 8340 00b0 3A       		.uleb128 0x3a
 8341 00b1 0B       		.uleb128 0xb
 8342 00b2 3B       		.uleb128 0x3b
 8343 00b3 0B       		.uleb128 0xb
 8344 00b4 49       		.uleb128 0x49
 8345 00b5 13       		.uleb128 0x13
 8346 00b6 02       		.uleb128 0x2
 8347 00b7 18       		.uleb128 0x18
 8348 00b8 00       		.byte	0
 8349 00b9 00       		.byte	0
 8350 00ba 0E       		.uleb128 0xe
 8351 00bb 34       		.uleb128 0x34
 8352 00bc 00       		.byte	0
 8353 00bd 03       		.uleb128 0x3
ARM GAS  C:\Users\username\AppData\Local\Temp\ccSuCzK2.s 			page 159


 8354 00be 08       		.uleb128 0x8
 8355 00bf 3A       		.uleb128 0x3a
 8356 00c0 0B       		.uleb128 0xb
 8357 00c1 3B       		.uleb128 0x3b
 8358 00c2 0B       		.uleb128 0xb
 8359 00c3 49       		.uleb128 0x49
 8360 00c4 13       		.uleb128 0x13
 8361 00c5 02       		.uleb128 0x2
 8362 00c6 18       		.uleb128 0x18
 8363 00c7 00       		.byte	0
 8364 00c8 00       		.byte	0
 8365 00c9 0F       		.uleb128 0xf
 8366 00ca 898201   		.uleb128 0x4109
 8367 00cd 01       		.byte	0x1
 8368 00ce 11       		.uleb128 0x11
 8369 00cf 01       		.uleb128 0x1
 8370 00d0 31       		.uleb128 0x31
 8371 00d1 13       		.uleb128 0x13
 8372 00d2 01       		.uleb128 0x1
 8373 00d3 13       		.uleb128 0x13
 8374 00d4 00       		.byte	0
 8375 00d5 00       		.byte	0
 8376 00d6 10       		.uleb128 0x10
 8377 00d7 8A8201   		.uleb128 0x410a
 8378 00da 00       		.byte	0
 8379 00db 02       		.uleb128 0x2
 8380 00dc 18       		.uleb128 0x18
 8381 00dd 9142     		.uleb128 0x2111
 8382 00df 18       		.uleb128 0x18
 8383 00e0 00       		.byte	0
 8384 00e1 00       		.byte	0
 8385 00e2 11       		.uleb128 0x11
 8386 00e3 898201   		.uleb128 0x4109
 8387 00e6 01       		.byte	0x1
 8388 00e7 11       		.uleb128 0x11
 8389 00e8 01       		.uleb128 0x1
 8390 00e9 31       		.uleb128 0x31
 8391 00ea 13       		.uleb128 0x13
 8392 00eb 00       		.byte	0
 8393 00ec 00       		.byte	0
 8394 00ed 12       		.uleb128 0x12
 8395 00ee 0B       		.uleb128 0xb
 8396 00ef 01       		.byte	0x1
 8397 00f0 11       		.uleb128 0x11
 8398 00f1 01       		.uleb128 0x1
 8399 00f2 12       		.uleb128 0x12
 8400 00f3 06       		.uleb128 0x6
 8401 00f4 01       		.uleb128 0x1
 8402 00f5 13       		.uleb128 0x13
 8403 00f6 00       		.byte	0
 8404 00f7 00       		.byte	0
 8405 00f8 13       		.uleb128 0x13
 8406 00f9 34       		.uleb128 0x34
 8407 00fa 00       		.byte	0
 8408 00fb 03       		.uleb128 0x3
 8409 00fc 08       		.uleb128 0x8
 8410 00fd 3A       		.uleb128 0x3a
ARM GAS  C:\Users\username\AppData\Local\Temp\ccSuCzK2.s 			page 160


 8411 00fe 0B       		.uleb128 0xb
 8412 00ff 3B       		.uleb128 0x3b
 8413 0100 0B       		.uleb128 0xb
 8414 0101 49       		.uleb128 0x49
 8415 0102 13       		.uleb128 0x13
 8416 0103 00       		.byte	0
 8417 0104 00       		.byte	0
 8418 0105 14       		.uleb128 0x14
 8419 0106 2E       		.uleb128 0x2e
 8420 0107 01       		.byte	0x1
 8421 0108 3F       		.uleb128 0x3f
 8422 0109 19       		.uleb128 0x19
 8423 010a 03       		.uleb128 0x3
 8424 010b 0E       		.uleb128 0xe
 8425 010c 3A       		.uleb128 0x3a
 8426 010d 0B       		.uleb128 0xb
 8427 010e 3B       		.uleb128 0x3b
 8428 010f 05       		.uleb128 0x5
 8429 0110 27       		.uleb128 0x27
 8430 0111 19       		.uleb128 0x19
 8431 0112 11       		.uleb128 0x11
 8432 0113 01       		.uleb128 0x1
 8433 0114 12       		.uleb128 0x12
 8434 0115 06       		.uleb128 0x6
 8435 0116 40       		.uleb128 0x40
 8436 0117 18       		.uleb128 0x18
 8437 0118 9742     		.uleb128 0x2117
 8438 011a 19       		.uleb128 0x19
 8439 011b 01       		.uleb128 0x1
 8440 011c 13       		.uleb128 0x13
 8441 011d 00       		.byte	0
 8442 011e 00       		.byte	0
 8443 011f 15       		.uleb128 0x15
 8444 0120 05       		.uleb128 0x5
 8445 0121 00       		.byte	0
 8446 0122 03       		.uleb128 0x3
 8447 0123 08       		.uleb128 0x8
 8448 0124 3A       		.uleb128 0x3a
 8449 0125 0B       		.uleb128 0xb
 8450 0126 3B       		.uleb128 0x3b
 8451 0127 05       		.uleb128 0x5
 8452 0128 49       		.uleb128 0x49
 8453 0129 13       		.uleb128 0x13
 8454 012a 02       		.uleb128 0x2
 8455 012b 17       		.uleb128 0x17
 8456 012c 00       		.byte	0
 8457 012d 00       		.byte	0
 8458 012e 16       		.uleb128 0x16
 8459 012f 05       		.uleb128 0x5
 8460 0130 00       		.byte	0
 8461 0131 03       		.uleb128 0x3
 8462 0132 0E       		.uleb128 0xe
 8463 0133 3A       		.uleb128 0x3a
 8464 0134 0B       		.uleb128 0xb
 8465 0135 3B       		.uleb128 0x3b
 8466 0136 05       		.uleb128 0x5
 8467 0137 49       		.uleb128 0x49
ARM GAS  C:\Users\username\AppData\Local\Temp\ccSuCzK2.s 			page 161


 8468 0138 13       		.uleb128 0x13
 8469 0139 02       		.uleb128 0x2
 8470 013a 17       		.uleb128 0x17
 8471 013b 00       		.byte	0
 8472 013c 00       		.byte	0
 8473 013d 17       		.uleb128 0x17
 8474 013e 2E       		.uleb128 0x2e
 8475 013f 01       		.byte	0x1
 8476 0140 3F       		.uleb128 0x3f
 8477 0141 19       		.uleb128 0x19
 8478 0142 03       		.uleb128 0x3
 8479 0143 0E       		.uleb128 0xe
 8480 0144 3A       		.uleb128 0x3a
 8481 0145 0B       		.uleb128 0xb
 8482 0146 3B       		.uleb128 0x3b
 8483 0147 05       		.uleb128 0x5
 8484 0148 27       		.uleb128 0x27
 8485 0149 19       		.uleb128 0x19
 8486 014a 11       		.uleb128 0x11
 8487 014b 01       		.uleb128 0x1
 8488 014c 12       		.uleb128 0x12
 8489 014d 06       		.uleb128 0x6
 8490 014e 40       		.uleb128 0x40
 8491 014f 18       		.uleb128 0x18
 8492 0150 9642     		.uleb128 0x2116
 8493 0152 19       		.uleb128 0x19
 8494 0153 01       		.uleb128 0x1
 8495 0154 13       		.uleb128 0x13
 8496 0155 00       		.byte	0
 8497 0156 00       		.byte	0
 8498 0157 18       		.uleb128 0x18
 8499 0158 34       		.uleb128 0x34
 8500 0159 00       		.byte	0
 8501 015a 03       		.uleb128 0x3
 8502 015b 08       		.uleb128 0x8
 8503 015c 3A       		.uleb128 0x3a
 8504 015d 0B       		.uleb128 0xb
 8505 015e 3B       		.uleb128 0x3b
 8506 015f 05       		.uleb128 0x5
 8507 0160 49       		.uleb128 0x49
 8508 0161 13       		.uleb128 0x13
 8509 0162 02       		.uleb128 0x2
 8510 0163 17       		.uleb128 0x17
 8511 0164 00       		.byte	0
 8512 0165 00       		.byte	0
 8513 0166 19       		.uleb128 0x19
 8514 0167 34       		.uleb128 0x34
 8515 0168 00       		.byte	0
 8516 0169 03       		.uleb128 0x3
 8517 016a 0E       		.uleb128 0xe
 8518 016b 3A       		.uleb128 0x3a
 8519 016c 0B       		.uleb128 0xb
 8520 016d 3B       		.uleb128 0x3b
 8521 016e 05       		.uleb128 0x5
 8522 016f 49       		.uleb128 0x49
 8523 0170 13       		.uleb128 0x13
 8524 0171 02       		.uleb128 0x2
ARM GAS  C:\Users\username\AppData\Local\Temp\ccSuCzK2.s 			page 162


 8525 0172 17       		.uleb128 0x17
 8526 0173 00       		.byte	0
 8527 0174 00       		.byte	0
 8528 0175 1A       		.uleb128 0x1a
 8529 0176 34       		.uleb128 0x34
 8530 0177 00       		.byte	0
 8531 0178 03       		.uleb128 0x3
 8532 0179 08       		.uleb128 0x8
 8533 017a 3A       		.uleb128 0x3a
 8534 017b 0B       		.uleb128 0xb
 8535 017c 3B       		.uleb128 0x3b
 8536 017d 05       		.uleb128 0x5
 8537 017e 49       		.uleb128 0x49
 8538 017f 13       		.uleb128 0x13
 8539 0180 00       		.byte	0
 8540 0181 00       		.byte	0
 8541 0182 1B       		.uleb128 0x1b
 8542 0183 0B       		.uleb128 0xb
 8543 0184 01       		.byte	0x1
 8544 0185 11       		.uleb128 0x11
 8545 0186 01       		.uleb128 0x1
 8546 0187 12       		.uleb128 0x12
 8547 0188 06       		.uleb128 0x6
 8548 0189 00       		.byte	0
 8549 018a 00       		.byte	0
 8550 018b 1C       		.uleb128 0x1c
 8551 018c 2E       		.uleb128 0x2e
 8552 018d 01       		.byte	0x1
 8553 018e 3F       		.uleb128 0x3f
 8554 018f 19       		.uleb128 0x19
 8555 0190 03       		.uleb128 0x3
 8556 0191 0E       		.uleb128 0xe
 8557 0192 3A       		.uleb128 0x3a
 8558 0193 0B       		.uleb128 0xb
 8559 0194 3B       		.uleb128 0x3b
 8560 0195 05       		.uleb128 0x5
 8561 0196 49       		.uleb128 0x49
 8562 0197 13       		.uleb128 0x13
 8563 0198 3C       		.uleb128 0x3c
 8564 0199 19       		.uleb128 0x19
 8565 019a 01       		.uleb128 0x1
 8566 019b 13       		.uleb128 0x13
 8567 019c 00       		.byte	0
 8568 019d 00       		.byte	0
 8569 019e 1D       		.uleb128 0x1d
 8570 019f 18       		.uleb128 0x18
 8571 01a0 00       		.byte	0
 8572 01a1 00       		.byte	0
 8573 01a2 00       		.byte	0
 8574 01a3 1E       		.uleb128 0x1e
 8575 01a4 34       		.uleb128 0x34
 8576 01a5 00       		.byte	0
 8577 01a6 03       		.uleb128 0x3
 8578 01a7 0E       		.uleb128 0xe
 8579 01a8 3A       		.uleb128 0x3a
 8580 01a9 0B       		.uleb128 0xb
 8581 01aa 3B       		.uleb128 0x3b
ARM GAS  C:\Users\username\AppData\Local\Temp\ccSuCzK2.s 			page 163


 8582 01ab 05       		.uleb128 0x5
 8583 01ac 49       		.uleb128 0x49
 8584 01ad 13       		.uleb128 0x13
 8585 01ae 02       		.uleb128 0x2
 8586 01af 18       		.uleb128 0x18
 8587 01b0 00       		.byte	0
 8588 01b1 00       		.byte	0
 8589 01b2 1F       		.uleb128 0x1f
 8590 01b3 898201   		.uleb128 0x4109
 8591 01b6 00       		.byte	0
 8592 01b7 11       		.uleb128 0x11
 8593 01b8 01       		.uleb128 0x1
 8594 01b9 31       		.uleb128 0x31
 8595 01ba 13       		.uleb128 0x13
 8596 01bb 00       		.byte	0
 8597 01bc 00       		.byte	0
 8598 01bd 20       		.uleb128 0x20
 8599 01be 05       		.uleb128 0x5
 8600 01bf 00       		.byte	0
 8601 01c0 03       		.uleb128 0x3
 8602 01c1 08       		.uleb128 0x8
 8603 01c2 3A       		.uleb128 0x3a
 8604 01c3 0B       		.uleb128 0xb
 8605 01c4 3B       		.uleb128 0x3b
 8606 01c5 05       		.uleb128 0x5
 8607 01c6 49       		.uleb128 0x49
 8608 01c7 13       		.uleb128 0x13
 8609 01c8 02       		.uleb128 0x2
 8610 01c9 18       		.uleb128 0x18
 8611 01ca 00       		.byte	0
 8612 01cb 00       		.byte	0
 8613 01cc 21       		.uleb128 0x21
 8614 01cd 2E       		.uleb128 0x2e
 8615 01ce 00       		.byte	0
 8616 01cf 3F       		.uleb128 0x3f
 8617 01d0 19       		.uleb128 0x19
 8618 01d1 03       		.uleb128 0x3
 8619 01d2 0E       		.uleb128 0xe
 8620 01d3 3A       		.uleb128 0x3a
 8621 01d4 0B       		.uleb128 0xb
 8622 01d5 3B       		.uleb128 0x3b
 8623 01d6 05       		.uleb128 0x5
 8624 01d7 27       		.uleb128 0x27
 8625 01d8 19       		.uleb128 0x19
 8626 01d9 49       		.uleb128 0x49
 8627 01da 13       		.uleb128 0x13
 8628 01db 11       		.uleb128 0x11
 8629 01dc 01       		.uleb128 0x1
 8630 01dd 12       		.uleb128 0x12
 8631 01de 06       		.uleb128 0x6
 8632 01df 40       		.uleb128 0x40
 8633 01e0 18       		.uleb128 0x18
 8634 01e1 9742     		.uleb128 0x2117
 8635 01e3 19       		.uleb128 0x19
 8636 01e4 00       		.byte	0
 8637 01e5 00       		.byte	0
 8638 01e6 22       		.uleb128 0x22
ARM GAS  C:\Users\username\AppData\Local\Temp\ccSuCzK2.s 			page 164


 8639 01e7 01       		.uleb128 0x1
 8640 01e8 01       		.byte	0x1
 8641 01e9 49       		.uleb128 0x49
 8642 01ea 13       		.uleb128 0x13
 8643 01eb 01       		.uleb128 0x1
 8644 01ec 13       		.uleb128 0x13
 8645 01ed 00       		.byte	0
 8646 01ee 00       		.byte	0
 8647 01ef 23       		.uleb128 0x23
 8648 01f0 21       		.uleb128 0x21
 8649 01f1 00       		.byte	0
 8650 01f2 49       		.uleb128 0x49
 8651 01f3 13       		.uleb128 0x13
 8652 01f4 2F       		.uleb128 0x2f
 8653 01f5 05       		.uleb128 0x5
 8654 01f6 00       		.byte	0
 8655 01f7 00       		.byte	0
 8656 01f8 24       		.uleb128 0x24
 8657 01f9 34       		.uleb128 0x34
 8658 01fa 00       		.byte	0
 8659 01fb 03       		.uleb128 0x3
 8660 01fc 0E       		.uleb128 0xe
 8661 01fd 3A       		.uleb128 0x3a
 8662 01fe 0B       		.uleb128 0xb
 8663 01ff 3B       		.uleb128 0x3b
 8664 0200 0B       		.uleb128 0xb
 8665 0201 49       		.uleb128 0x49
 8666 0202 13       		.uleb128 0x13
 8667 0203 3F       		.uleb128 0x3f
 8668 0204 19       		.uleb128 0x19
 8669 0205 02       		.uleb128 0x2
 8670 0206 18       		.uleb128 0x18
 8671 0207 00       		.byte	0
 8672 0208 00       		.byte	0
 8673 0209 25       		.uleb128 0x25
 8674 020a 2E       		.uleb128 0x2e
 8675 020b 01       		.byte	0x1
 8676 020c 3F       		.uleb128 0x3f
 8677 020d 19       		.uleb128 0x19
 8678 020e 03       		.uleb128 0x3
 8679 020f 0E       		.uleb128 0xe
 8680 0210 3A       		.uleb128 0x3a
 8681 0211 0B       		.uleb128 0xb
 8682 0212 3B       		.uleb128 0x3b
 8683 0213 0B       		.uleb128 0xb
 8684 0214 27       		.uleb128 0x27
 8685 0215 19       		.uleb128 0x19
 8686 0216 3C       		.uleb128 0x3c
 8687 0217 19       		.uleb128 0x19
 8688 0218 01       		.uleb128 0x1
 8689 0219 13       		.uleb128 0x13
 8690 021a 00       		.byte	0
 8691 021b 00       		.byte	0
 8692 021c 26       		.uleb128 0x26
 8693 021d 05       		.uleb128 0x5
 8694 021e 00       		.byte	0
 8695 021f 49       		.uleb128 0x49
ARM GAS  C:\Users\username\AppData\Local\Temp\ccSuCzK2.s 			page 165


 8696 0220 13       		.uleb128 0x13
 8697 0221 00       		.byte	0
 8698 0222 00       		.byte	0
 8699 0223 27       		.uleb128 0x27
 8700 0224 2E       		.uleb128 0x2e
 8701 0225 01       		.byte	0x1
 8702 0226 3F       		.uleb128 0x3f
 8703 0227 19       		.uleb128 0x19
 8704 0228 03       		.uleb128 0x3
 8705 0229 0E       		.uleb128 0xe
 8706 022a 3A       		.uleb128 0x3a
 8707 022b 0B       		.uleb128 0xb
 8708 022c 3B       		.uleb128 0x3b
 8709 022d 0B       		.uleb128 0xb
 8710 022e 27       		.uleb128 0x27
 8711 022f 19       		.uleb128 0x19
 8712 0230 49       		.uleb128 0x49
 8713 0231 13       		.uleb128 0x13
 8714 0232 3C       		.uleb128 0x3c
 8715 0233 19       		.uleb128 0x19
 8716 0234 00       		.byte	0
 8717 0235 00       		.byte	0
 8718 0236 00       		.byte	0
 8719              		.section	.debug_loc,"",%progbits
 8720              	.Ldebug_loc0:
 8721              	.LLST0:
 8722 0000 00000000 		.4byte	.LVL0
 8723 0004 1A000000 		.4byte	.LVL1
 8724 0008 0100     		.2byte	0x1
 8725 000a 51       		.byte	0x51
 8726 000b 1A000000 		.4byte	.LVL1
 8727 000f 5C000000 		.4byte	.LFE35
 8728 0013 0500     		.2byte	0x5
 8729 0015 03       		.byte	0x3
 8730 0016 00000000 		.4byte	_width
 8731 001a 00000000 		.4byte	0
 8732 001e 00000000 		.4byte	0
 8733              	.LLST1:
 8734 0022 00000000 		.4byte	.LVL2
 8735 0026 39000000 		.4byte	.LVL8-1
 8736 002a 0100     		.2byte	0x1
 8737 002c 50       		.byte	0x50
 8738 002d 39000000 		.4byte	.LVL8-1
 8739 0031 50010000 		.4byte	.LFE36
 8740 0035 0400     		.2byte	0x4
 8741 0037 F3       		.byte	0xf3
 8742 0038 01       		.uleb128 0x1
 8743 0039 50       		.byte	0x50
 8744 003a 9F       		.byte	0x9f
 8745 003b 00000000 		.4byte	0
 8746 003f 00000000 		.4byte	0
 8747              	.LLST2:
 8748 0043 00000000 		.4byte	.LVL2
 8749 0047 32000000 		.4byte	.LVL7
 8750 004b 0100     		.2byte	0x1
 8751 004d 51       		.byte	0x51
 8752 004e 32000000 		.4byte	.LVL7
ARM GAS  C:\Users\username\AppData\Local\Temp\ccSuCzK2.s 			page 166


 8753 0052 39000000 		.4byte	.LVL8-1
 8754 0056 0100     		.2byte	0x1
 8755 0058 53       		.byte	0x53
 8756 0059 39000000 		.4byte	.LVL8-1
 8757 005d 44010000 		.4byte	.LVL28
 8758 0061 0100     		.2byte	0x1
 8759 0063 5A       		.byte	0x5a
 8760 0064 44010000 		.4byte	.LVL28
 8761 0068 50010000 		.4byte	.LFE36
 8762 006c 0400     		.2byte	0x4
 8763 006e F3       		.byte	0xf3
 8764 006f 01       		.uleb128 0x1
 8765 0070 51       		.byte	0x51
 8766 0071 9F       		.byte	0x9f
 8767 0072 00000000 		.4byte	0
 8768 0076 00000000 		.4byte	0
 8769              	.LLST3:
 8770 007a 00000000 		.4byte	.LVL2
 8771 007e 28000000 		.4byte	.LVL5
 8772 0082 0100     		.2byte	0x1
 8773 0084 52       		.byte	0x52
 8774 0085 28000000 		.4byte	.LVL5
 8775 0089 70000000 		.4byte	.LVL12
 8776 008d 0100     		.2byte	0x1
 8777 008f 56       		.byte	0x56
 8778 0090 70000000 		.4byte	.LVL12
 8779 0094 50010000 		.4byte	.LFE36
 8780 0098 0400     		.2byte	0x4
 8781 009a F3       		.byte	0xf3
 8782 009b 01       		.uleb128 0x1
 8783 009c 52       		.byte	0x52
 8784 009d 9F       		.byte	0x9f
 8785 009e 00000000 		.4byte	0
 8786 00a2 00000000 		.4byte	0
 8787              	.LLST4:
 8788 00a6 00000000 		.4byte	.LVL2
 8789 00aa 1C000000 		.4byte	.LVL3
 8790 00ae 0100     		.2byte	0x1
 8791 00b0 53       		.byte	0x53
 8792 00b1 1C000000 		.4byte	.LVL3
 8793 00b5 50010000 		.4byte	.LFE36
 8794 00b9 0400     		.2byte	0x4
 8795 00bb F3       		.byte	0xf3
 8796 00bc 01       		.uleb128 0x1
 8797 00bd 53       		.byte	0x53
 8798 00be 9F       		.byte	0x9f
 8799 00bf 00000000 		.4byte	0
 8800 00c3 00000000 		.4byte	0
 8801              	.LLST5:
 8802 00c7 22000000 		.4byte	.LVL4
 8803 00cb 44010000 		.4byte	.LVL29
 8804 00cf 0100     		.2byte	0x1
 8805 00d1 5B       		.byte	0x5b
 8806 00d2 00000000 		.4byte	0
 8807 00d6 00000000 		.4byte	0
 8808              	.LLST6:
 8809 00da 22000000 		.4byte	.LVL4
ARM GAS  C:\Users\username\AppData\Local\Temp\ccSuCzK2.s 			page 167


 8810 00de 70000000 		.4byte	.LVL12
 8811 00e2 0200     		.2byte	0x2
 8812 00e4 31       		.byte	0x31
 8813 00e5 9F       		.byte	0x9f
 8814 00e6 70000000 		.4byte	.LVL12
 8815 00ea 44010000 		.4byte	.LVL27
 8816 00ee 0100     		.2byte	0x1
 8817 00f0 58       		.byte	0x58
 8818 00f1 00000000 		.4byte	0
 8819 00f5 00000000 		.4byte	0
 8820              	.LLST7:
 8821 00f9 2C000000 		.4byte	.LVL6
 8822 00fd 70000000 		.4byte	.LVL12
 8823 0101 0200     		.2byte	0x2
 8824 0103 30       		.byte	0x30
 8825 0104 9F       		.byte	0x9f
 8826 0105 70000000 		.4byte	.LVL12
 8827 0109 50010000 		.4byte	.LFE36
 8828 010d 0200     		.2byte	0x2
 8829 010f 91       		.byte	0x91
 8830 0110 4C       		.sleb128 -52
 8831 0111 00000000 		.4byte	0
 8832 0115 00000000 		.4byte	0
 8833              	.LLST8:
 8834 0119 00000000 		.4byte	.LVL30
 8835 011d 3A000000 		.4byte	.LVL36
 8836 0121 0100     		.2byte	0x1
 8837 0123 50       		.byte	0x50
 8838 0124 3A000000 		.4byte	.LVL36
 8839 0128 4E010000 		.4byte	.LFE37
 8840 012c 0400     		.2byte	0x4
 8841 012e F3       		.byte	0xf3
 8842 012f 01       		.uleb128 0x1
 8843 0130 50       		.byte	0x50
 8844 0131 9F       		.byte	0x9f
 8845 0132 00000000 		.4byte	0
 8846 0136 00000000 		.4byte	0
 8847              	.LLST9:
 8848 013a 00000000 		.4byte	.LVL30
 8849 013e 3A000000 		.4byte	.LVL36
 8850 0142 0100     		.2byte	0x1
 8851 0144 51       		.byte	0x51
 8852 0145 3A000000 		.4byte	.LVL36
 8853 0149 4E010000 		.4byte	.LFE37
 8854 014d 0400     		.2byte	0x4
 8855 014f F3       		.byte	0xf3
 8856 0150 01       		.uleb128 0x1
 8857 0151 51       		.byte	0x51
 8858 0152 9F       		.byte	0x9f
 8859 0153 00000000 		.4byte	0
 8860 0157 00000000 		.4byte	0
 8861              	.LLST10:
 8862 015b 00000000 		.4byte	.LVL30
 8863 015f 2A000000 		.4byte	.LVL34
 8864 0163 0100     		.2byte	0x1
 8865 0165 52       		.byte	0x52
 8866 0166 2A000000 		.4byte	.LVL34
ARM GAS  C:\Users\username\AppData\Local\Temp\ccSuCzK2.s 			page 168


 8867 016a 4E010000 		.4byte	.LFE37
 8868 016e 0400     		.2byte	0x4
 8869 0170 F3       		.byte	0xf3
 8870 0171 01       		.uleb128 0x1
 8871 0172 52       		.byte	0x52
 8872 0173 9F       		.byte	0x9f
 8873 0174 00000000 		.4byte	0
 8874 0178 00000000 		.4byte	0
 8875              	.LLST11:
 8876 017c 00000000 		.4byte	.LVL30
 8877 0180 18000000 		.4byte	.LVL31
 8878 0184 0100     		.2byte	0x1
 8879 0186 53       		.byte	0x53
 8880 0187 18000000 		.4byte	.LVL31
 8881 018b 4E010000 		.4byte	.LFE37
 8882 018f 0400     		.2byte	0x4
 8883 0191 F3       		.byte	0xf3
 8884 0192 01       		.uleb128 0x1
 8885 0193 53       		.byte	0x53
 8886 0194 9F       		.byte	0x9f
 8887 0195 00000000 		.4byte	0
 8888 0199 00000000 		.4byte	0
 8889              	.LLST12:
 8890 019d 00000000 		.4byte	.LVL30
 8891 01a1 18000000 		.4byte	.LVL31
 8892 01a5 0200     		.2byte	0x2
 8893 01a7 91       		.byte	0x91
 8894 01a8 00       		.sleb128 0
 8895 01a9 18000000 		.4byte	.LVL31
 8896 01ad 1A000000 		.4byte	.LVL32
 8897 01b1 0200     		.2byte	0x2
 8898 01b3 73       		.byte	0x73
 8899 01b4 00       		.sleb128 0
 8900 01b5 1A000000 		.4byte	.LVL32
 8901 01b9 4E010000 		.4byte	.LFE37
 8902 01bd 0200     		.2byte	0x2
 8903 01bf 91       		.byte	0x91
 8904 01c0 00       		.sleb128 0
 8905 01c1 00000000 		.4byte	0
 8906 01c5 00000000 		.4byte	0
 8907              	.LLST13:
 8908 01c9 24000000 		.4byte	.LVL33
 8909 01cd 50000000 		.4byte	.LVL40
 8910 01d1 0100     		.2byte	0x1
 8911 01d3 54       		.byte	0x54
 8912 01d4 52000000 		.4byte	.LVL41
 8913 01d8 68000000 		.4byte	.LVL44
 8914 01dc 0100     		.2byte	0x1
 8915 01de 54       		.byte	0x54
 8916 01df 6A000000 		.4byte	.LVL45
 8917 01e3 42010000 		.4byte	.LVL54
 8918 01e7 0100     		.2byte	0x1
 8919 01e9 54       		.byte	0x54
 8920 01ea 00000000 		.4byte	0
 8921 01ee 00000000 		.4byte	0
 8922              	.LLST14:
 8923 01f2 24000000 		.4byte	.LVL33
ARM GAS  C:\Users\username\AppData\Local\Temp\ccSuCzK2.s 			page 169


 8924 01f6 3A000000 		.4byte	.LVL36
 8925 01fa 0200     		.2byte	0x2
 8926 01fc 31       		.byte	0x31
 8927 01fd 9F       		.byte	0x9f
 8928 01fe 3A000000 		.4byte	.LVL36
 8929 0202 42010000 		.4byte	.LVL56
 8930 0206 0100     		.2byte	0x1
 8931 0208 58       		.byte	0x58
 8932 0209 00000000 		.4byte	0
 8933 020d 00000000 		.4byte	0
 8934              	.LLST15:
 8935 0211 2E000000 		.4byte	.LVL35
 8936 0215 42010000 		.4byte	.LVL57
 8937 0219 0100     		.2byte	0x1
 8938 021b 5A       		.byte	0x5a
 8939 021c 00000000 		.4byte	0
 8940 0220 00000000 		.4byte	0
 8941              	.LLST16:
 8942 0224 2E000000 		.4byte	.LVL35
 8943 0228 3A000000 		.4byte	.LVL36
 8944 022c 0200     		.2byte	0x2
 8945 022e 30       		.byte	0x30
 8946 022f 9F       		.byte	0x9f
 8947 0230 3A000000 		.4byte	.LVL36
 8948 0234 4E010000 		.4byte	.LFE37
 8949 0238 0200     		.2byte	0x2
 8950 023a 91       		.byte	0x91
 8951 023b 44       		.sleb128 -60
 8952 023c 00000000 		.4byte	0
 8953 0240 00000000 		.4byte	0
 8954              	.LLST17:
 8955 0244 2E000000 		.4byte	.LVL35
 8956 0248 42000000 		.4byte	.LVL37
 8957 024c 0100     		.2byte	0x1
 8958 024e 57       		.byte	0x57
 8959 024f 44000000 		.4byte	.LVL38
 8960 0253 42010000 		.4byte	.LVL55
 8961 0257 0100     		.2byte	0x1
 8962 0259 57       		.byte	0x57
 8963 025a 00000000 		.4byte	0
 8964 025e 00000000 		.4byte	0
 8965              	.LLST18:
 8966 0262 00000000 		.4byte	.LVL58
 8967 0266 46000000 		.4byte	.LVL65
 8968 026a 0100     		.2byte	0x1
 8969 026c 50       		.byte	0x50
 8970 026d 46000000 		.4byte	.LVL65
 8971 0271 2E010000 		.4byte	.LFE39
 8972 0275 0400     		.2byte	0x4
 8973 0277 F3       		.byte	0xf3
 8974 0278 01       		.uleb128 0x1
 8975 0279 50       		.byte	0x50
 8976 027a 9F       		.byte	0x9f
 8977 027b 00000000 		.4byte	0
 8978 027f 00000000 		.4byte	0
 8979              	.LLST19:
 8980 0283 00000000 		.4byte	.LVL58
ARM GAS  C:\Users\username\AppData\Local\Temp\ccSuCzK2.s 			page 170


 8981 0287 46000000 		.4byte	.LVL65
 8982 028b 0100     		.2byte	0x1
 8983 028d 51       		.byte	0x51
 8984 028e 46000000 		.4byte	.LVL65
 8985 0292 2E010000 		.4byte	.LFE39
 8986 0296 0400     		.2byte	0x4
 8987 0298 F3       		.byte	0xf3
 8988 0299 01       		.uleb128 0x1
 8989 029a 51       		.byte	0x51
 8990 029b 9F       		.byte	0x9f
 8991 029c 00000000 		.4byte	0
 8992 02a0 00000000 		.4byte	0
 8993              	.LLST20:
 8994 02a4 00000000 		.4byte	.LVL58
 8995 02a8 1C000000 		.4byte	.LVL60
 8996 02ac 0100     		.2byte	0x1
 8997 02ae 52       		.byte	0x52
 8998 02af 1C000000 		.4byte	.LVL60
 8999 02b3 2E010000 		.4byte	.LFE39
 9000 02b7 0400     		.2byte	0x4
 9001 02b9 F3       		.byte	0xf3
 9002 02ba 01       		.uleb128 0x1
 9003 02bb 52       		.byte	0x52
 9004 02bc 9F       		.byte	0x9f
 9005 02bd 00000000 		.4byte	0
 9006 02c1 00000000 		.4byte	0
 9007              	.LLST21:
 9008 02c5 00000000 		.4byte	.LVL58
 9009 02c9 18000000 		.4byte	.LVL59
 9010 02cd 0100     		.2byte	0x1
 9011 02cf 53       		.byte	0x53
 9012 02d0 18000000 		.4byte	.LVL59
 9013 02d4 2E010000 		.4byte	.LFE39
 9014 02d8 0400     		.2byte	0x4
 9015 02da F3       		.byte	0xf3
 9016 02db 01       		.uleb128 0x1
 9017 02dc 53       		.byte	0x53
 9018 02dd 9F       		.byte	0x9f
 9019 02de 00000000 		.4byte	0
 9020 02e2 00000000 		.4byte	0
 9021              	.LLST22:
 9022 02e6 00000000 		.4byte	.LVL58
 9023 02ea 18000000 		.4byte	.LVL59
 9024 02ee 0200     		.2byte	0x2
 9025 02f0 91       		.byte	0x91
 9026 02f1 00       		.sleb128 0
 9027 02f2 18000000 		.4byte	.LVL59
 9028 02f6 1C000000 		.4byte	.LVL60
 9029 02fa 0200     		.2byte	0x2
 9030 02fc 73       		.byte	0x73
 9031 02fd 00       		.sleb128 0
 9032 02fe 1C000000 		.4byte	.LVL60
 9033 0302 2E010000 		.4byte	.LFE39
 9034 0306 0200     		.2byte	0x2
 9035 0308 91       		.byte	0x91
 9036 0309 00       		.sleb128 0
 9037 030a 00000000 		.4byte	0
ARM GAS  C:\Users\username\AppData\Local\Temp\ccSuCzK2.s 			page 171


 9038 030e 00000000 		.4byte	0
 9039              	.LLST23:
 9040 0312 00000000 		.4byte	.LVL58
 9041 0316 18000000 		.4byte	.LVL59
 9042 031a 0200     		.2byte	0x2
 9043 031c 91       		.byte	0x91
 9044 031d 04       		.sleb128 4
 9045 031e 18000000 		.4byte	.LVL59
 9046 0322 1C000000 		.4byte	.LVL60
 9047 0326 0200     		.2byte	0x2
 9048 0328 73       		.byte	0x73
 9049 0329 04       		.sleb128 4
 9050 032a 1C000000 		.4byte	.LVL60
 9051 032e 20000000 		.4byte	.LVL61
 9052 0332 0200     		.2byte	0x2
 9053 0334 91       		.byte	0x91
 9054 0335 04       		.sleb128 4
 9055 0336 20000000 		.4byte	.LVL61
 9056 033a 22000000 		.4byte	.LVL62
 9057 033e 0200     		.2byte	0x2
 9058 0340 73       		.byte	0x73
 9059 0341 00       		.sleb128 0
 9060 0342 22000000 		.4byte	.LVL62
 9061 0346 2E010000 		.4byte	.LFE39
 9062 034a 0200     		.2byte	0x2
 9063 034c 91       		.byte	0x91
 9064 034d 04       		.sleb128 4
 9065 034e 00000000 		.4byte	0
 9066 0352 00000000 		.4byte	0
 9067              	.LLST24:
 9068 0356 32000000 		.4byte	.LVL63
 9069 035a 5C000000 		.4byte	.LVL69
 9070 035e 0100     		.2byte	0x1
 9071 0360 54       		.byte	0x54
 9072 0361 5E000000 		.4byte	.LVL70
 9073 0365 70000000 		.4byte	.LVL74
 9074 0369 0100     		.2byte	0x1
 9075 036b 54       		.byte	0x54
 9076 036c 72000000 		.4byte	.LVL75
 9077 0370 22010000 		.4byte	.LVL80
 9078 0374 0100     		.2byte	0x1
 9079 0376 54       		.byte	0x54
 9080 0377 00000000 		.4byte	0
 9081 037b 00000000 		.4byte	0
 9082              	.LLST25:
 9083 037f 32000000 		.4byte	.LVL63
 9084 0383 46000000 		.4byte	.LVL65
 9085 0387 0200     		.2byte	0x2
 9086 0389 31       		.byte	0x31
 9087 038a 9F       		.byte	0x9f
 9088 038b 46000000 		.4byte	.LVL65
 9089 038f 22010000 		.4byte	.LVL83
 9090 0393 0100     		.2byte	0x1
 9091 0395 5A       		.byte	0x5a
 9092 0396 00000000 		.4byte	0
 9093 039a 00000000 		.4byte	0
 9094              	.LLST26:
ARM GAS  C:\Users\username\AppData\Local\Temp\ccSuCzK2.s 			page 172


 9095 039e 3C000000 		.4byte	.LVL64
 9096 03a2 22010000 		.4byte	.LVL84
 9097 03a6 0100     		.2byte	0x1
 9098 03a8 5B       		.byte	0x5b
 9099 03a9 00000000 		.4byte	0
 9100 03ad 00000000 		.4byte	0
 9101              	.LLST27:
 9102 03b1 3C000000 		.4byte	.LVL64
 9103 03b5 46000000 		.4byte	.LVL65
 9104 03b9 0200     		.2byte	0x2
 9105 03bb 30       		.byte	0x30
 9106 03bc 9F       		.byte	0x9f
 9107 03bd 46000000 		.4byte	.LVL65
 9108 03c1 60000000 		.4byte	.LVL71
 9109 03c5 0100     		.2byte	0x1
 9110 03c7 57       		.byte	0x57
 9111 03c8 64000000 		.4byte	.LVL72
 9112 03cc 22010000 		.4byte	.LVL82
 9113 03d0 0100     		.2byte	0x1
 9114 03d2 57       		.byte	0x57
 9115 03d3 22010000 		.4byte	.LVL82
 9116 03d7 2E010000 		.4byte	.LFE39
 9117 03db 0100     		.2byte	0x1
 9118 03dd 53       		.byte	0x53
 9119 03de 00000000 		.4byte	0
 9120 03e2 00000000 		.4byte	0
 9121              	.LLST28:
 9122 03e6 3C000000 		.4byte	.LVL64
 9123 03ea 46000000 		.4byte	.LVL65
 9124 03ee 0100     		.2byte	0x1
 9125 03f0 58       		.byte	0x58
 9126 03f1 46000000 		.4byte	.LVL65
 9127 03f5 4E000000 		.4byte	.LVL66
 9128 03f9 0100     		.2byte	0x1
 9129 03fb 56       		.byte	0x56
 9130 03fc 50000000 		.4byte	.LVL67
 9131 0400 22010000 		.4byte	.LVL81
 9132 0404 0100     		.2byte	0x1
 9133 0406 56       		.byte	0x56
 9134 0407 00000000 		.4byte	0
 9135 040b 00000000 		.4byte	0
 9136              	.LLST29:
 9137 040f 00000000 		.4byte	.LVL85
 9138 0413 1B000000 		.4byte	.LVL88-1
 9139 0417 0100     		.2byte	0x1
 9140 0419 50       		.byte	0x50
 9141 041a 1B000000 		.4byte	.LVL88-1
 9142 041e 32000000 		.4byte	.LFE38
 9143 0422 0400     		.2byte	0x4
 9144 0424 F3       		.byte	0xf3
 9145 0425 01       		.uleb128 0x1
 9146 0426 50       		.byte	0x50
 9147 0427 9F       		.byte	0x9f
 9148 0428 00000000 		.4byte	0
 9149 042c 00000000 		.4byte	0
 9150              	.LLST30:
 9151 0430 00000000 		.4byte	.LVL85
ARM GAS  C:\Users\username\AppData\Local\Temp\ccSuCzK2.s 			page 173


 9152 0434 10000000 		.4byte	.LVL86
 9153 0438 0100     		.2byte	0x1
 9154 043a 51       		.byte	0x51
 9155 043b 10000000 		.4byte	.LVL86
 9156 043f 32000000 		.4byte	.LFE38
 9157 0443 0400     		.2byte	0x4
 9158 0445 F3       		.byte	0xf3
 9159 0446 01       		.uleb128 0x1
 9160 0447 51       		.byte	0x51
 9161 0448 9F       		.byte	0x9f
 9162 0449 00000000 		.4byte	0
 9163 044d 00000000 		.4byte	0
 9164              	.LLST31:
 9165 0451 00000000 		.4byte	.LVL85
 9166 0455 14000000 		.4byte	.LVL87
 9167 0459 0100     		.2byte	0x1
 9168 045b 52       		.byte	0x52
 9169 045c 14000000 		.4byte	.LVL87
 9170 0460 32000000 		.4byte	.LFE38
 9171 0464 0400     		.2byte	0x4
 9172 0466 F3       		.byte	0xf3
 9173 0467 01       		.uleb128 0x1
 9174 0468 52       		.byte	0x52
 9175 0469 9F       		.byte	0x9f
 9176 046a 00000000 		.4byte	0
 9177 046e 00000000 		.4byte	0
 9178              	.LLST32:
 9179 0472 00000000 		.4byte	.LVL85
 9180 0476 1B000000 		.4byte	.LVL88-1
 9181 047a 0100     		.2byte	0x1
 9182 047c 53       		.byte	0x53
 9183 047d 1B000000 		.4byte	.LVL88-1
 9184 0481 32000000 		.4byte	.LFE38
 9185 0485 0400     		.2byte	0x4
 9186 0487 F3       		.byte	0xf3
 9187 0488 01       		.uleb128 0x1
 9188 0489 53       		.byte	0x53
 9189 048a 9F       		.byte	0x9f
 9190 048b 00000000 		.4byte	0
 9191 048f 00000000 		.4byte	0
 9192              	.LLST33:
 9193 0493 00000000 		.4byte	.LVL90
 9194 0497 1C000000 		.4byte	.LVL93
 9195 049b 0100     		.2byte	0x1
 9196 049d 50       		.byte	0x50
 9197 049e 1C000000 		.4byte	.LVL93
 9198 04a2 48000000 		.4byte	.LVL98
 9199 04a6 0400     		.2byte	0x4
 9200 04a8 F3       		.byte	0xf3
 9201 04a9 01       		.uleb128 0x1
 9202 04aa 50       		.byte	0x50
 9203 04ab 9F       		.byte	0x9f
 9204 04ac 48000000 		.4byte	.LVL98
 9205 04b0 56000000 		.4byte	.LVL101
 9206 04b4 0100     		.2byte	0x1
 9207 04b6 54       		.byte	0x54
 9208 04b7 58000000 		.4byte	.LVL102
ARM GAS  C:\Users\username\AppData\Local\Temp\ccSuCzK2.s 			page 174


 9209 04bb B8000000 		.4byte	.LVL119
 9210 04bf 0100     		.2byte	0x1
 9211 04c1 54       		.byte	0x54
 9212 04c2 BA000000 		.4byte	.LVL120
 9213 04c6 C0000000 		.4byte	.LVL121
 9214 04ca 0100     		.2byte	0x1
 9215 04cc 54       		.byte	0x54
 9216 04cd 00000000 		.4byte	0
 9217 04d1 00000000 		.4byte	0
 9218              	.LLST34:
 9219 04d5 00000000 		.4byte	.LVL90
 9220 04d9 24000000 		.4byte	.LVL94
 9221 04dd 0100     		.2byte	0x1
 9222 04df 51       		.byte	0x51
 9223 04e0 24000000 		.4byte	.LVL94
 9224 04e4 48000000 		.4byte	.LVL98
 9225 04e8 0400     		.2byte	0x4
 9226 04ea F3       		.byte	0xf3
 9227 04eb 01       		.uleb128 0x1
 9228 04ec 51       		.byte	0x51
 9229 04ed 9F       		.byte	0x9f
 9230 04ee 48000000 		.4byte	.LVL98
 9231 04f2 50000000 		.4byte	.LVL99
 9232 04f6 0100     		.2byte	0x1
 9233 04f8 56       		.byte	0x56
 9234 04f9 58000000 		.4byte	.LVL102
 9235 04fd B0000000 		.4byte	.LVL116
 9236 0501 0100     		.2byte	0x1
 9237 0503 56       		.byte	0x56
 9238 0504 B2000000 		.4byte	.LVL117
 9239 0508 C0000000 		.4byte	.LVL123
 9240 050c 0100     		.2byte	0x1
 9241 050e 56       		.byte	0x56
 9242 050f 00000000 		.4byte	0
 9243 0513 00000000 		.4byte	0
 9244              	.LLST35:
 9245 0517 00000000 		.4byte	.LVL90
 9246 051b 16000000 		.4byte	.LVL91
 9247 051f 0100     		.2byte	0x1
 9248 0521 52       		.byte	0x52
 9249 0522 16000000 		.4byte	.LVL91
 9250 0526 48000000 		.4byte	.LVL98
 9251 052a 0400     		.2byte	0x4
 9252 052c F3       		.byte	0xf3
 9253 052d 01       		.uleb128 0x1
 9254 052e 52       		.byte	0x52
 9255 052f 9F       		.byte	0x9f
 9256 0530 48000000 		.4byte	.LVL98
 9257 0534 C0000000 		.4byte	.LVL124
 9258 0538 0100     		.2byte	0x1
 9259 053a 57       		.byte	0x57
 9260 053b 00000000 		.4byte	0
 9261 053f 00000000 		.4byte	0
 9262              	.LLST36:
 9263 0543 00000000 		.4byte	.LVL90
 9264 0547 42000000 		.4byte	.LVL97
 9265 054b 0100     		.2byte	0x1
ARM GAS  C:\Users\username\AppData\Local\Temp\ccSuCzK2.s 			page 175


 9266 054d 53       		.byte	0x53
 9267 054e 42000000 		.4byte	.LVL97
 9268 0552 48000000 		.4byte	.LVL98
 9269 0556 0400     		.2byte	0x4
 9270 0558 F3       		.byte	0xf3
 9271 0559 01       		.uleb128 0x1
 9272 055a 53       		.byte	0x53
 9273 055b 9F       		.byte	0x9f
 9274 055c 48000000 		.4byte	.LVL98
 9275 0560 52000000 		.4byte	.LVL100
 9276 0564 0100     		.2byte	0x1
 9277 0566 53       		.byte	0x53
 9278 0567 58000000 		.4byte	.LVL102
 9279 056b 7A000000 		.4byte	.LVL106
 9280 056f 0100     		.2byte	0x1
 9281 0571 53       		.byte	0x53
 9282 0572 7E000000 		.4byte	.LVL107
 9283 0576 80000000 		.4byte	.LVL108
 9284 057a 0100     		.2byte	0x1
 9285 057c 53       		.byte	0x53
 9286 057d 00000000 		.4byte	0
 9287 0581 00000000 		.4byte	0
 9288              	.LLST37:
 9289 0585 00000000 		.4byte	.LVL90
 9290 0589 16000000 		.4byte	.LVL91
 9291 058d 0200     		.2byte	0x2
 9292 058f 91       		.byte	0x91
 9293 0590 00       		.sleb128 0
 9294 0591 16000000 		.4byte	.LVL91
 9295 0595 18000000 		.4byte	.LVL92
 9296 0599 0200     		.2byte	0x2
 9297 059b 72       		.byte	0x72
 9298 059c 00       		.sleb128 0
 9299 059d 18000000 		.4byte	.LVL92
 9300 05a1 D0000000 		.4byte	.LFE40
 9301 05a5 0200     		.2byte	0x2
 9302 05a7 91       		.byte	0x91
 9303 05a8 00       		.sleb128 0
 9304 05a9 00000000 		.4byte	0
 9305 05ad 00000000 		.4byte	0
 9306              	.LLST38:
 9307 05b1 38000000 		.4byte	.LVL95
 9308 05b5 3E000000 		.4byte	.LVL96
 9309 05b9 0100     		.2byte	0x1
 9310 05bb 52       		.byte	0x52
 9311 05bc 3E000000 		.4byte	.LVL96
 9312 05c0 8A000000 		.4byte	.LVL110
 9313 05c4 0100     		.2byte	0x1
 9314 05c6 58       		.byte	0x58
 9315 05c7 8A000000 		.4byte	.LVL110
 9316 05cb 93000000 		.4byte	.LVL111-1
 9317 05cf 0100     		.2byte	0x1
 9318 05d1 53       		.byte	0x53
 9319 05d2 93000000 		.4byte	.LVL111-1
 9320 05d6 96000000 		.4byte	.LVL112
 9321 05da 0100     		.2byte	0x1
 9322 05dc 58       		.byte	0x58
ARM GAS  C:\Users\username\AppData\Local\Temp\ccSuCzK2.s 			page 176


 9323 05dd 96000000 		.4byte	.LVL112
 9324 05e1 9F000000 		.4byte	.LVL113-1
 9325 05e5 0100     		.2byte	0x1
 9326 05e7 53       		.byte	0x53
 9327 05e8 9F000000 		.4byte	.LVL113-1
 9328 05ec C0000000 		.4byte	.LVL125
 9329 05f0 0100     		.2byte	0x1
 9330 05f2 58       		.byte	0x58
 9331 05f3 00000000 		.4byte	0
 9332 05f7 00000000 		.4byte	0
 9333              	.LLST39:
 9334 05fb 5E000000 		.4byte	.LVL103
 9335 05ff C0000000 		.4byte	.LVL127
 9336 0603 0100     		.2byte	0x1
 9337 0605 5A       		.byte	0x5a
 9338 0606 00000000 		.4byte	0
 9339 060a 00000000 		.4byte	0
 9340              	.LLST40:
 9341 060e 68000000 		.4byte	.LVL104
 9342 0612 C0000000 		.4byte	.LVL126
 9343 0616 0100     		.2byte	0x1
 9344 0618 59       		.byte	0x59
 9345 0619 00000000 		.4byte	0
 9346 061d 00000000 		.4byte	0
 9347              	.LLST41:
 9348 0621 74000000 		.4byte	.LVL105
 9349 0625 A4000000 		.4byte	.LVL114
 9350 0629 0100     		.2byte	0x1
 9351 062b 55       		.byte	0x55
 9352 062c A8000000 		.4byte	.LVL115
 9353 0630 C0000000 		.4byte	.LVL122
 9354 0634 0100     		.2byte	0x1
 9355 0636 55       		.byte	0x55
 9356 0637 00000000 		.4byte	0
 9357 063b 00000000 		.4byte	0
 9358              	.LLST42:
 9359 063f 84000000 		.4byte	.LVL109
 9360 0643 C0000000 		.4byte	.LVL128
 9361 0647 0100     		.2byte	0x1
 9362 0649 5B       		.byte	0x5b
 9363 064a 00000000 		.4byte	0
 9364 064e 00000000 		.4byte	0
 9365              	.LLST43:
 9366 0652 00000000 		.4byte	.LVL129
 9367 0656 15000000 		.4byte	.LVL132-1
 9368 065a 0100     		.2byte	0x1
 9369 065c 50       		.byte	0x50
 9370 065d 15000000 		.4byte	.LVL132-1
 9371 0661 48000000 		.4byte	.LFE41
 9372 0665 0400     		.2byte	0x4
 9373 0667 F3       		.byte	0xf3
 9374 0668 01       		.uleb128 0x1
 9375 0669 50       		.byte	0x50
 9376 066a 9F       		.byte	0x9f
 9377 066b 00000000 		.4byte	0
 9378 066f 00000000 		.4byte	0
 9379              	.LLST44:
ARM GAS  C:\Users\username\AppData\Local\Temp\ccSuCzK2.s 			page 177


 9380 0673 00000000 		.4byte	.LVL129
 9381 0677 15000000 		.4byte	.LVL132-1
 9382 067b 0100     		.2byte	0x1
 9383 067d 51       		.byte	0x51
 9384 067e 15000000 		.4byte	.LVL132-1
 9385 0682 48000000 		.4byte	.LFE41
 9386 0686 0400     		.2byte	0x4
 9387 0688 F3       		.byte	0xf3
 9388 0689 01       		.uleb128 0x1
 9389 068a 51       		.byte	0x51
 9390 068b 9F       		.byte	0x9f
 9391 068c 00000000 		.4byte	0
 9392 0690 00000000 		.4byte	0
 9393              	.LLST45:
 9394 0694 00000000 		.4byte	.LVL129
 9395 0698 15000000 		.4byte	.LVL132-1
 9396 069c 0100     		.2byte	0x1
 9397 069e 52       		.byte	0x52
 9398 069f 15000000 		.4byte	.LVL132-1
 9399 06a3 48000000 		.4byte	.LFE41
 9400 06a7 0400     		.2byte	0x4
 9401 06a9 F3       		.byte	0xf3
 9402 06aa 01       		.uleb128 0x1
 9403 06ab 52       		.byte	0x52
 9404 06ac 9F       		.byte	0x9f
 9405 06ad 00000000 		.4byte	0
 9406 06b1 00000000 		.4byte	0
 9407              	.LLST46:
 9408 06b5 00000000 		.4byte	.LVL129
 9409 06b9 0E000000 		.4byte	.LVL130
 9410 06bd 0100     		.2byte	0x1
 9411 06bf 53       		.byte	0x53
 9412 06c0 0E000000 		.4byte	.LVL130
 9413 06c4 48000000 		.4byte	.LFE41
 9414 06c8 0400     		.2byte	0x4
 9415 06ca F3       		.byte	0xf3
 9416 06cb 01       		.uleb128 0x1
 9417 06cc 53       		.byte	0x53
 9418 06cd 9F       		.byte	0x9f
 9419 06ce 00000000 		.4byte	0
 9420 06d2 00000000 		.4byte	0
 9421              	.LLST47:
 9422 06d6 00000000 		.4byte	.LVL129
 9423 06da 0E000000 		.4byte	.LVL130
 9424 06de 0200     		.2byte	0x2
 9425 06e0 91       		.byte	0x91
 9426 06e1 00       		.sleb128 0
 9427 06e2 0E000000 		.4byte	.LVL130
 9428 06e6 12000000 		.4byte	.LVL131
 9429 06ea 0200     		.2byte	0x2
 9430 06ec 73       		.byte	0x73
 9431 06ed 00       		.sleb128 0
 9432 06ee 12000000 		.4byte	.LVL131
 9433 06f2 48000000 		.4byte	.LFE41
 9434 06f6 0200     		.2byte	0x2
 9435 06f8 91       		.byte	0x91
 9436 06f9 00       		.sleb128 0
ARM GAS  C:\Users\username\AppData\Local\Temp\ccSuCzK2.s 			page 178


 9437 06fa 00000000 		.4byte	0
 9438 06fe 00000000 		.4byte	0
 9439              	.LLST48:
 9440 0702 00000000 		.4byte	.LVL136
 9441 0706 14000000 		.4byte	.LVL139
 9442 070a 0100     		.2byte	0x1
 9443 070c 50       		.byte	0x50
 9444 070d 14000000 		.4byte	.LVL139
 9445 0711 2E000000 		.4byte	.LFE42
 9446 0715 0400     		.2byte	0x4
 9447 0717 F3       		.byte	0xf3
 9448 0718 01       		.uleb128 0x1
 9449 0719 50       		.byte	0x50
 9450 071a 9F       		.byte	0x9f
 9451 071b 00000000 		.4byte	0
 9452 071f 00000000 		.4byte	0
 9453              	.LLST49:
 9454 0723 00000000 		.4byte	.LVL136
 9455 0727 14000000 		.4byte	.LVL139
 9456 072b 0100     		.2byte	0x1
 9457 072d 51       		.byte	0x51
 9458 072e 14000000 		.4byte	.LVL139
 9459 0732 2E000000 		.4byte	.LFE42
 9460 0736 0400     		.2byte	0x4
 9461 0738 F3       		.byte	0xf3
 9462 0739 01       		.uleb128 0x1
 9463 073a 51       		.byte	0x51
 9464 073b 9F       		.byte	0x9f
 9465 073c 00000000 		.4byte	0
 9466 0740 00000000 		.4byte	0
 9467              	.LLST50:
 9468 0744 00000000 		.4byte	.LVL136
 9469 0748 14000000 		.4byte	.LVL139
 9470 074c 0100     		.2byte	0x1
 9471 074e 52       		.byte	0x52
 9472 074f 14000000 		.4byte	.LVL139
 9473 0753 2E000000 		.4byte	.LFE42
 9474 0757 0400     		.2byte	0x4
 9475 0759 F3       		.byte	0xf3
 9476 075a 01       		.uleb128 0x1
 9477 075b 52       		.byte	0x52
 9478 075c 9F       		.byte	0x9f
 9479 075d 00000000 		.4byte	0
 9480 0761 00000000 		.4byte	0
 9481              	.LLST51:
 9482 0765 00000000 		.4byte	.LVL136
 9483 0769 0E000000 		.4byte	.LVL137
 9484 076d 0100     		.2byte	0x1
 9485 076f 53       		.byte	0x53
 9486 0770 0E000000 		.4byte	.LVL137
 9487 0774 2E000000 		.4byte	.LFE42
 9488 0778 0400     		.2byte	0x4
 9489 077a F3       		.byte	0xf3
 9490 077b 01       		.uleb128 0x1
 9491 077c 53       		.byte	0x53
 9492 077d 9F       		.byte	0x9f
 9493 077e 00000000 		.4byte	0
ARM GAS  C:\Users\username\AppData\Local\Temp\ccSuCzK2.s 			page 179


 9494 0782 00000000 		.4byte	0
 9495              	.LLST52:
 9496 0786 00000000 		.4byte	.LVL136
 9497 078a 0E000000 		.4byte	.LVL137
 9498 078e 0200     		.2byte	0x2
 9499 0790 91       		.byte	0x91
 9500 0791 00       		.sleb128 0
 9501 0792 0E000000 		.4byte	.LVL137
 9502 0796 14000000 		.4byte	.LVL139
 9503 079a 0200     		.2byte	0x2
 9504 079c 73       		.byte	0x73
 9505 079d 00       		.sleb128 0
 9506 079e 14000000 		.4byte	.LVL139
 9507 07a2 2E000000 		.4byte	.LFE42
 9508 07a6 0200     		.2byte	0x2
 9509 07a8 91       		.byte	0x91
 9510 07a9 00       		.sleb128 0
 9511 07aa 00000000 		.4byte	0
 9512 07ae 00000000 		.4byte	0
 9513              	.LLST53:
 9514 07b2 10000000 		.4byte	.LVL138
 9515 07b6 14000000 		.4byte	.LVL139
 9516 07ba 0100     		.2byte	0x1
 9517 07bc 50       		.byte	0x50
 9518 07bd 14000000 		.4byte	.LVL139
 9519 07c1 22000000 		.4byte	.LVL141
 9520 07c5 0100     		.2byte	0x1
 9521 07c7 54       		.byte	0x54
 9522 07c8 24000000 		.4byte	.LVL142
 9523 07cc 2C000000 		.4byte	.LVL143
 9524 07d0 0100     		.2byte	0x1
 9525 07d2 54       		.byte	0x54
 9526 07d3 00000000 		.4byte	0
 9527 07d7 00000000 		.4byte	0
 9528              	.LLST54:
 9529 07db 00000000 		.4byte	.LVL144
 9530 07df 14000000 		.4byte	.LVL145
 9531 07e3 0100     		.2byte	0x1
 9532 07e5 50       		.byte	0x50
 9533 07e6 14000000 		.4byte	.LVL145
 9534 07ea 28000000 		.4byte	.LFE43
 9535 07ee 0400     		.2byte	0x4
 9536 07f0 F3       		.byte	0xf3
 9537 07f1 01       		.uleb128 0x1
 9538 07f2 50       		.byte	0x50
 9539 07f3 9F       		.byte	0x9f
 9540 07f4 00000000 		.4byte	0
 9541 07f8 00000000 		.4byte	0
 9542              	.LLST55:
 9543 07fc 00000000 		.4byte	.LVL147
 9544 0800 36000000 		.4byte	.LVL152
 9545 0804 0100     		.2byte	0x1
 9546 0806 50       		.byte	0x50
 9547 0807 36000000 		.4byte	.LVL152
 9548 080b F8000000 		.4byte	.LFE44
 9549 080f 0400     		.2byte	0x4
 9550 0811 F3       		.byte	0xf3
ARM GAS  C:\Users\username\AppData\Local\Temp\ccSuCzK2.s 			page 180


 9551 0812 01       		.uleb128 0x1
 9552 0813 50       		.byte	0x50
 9553 0814 9F       		.byte	0x9f
 9554 0815 00000000 		.4byte	0
 9555 0819 00000000 		.4byte	0
 9556              	.LLST56:
 9557 081d 00000000 		.4byte	.LVL147
 9558 0821 18000000 		.4byte	.LVL149
 9559 0825 0100     		.2byte	0x1
 9560 0827 51       		.byte	0x51
 9561 0828 18000000 		.4byte	.LVL149
 9562 082c F8000000 		.4byte	.LFE44
 9563 0830 0400     		.2byte	0x4
 9564 0832 F3       		.byte	0xf3
 9565 0833 01       		.uleb128 0x1
 9566 0834 51       		.byte	0x51
 9567 0835 9F       		.byte	0x9f
 9568 0836 00000000 		.4byte	0
 9569 083a 00000000 		.4byte	0
 9570              	.LLST57:
 9571 083e 00000000 		.4byte	.LVL147
 9572 0842 4A000000 		.4byte	.LVL153
 9573 0846 0100     		.2byte	0x1
 9574 0848 52       		.byte	0x52
 9575 0849 4A000000 		.4byte	.LVL153
 9576 084d 88000000 		.4byte	.LVL157
 9577 0851 0100     		.2byte	0x1
 9578 0853 54       		.byte	0x54
 9579 0854 88000000 		.4byte	.LVL157
 9580 0858 F8000000 		.4byte	.LFE44
 9581 085c 0400     		.2byte	0x4
 9582 085e F3       		.byte	0xf3
 9583 085f 01       		.uleb128 0x1
 9584 0860 52       		.byte	0x52
 9585 0861 9F       		.byte	0x9f
 9586 0862 00000000 		.4byte	0
 9587 0866 00000000 		.4byte	0
 9588              	.LLST58:
 9589 086a 00000000 		.4byte	.LVL147
 9590 086e 14000000 		.4byte	.LVL148
 9591 0872 0100     		.2byte	0x1
 9592 0874 53       		.byte	0x53
 9593 0875 14000000 		.4byte	.LVL148
 9594 0879 F8000000 		.4byte	.LFE44
 9595 087d 0400     		.2byte	0x4
 9596 087f F3       		.byte	0xf3
 9597 0880 01       		.uleb128 0x1
 9598 0881 53       		.byte	0x53
 9599 0882 9F       		.byte	0x9f
 9600 0883 00000000 		.4byte	0
 9601 0887 00000000 		.4byte	0
 9602              	.LLST59:
 9603 088b 00000000 		.4byte	.LVL147
 9604 088f 14000000 		.4byte	.LVL148
 9605 0893 0200     		.2byte	0x2
 9606 0895 91       		.byte	0x91
 9607 0896 00       		.sleb128 0
ARM GAS  C:\Users\username\AppData\Local\Temp\ccSuCzK2.s 			page 181


 9608 0897 14000000 		.4byte	.LVL148
 9609 089b 18000000 		.4byte	.LVL149
 9610 089f 0200     		.2byte	0x2
 9611 08a1 73       		.byte	0x73
 9612 08a2 00       		.sleb128 0
 9613 08a3 18000000 		.4byte	.LVL149
 9614 08a7 F8000000 		.4byte	.LFE44
 9615 08ab 0200     		.2byte	0x2
 9616 08ad 91       		.byte	0x91
 9617 08ae 00       		.sleb128 0
 9618 08af 00000000 		.4byte	0
 9619 08b3 00000000 		.4byte	0
 9620              	.LLST60:
 9621 08b7 00000000 		.4byte	.LVL147
 9622 08bb 14000000 		.4byte	.LVL148
 9623 08bf 0200     		.2byte	0x2
 9624 08c1 91       		.byte	0x91
 9625 08c2 04       		.sleb128 4
 9626 08c3 14000000 		.4byte	.LVL148
 9627 08c7 18000000 		.4byte	.LVL149
 9628 08cb 0200     		.2byte	0x2
 9629 08cd 73       		.byte	0x73
 9630 08ce 04       		.sleb128 4
 9631 08cf 18000000 		.4byte	.LVL149
 9632 08d3 1C000000 		.4byte	.LVL150
 9633 08d7 0200     		.2byte	0x2
 9634 08d9 91       		.byte	0x91
 9635 08da 04       		.sleb128 4
 9636 08db 1C000000 		.4byte	.LVL150
 9637 08df 1E000000 		.4byte	.LVL151
 9638 08e3 0200     		.2byte	0x2
 9639 08e5 73       		.byte	0x73
 9640 08e6 00       		.sleb128 0
 9641 08e7 1E000000 		.4byte	.LVL151
 9642 08eb F8000000 		.4byte	.LFE44
 9643 08ef 0200     		.2byte	0x2
 9644 08f1 91       		.byte	0x91
 9645 08f2 04       		.sleb128 4
 9646 08f3 00000000 		.4byte	0
 9647 08f7 00000000 		.4byte	0
 9648              	.LLST61:
 9649 08fb 00000000 		.4byte	.LVL163
 9650 08ff 22000000 		.4byte	.LVL167
 9651 0903 0100     		.2byte	0x1
 9652 0905 50       		.byte	0x50
 9653 0906 22000000 		.4byte	.LVL167
 9654 090a 7C000000 		.4byte	.LVL174
 9655 090e 0100     		.2byte	0x1
 9656 0910 5A       		.byte	0x5a
 9657 0911 7C000000 		.4byte	.LVL174
 9658 0915 82000000 		.4byte	.LFE45
 9659 0919 0400     		.2byte	0x4
 9660 091b F3       		.byte	0xf3
 9661 091c 01       		.uleb128 0x1
 9662 091d 50       		.byte	0x50
 9663 091e 9F       		.byte	0x9f
 9664 091f 00000000 		.4byte	0
ARM GAS  C:\Users\username\AppData\Local\Temp\ccSuCzK2.s 			page 182


 9665 0923 00000000 		.4byte	0
 9666              	.LLST62:
 9667 0927 00000000 		.4byte	.LVL163
 9668 092b 28000000 		.4byte	.LVL168
 9669 092f 0100     		.2byte	0x1
 9670 0931 51       		.byte	0x51
 9671 0932 28000000 		.4byte	.LVL168
 9672 0936 82000000 		.4byte	.LFE45
 9673 093a 0400     		.2byte	0x4
 9674 093c F3       		.byte	0xf3
 9675 093d 01       		.uleb128 0x1
 9676 093e 51       		.byte	0x51
 9677 093f 9F       		.byte	0x9f
 9678 0940 00000000 		.4byte	0
 9679 0944 00000000 		.4byte	0
 9680              	.LLST63:
 9681 0948 00000000 		.4byte	.LVL163
 9682 094c 2E000000 		.4byte	.LVL169
 9683 0950 0100     		.2byte	0x1
 9684 0952 52       		.byte	0x52
 9685 0953 2E000000 		.4byte	.LVL169
 9686 0957 62000000 		.4byte	.LVL171
 9687 095b 0100     		.2byte	0x1
 9688 095d 54       		.byte	0x54
 9689 095e 62000000 		.4byte	.LVL171
 9690 0962 82000000 		.4byte	.LFE45
 9691 0966 0400     		.2byte	0x4
 9692 0968 F3       		.byte	0xf3
 9693 0969 01       		.uleb128 0x1
 9694 096a 52       		.byte	0x52
 9695 096b 9F       		.byte	0x9f
 9696 096c 00000000 		.4byte	0
 9697 0970 00000000 		.4byte	0
 9698              	.LLST64:
 9699 0974 00000000 		.4byte	.LVL163
 9700 0978 0E000000 		.4byte	.LVL164
 9701 097c 0100     		.2byte	0x1
 9702 097e 53       		.byte	0x53
 9703 097f 0E000000 		.4byte	.LVL164
 9704 0983 82000000 		.4byte	.LFE45
 9705 0987 0400     		.2byte	0x4
 9706 0989 F3       		.byte	0xf3
 9707 098a 01       		.uleb128 0x1
 9708 098b 53       		.byte	0x53
 9709 098c 9F       		.byte	0x9f
 9710 098d 00000000 		.4byte	0
 9711 0991 00000000 		.4byte	0
 9712              	.LLST65:
 9713 0995 00000000 		.4byte	.LVL163
 9714 0999 0E000000 		.4byte	.LVL164
 9715 099d 0200     		.2byte	0x2
 9716 099f 91       		.byte	0x91
 9717 09a0 00       		.sleb128 0
 9718 09a1 0E000000 		.4byte	.LVL164
 9719 09a5 14000000 		.4byte	.LVL165
 9720 09a9 0200     		.2byte	0x2
 9721 09ab 73       		.byte	0x73
ARM GAS  C:\Users\username\AppData\Local\Temp\ccSuCzK2.s 			page 183


 9722 09ac 00       		.sleb128 0
 9723 09ad 14000000 		.4byte	.LVL165
 9724 09b1 82000000 		.4byte	.LFE45
 9725 09b5 0200     		.2byte	0x2
 9726 09b7 91       		.byte	0x91
 9727 09b8 00       		.sleb128 0
 9728 09b9 00000000 		.4byte	0
 9729 09bd 00000000 		.4byte	0
 9730              	.LLST66:
 9731 09c1 00000000 		.4byte	.LVL163
 9732 09c5 0E000000 		.4byte	.LVL164
 9733 09c9 0200     		.2byte	0x2
 9734 09cb 91       		.byte	0x91
 9735 09cc 04       		.sleb128 4
 9736 09cd 0E000000 		.4byte	.LVL164
 9737 09d1 14000000 		.4byte	.LVL165
 9738 09d5 0200     		.2byte	0x2
 9739 09d7 73       		.byte	0x73
 9740 09d8 04       		.sleb128 4
 9741 09d9 14000000 		.4byte	.LVL165
 9742 09dd 1E000000 		.4byte	.LVL166
 9743 09e1 0200     		.2byte	0x2
 9744 09e3 73       		.byte	0x73
 9745 09e4 00       		.sleb128 0
 9746 09e5 1E000000 		.4byte	.LVL166
 9747 09e9 82000000 		.4byte	.LFE45
 9748 09ed 0200     		.2byte	0x2
 9749 09ef 91       		.byte	0x91
 9750 09f0 04       		.sleb128 4
 9751 09f1 00000000 		.4byte	0
 9752 09f5 00000000 		.4byte	0
 9753              	.LLST67:
 9754 09f9 00000000 		.4byte	.LVL175
 9755 09fd 25000000 		.4byte	.LVL181-1
 9756 0a01 0100     		.2byte	0x1
 9757 0a03 50       		.byte	0x50
 9758 0a04 25000000 		.4byte	.LVL181-1
 9759 0a08 46000000 		.4byte	.LFE46
 9760 0a0c 0400     		.2byte	0x4
 9761 0a0e F3       		.byte	0xf3
 9762 0a0f 01       		.uleb128 0x1
 9763 0a10 50       		.byte	0x50
 9764 0a11 9F       		.byte	0x9f
 9765 0a12 00000000 		.4byte	0
 9766 0a16 00000000 		.4byte	0
 9767              	.LLST68:
 9768 0a1a 00000000 		.4byte	.LVL175
 9769 0a1e 25000000 		.4byte	.LVL181-1
 9770 0a22 0100     		.2byte	0x1
 9771 0a24 51       		.byte	0x51
 9772 0a25 25000000 		.4byte	.LVL181-1
 9773 0a29 46000000 		.4byte	.LFE46
 9774 0a2d 0400     		.2byte	0x4
 9775 0a2f F3       		.byte	0xf3
 9776 0a30 01       		.uleb128 0x1
 9777 0a31 51       		.byte	0x51
 9778 0a32 9F       		.byte	0x9f
ARM GAS  C:\Users\username\AppData\Local\Temp\ccSuCzK2.s 			page 184


 9779 0a33 00000000 		.4byte	0
 9780 0a37 00000000 		.4byte	0
 9781              	.LLST69:
 9782 0a3b 00000000 		.4byte	.LVL175
 9783 0a3f 0E000000 		.4byte	.LVL177
 9784 0a43 0100     		.2byte	0x1
 9785 0a45 52       		.byte	0x52
 9786 0a46 0E000000 		.4byte	.LVL177
 9787 0a4a 46000000 		.4byte	.LFE46
 9788 0a4e 0400     		.2byte	0x4
 9789 0a50 F3       		.byte	0xf3
 9790 0a51 01       		.uleb128 0x1
 9791 0a52 52       		.byte	0x52
 9792 0a53 9F       		.byte	0x9f
 9793 0a54 00000000 		.4byte	0
 9794 0a58 00000000 		.4byte	0
 9795              	.LLST70:
 9796 0a5c 00000000 		.4byte	.LVL175
 9797 0a60 0A000000 		.4byte	.LVL176
 9798 0a64 0100     		.2byte	0x1
 9799 0a66 53       		.byte	0x53
 9800 0a67 0A000000 		.4byte	.LVL176
 9801 0a6b 46000000 		.4byte	.LFE46
 9802 0a6f 0400     		.2byte	0x4
 9803 0a71 F3       		.byte	0xf3
 9804 0a72 01       		.uleb128 0x1
 9805 0a73 53       		.byte	0x53
 9806 0a74 9F       		.byte	0x9f
 9807 0a75 00000000 		.4byte	0
 9808 0a79 00000000 		.4byte	0
 9809              	.LLST71:
 9810 0a7d 00000000 		.4byte	.LVL175
 9811 0a81 0A000000 		.4byte	.LVL176
 9812 0a85 0200     		.2byte	0x2
 9813 0a87 91       		.byte	0x91
 9814 0a88 00       		.sleb128 0
 9815 0a89 0A000000 		.4byte	.LVL176
 9816 0a8d 10000000 		.4byte	.LVL178
 9817 0a91 0200     		.2byte	0x2
 9818 0a93 73       		.byte	0x73
 9819 0a94 00       		.sleb128 0
 9820 0a95 10000000 		.4byte	.LVL178
 9821 0a99 46000000 		.4byte	.LFE46
 9822 0a9d 0200     		.2byte	0x2
 9823 0a9f 91       		.byte	0x91
 9824 0aa0 00       		.sleb128 0
 9825 0aa1 00000000 		.4byte	0
 9826 0aa5 00000000 		.4byte	0
 9827              	.LLST72:
 9828 0aa9 00000000 		.4byte	.LVL175
 9829 0aad 0A000000 		.4byte	.LVL176
 9830 0ab1 0200     		.2byte	0x2
 9831 0ab3 91       		.byte	0x91
 9832 0ab4 04       		.sleb128 4
 9833 0ab5 0A000000 		.4byte	.LVL176
 9834 0ab9 10000000 		.4byte	.LVL178
 9835 0abd 0200     		.2byte	0x2
ARM GAS  C:\Users\username\AppData\Local\Temp\ccSuCzK2.s 			page 185


 9836 0abf 73       		.byte	0x73
 9837 0ac0 04       		.sleb128 4
 9838 0ac1 10000000 		.4byte	.LVL178
 9839 0ac5 16000000 		.4byte	.LVL179
 9840 0ac9 0200     		.2byte	0x2
 9841 0acb 73       		.byte	0x73
 9842 0acc 00       		.sleb128 0
 9843 0acd 16000000 		.4byte	.LVL179
 9844 0ad1 46000000 		.4byte	.LFE46
 9845 0ad5 0200     		.2byte	0x2
 9846 0ad7 91       		.byte	0x91
 9847 0ad8 04       		.sleb128 4
 9848 0ad9 00000000 		.4byte	0
 9849 0add 00000000 		.4byte	0
 9850              	.LLST73:
 9851 0ae1 00000000 		.4byte	.LVL175
 9852 0ae5 0A000000 		.4byte	.LVL176
 9853 0ae9 0200     		.2byte	0x2
 9854 0aeb 91       		.byte	0x91
 9855 0aec 08       		.sleb128 8
 9856 0aed 0A000000 		.4byte	.LVL176
 9857 0af1 10000000 		.4byte	.LVL178
 9858 0af5 0200     		.2byte	0x2
 9859 0af7 73       		.byte	0x73
 9860 0af8 08       		.sleb128 8
 9861 0af9 10000000 		.4byte	.LVL178
 9862 0afd 16000000 		.4byte	.LVL179
 9863 0b01 0200     		.2byte	0x2
 9864 0b03 91       		.byte	0x91
 9865 0b04 08       		.sleb128 8
 9866 0b05 16000000 		.4byte	.LVL179
 9867 0b09 22000000 		.4byte	.LVL180
 9868 0b0d 0200     		.2byte	0x2
 9869 0b0f 73       		.byte	0x73
 9870 0b10 00       		.sleb128 0
 9871 0b11 22000000 		.4byte	.LVL180
 9872 0b15 46000000 		.4byte	.LFE46
 9873 0b19 0200     		.2byte	0x2
 9874 0b1b 91       		.byte	0x91
 9875 0b1c 08       		.sleb128 8
 9876 0b1d 00000000 		.4byte	0
 9877 0b21 00000000 		.4byte	0
 9878              	.LLST74:
 9879 0b25 00000000 		.4byte	.LVL184
 9880 0b29 36000000 		.4byte	.LVL190
 9881 0b2d 0100     		.2byte	0x1
 9882 0b2f 50       		.byte	0x50
 9883 0b30 36000000 		.4byte	.LVL190
 9884 0b34 38000000 		.4byte	.LVL191
 9885 0b38 0400     		.2byte	0x4
 9886 0b3a F3       		.byte	0xf3
 9887 0b3b 01       		.uleb128 0x1
 9888 0b3c 50       		.byte	0x50
 9889 0b3d 9F       		.byte	0x9f
 9890 0b3e 38000000 		.4byte	.LVL191
 9891 0b42 5A000000 		.4byte	.LVL197
 9892 0b46 0100     		.2byte	0x1
ARM GAS  C:\Users\username\AppData\Local\Temp\ccSuCzK2.s 			page 186


 9893 0b48 50       		.byte	0x50
 9894 0b49 5C000000 		.4byte	.LVL198
 9895 0b4d 72000000 		.4byte	.LVL203
 9896 0b51 0100     		.2byte	0x1
 9897 0b53 50       		.byte	0x50
 9898 0b54 94000000 		.4byte	.LVL211
 9899 0b58 AE000000 		.4byte	.LVL214
 9900 0b5c 0100     		.2byte	0x1
 9901 0b5e 50       		.byte	0x50
 9902 0b5f AE000000 		.4byte	.LVL214
 9903 0b63 BA010000 		.4byte	.LVL257
 9904 0b67 0100     		.2byte	0x1
 9905 0b69 58       		.byte	0x58
 9906 0b6a 00000000 		.4byte	0
 9907 0b6e 00000000 		.4byte	0
 9908              	.LLST75:
 9909 0b72 00000000 		.4byte	.LVL184
 9910 0b76 1E000000 		.4byte	.LVL187
 9911 0b7a 0100     		.2byte	0x1
 9912 0b7c 51       		.byte	0x51
 9913 0b7d 1E000000 		.4byte	.LVL187
 9914 0b81 38000000 		.4byte	.LVL191
 9915 0b85 0400     		.2byte	0x4
 9916 0b87 F3       		.byte	0xf3
 9917 0b88 01       		.uleb128 0x1
 9918 0b89 51       		.byte	0x51
 9919 0b8a 9F       		.byte	0x9f
 9920 0b8b 38000000 		.4byte	.LVL191
 9921 0b8f 54000000 		.4byte	.LVL195
 9922 0b93 0200     		.2byte	0x2
 9923 0b95 91       		.byte	0x91
 9924 0b96 50       		.sleb128 -48
 9925 0b97 5C000000 		.4byte	.LVL198
 9926 0b9b C8010000 		.4byte	.LFE47
 9927 0b9f 0200     		.2byte	0x2
 9928 0ba1 91       		.byte	0x91
 9929 0ba2 50       		.sleb128 -48
 9930 0ba3 00000000 		.4byte	0
 9931 0ba7 00000000 		.4byte	0
 9932              	.LLST76:
 9933 0bab 00000000 		.4byte	.LVL184
 9934 0baf 38000000 		.4byte	.LVL191
 9935 0bb3 0100     		.2byte	0x1
 9936 0bb5 52       		.byte	0x52
 9937 0bb6 38000000 		.4byte	.LVL191
 9938 0bba 48000000 		.4byte	.LVL193
 9939 0bbe 0100     		.2byte	0x1
 9940 0bc0 52       		.byte	0x52
 9941 0bc1 4A000000 		.4byte	.LVL194
 9942 0bc5 6A000000 		.4byte	.LVL200
 9943 0bc9 0100     		.2byte	0x1
 9944 0bcb 52       		.byte	0x52
 9945 0bcc 6C000000 		.4byte	.LVL201
 9946 0bd0 70000000 		.4byte	.LVL202
 9947 0bd4 0100     		.2byte	0x1
 9948 0bd6 52       		.byte	0x52
 9949 0bd7 94000000 		.4byte	.LVL211
ARM GAS  C:\Users\username\AppData\Local\Temp\ccSuCzK2.s 			page 187


 9950 0bdb 9A000000 		.4byte	.LVL212
 9951 0bdf 0100     		.2byte	0x1
 9952 0be1 52       		.byte	0x52
 9953 0be2 9A000000 		.4byte	.LVL212
 9954 0be6 BA010000 		.4byte	.LVL257
 9955 0bea 0100     		.2byte	0x1
 9956 0bec 5B       		.byte	0x5b
 9957 0bed 00000000 		.4byte	0
 9958 0bf1 00000000 		.4byte	0
 9959              	.LLST77:
 9960 0bf5 00000000 		.4byte	.LVL184
 9961 0bf9 18000000 		.4byte	.LVL185
 9962 0bfd 0100     		.2byte	0x1
 9963 0bff 53       		.byte	0x53
 9964 0c00 18000000 		.4byte	.LVL185
 9965 0c04 38000000 		.4byte	.LVL191
 9966 0c08 0400     		.2byte	0x4
 9967 0c0a F3       		.byte	0xf3
 9968 0c0b 01       		.uleb128 0x1
 9969 0c0c 53       		.byte	0x53
 9970 0c0d 9F       		.byte	0x9f
 9971 0c0e 38000000 		.4byte	.LVL191
 9972 0c12 42000000 		.4byte	.LVL192
 9973 0c16 0200     		.2byte	0x2
 9974 0c18 91       		.byte	0x91
 9975 0c19 4C       		.sleb128 -52
 9976 0c1a 4A000000 		.4byte	.LVL194
 9977 0c1e 56000000 		.4byte	.LVL196
 9978 0c22 0200     		.2byte	0x2
 9979 0c24 91       		.byte	0x91
 9980 0c25 4C       		.sleb128 -52
 9981 0c26 5C000000 		.4byte	.LVL198
 9982 0c2a C8010000 		.4byte	.LFE47
 9983 0c2e 0200     		.2byte	0x2
 9984 0c30 91       		.byte	0x91
 9985 0c31 4C       		.sleb128 -52
 9986 0c32 00000000 		.4byte	0
 9987 0c36 00000000 		.4byte	0
 9988              	.LLST78:
 9989 0c3a 00000000 		.4byte	.LVL184
 9990 0c3e 18000000 		.4byte	.LVL185
 9991 0c42 0200     		.2byte	0x2
 9992 0c44 91       		.byte	0x91
 9993 0c45 00       		.sleb128 0
 9994 0c46 18000000 		.4byte	.LVL185
 9995 0c4a 1C000000 		.4byte	.LVL186
 9996 0c4e 0200     		.2byte	0x2
 9997 0c50 73       		.byte	0x73
 9998 0c51 00       		.sleb128 0
 9999 0c52 1C000000 		.4byte	.LVL186
 10000 0c56 4A000000 		.4byte	.LVL194
 10001 0c5a 0200     		.2byte	0x2
 10002 0c5c 91       		.byte	0x91
 10003 0c5d 00       		.sleb128 0
 10004 0c5e 4A000000 		.4byte	.LVL194
 10005 0c62 7C000000 		.4byte	.LVL204
 10006 0c66 0100     		.2byte	0x1
ARM GAS  C:\Users\username\AppData\Local\Temp\ccSuCzK2.s 			page 188


 10007 0c68 53       		.byte	0x53
 10008 0c69 7E000000 		.4byte	.LVL205
 10009 0c6d 82000000 		.4byte	.LVL207
 10010 0c71 0100     		.2byte	0x1
 10011 0c73 53       		.byte	0x53
 10012 0c74 94000000 		.4byte	.LVL211
 10013 0c78 D0000000 		.4byte	.LVL218
 10014 0c7c 0100     		.2byte	0x1
 10015 0c7e 53       		.byte	0x53
 10016 0c7f 00000000 		.4byte	0
 10017 0c83 00000000 		.4byte	0
 10018              	.LLST79:
 10019 0c87 00000000 		.4byte	.LVL184
 10020 0c8b 18000000 		.4byte	.LVL185
 10021 0c8f 0200     		.2byte	0x2
 10022 0c91 91       		.byte	0x91
 10023 0c92 04       		.sleb128 4
 10024 0c93 18000000 		.4byte	.LVL185
 10025 0c97 1C000000 		.4byte	.LVL186
 10026 0c9b 0200     		.2byte	0x2
 10027 0c9d 73       		.byte	0x73
 10028 0c9e 04       		.sleb128 4
 10029 0c9f 1C000000 		.4byte	.LVL186
 10030 0ca3 1E000000 		.4byte	.LVL187
 10031 0ca7 0200     		.2byte	0x2
 10032 0ca9 91       		.byte	0x91
 10033 0caa 04       		.sleb128 4
 10034 0cab 1E000000 		.4byte	.LVL187
 10035 0caf 26000000 		.4byte	.LVL188
 10036 0cb3 0200     		.2byte	0x2
 10037 0cb5 71       		.byte	0x71
 10038 0cb6 00       		.sleb128 0
 10039 0cb7 26000000 		.4byte	.LVL188
 10040 0cbb 4A000000 		.4byte	.LVL194
 10041 0cbf 0200     		.2byte	0x2
 10042 0cc1 91       		.byte	0x91
 10043 0cc2 04       		.sleb128 4
 10044 0cc3 4A000000 		.4byte	.LVL194
 10045 0cc7 BC010000 		.4byte	.LVL258
 10046 0ccb 0100     		.2byte	0x1
 10047 0ccd 5A       		.byte	0x5a
 10048 0cce 00000000 		.4byte	0
 10049 0cd2 00000000 		.4byte	0
 10050              	.LLST80:
 10051 0cd6 00000000 		.4byte	.LVL184
 10052 0cda 18000000 		.4byte	.LVL185
 10053 0cde 0200     		.2byte	0x2
 10054 0ce0 91       		.byte	0x91
 10055 0ce1 08       		.sleb128 8
 10056 0ce2 18000000 		.4byte	.LVL185
 10057 0ce6 1C000000 		.4byte	.LVL186
 10058 0cea 0200     		.2byte	0x2
 10059 0cec 73       		.byte	0x73
 10060 0ced 08       		.sleb128 8
 10061 0cee 1C000000 		.4byte	.LVL186
 10062 0cf2 26000000 		.4byte	.LVL188
 10063 0cf6 0200     		.2byte	0x2
ARM GAS  C:\Users\username\AppData\Local\Temp\ccSuCzK2.s 			page 189


 10064 0cf8 91       		.byte	0x91
 10065 0cf9 08       		.sleb128 8
 10066 0cfa 26000000 		.4byte	.LVL188
 10067 0cfe 34000000 		.4byte	.LVL189
 10068 0d02 0200     		.2byte	0x2
 10069 0d04 71       		.byte	0x71
 10070 0d05 00       		.sleb128 0
 10071 0d06 34000000 		.4byte	.LVL189
 10072 0d0a C8010000 		.4byte	.LFE47
 10073 0d0e 0200     		.2byte	0x2
 10074 0d10 91       		.byte	0x91
 10075 0d11 08       		.sleb128 8
 10076 0d12 00000000 		.4byte	0
 10077 0d16 00000000 		.4byte	0
 10078              	.LLST81:
 10079 0d1a 62000000 		.4byte	.LVL199
 10080 0d1e 72000000 		.4byte	.LVL203
 10081 0d22 0100     		.2byte	0x1
 10082 0d24 50       		.byte	0x50
 10083 0d25 72000000 		.4byte	.LVL203
 10084 0d29 82000000 		.4byte	.LVL207
 10085 0d2d 0100     		.2byte	0x1
 10086 0d2f 52       		.byte	0x52
 10087 0d30 82000000 		.4byte	.LVL207
 10088 0d34 8E000000 		.4byte	.LVL209
 10089 0d38 0100     		.2byte	0x1
 10090 0d3a 53       		.byte	0x53
 10091 0d3b 02010000 		.4byte	.LVL226
 10092 0d3f 32010000 		.4byte	.LVL232
 10093 0d43 0100     		.2byte	0x1
 10094 0d45 54       		.byte	0x54
 10095 0d46 32010000 		.4byte	.LVL232
 10096 0d4a 36010000 		.4byte	.LVL233
 10097 0d4e 0100     		.2byte	0x1
 10098 0d50 52       		.byte	0x52
 10099 0d51 36010000 		.4byte	.LVL233
 10100 0d55 41010000 		.4byte	.LVL235-1
 10101 0d59 0100     		.2byte	0x1
 10102 0d5b 50       		.byte	0x50
 10103 0d5c 7A010000 		.4byte	.LVL245
 10104 0d60 A2010000 		.4byte	.LVL251
 10105 0d64 0100     		.2byte	0x1
 10106 0d66 54       		.byte	0x54
 10107 0d67 A2010000 		.4byte	.LVL251
 10108 0d6b A6010000 		.4byte	.LVL252
 10109 0d6f 0100     		.2byte	0x1
 10110 0d71 52       		.byte	0x52
 10111 0d72 A6010000 		.4byte	.LVL252
 10112 0d76 B1010000 		.4byte	.LVL254-1
 10113 0d7a 0100     		.2byte	0x1
 10114 0d7c 50       		.byte	0x50
 10115 0d7d 00000000 		.4byte	0
 10116 0d81 00000000 		.4byte	0
 10117              	.LLST82:
 10118 0d85 62000000 		.4byte	.LVL199
 10119 0d89 80000000 		.4byte	.LVL206
 10120 0d8d 0100     		.2byte	0x1
ARM GAS  C:\Users\username\AppData\Local\Temp\ccSuCzK2.s 			page 190


 10121 0d8f 50       		.byte	0x50
 10122 0d90 82000000 		.4byte	.LVL207
 10123 0d94 86000000 		.4byte	.LVL208
 10124 0d98 0100     		.2byte	0x1
 10125 0d9a 50       		.byte	0x50
 10126 0d9b 14010000 		.4byte	.LVL228
 10127 0d9f 30010000 		.4byte	.LVL231
 10128 0da3 0100     		.2byte	0x1
 10129 0da5 52       		.byte	0x52
 10130 0da6 30010000 		.4byte	.LVL231
 10131 0daa 32010000 		.4byte	.LVL232
 10132 0dae 0100     		.2byte	0x1
 10133 0db0 53       		.byte	0x53
 10134 0db1 32010000 		.4byte	.LVL232
 10135 0db5 38010000 		.4byte	.LVL234
 10136 0db9 0100     		.2byte	0x1
 10137 0dbb 54       		.byte	0x54
 10138 0dbc 8C010000 		.4byte	.LVL247
 10139 0dc0 A0010000 		.4byte	.LVL250
 10140 0dc4 0100     		.2byte	0x1
 10141 0dc6 52       		.byte	0x52
 10142 0dc7 A0010000 		.4byte	.LVL250
 10143 0dcb A2010000 		.4byte	.LVL251
 10144 0dcf 0100     		.2byte	0x1
 10145 0dd1 53       		.byte	0x53
 10146 0dd2 A2010000 		.4byte	.LVL251
 10147 0dd6 A8010000 		.4byte	.LVL253
 10148 0dda 0100     		.2byte	0x1
 10149 0ddc 54       		.byte	0x54
 10150 0ddd 00000000 		.4byte	0
 10151 0de1 00000000 		.4byte	0
 10152              	.LLST83:
 10153 0de5 EA000000 		.4byte	.LVL223
 10154 0de9 F2000000 		.4byte	.LVL224
 10155 0ded 0200     		.2byte	0x2
 10156 0def 91       		.byte	0x91
 10157 0df0 50       		.sleb128 -48
 10158 0df1 F2000000 		.4byte	.LVL224
 10159 0df5 44010000 		.4byte	.LVL236
 10160 0df9 0100     		.2byte	0x1
 10161 0dfb 55       		.byte	0x55
 10162 0dfc 46010000 		.4byte	.LVL237
 10163 0e00 B4010000 		.4byte	.LVL255
 10164 0e04 0100     		.2byte	0x1
 10165 0e06 55       		.byte	0x55
 10166 0e07 B6010000 		.4byte	.LVL256
 10167 0e0b BA010000 		.4byte	.LVL257
 10168 0e0f 0100     		.2byte	0x1
 10169 0e11 55       		.byte	0x55
 10170 0e12 00000000 		.4byte	0
 10171 0e16 00000000 		.4byte	0
 10172              	.LLST84:
 10173 0e1a E4000000 		.4byte	.LVL221
 10174 0e1e E6000000 		.4byte	.LVL222
 10175 0e22 0100     		.2byte	0x1
 10176 0e24 59       		.byte	0x59
 10177 0e25 EA000000 		.4byte	.LVL223
ARM GAS  C:\Users\username\AppData\Local\Temp\ccSuCzK2.s 			page 191


 10178 0e29 60010000 		.4byte	.LVL241
 10179 0e2d 0100     		.2byte	0x1
 10180 0e2f 59       		.byte	0x59
 10181 0e30 00000000 		.4byte	0
 10182 0e34 00000000 		.4byte	0
 10183              	.LLST85:
 10184 0e38 A6000000 		.4byte	.LVL213
 10185 0e3c 52010000 		.4byte	.LVL238
 10186 0e40 0200     		.2byte	0x2
 10187 0e42 91       		.byte	0x91
 10188 0e43 40       		.sleb128 -64
 10189 0e44 00000000 		.4byte	0
 10190 0e48 00000000 		.4byte	0
 10191              	.LLST86:
 10192 0e4c B4000000 		.4byte	.LVL215
 10193 0e50 BA010000 		.4byte	.LVL257
 10194 0e54 0200     		.2byte	0x2
 10195 0e56 91       		.byte	0x91
 10196 0e57 44       		.sleb128 -60
 10197 0e58 00000000 		.4byte	0
 10198 0e5c 00000000 		.4byte	0
 10199              	.LLST87:
 10200 0e60 BE000000 		.4byte	.LVL216
 10201 0e64 BA010000 		.4byte	.LVL257
 10202 0e68 0300     		.2byte	0x3
 10203 0e6a 91       		.byte	0x91
 10204 0e6b BC7F     		.sleb128 -68
 10205 0e6d 00000000 		.4byte	0
 10206 0e71 00000000 		.4byte	0
 10207              	.LLST88:
 10208 0e75 CC000000 		.4byte	.LVL217
 10209 0e79 BA010000 		.4byte	.LVL257
 10210 0e7d 0300     		.2byte	0x3
 10211 0e7f 91       		.byte	0x91
 10212 0e80 B87F     		.sleb128 -72
 10213 0e82 00000000 		.4byte	0
 10214 0e86 00000000 		.4byte	0
 10215              	.LLST89:
 10216 0e8a D4000000 		.4byte	.LVL219
 10217 0e8e BA010000 		.4byte	.LVL257
 10218 0e92 0200     		.2byte	0x2
 10219 0e94 91       		.byte	0x91
 10220 0e95 54       		.sleb128 -44
 10221 0e96 00000000 		.4byte	0
 10222 0e9a 00000000 		.4byte	0
 10223              	.LLST90:
 10224 0e9e DA000000 		.4byte	.LVL220
 10225 0ea2 BA010000 		.4byte	.LVL257
 10226 0ea6 0200     		.2byte	0x2
 10227 0ea8 91       		.byte	0x91
 10228 0ea9 48       		.sleb128 -56
 10229 0eaa 00000000 		.4byte	0
 10230 0eae 00000000 		.4byte	0
 10231              	.LLST91:
 10232 0eb2 DA000000 		.4byte	.LVL220
 10233 0eb6 F2000000 		.4byte	.LVL224
 10234 0eba 0200     		.2byte	0x2
ARM GAS  C:\Users\username\AppData\Local\Temp\ccSuCzK2.s 			page 192


 10235 0ebc 30       		.byte	0x30
 10236 0ebd 9F       		.byte	0x9f
 10237 0ebe F2000000 		.4byte	.LVL224
 10238 0ec2 56010000 		.4byte	.LVL239
 10239 0ec6 0100     		.2byte	0x1
 10240 0ec8 56       		.byte	0x56
 10241 0ec9 58010000 		.4byte	.LVL240
 10242 0ecd BA010000 		.4byte	.LVL257
 10243 0ed1 0100     		.2byte	0x1
 10244 0ed3 56       		.byte	0x56
 10245 0ed4 00000000 		.4byte	0
 10246 0ed8 00000000 		.4byte	0
 10247              	.LLST92:
 10248 0edc DA000000 		.4byte	.LVL220
 10249 0ee0 F2000000 		.4byte	.LVL224
 10250 0ee4 0200     		.2byte	0x2
 10251 0ee6 30       		.byte	0x30
 10252 0ee7 9F       		.byte	0x9f
 10253 0ee8 F2000000 		.4byte	.LVL224
 10254 0eec 64010000 		.4byte	.LVL242
 10255 0ef0 0100     		.2byte	0x1
 10256 0ef2 57       		.byte	0x57
 10257 0ef3 68010000 		.4byte	.LVL243
 10258 0ef7 BA010000 		.4byte	.LVL257
 10259 0efb 0100     		.2byte	0x1
 10260 0efd 57       		.byte	0x57
 10261 0efe 00000000 		.4byte	0
 10262 0f02 00000000 		.4byte	0
 10263              	.LLST93:
 10264 0f06 00000000 		.4byte	.LVL259
 10265 0f0a 34000000 		.4byte	.LVL265
 10266 0f0e 0100     		.2byte	0x1
 10267 0f10 50       		.byte	0x50
 10268 0f11 34000000 		.4byte	.LVL265
 10269 0f15 96000000 		.4byte	.LFE48
 10270 0f19 0400     		.2byte	0x4
 10271 0f1b F3       		.byte	0xf3
 10272 0f1c 01       		.uleb128 0x1
 10273 0f1d 50       		.byte	0x50
 10274 0f1e 9F       		.byte	0x9f
 10275 0f1f 00000000 		.4byte	0
 10276 0f23 00000000 		.4byte	0
 10277              	.LLST94:
 10278 0f27 00000000 		.4byte	.LVL259
 10279 0f2b 34000000 		.4byte	.LVL265
 10280 0f2f 0100     		.2byte	0x1
 10281 0f31 51       		.byte	0x51
 10282 0f32 34000000 		.4byte	.LVL265
 10283 0f36 96000000 		.4byte	.LFE48
 10284 0f3a 0400     		.2byte	0x4
 10285 0f3c F3       		.byte	0xf3
 10286 0f3d 01       		.uleb128 0x1
 10287 0f3e 51       		.byte	0x51
 10288 0f3f 9F       		.byte	0x9f
 10289 0f40 00000000 		.4byte	0
 10290 0f44 00000000 		.4byte	0
 10291              	.LLST95:
ARM GAS  C:\Users\username\AppData\Local\Temp\ccSuCzK2.s 			page 193


 10292 0f48 00000000 		.4byte	.LVL259
 10293 0f4c 1A000000 		.4byte	.LVL261
 10294 0f50 0100     		.2byte	0x1
 10295 0f52 52       		.byte	0x52
 10296 0f53 1A000000 		.4byte	.LVL261
 10297 0f57 8C000000 		.4byte	.LVL276
 10298 0f5b 0100     		.2byte	0x1
 10299 0f5d 57       		.byte	0x57
 10300 0f5e 8C000000 		.4byte	.LVL276
 10301 0f62 96000000 		.4byte	.LFE48
 10302 0f66 0400     		.2byte	0x4
 10303 0f68 F3       		.byte	0xf3
 10304 0f69 01       		.uleb128 0x1
 10305 0f6a 52       		.byte	0x52
 10306 0f6b 9F       		.byte	0x9f
 10307 0f6c 00000000 		.4byte	0
 10308 0f70 00000000 		.4byte	0
 10309              	.LLST96:
 10310 0f74 00000000 		.4byte	.LVL259
 10311 0f78 16000000 		.4byte	.LVL260
 10312 0f7c 0100     		.2byte	0x1
 10313 0f7e 53       		.byte	0x53
 10314 0f7f 16000000 		.4byte	.LVL260
 10315 0f83 96000000 		.4byte	.LFE48
 10316 0f87 0400     		.2byte	0x4
 10317 0f89 F3       		.byte	0xf3
 10318 0f8a 01       		.uleb128 0x1
 10319 0f8b 53       		.byte	0x53
 10320 0f8c 9F       		.byte	0x9f
 10321 0f8d 00000000 		.4byte	0
 10322 0f91 00000000 		.4byte	0
 10323              	.LLST97:
 10324 0f95 00000000 		.4byte	.LVL259
 10325 0f99 16000000 		.4byte	.LVL260
 10326 0f9d 0200     		.2byte	0x2
 10327 0f9f 91       		.byte	0x91
 10328 0fa0 00       		.sleb128 0
 10329 0fa1 16000000 		.4byte	.LVL260
 10330 0fa5 1A000000 		.4byte	.LVL261
 10331 0fa9 0200     		.2byte	0x2
 10332 0fab 73       		.byte	0x73
 10333 0fac 00       		.sleb128 0
 10334 0fad 1A000000 		.4byte	.LVL261
 10335 0fb1 96000000 		.4byte	.LFE48
 10336 0fb5 0200     		.2byte	0x2
 10337 0fb7 91       		.byte	0x91
 10338 0fb8 00       		.sleb128 0
 10339 0fb9 00000000 		.4byte	0
 10340 0fbd 00000000 		.4byte	0
 10341              	.LLST98:
 10342 0fc1 00000000 		.4byte	.LVL259
 10343 0fc5 16000000 		.4byte	.LVL260
 10344 0fc9 0200     		.2byte	0x2
 10345 0fcb 91       		.byte	0x91
 10346 0fcc 04       		.sleb128 4
 10347 0fcd 16000000 		.4byte	.LVL260
 10348 0fd1 1A000000 		.4byte	.LVL261
ARM GAS  C:\Users\username\AppData\Local\Temp\ccSuCzK2.s 			page 194


 10349 0fd5 0200     		.2byte	0x2
 10350 0fd7 73       		.byte	0x73
 10351 0fd8 04       		.sleb128 4
 10352 0fd9 1A000000 		.4byte	.LVL261
 10353 0fdd 1E000000 		.4byte	.LVL262
 10354 0fe1 0200     		.2byte	0x2
 10355 0fe3 91       		.byte	0x91
 10356 0fe4 04       		.sleb128 4
 10357 0fe5 1E000000 		.4byte	.LVL262
 10358 0fe9 20000000 		.4byte	.LVL263
 10359 0fed 0200     		.2byte	0x2
 10360 0fef 73       		.byte	0x73
 10361 0ff0 00       		.sleb128 0
 10362 0ff1 20000000 		.4byte	.LVL263
 10363 0ff5 96000000 		.4byte	.LFE48
 10364 0ff9 0200     		.2byte	0x2
 10365 0ffb 91       		.byte	0x91
 10366 0ffc 04       		.sleb128 4
 10367 0ffd 00000000 		.4byte	0
 10368 1001 00000000 		.4byte	0
 10369              	.LLST99:
 10370 1005 34000000 		.4byte	.LVL265
 10371 1009 74000000 		.4byte	.LVL268
 10372 100d 0100     		.2byte	0x1
 10373 100f 54       		.byte	0x54
 10374 1010 74000000 		.4byte	.LVL268
 10375 1014 76000000 		.4byte	.LVL269
 10376 1018 0300     		.2byte	0x3
 10377 101a 74       		.byte	0x74
 10378 101b 7F       		.sleb128 -1
 10379 101c 9F       		.byte	0x9f
 10380 101d 76000000 		.4byte	.LVL269
 10381 1021 78000000 		.4byte	.LVL270
 10382 1025 0100     		.2byte	0x1
 10383 1027 54       		.byte	0x54
 10384 1028 7A000000 		.4byte	.LVL271
 10385 102c 84000000 		.4byte	.LVL273
 10386 1030 0100     		.2byte	0x1
 10387 1032 54       		.byte	0x54
 10388 1033 00000000 		.4byte	0
 10389 1037 00000000 		.4byte	0
 10390              	.LLST100:
 10391 103b 30000000 		.4byte	.LVL264
 10392 103f 34000000 		.4byte	.LVL265
 10393 1043 0200     		.2byte	0x2
 10394 1045 30       		.byte	0x30
 10395 1046 9F       		.byte	0x9f
 10396 1047 34000000 		.4byte	.LVL265
 10397 104b 82000000 		.4byte	.LVL272
 10398 104f 0100     		.2byte	0x1
 10399 1051 55       		.byte	0x55
 10400 1052 84000000 		.4byte	.LVL273
 10401 1056 8C000000 		.4byte	.LVL275
 10402 105a 0100     		.2byte	0x1
 10403 105c 55       		.byte	0x55
 10404 105d 8C000000 		.4byte	.LVL275
 10405 1061 96000000 		.4byte	.LFE48
ARM GAS  C:\Users\username\AppData\Local\Temp\ccSuCzK2.s 			page 195


 10406 1065 0100     		.2byte	0x1
 10407 1067 53       		.byte	0x53
 10408 1068 00000000 		.4byte	0
 10409 106c 00000000 		.4byte	0
 10410              	.LLST101:
 10411 1070 30000000 		.4byte	.LVL264
 10412 1074 8C000000 		.4byte	.LVL274
 10413 1078 0200     		.2byte	0x2
 10414 107a 7D       		.byte	0x7d
 10415 107b 00       		.sleb128 0
 10416 107c 8C000000 		.4byte	.LVL274
 10417 1080 96000000 		.4byte	.LFE48
 10418 1084 0200     		.2byte	0x2
 10419 1086 91       		.byte	0x91
 10420 1087 58       		.sleb128 -40
 10421 1088 00000000 		.4byte	0
 10422 108c 00000000 		.4byte	0
 10423              	.LLST102:
 10424 1090 00000000 		.4byte	.LVL277
 10425 1094 3A000000 		.4byte	.LVL285
 10426 1098 0100     		.2byte	0x1
 10427 109a 50       		.byte	0x50
 10428 109b 3A000000 		.4byte	.LVL285
 10429 109f B0000000 		.4byte	.LFE49
 10430 10a3 0400     		.2byte	0x4
 10431 10a5 F3       		.byte	0xf3
 10432 10a6 01       		.uleb128 0x1
 10433 10a7 50       		.byte	0x50
 10434 10a8 9F       		.byte	0x9f
 10435 10a9 00000000 		.4byte	0
 10436 10ad 00000000 		.4byte	0
 10437              	.LLST103:
 10438 10b1 00000000 		.4byte	.LVL277
 10439 10b5 3A000000 		.4byte	.LVL285
 10440 10b9 0100     		.2byte	0x1
 10441 10bb 51       		.byte	0x51
 10442 10bc 3A000000 		.4byte	.LVL285
 10443 10c0 B0000000 		.4byte	.LFE49
 10444 10c4 0400     		.2byte	0x4
 10445 10c6 F3       		.byte	0xf3
 10446 10c7 01       		.uleb128 0x1
 10447 10c8 51       		.byte	0x51
 10448 10c9 9F       		.byte	0x9f
 10449 10ca 00000000 		.4byte	0
 10450 10ce 00000000 		.4byte	0
 10451              	.LLST104:
 10452 10d2 00000000 		.4byte	.LVL277
 10453 10d6 1A000000 		.4byte	.LVL279
 10454 10da 0100     		.2byte	0x1
 10455 10dc 52       		.byte	0x52
 10456 10dd 1A000000 		.4byte	.LVL279
 10457 10e1 A6000000 		.4byte	.LVL296
 10458 10e5 0100     		.2byte	0x1
 10459 10e7 57       		.byte	0x57
 10460 10e8 A6000000 		.4byte	.LVL296
 10461 10ec B0000000 		.4byte	.LFE49
 10462 10f0 0400     		.2byte	0x4
ARM GAS  C:\Users\username\AppData\Local\Temp\ccSuCzK2.s 			page 196


 10463 10f2 F3       		.byte	0xf3
 10464 10f3 01       		.uleb128 0x1
 10465 10f4 52       		.byte	0x52
 10466 10f5 9F       		.byte	0x9f
 10467 10f6 00000000 		.4byte	0
 10468 10fa 00000000 		.4byte	0
 10469              	.LLST105:
 10470 10fe 00000000 		.4byte	.LVL277
 10471 1102 16000000 		.4byte	.LVL278
 10472 1106 0100     		.2byte	0x1
 10473 1108 53       		.byte	0x53
 10474 1109 16000000 		.4byte	.LVL278
 10475 110d B0000000 		.4byte	.LFE49
 10476 1111 0400     		.2byte	0x4
 10477 1113 F3       		.byte	0xf3
 10478 1114 01       		.uleb128 0x1
 10479 1115 53       		.byte	0x53
 10480 1116 9F       		.byte	0x9f
 10481 1117 00000000 		.4byte	0
 10482 111b 00000000 		.4byte	0
 10483              	.LLST106:
 10484 111f 00000000 		.4byte	.LVL277
 10485 1123 16000000 		.4byte	.LVL278
 10486 1127 0200     		.2byte	0x2
 10487 1129 91       		.byte	0x91
 10488 112a 00       		.sleb128 0
 10489 112b 16000000 		.4byte	.LVL278
 10490 112f 1A000000 		.4byte	.LVL279
 10491 1133 0200     		.2byte	0x2
 10492 1135 73       		.byte	0x73
 10493 1136 00       		.sleb128 0
 10494 1137 1A000000 		.4byte	.LVL279
 10495 113b B0000000 		.4byte	.LFE49
 10496 113f 0200     		.2byte	0x2
 10497 1141 91       		.byte	0x91
 10498 1142 00       		.sleb128 0
 10499 1143 00000000 		.4byte	0
 10500 1147 00000000 		.4byte	0
 10501              	.LLST107:
 10502 114b 00000000 		.4byte	.LVL277
 10503 114f 16000000 		.4byte	.LVL278
 10504 1153 0200     		.2byte	0x2
 10505 1155 91       		.byte	0x91
 10506 1156 04       		.sleb128 4
 10507 1157 16000000 		.4byte	.LVL278
 10508 115b 1A000000 		.4byte	.LVL279
 10509 115f 0200     		.2byte	0x2
 10510 1161 73       		.byte	0x73
 10511 1162 04       		.sleb128 4
 10512 1163 1A000000 		.4byte	.LVL279
 10513 1167 1E000000 		.4byte	.LVL280
 10514 116b 0200     		.2byte	0x2
 10515 116d 91       		.byte	0x91
 10516 116e 04       		.sleb128 4
 10517 116f 1E000000 		.4byte	.LVL280
 10518 1173 20000000 		.4byte	.LVL281
 10519 1177 0200     		.2byte	0x2
ARM GAS  C:\Users\username\AppData\Local\Temp\ccSuCzK2.s 			page 197


 10520 1179 73       		.byte	0x73
 10521 117a 00       		.sleb128 0
 10522 117b 20000000 		.4byte	.LVL281
 10523 117f B0000000 		.4byte	.LFE49
 10524 1183 0200     		.2byte	0x2
 10525 1185 91       		.byte	0x91
 10526 1186 04       		.sleb128 4
 10527 1187 00000000 		.4byte	0
 10528 118b 00000000 		.4byte	0
 10529              	.LLST108:
 10530 118f 00000000 		.4byte	.LVL277
 10531 1193 16000000 		.4byte	.LVL278
 10532 1197 0200     		.2byte	0x2
 10533 1199 91       		.byte	0x91
 10534 119a 08       		.sleb128 8
 10535 119b 16000000 		.4byte	.LVL278
 10536 119f 1A000000 		.4byte	.LVL279
 10537 11a3 0200     		.2byte	0x2
 10538 11a5 73       		.byte	0x73
 10539 11a6 08       		.sleb128 8
 10540 11a7 1A000000 		.4byte	.LVL279
 10541 11ab 24000000 		.4byte	.LVL282
 10542 11af 0200     		.2byte	0x2
 10543 11b1 91       		.byte	0x91
 10544 11b2 08       		.sleb128 8
 10545 11b3 24000000 		.4byte	.LVL282
 10546 11b7 26000000 		.4byte	.LVL283
 10547 11bb 0200     		.2byte	0x2
 10548 11bd 73       		.byte	0x73
 10549 11be 00       		.sleb128 0
 10550 11bf 26000000 		.4byte	.LVL283
 10551 11c3 B0000000 		.4byte	.LFE49
 10552 11c7 0200     		.2byte	0x2
 10553 11c9 91       		.byte	0x91
 10554 11ca 08       		.sleb128 8
 10555 11cb 00000000 		.4byte	0
 10556 11cf 00000000 		.4byte	0
 10557              	.LLST109:
 10558 11d3 3A000000 		.4byte	.LVL285
 10559 11d7 8E000000 		.4byte	.LVL289
 10560 11db 0100     		.2byte	0x1
 10561 11dd 54       		.byte	0x54
 10562 11de 8E000000 		.4byte	.LVL289
 10563 11e2 90000000 		.4byte	.LVL290
 10564 11e6 0300     		.2byte	0x3
 10565 11e8 74       		.byte	0x74
 10566 11e9 7F       		.sleb128 -1
 10567 11ea 9F       		.byte	0x9f
 10568 11eb 90000000 		.4byte	.LVL290
 10569 11ef 92000000 		.4byte	.LVL291
 10570 11f3 0100     		.2byte	0x1
 10571 11f5 54       		.byte	0x54
 10572 11f6 94000000 		.4byte	.LVL292
 10573 11fa 9E000000 		.4byte	.LVL294
 10574 11fe 0100     		.2byte	0x1
 10575 1200 54       		.byte	0x54
 10576 1201 00000000 		.4byte	0
ARM GAS  C:\Users\username\AppData\Local\Temp\ccSuCzK2.s 			page 198


 10577 1205 00000000 		.4byte	0
 10578              	.LLST110:
 10579 1209 36000000 		.4byte	.LVL284
 10580 120d 3A000000 		.4byte	.LVL285
 10581 1211 0200     		.2byte	0x2
 10582 1213 30       		.byte	0x30
 10583 1214 9F       		.byte	0x9f
 10584 1215 3A000000 		.4byte	.LVL285
 10585 1219 9C000000 		.4byte	.LVL293
 10586 121d 0100     		.2byte	0x1
 10587 121f 55       		.byte	0x55
 10588 1220 9E000000 		.4byte	.LVL294
 10589 1224 A6000000 		.4byte	.LVL295
 10590 1228 0100     		.2byte	0x1
 10591 122a 55       		.byte	0x55
 10592 122b A6000000 		.4byte	.LVL295
 10593 122f B0000000 		.4byte	.LFE49
 10594 1233 0100     		.2byte	0x1
 10595 1235 53       		.byte	0x53
 10596 1236 00000000 		.4byte	0
 10597 123a 00000000 		.4byte	0
 10598              	.LLST111:
 10599 123e 00000000 		.4byte	.LVL297
 10600 1242 38000000 		.4byte	.LVL303
 10601 1246 0100     		.2byte	0x1
 10602 1248 50       		.byte	0x50
 10603 1249 38000000 		.4byte	.LVL303
 10604 124d 9C000000 		.4byte	.LFE50
 10605 1251 0400     		.2byte	0x4
 10606 1253 F3       		.byte	0xf3
 10607 1254 01       		.uleb128 0x1
 10608 1255 50       		.byte	0x50
 10609 1256 9F       		.byte	0x9f
 10610 1257 00000000 		.4byte	0
 10611 125b 00000000 		.4byte	0
 10612              	.LLST112:
 10613 125f 00000000 		.4byte	.LVL297
 10614 1263 38000000 		.4byte	.LVL303
 10615 1267 0100     		.2byte	0x1
 10616 1269 51       		.byte	0x51
 10617 126a 38000000 		.4byte	.LVL303
 10618 126e 9C000000 		.4byte	.LFE50
 10619 1272 0400     		.2byte	0x4
 10620 1274 F3       		.byte	0xf3
 10621 1275 01       		.uleb128 0x1
 10622 1276 51       		.byte	0x51
 10623 1277 9F       		.byte	0x9f
 10624 1278 00000000 		.4byte	0
 10625 127c 00000000 		.4byte	0
 10626              	.LLST113:
 10627 1280 00000000 		.4byte	.LVL297
 10628 1284 1C000000 		.4byte	.LVL299
 10629 1288 0100     		.2byte	0x1
 10630 128a 52       		.byte	0x52
 10631 128b 1C000000 		.4byte	.LVL299
 10632 128f 90000000 		.4byte	.LVL313
 10633 1293 0100     		.2byte	0x1
ARM GAS  C:\Users\username\AppData\Local\Temp\ccSuCzK2.s 			page 199


 10634 1295 59       		.byte	0x59
 10635 1296 90000000 		.4byte	.LVL313
 10636 129a 9C000000 		.4byte	.LFE50
 10637 129e 0400     		.2byte	0x4
 10638 12a0 F3       		.byte	0xf3
 10639 12a1 01       		.uleb128 0x1
 10640 12a2 52       		.byte	0x52
 10641 12a3 9F       		.byte	0x9f
 10642 12a4 00000000 		.4byte	0
 10643 12a8 00000000 		.4byte	0
 10644              	.LLST114:
 10645 12ac 00000000 		.4byte	.LVL297
 10646 12b0 18000000 		.4byte	.LVL298
 10647 12b4 0100     		.2byte	0x1
 10648 12b6 53       		.byte	0x53
 10649 12b7 18000000 		.4byte	.LVL298
 10650 12bb 9C000000 		.4byte	.LFE50
 10651 12bf 0400     		.2byte	0x4
 10652 12c1 F3       		.byte	0xf3
 10653 12c2 01       		.uleb128 0x1
 10654 12c3 53       		.byte	0x53
 10655 12c4 9F       		.byte	0x9f
 10656 12c5 00000000 		.4byte	0
 10657 12c9 00000000 		.4byte	0
 10658              	.LLST115:
 10659 12cd 00000000 		.4byte	.LVL297
 10660 12d1 18000000 		.4byte	.LVL298
 10661 12d5 0200     		.2byte	0x2
 10662 12d7 91       		.byte	0x91
 10663 12d8 00       		.sleb128 0
 10664 12d9 18000000 		.4byte	.LVL298
 10665 12dd 1C000000 		.4byte	.LVL299
 10666 12e1 0200     		.2byte	0x2
 10667 12e3 73       		.byte	0x73
 10668 12e4 00       		.sleb128 0
 10669 12e5 1C000000 		.4byte	.LVL299
 10670 12e9 9C000000 		.4byte	.LFE50
 10671 12ed 0200     		.2byte	0x2
 10672 12ef 91       		.byte	0x91
 10673 12f0 00       		.sleb128 0
 10674 12f1 00000000 		.4byte	0
 10675 12f5 00000000 		.4byte	0
 10676              	.LLST116:
 10677 12f9 00000000 		.4byte	.LVL297
 10678 12fd 18000000 		.4byte	.LVL298
 10679 1301 0200     		.2byte	0x2
 10680 1303 91       		.byte	0x91
 10681 1304 04       		.sleb128 4
 10682 1305 18000000 		.4byte	.LVL298
 10683 1309 1C000000 		.4byte	.LVL299
 10684 130d 0200     		.2byte	0x2
 10685 130f 73       		.byte	0x73
 10686 1310 04       		.sleb128 4
 10687 1311 1C000000 		.4byte	.LVL299
 10688 1315 20000000 		.4byte	.LVL300
 10689 1319 0200     		.2byte	0x2
 10690 131b 91       		.byte	0x91
ARM GAS  C:\Users\username\AppData\Local\Temp\ccSuCzK2.s 			page 200


 10691 131c 04       		.sleb128 4
 10692 131d 20000000 		.4byte	.LVL300
 10693 1321 22000000 		.4byte	.LVL301
 10694 1325 0200     		.2byte	0x2
 10695 1327 73       		.byte	0x73
 10696 1328 00       		.sleb128 0
 10697 1329 22000000 		.4byte	.LVL301
 10698 132d 9C000000 		.4byte	.LFE50
 10699 1331 0200     		.2byte	0x2
 10700 1333 91       		.byte	0x91
 10701 1334 04       		.sleb128 4
 10702 1335 00000000 		.4byte	0
 10703 1339 00000000 		.4byte	0
 10704              	.LLST117:
 10705 133d 38000000 		.4byte	.LVL303
 10706 1341 76000000 		.4byte	.LVL306
 10707 1345 0100     		.2byte	0x1
 10708 1347 55       		.byte	0x55
 10709 1348 78000000 		.4byte	.LVL307
 10710 134c 7A000000 		.4byte	.LVL308
 10711 1350 0100     		.2byte	0x1
 10712 1352 55       		.byte	0x55
 10713 1353 7C000000 		.4byte	.LVL309
 10714 1357 86000000 		.4byte	.LVL311
 10715 135b 0100     		.2byte	0x1
 10716 135d 55       		.byte	0x55
 10717 135e 00000000 		.4byte	0
 10718 1362 00000000 		.4byte	0
 10719              	.LLST118:
 10720 1366 34000000 		.4byte	.LVL302
 10721 136a 38000000 		.4byte	.LVL303
 10722 136e 0200     		.2byte	0x2
 10723 1370 30       		.byte	0x30
 10724 1371 9F       		.byte	0x9f
 10725 1372 38000000 		.4byte	.LVL303
 10726 1376 84000000 		.4byte	.LVL310
 10727 137a 0100     		.2byte	0x1
 10728 137c 57       		.byte	0x57
 10729 137d 86000000 		.4byte	.LVL311
 10730 1381 90000000 		.4byte	.LVL312
 10731 1385 0100     		.2byte	0x1
 10732 1387 57       		.byte	0x57
 10733 1388 90000000 		.4byte	.LVL312
 10734 138c 9C000000 		.4byte	.LFE50
 10735 1390 0100     		.2byte	0x1
 10736 1392 53       		.byte	0x53
 10737 1393 00000000 		.4byte	0
 10738 1397 00000000 		.4byte	0
 10739              	.LLST119:
 10740 139b 00000000 		.4byte	.LVL314
 10741 139f 60000000 		.4byte	.LVL321
 10742 13a3 0100     		.2byte	0x1
 10743 13a5 50       		.byte	0x50
 10744 13a6 60000000 		.4byte	.LVL321
 10745 13aa 24010000 		.4byte	.LFE53
 10746 13ae 0400     		.2byte	0x4
 10747 13b0 F3       		.byte	0xf3
ARM GAS  C:\Users\username\AppData\Local\Temp\ccSuCzK2.s 			page 201


 10748 13b1 01       		.uleb128 0x1
 10749 13b2 50       		.byte	0x50
 10750 13b3 9F       		.byte	0x9f
 10751 13b4 00000000 		.4byte	0
 10752 13b8 00000000 		.4byte	0
 10753              	.LLST120:
 10754 13bc 00000000 		.4byte	.LVL314
 10755 13c0 60000000 		.4byte	.LVL321
 10756 13c4 0100     		.2byte	0x1
 10757 13c6 51       		.byte	0x51
 10758 13c7 60000000 		.4byte	.LVL321
 10759 13cb 24010000 		.4byte	.LFE53
 10760 13cf 0400     		.2byte	0x4
 10761 13d1 F3       		.byte	0xf3
 10762 13d2 01       		.uleb128 0x1
 10763 13d3 51       		.byte	0x51
 10764 13d4 9F       		.byte	0x9f
 10765 13d5 00000000 		.4byte	0
 10766 13d9 00000000 		.4byte	0
 10767              	.LLST121:
 10768 13dd 00000000 		.4byte	.LVL314
 10769 13e1 26000000 		.4byte	.LVL319
 10770 13e5 0100     		.2byte	0x1
 10771 13e7 52       		.byte	0x52
 10772 13e8 26000000 		.4byte	.LVL319
 10773 13ec 5C000000 		.4byte	.LVL320
 10774 13f0 0400     		.2byte	0x4
 10775 13f2 F3       		.byte	0xf3
 10776 13f3 01       		.uleb128 0x1
 10777 13f4 52       		.byte	0x52
 10778 13f5 9F       		.byte	0x9f
 10779 13f6 5C000000 		.4byte	.LVL320
 10780 13fa 06010000 		.4byte	.LVL334
 10781 13fe 0200     		.2byte	0x2
 10782 1400 91       		.byte	0x91
 10783 1401 54       		.sleb128 -44
 10784 1402 00000000 		.4byte	0
 10785 1406 00000000 		.4byte	0
 10786              	.LLST122:
 10787 140a 00000000 		.4byte	.LVL314
 10788 140e 18000000 		.4byte	.LVL315
 10789 1412 0100     		.2byte	0x1
 10790 1414 53       		.byte	0x53
 10791 1415 18000000 		.4byte	.LVL315
 10792 1419 24010000 		.4byte	.LFE53
 10793 141d 0400     		.2byte	0x4
 10794 141f F3       		.byte	0xf3
 10795 1420 01       		.uleb128 0x1
 10796 1421 53       		.byte	0x53
 10797 1422 9F       		.byte	0x9f
 10798 1423 00000000 		.4byte	0
 10799 1427 00000000 		.4byte	0
 10800              	.LLST123:
 10801 142b 00000000 		.4byte	.LVL314
 10802 142f 18000000 		.4byte	.LVL315
 10803 1433 0200     		.2byte	0x2
 10804 1435 91       		.byte	0x91
ARM GAS  C:\Users\username\AppData\Local\Temp\ccSuCzK2.s 			page 202


 10805 1436 00       		.sleb128 0
 10806 1437 18000000 		.4byte	.LVL315
 10807 143b 1A000000 		.4byte	.LVL316
 10808 143f 0200     		.2byte	0x2
 10809 1441 73       		.byte	0x73
 10810 1442 00       		.sleb128 0
 10811 1443 1A000000 		.4byte	.LVL316
 10812 1447 24010000 		.4byte	.LFE53
 10813 144b 0200     		.2byte	0x2
 10814 144d 91       		.byte	0x91
 10815 144e 00       		.sleb128 0
 10816 144f 00000000 		.4byte	0
 10817 1453 00000000 		.4byte	0
 10818              	.LLST124:
 10819 1457 00000000 		.4byte	.LVL314
 10820 145b 18000000 		.4byte	.LVL315
 10821 145f 0200     		.2byte	0x2
 10822 1461 91       		.byte	0x91
 10823 1462 04       		.sleb128 4
 10824 1463 18000000 		.4byte	.LVL315
 10825 1467 1A000000 		.4byte	.LVL316
 10826 146b 0200     		.2byte	0x2
 10827 146d 73       		.byte	0x73
 10828 146e 04       		.sleb128 4
 10829 146f 1A000000 		.4byte	.LVL316
 10830 1473 1E000000 		.4byte	.LVL317
 10831 1477 0200     		.2byte	0x2
 10832 1479 91       		.byte	0x91
 10833 147a 04       		.sleb128 4
 10834 147b 1E000000 		.4byte	.LVL317
 10835 147f 22000000 		.4byte	.LVL318
 10836 1483 0200     		.2byte	0x2
 10837 1485 73       		.byte	0x73
 10838 1486 00       		.sleb128 0
 10839 1487 22000000 		.4byte	.LVL318
 10840 148b 24010000 		.4byte	.LFE53
 10841 148f 0200     		.2byte	0x2
 10842 1491 91       		.byte	0x91
 10843 1492 04       		.sleb128 4
 10844 1493 00000000 		.4byte	0
 10845 1497 00000000 		.4byte	0
 10846              	.LLST125:
 10847 149b 5C000000 		.4byte	.LVL320
 10848 149f 60000000 		.4byte	.LVL321
 10849 14a3 0200     		.2byte	0x2
 10850 14a5 30       		.byte	0x30
 10851 14a6 9F       		.byte	0x9f
 10852 14a7 60000000 		.4byte	.LVL321
 10853 14ab FE000000 		.4byte	.LVL332
 10854 14af 0100     		.2byte	0x1
 10855 14b1 56       		.byte	0x56
 10856 14b2 00010000 		.4byte	.LVL333
 10857 14b6 06010000 		.4byte	.LVL334
 10858 14ba 0100     		.2byte	0x1
 10859 14bc 56       		.byte	0x56
 10860 14bd 00000000 		.4byte	0
 10861 14c1 00000000 		.4byte	0
ARM GAS  C:\Users\username\AppData\Local\Temp\ccSuCzK2.s 			page 203


 10862              	.LLST126:
 10863 14c5 5C000000 		.4byte	.LVL320
 10864 14c9 60000000 		.4byte	.LVL321
 10865 14cd 0200     		.2byte	0x2
 10866 14cf 30       		.byte	0x30
 10867 14d0 9F       		.byte	0x9f
 10868 14d1 7A000000 		.4byte	.LVL324
 10869 14d5 F4000000 		.4byte	.LVL330
 10870 14d9 0100     		.2byte	0x1
 10871 14db 54       		.byte	0x54
 10872 14dc F6000000 		.4byte	.LVL331
 10873 14e0 00010000 		.4byte	.LVL333
 10874 14e4 0100     		.2byte	0x1
 10875 14e6 54       		.byte	0x54
 10876 14e7 00000000 		.4byte	0
 10877 14eb 00000000 		.4byte	0
 10878              	.LLST127:
 10879 14ef 72000000 		.4byte	.LVL322
 10880 14f3 74000000 		.4byte	.LVL323
 10881 14f7 0100     		.2byte	0x1
 10882 14f9 55       		.byte	0x55
 10883 14fa 7A000000 		.4byte	.LVL324
 10884 14fe 00010000 		.4byte	.LVL333
 10885 1502 0100     		.2byte	0x1
 10886 1504 55       		.byte	0x55
 10887 1505 00000000 		.4byte	0
 10888 1509 00000000 		.4byte	0
 10889              	.LLST128:
 10890 150d 00000000 		.4byte	.LVL335
 10891 1511 2A000000 		.4byte	.LVL336
 10892 1515 0100     		.2byte	0x1
 10893 1517 50       		.byte	0x50
 10894 1518 2A000000 		.4byte	.LVL336
 10895 151c A4000000 		.4byte	.LFE52
 10896 1520 0400     		.2byte	0x4
 10897 1522 F3       		.byte	0xf3
 10898 1523 01       		.uleb128 0x1
 10899 1524 50       		.byte	0x50
 10900 1525 9F       		.byte	0x9f
 10901 1526 00000000 		.4byte	0
 10902 152a 00000000 		.4byte	0
 10903              	.LLST129:
 10904 152e 00000000 		.4byte	.LVL338
 10905 1532 08000000 		.4byte	.LVL340
 10906 1536 0100     		.2byte	0x1
 10907 1538 50       		.byte	0x50
 10908 1539 08000000 		.4byte	.LVL340
 10909 153d 1A000000 		.4byte	.LVL345
 10910 1541 0100     		.2byte	0x1
 10911 1543 55       		.byte	0x55
 10912 1544 1A000000 		.4byte	.LVL345
 10913 1548 1C000000 		.4byte	.LFE51
 10914 154c 0400     		.2byte	0x4
 10915 154e F3       		.byte	0xf3
 10916 154f 01       		.uleb128 0x1
 10917 1550 50       		.byte	0x50
 10918 1551 9F       		.byte	0x9f
ARM GAS  C:\Users\username\AppData\Local\Temp\ccSuCzK2.s 			page 204


 10919 1552 00000000 		.4byte	0
 10920 1556 00000000 		.4byte	0
 10921              	.LLST130:
 10922 155a 04000000 		.4byte	.LVL339
 10923 155e 08000000 		.4byte	.LVL340
 10924 1562 0200     		.2byte	0x2
 10925 1564 30       		.byte	0x30
 10926 1565 9F       		.byte	0x9f
 10927 1566 08000000 		.4byte	.LVL340
 10928 156a 1A000000 		.4byte	.LVL344
 10929 156e 0100     		.2byte	0x1
 10930 1570 54       		.byte	0x54
 10931 1571 00000000 		.4byte	0
 10932 1575 00000000 		.4byte	0
 10933              	.LLST131:
 10934 1579 00000000 		.4byte	.LVL347
 10935 157d 06000000 		.4byte	.LVL348
 10936 1581 0100     		.2byte	0x1
 10937 1583 50       		.byte	0x50
 10938 1584 06000000 		.4byte	.LVL348
 10939 1588 10000000 		.4byte	.LFE57
 10940 158c 0400     		.2byte	0x4
 10941 158e F3       		.byte	0xf3
 10942 158f 01       		.uleb128 0x1
 10943 1590 50       		.byte	0x50
 10944 1591 9F       		.byte	0x9f
 10945 1592 00000000 		.4byte	0
 10946 1596 00000000 		.4byte	0
 10947              	.LLST132:
 10948 159a 00000000 		.4byte	.LVL352
 10949 159e 04000000 		.4byte	.LVL353
 10950 15a2 0100     		.2byte	0x1
 10951 15a4 50       		.byte	0x50
 10952 15a5 04000000 		.4byte	.LVL353
 10953 15a9 54000000 		.4byte	.LFE62
 10954 15ad 0400     		.2byte	0x4
 10955 15af F3       		.byte	0xf3
 10956 15b0 01       		.uleb128 0x1
 10957 15b1 50       		.byte	0x50
 10958 15b2 9F       		.byte	0x9f
 10959 15b3 00000000 		.4byte	0
 10960 15b7 00000000 		.4byte	0
 10961              		.section	.debug_aranges,"",%progbits
 10962 0000 0C010000 		.4byte	0x10c
 10963 0004 0200     		.2byte	0x2
 10964 0006 00000000 		.4byte	.Ldebug_info0
 10965 000a 04       		.byte	0x4
 10966 000b 00       		.byte	0
 10967 000c 0000     		.2byte	0
 10968 000e 0000     		.2byte	0
 10969 0010 00000000 		.4byte	.LFB35
 10970 0014 5C000000 		.4byte	.LFE35-.LFB35
 10971 0018 00000000 		.4byte	.LFB36
 10972 001c 50010000 		.4byte	.LFE36-.LFB36
 10973 0020 00000000 		.4byte	.LFB37
 10974 0024 4E010000 		.4byte	.LFE37-.LFB37
 10975 0028 00000000 		.4byte	.LFB39
ARM GAS  C:\Users\username\AppData\Local\Temp\ccSuCzK2.s 			page 205


 10976 002c 2E010000 		.4byte	.LFE39-.LFB39
 10977 0030 00000000 		.4byte	.LFB38
 10978 0034 32000000 		.4byte	.LFE38-.LFB38
 10979 0038 00000000 		.4byte	.LFB40
 10980 003c D0000000 		.4byte	.LFE40-.LFB40
 10981 0040 00000000 		.4byte	.LFB41
 10982 0044 48000000 		.4byte	.LFE41-.LFB41
 10983 0048 00000000 		.4byte	.LFB42
 10984 004c 2E000000 		.4byte	.LFE42-.LFB42
 10985 0050 00000000 		.4byte	.LFB43
 10986 0054 28000000 		.4byte	.LFE43-.LFB43
 10987 0058 00000000 		.4byte	.LFB44
 10988 005c F8000000 		.4byte	.LFE44-.LFB44
 10989 0060 00000000 		.4byte	.LFB45
 10990 0064 82000000 		.4byte	.LFE45-.LFB45
 10991 0068 00000000 		.4byte	.LFB46
 10992 006c 46000000 		.4byte	.LFE46-.LFB46
 10993 0070 00000000 		.4byte	.LFB47
 10994 0074 C8010000 		.4byte	.LFE47-.LFB47
 10995 0078 00000000 		.4byte	.LFB48
 10996 007c 96000000 		.4byte	.LFE48-.LFB48
 10997 0080 00000000 		.4byte	.LFB49
 10998 0084 B0000000 		.4byte	.LFE49-.LFB49
 10999 0088 00000000 		.4byte	.LFB50
 11000 008c 9C000000 		.4byte	.LFE50-.LFB50
 11001 0090 00000000 		.4byte	.LFB53
 11002 0094 24010000 		.4byte	.LFE53-.LFB53
 11003 0098 00000000 		.4byte	.LFB52
 11004 009c A4000000 		.4byte	.LFE52-.LFB52
 11005 00a0 00000000 		.4byte	.LFB51
 11006 00a4 1C000000 		.4byte	.LFE51-.LFB51
 11007 00a8 00000000 		.4byte	.LFB54
 11008 00ac 14000000 		.4byte	.LFE54-.LFB54
 11009 00b0 00000000 		.4byte	.LFB55
 11010 00b4 0C000000 		.4byte	.LFE55-.LFB55
 11011 00b8 00000000 		.4byte	.LFB56
 11012 00bc 0C000000 		.4byte	.LFE56-.LFB56
 11013 00c0 00000000 		.4byte	.LFB57
 11014 00c4 10000000 		.4byte	.LFE57-.LFB57
 11015 00c8 00000000 		.4byte	.LFB58
 11016 00cc 14000000 		.4byte	.LFE58-.LFB58
 11017 00d0 00000000 		.4byte	.LFB59
 11018 00d4 14000000 		.4byte	.LFE59-.LFB59
 11019 00d8 00000000 		.4byte	.LFB60
 11020 00dc 0C000000 		.4byte	.LFE60-.LFB60
 11021 00e0 00000000 		.4byte	.LFB61
 11022 00e4 0C000000 		.4byte	.LFE61-.LFB61
 11023 00e8 00000000 		.4byte	.LFB62
 11024 00ec 54000000 		.4byte	.LFE62-.LFB62
 11025 00f0 00000000 		.4byte	.LFB63
 11026 00f4 0C000000 		.4byte	.LFE63-.LFB63
 11027 00f8 00000000 		.4byte	.LFB64
 11028 00fc 0C000000 		.4byte	.LFE64-.LFB64
 11029 0100 00000000 		.4byte	.LFB65
 11030 0104 0C000000 		.4byte	.LFE65-.LFB65
 11031 0108 00000000 		.4byte	0
 11032 010c 00000000 		.4byte	0
ARM GAS  C:\Users\username\AppData\Local\Temp\ccSuCzK2.s 			page 206


 11033              		.section	.debug_ranges,"",%progbits
 11034              	.Ldebug_ranges0:
 11035 0000 00000000 		.4byte	.LFB35
 11036 0004 5C000000 		.4byte	.LFE35
 11037 0008 00000000 		.4byte	.LFB36
 11038 000c 50010000 		.4byte	.LFE36
 11039 0010 00000000 		.4byte	.LFB37
 11040 0014 4E010000 		.4byte	.LFE37
 11041 0018 00000000 		.4byte	.LFB39
 11042 001c 2E010000 		.4byte	.LFE39
 11043 0020 00000000 		.4byte	.LFB38
 11044 0024 32000000 		.4byte	.LFE38
 11045 0028 00000000 		.4byte	.LFB40
 11046 002c D0000000 		.4byte	.LFE40
 11047 0030 00000000 		.4byte	.LFB41
 11048 0034 48000000 		.4byte	.LFE41
 11049 0038 00000000 		.4byte	.LFB42
 11050 003c 2E000000 		.4byte	.LFE42
 11051 0040 00000000 		.4byte	.LFB43
 11052 0044 28000000 		.4byte	.LFE43
 11053 0048 00000000 		.4byte	.LFB44
 11054 004c F8000000 		.4byte	.LFE44
 11055 0050 00000000 		.4byte	.LFB45
 11056 0054 82000000 		.4byte	.LFE45
 11057 0058 00000000 		.4byte	.LFB46
 11058 005c 46000000 		.4byte	.LFE46
 11059 0060 00000000 		.4byte	.LFB47
 11060 0064 C8010000 		.4byte	.LFE47
 11061 0068 00000000 		.4byte	.LFB48
 11062 006c 96000000 		.4byte	.LFE48
 11063 0070 00000000 		.4byte	.LFB49
 11064 0074 B0000000 		.4byte	.LFE49
 11065 0078 00000000 		.4byte	.LFB50
 11066 007c 9C000000 		.4byte	.LFE50
 11067 0080 00000000 		.4byte	.LFB53
 11068 0084 24010000 		.4byte	.LFE53
 11069 0088 00000000 		.4byte	.LFB52
 11070 008c A4000000 		.4byte	.LFE52
 11071 0090 00000000 		.4byte	.LFB51
 11072 0094 1C000000 		.4byte	.LFE51
 11073 0098 00000000 		.4byte	.LFB54
 11074 009c 14000000 		.4byte	.LFE54
 11075 00a0 00000000 		.4byte	.LFB55
 11076 00a4 0C000000 		.4byte	.LFE55
 11077 00a8 00000000 		.4byte	.LFB56
 11078 00ac 0C000000 		.4byte	.LFE56
 11079 00b0 00000000 		.4byte	.LFB57
 11080 00b4 10000000 		.4byte	.LFE57
 11081 00b8 00000000 		.4byte	.LFB58
 11082 00bc 14000000 		.4byte	.LFE58
 11083 00c0 00000000 		.4byte	.LFB59
 11084 00c4 14000000 		.4byte	.LFE59
 11085 00c8 00000000 		.4byte	.LFB60
 11086 00cc 0C000000 		.4byte	.LFE60
 11087 00d0 00000000 		.4byte	.LFB61
 11088 00d4 0C000000 		.4byte	.LFE61
 11089 00d8 00000000 		.4byte	.LFB62
ARM GAS  C:\Users\username\AppData\Local\Temp\ccSuCzK2.s 			page 207


 11090 00dc 54000000 		.4byte	.LFE62
 11091 00e0 00000000 		.4byte	.LFB63
 11092 00e4 0C000000 		.4byte	.LFE63
 11093 00e8 00000000 		.4byte	.LFB64
 11094 00ec 0C000000 		.4byte	.LFE64
 11095 00f0 00000000 		.4byte	.LFB65
 11096 00f4 0C000000 		.4byte	.LFE65
 11097 00f8 00000000 		.4byte	0
 11098 00fc 00000000 		.4byte	0
 11099              		.section	.debug_line,"",%progbits
 11100              	.Ldebug_line0:
 11101 0000 DF050000 		.section	.debug_str,"MS",%progbits,1
 11101      0200DA01 
 11101      00000201 
 11101      FB0E0D00 
 11101      01010101 
 11102              	.LASF22:
 11103 0000 666C6F61 		.ascii	"float\000"
 11103      7400
 11104              	.LASF60:
 11105 0006 77726974 		.ascii	"write\000"
 11105      6500
 11106              	.LASF72:
 11107 000c 73657452 		.ascii	"setRotation\000"
 11107      6F746174 
 11107      696F6E00 
 11108              	.LASF90:
 11109 0018 64726177 		.ascii	"drawFastVLine\000"
 11109      46617374 
 11109      564C696E 
 11109      6500
 11110              	.LASF14:
 11111 0026 696E7438 		.ascii	"int8_t\000"
 11111      5F7400
 11112              	.LASF25:
 11113 002d 64726177 		.ascii	"drawCircle\000"
 11113      43697263 
 11113      6C6500
 11114              	.LASF0:
 11115 0038 5F5F696E 		.ascii	"__int8_t\000"
 11115      74385F74 
 11115      00
 11116              	.LASF76:
 11117 0041 666F6E74 		.ascii	"font\000"
 11117      00
 11118              	.LASF5:
 11119 0046 73686F72 		.ascii	"short int\000"
 11119      7420696E 
 11119      7400
 11120              	.LASF19:
 11121 0050 73697A65 		.ascii	"size_t\000"
 11121      5F7400
 11122              	.LASF20:
 11123 0057 73697A65 		.ascii	"sizetype\000"
 11123      74797065 
 11123      00
 11124              	.LASF67:
ARM GAS  C:\Users\username\AppData\Local\Temp\ccSuCzK2.s 			page 208


 11125 0060 73657454 		.ascii	"setTextSize\000"
 11125      65787453 
 11125      697A6500 
 11126              	.LASF35:
 11127 006c 73746565 		.ascii	"steep\000"
 11127      7000
 11128              	.LASF82:
 11129 0072 63757273 		.ascii	"cursor_y\000"
 11129      6F725F79 
 11129      00
 11130              	.LASF32:
 11131 007b 64656C74 		.ascii	"delta\000"
 11131      6100
 11132              	.LASF94:
 11133 0081 2E5C4746 		.ascii	".\\GFXmaster.c\000"
 11133      586D6173 
 11133      7465722E 
 11133      6300
 11134              	.LASF61:
 11135 008f 77726974 		.ascii	"writeString\000"
 11135      65537472 
 11135      696E6700 
 11136              	.LASF11:
 11137 009b 6C6F6E67 		.ascii	"long long int\000"
 11137      206C6F6E 
 11137      6720696E 
 11137      7400
 11138              	.LASF87:
 11139 00a9 77726170 		.ascii	"wrap\000"
 11139      00
 11140              	.LASF6:
 11141 00ae 5F5F7569 		.ascii	"__uint16_t\000"
 11141      6E743136 
 11141      5F7400
 11142              	.LASF81:
 11143 00b9 63757273 		.ascii	"cursor_x\000"
 11143      6F725F78 
 11143      00
 11144              	.LASF88:
 11145 00c2 5F637034 		.ascii	"_cp437\000"
 11145      333700
 11146              	.LASF43:
 11147 00c9 66696C6C 		.ascii	"fillTriangle\000"
 11147      54726961 
 11147      6E676C65 
 11147      00
 11148              	.LASF15:
 11149 00d6 75696E74 		.ascii	"uint8_t\000"
 11149      385F7400 
 11150              	.LASF52:
 11151 00de 6269746D 		.ascii	"bitmap\000"
 11151      617000
 11152              	.LASF42:
 11153 00e5 64726177 		.ascii	"drawTriangle\000"
 11153      54726961 
 11153      6E676C65 
 11153      00
ARM GAS  C:\Users\username\AppData\Local\Temp\ccSuCzK2.s 			page 209


 11154              	.LASF59:
 11155 00f2 6C696E65 		.ascii	"line\000"
 11155      00
 11156              	.LASF34:
 11157 00f7 64726177 		.ascii	"drawLine\000"
 11157      4C696E65 
 11157      00
 11158              	.LASF80:
 11159 0100 5F686569 		.ascii	"_height\000"
 11159      67687400 
 11160              	.LASF38:
 11161 0108 66696C6C 		.ascii	"fillRect\000"
 11161      52656374 
 11161      00
 11162              	.LASF74:
 11163 0111 77696474 		.ascii	"width\000"
 11163      6800
 11164              	.LASF77:
 11165 0117 57494454 		.ascii	"WIDTH\000"
 11165      4800
 11166              	.LASF85:
 11167 011d 74657874 		.ascii	"textsize\000"
 11167      73697A65 
 11167      00
 11168              	.LASF69:
 11169 0126 73657454 		.ascii	"setTextColorBG\000"
 11169      65787443 
 11169      6F6C6F72 
 11169      424700
 11170              	.LASF64:
 11171 0135 73657443 		.ascii	"setCursor\000"
 11171      7572736F 
 11171      7200
 11172              	.LASF65:
 11173 013f 67657443 		.ascii	"getCursorX\000"
 11173      7572736F 
 11173      725800
 11174              	.LASF33:
 11175 014a 66696C6C 		.ascii	"fillCircle\000"
 11175      43697263 
 11175      6C6500
 11176              	.LASF9:
 11177 0155 6C6F6E67 		.ascii	"long int\000"
 11177      20696E74 
 11177      00
 11178              	.LASF66:
 11179 015e 67657443 		.ascii	"getCursorY\000"
 11179      7572736F 
 11179      725900
 11180              	.LASF62:
 11181 0169 73747269 		.ascii	"string\000"
 11181      6E6700
 11182              	.LASF1:
 11183 0170 5F5F7569 		.ascii	"__uint8_t\000"
 11183      6E74385F 
 11183      7400
 11184              	.LASF37:
ARM GAS  C:\Users\username\AppData\Local\Temp\ccSuCzK2.s 			page 210


 11185 017a 64726177 		.ascii	"drawRect\000"
 11185      52656374 
 11185      00
 11186              	.LASF79:
 11187 0183 5F776964 		.ascii	"_width\000"
 11187      746800
 11188              	.LASF31:
 11189 018a 66696C6C 		.ascii	"fillCircleHelper\000"
 11189      43697263 
 11189      6C654865 
 11189      6C706572 
 11189      00
 11190              	.LASF26:
 11191 019b 636F6C6F 		.ascii	"color\000"
 11191      7200
 11192              	.LASF24:
 11193 01a1 4746585F 		.ascii	"GFX_Init\000"
 11193      496E6974 
 11193      00
 11194              	.LASF40:
 11195 01aa 64726177 		.ascii	"drawRoundRect\000"
 11195      526F756E 
 11195      64526563 
 11195      7400
 11196              	.LASF3:
 11197 01b8 756E7369 		.ascii	"unsigned char\000"
 11197      676E6564 
 11197      20636861 
 11197      7200
 11198              	.LASF70:
 11199 01c6 73657454 		.ascii	"setTextWrap\000"
 11199      65787457 
 11199      72617000 
 11200              	.LASF53:
 11201 01d2 62797465 		.ascii	"byteWidth\000"
 11201      57696474 
 11201      6800
 11202              	.LASF55:
 11203 01dc 70676D5F 		.ascii	"pgm_read_byte\000"
 11203      72656164 
 11203      5F627974 
 11203      6500
 11204              	.LASF2:
 11205 01ea 7369676E 		.ascii	"signed char\000"
 11205      65642063 
 11205      68617200 
 11206              	.LASF71:
 11207 01f6 67657452 		.ascii	"getRotation\000"
 11207      6F746174 
 11207      696F6E00 
 11208              	.LASF12:
 11209 0202 6C6F6E67 		.ascii	"long long unsigned int\000"
 11209      206C6F6E 
 11209      6720756E 
 11209      7369676E 
 11209      65642069 
 11210              	.LASF51:
ARM GAS  C:\Users\username\AppData\Local\Temp\ccSuCzK2.s 			page 211


 11211 0219 64726177 		.ascii	"drawBitmap\000"
 11211      4269746D 
 11211      617000
 11212              	.LASF83:
 11213 0224 74657874 		.ascii	"textcolor\000"
 11213      636F6C6F 
 11213      7200
 11214              	.LASF13:
 11215 022e 756E7369 		.ascii	"unsigned int\000"
 11215      676E6564 
 11215      20696E74 
 11215      00
 11216              	.LASF17:
 11217 023b 75696E74 		.ascii	"uint16_t\000"
 11217      31365F74 
 11217      00
 11218              	.LASF56:
 11219 0244 64726177 		.ascii	"drawXBitmap\000"
 11219      58426974 
 11219      6D617000 
 11220              	.LASF29:
 11221 0250 64726177 		.ascii	"drawCircleHelper\000"
 11221      43697263 
 11221      6C654865 
 11221      6C706572 
 11221      00
 11222              	.LASF54:
 11223 0261 64726177 		.ascii	"drawBitmapBG\000"
 11223      4269746D 
 11223      61704247 
 11223      00
 11224              	.LASF46:
 11225 026e 64793031 		.ascii	"dy01\000"
 11225      00
 11226              	.LASF48:
 11227 0273 64793032 		.ascii	"dy02\000"
 11227      00
 11228              	.LASF89:
 11229 0278 64726177 		.ascii	"drawPixel\000"
 11229      50697865 
 11229      6C00
 11230              	.LASF95:
 11231 0282 433A5C55 		.ascii	"C:\\Users\\username\\Dropbox\\PSoC Creator\\304 Exa"
 11231      73657273 
 11231      5C757365 
 11231      726E616D 
 11231      655C4472 
 11232 02b0 6D706C65 		.ascii	"mple\\Bluetooth_central_client\\client_test.cydsn\000"
 11232      5C426C75 
 11232      65746F6F 
 11232      74685F63 
 11232      656E7472 
 11233              	.LASF21:
 11234 02e0 63686172 		.ascii	"char\000"
 11234      00
 11235              	.LASF57:
 11236 02e5 64726177 		.ascii	"drawChar\000"
ARM GAS  C:\Users\username\AppData\Local\Temp\ccSuCzK2.s 			page 212


 11236      43686172 
 11236      00
 11237              	.LASF92:
 11238 02ee 7374726C 		.ascii	"strlen\000"
 11238      656E00
 11239              	.LASF18:
 11240 02f5 696E7433 		.ascii	"int32_t\000"
 11240      325F7400 
 11241              	.LASF91:
 11242 02fd 64726177 		.ascii	"drawFastHLine\000"
 11242      46617374 
 11242      484C696E 
 11242      6500
 11243              	.LASF7:
 11244 030b 73686F72 		.ascii	"short unsigned int\000"
 11244      7420756E 
 11244      7369676E 
 11244      65642069 
 11244      6E7400
 11245              	.LASF16:
 11246 031e 696E7431 		.ascii	"int16_t\000"
 11246      365F7400 
 11247              	.LASF39:
 11248 0326 66696C6C 		.ascii	"fillScreen\000"
 11248      53637265 
 11248      656E00
 11249              	.LASF86:
 11250 0331 726F7461 		.ascii	"rotation\000"
 11250      74696F6E 
 11250      00
 11251              	.LASF45:
 11252 033a 64783031 		.ascii	"dx01\000"
 11252      00
 11253              	.LASF47:
 11254 033f 64783032 		.ascii	"dx02\000"
 11254      00
 11255              	.LASF84:
 11256 0344 74657874 		.ascii	"textbgcolor\000"
 11256      6267636F 
 11256      6C6F7200 
 11257              	.LASF41:
 11258 0350 66696C6C 		.ascii	"fillRoundRect\000"
 11258      526F756E 
 11258      64526563 
 11258      7400
 11259              	.LASF10:
 11260 035e 6C6F6E67 		.ascii	"long unsigned int\000"
 11260      20756E73 
 11260      69676E65 
 11260      6420696E 
 11260      7400
 11261              	.LASF27:
 11262 0370 6464465F 		.ascii	"ddF_x\000"
 11262      7800
 11263              	.LASF28:
 11264 0376 6464465F 		.ascii	"ddF_y\000"
 11264      7900
ARM GAS  C:\Users\username\AppData\Local\Temp\ccSuCzK2.s 			page 213


 11265              	.LASF23:
 11266 037c 646F7562 		.ascii	"double\000"
 11266      6C6500
 11267              	.LASF36:
 11268 0383 79737465 		.ascii	"ystep\000"
 11268      7000
 11269              	.LASF78:
 11270 0389 48454947 		.ascii	"HEIGHT\000"
 11270      485400
 11271              	.LASF63:
 11272 0390 69746572 		.ascii	"iterator\000"
 11272      61746F72 
 11272      00
 11273              	.LASF58:
 11274 0399 73697A65 		.ascii	"size\000"
 11274      00
 11275              	.LASF68:
 11276 039e 73657454 		.ascii	"setTextColor\000"
 11276      65787443 
 11276      6F6C6F72 
 11276      00
 11277              	.LASF8:
 11278 03ab 5F5F696E 		.ascii	"__int32_t\000"
 11278      7433325F 
 11278      7400
 11279              	.LASF75:
 11280 03b5 68656967 		.ascii	"height\000"
 11280      687400
 11281              	.LASF4:
 11282 03bc 5F5F696E 		.ascii	"__int16_t\000"
 11282      7431365F 
 11282      7400
 11283              	.LASF50:
 11284 03c6 64793132 		.ascii	"dy12\000"
 11284      00
 11285              	.LASF30:
 11286 03cb 636F726E 		.ascii	"cornername\000"
 11286      65726E61 
 11286      6D6500
 11287              	.LASF44:
 11288 03d6 6C617374 		.ascii	"last\000"
 11288      00
 11289              	.LASF93:
 11290 03db 474E5520 		.ascii	"GNU C 4.9.3 20150303 (release) [ARM/embedded-4_9-br"
 11290      4320342E 
 11290      392E3320 
 11290      32303135 
 11290      30333033 
 11291 040e 616E6368 		.ascii	"anch revision 221220] -mcpu=cortex-m0 -mthumb -g -O"
 11291      20726576 
 11291      6973696F 
 11291      6E203232 
 11291      31323230 
 11292 0441 67202D66 		.ascii	"g -ffunction-sections -ffat-lto-objects\000"
 11292      66756E63 
 11292      74696F6E 
 11292      2D736563 
ARM GAS  C:\Users\username\AppData\Local\Temp\ccSuCzK2.s 			page 214


 11292      74696F6E 
 11293              	.LASF73:
 11294 0469 63703433 		.ascii	"cp437\000"
 11294      3700
 11295              	.LASF49:
 11296 046f 64783132 		.ascii	"dx12\000"
 11296      00
 11297              		.ident	"GCC: (GNU Tools for ARM Embedded Processors) 4.9.3 20150303 (release) [ARM/embedded-4_9-br
