ARM GAS  C:\Users\username\AppData\Local\Temp\ccSuCzK2.s 			page 1


   1              		.cpu cortex-m0
   2              		.fpu softvfp
   3              		.eabi_attribute 20, 1
   4              		.eabi_attribute 21, 1
   5              		.eabi_attribute 23, 3
   6              		.eabi_attribute 24, 1
   7              		.eabi_attribute 25, 1
   8              		.eabi_attribute 26, 1
   9              		.eabi_attribute 30, 1
  10              		.eabi_attribute 34, 0
  11              		.eabi_attribute 18, 4
  12              		.code	16
  13              		.file	"GFXmaster.c"
  14              		.text
  15              	.Ltext0:
  16              		.cfi_sections	.debug_frame
  17              		.section	.text.GFX_Init,"ax",%progbits
  18              		.align	2
  19              		.global	GFX_Init
  20              		.code	16
  21              		.thumb_func
  22              		.type	GFX_Init, %function
  23              	GFX_Init:
  24              	.LFB35:
  25              		.file 1 ".\\GFXmaster.c"
   1:.\GFXmaster.c **** /* ================================================================================================
   2:.\GFXmaster.c ****  *   Graphics FX Master Library Based on Adafruit GFX Library
   3:.\GFXmaster.c ****  *   Ported to PSoC by Jon Isaiah  earthworm.jim117@gmail.com
   4:.\GFXmaster.c ****  * 
   5:.\GFXmaster.c ****  *   Legal Info at End of File
   6:.\GFXmaster.c ****  *
   7:.\GFXmaster.c ****  *   Last updated 8.24.2015
   8:.\GFXmaster.c ****  *
   9:.\GFXmaster.c ****  *  -----Usage Guide-------
  10:.\GFXmaster.c ****  *
  11:.\GFXmaster.c ****  * This is the Master GFX Library
  12:.\GFXmaster.c ****  * You will also need a hardward specific library specific to your device
  13:.\GFXmaster.c ****  *
  14:.\GFXmaster.c ****  *     1. Your project must include the source files 
  15:.\GFXmaster.c ****  *            GFXmaster.c
  16:.\GFXmaster.c ****  *            GFXmaster.h
  17:.\GFXmaster.c ****  *            glcdfont.c
  18:.\GFXmaster.c ****  *            SSD1306.c   or the module for another driver chip (yourDisplay.c)
  19:.\GFXmaster.c ****  *            SSD1306.h                                         (yourDisplay.h)
  20:.\GFXmaster.c ****  *
  21:.\GFXmaster.c ****  *    2.   You must #include yourDisplay.h to gain access to required functions (drawPixel)
  22:.\GFXmaster.c ****  *
  23:.\GFXmaster.c ****  *    3.   Comment out any functions definitions which are optimized for your chip in yourDisplay.c
  24:.\GFXmaster.c ****  * 
  25:.\GFXmaster.c ****  *
  26:.\GFXmaster.c ****  * ========================================
  27:.\GFXmaster.c **** */
  28:.\GFXmaster.c **** 
  29:.\GFXmaster.c **** 
  30:.\GFXmaster.c **** #include "GFXmaster.h"
  31:.\GFXmaster.c **** #include "glcdfont.c"
  32:.\GFXmaster.c **** #include "SSD1306.h"
ARM GAS  C:\Users\username\AppData\Local\Temp\ccSuCzK2.s 			page 2


  33:.\GFXmaster.c **** 
  34:.\GFXmaster.c **** 
  35:.\GFXmaster.c **** 
  36:.\GFXmaster.c **** void GFX_Init(uint16_t h, uint16_t w){
  26              		.loc 1 36 0
  27              		.cfi_startproc
  28              	.LVL0:
  37:.\GFXmaster.c ****     _width = w;
  29              		.loc 1 37 0
  30 0000 0C4B     		ldr	r3, .L2
  31 0002 1980     		strh	r1, [r3]
  38:.\GFXmaster.c ****     _height = h;
  32              		.loc 1 38 0
  33 0004 0C4B     		ldr	r3, .L2+4
  34 0006 1880     		strh	r0, [r3]
  39:.\GFXmaster.c ****     rotation = 0;
  35              		.loc 1 39 0
  36 0008 0023     		mov	r3, #0
  37 000a 0C4A     		ldr	r2, .L2+8
  38 000c 1370     		strb	r3, [r2]
  40:.\GFXmaster.c ****     cursor_y = 0;
  39              		.loc 1 40 0
  40 000e 0C4A     		ldr	r2, .L2+12
  41 0010 1380     		strh	r3, [r2]
  41:.\GFXmaster.c ****     cursor_x =0;
  42              		.loc 1 41 0
  43 0012 0C4A     		ldr	r2, .L2+16
  44 0014 1380     		strh	r3, [r2]
  42:.\GFXmaster.c ****     textsize = 1;
  45              		.loc 1 42 0
  46 0016 0122     		mov	r2, #1
  47 0018 0B49     		ldr	r1, .L2+20
  48              	.LVL1:
  49 001a 0A70     		strb	r2, [r1]
  43:.\GFXmaster.c ****     textcolor = 0x01;
  50              		.loc 1 43 0
  51 001c 0B49     		ldr	r1, .L2+24
  52 001e 0A80     		strh	r2, [r1]
  44:.\GFXmaster.c ****     textbgcolor = 0x00;
  53              		.loc 1 44 0
  54 0020 0B4A     		ldr	r2, .L2+28
  55 0022 1380     		strh	r3, [r2]
  45:.\GFXmaster.c ****     wrap = 1;
  56              		.loc 1 45 0
  57 0024 0B4B     		ldr	r3, .L2+32
  58 0026 0122     		mov	r2, #1
  59 0028 1A70     		strb	r2, [r3]
  46:.\GFXmaster.c ****     _cp437 = 0;
  60              		.loc 1 46 0
  61 002a 0B4B     		ldr	r3, .L2+36
  62 002c 0022     		mov	r2, #0
  63 002e 1A70     		strb	r2, [r3]
  47:.\GFXmaster.c **** }
  64              		.loc 1 47 0
  65              		@ sp needed
  66 0030 7047     		bx	lr
  67              	.L3:
ARM GAS  C:\Users\username\AppData\Local\Temp\ccSuCzK2.s 			page 3


  68 0032 C046     		.align	2
  69              	.L2:
  70 0034 00000000 		.word	_width
  71 0038 00000000 		.word	_height
  72 003c 00000000 		.word	rotation
  73 0040 00000000 		.word	cursor_y
  74 0044 00000000 		.word	cursor_x
  75 0048 00000000 		.word	textsize
  76 004c 00000000 		.word	textcolor
  77 0050 00000000 		.word	textbgcolor
  78 0054 00000000 		.word	wrap
  79 0058 00000000 		.word	_cp437
  80              		.cfi_endproc
  81              	.LFE35:
  82              		.size	GFX_Init, .-GFX_Init
  83              		.section	.text.drawCircle,"ax",%progbits
  84              		.align	2
  85              		.global	drawCircle
  86              		.code	16
  87              		.thumb_func
  88              		.type	drawCircle, %function
  89              	drawCircle:
  90              	.LFB36:
  48:.\GFXmaster.c **** 
  49:.\GFXmaster.c **** 
  50:.\GFXmaster.c **** 
  51:.\GFXmaster.c **** // Draw a circle outline
  52:.\GFXmaster.c **** void drawCircle(int16_t x0, int16_t y0, int16_t r, uint16_t color) {
  91              		.loc 1 52 0
  92              		.cfi_startproc
  93              	.LVL2:
  94 0000 F0B5     		push	{r4, r5, r6, r7, lr}
  95              		.cfi_def_cfa_offset 20
  96              		.cfi_offset 4, -20
  97              		.cfi_offset 5, -16
  98              		.cfi_offset 6, -12
  99              		.cfi_offset 7, -8
 100              		.cfi_offset 14, -4
 101 0002 5F46     		mov	r7, fp
 102 0004 5646     		mov	r6, r10
 103 0006 4D46     		mov	r5, r9
 104 0008 4446     		mov	r4, r8
 105 000a F0B4     		push	{r4, r5, r6, r7}
 106              		.cfi_def_cfa_offset 36
 107              		.cfi_offset 8, -36
 108              		.cfi_offset 9, -32
 109              		.cfi_offset 10, -28
 110              		.cfi_offset 11, -24
 111 000c 87B0     		sub	sp, sp, #28
 112              		.cfi_def_cfa_offset 64
 113 000e 051C     		mov	r5, r0
 114 0010 0C1C     		mov	r4, r1
 115 0012 0292     		str	r2, [sp, #8]
 116 0014 1F1C     		mov	r7, r3
 117 0016 0193     		str	r3, [sp, #4]
  53:.\GFXmaster.c ****   int16_t f = 1 - r;
 118              		.loc 1 53 0
ARM GAS  C:\Users\username\AppData\Local\Temp\ccSuCzK2.s 			page 4


 119 0018 96B2     		uxth	r6, r2
 120 001a 0123     		mov	r3, #1
 121              	.LVL3:
 122 001c 9B1B     		sub	r3, r3, r6
 123 001e 9BB2     		uxth	r3, r3
 124 0020 9B46     		mov	fp, r3
 125              	.LVL4:
  54:.\GFXmaster.c ****   int16_t ddF_x = 1;
  55:.\GFXmaster.c ****   int16_t ddF_y = -2 * r;
 126              		.loc 1 55 0
 127 0022 F303     		lsl	r3, r6, #15
 128 0024 9B1B     		sub	r3, r3, r6
 129 0026 5A00     		lsl	r2, r3, #1
 130              	.LVL5:
 131 0028 93B2     		uxth	r3, r2
 132 002a 0593     		str	r3, [sp, #20]
 133              	.LVL6:
  56:.\GFXmaster.c ****   int16_t x = 0;
  57:.\GFXmaster.c ****   int16_t y = r;
  58:.\GFXmaster.c **** 
  59:.\GFXmaster.c ****   drawPixel(x0  , y0+r, color);
 134              		.loc 1 59 0
 135 002c 8BB2     		uxth	r3, r1
 136 002e 9A46     		mov	r10, r3
 137 0030 F118     		add	r1, r6, r3
 138              	.LVL7:
 139 0032 09B2     		sxth	r1, r1
 140 0034 3A1C     		mov	r2, r7
 141 0036 FFF7FEFF 		bl	drawPixel
 142              	.LVL8:
  60:.\GFXmaster.c ****   drawPixel(x0  , y0-r, color);
 143              		.loc 1 60 0
 144 003a 5346     		mov	r3, r10
 145 003c 991B     		sub	r1, r3, r6
 146 003e 09B2     		sxth	r1, r1
 147 0040 281C     		mov	r0, r5
 148 0042 3A1C     		mov	r2, r7
 149 0044 FFF7FEFF 		bl	drawPixel
 150              	.LVL9:
  61:.\GFXmaster.c ****   drawPixel(x0+r, y0  , color);
 151              		.loc 1 61 0
 152 0048 ABB2     		uxth	r3, r5
 153 004a 9946     		mov	r9, r3
 154 004c F018     		add	r0, r6, r3
 155 004e 00B2     		sxth	r0, r0
 156 0050 211C     		mov	r1, r4
 157 0052 3A1C     		mov	r2, r7
 158 0054 FFF7FEFF 		bl	drawPixel
 159              	.LVL10:
  62:.\GFXmaster.c ****   drawPixel(x0-r, y0  , color);
 160              		.loc 1 62 0
 161 0058 4B46     		mov	r3, r9
 162 005a 981B     		sub	r0, r3, r6
 163 005c 00B2     		sxth	r0, r0
 164 005e 211C     		mov	r1, r4
 165 0060 3A1C     		mov	r2, r7
 166 0062 FFF7FEFF 		bl	drawPixel
ARM GAS  C:\Users\username\AppData\Local\Temp\ccSuCzK2.s 			page 5


 167              	.LVL11:
  56:.\GFXmaster.c ****   int16_t y = r;
 168              		.loc 1 56 0
 169 0066 0023     		mov	r3, #0
 170 0068 0393     		str	r3, [sp, #12]
  54:.\GFXmaster.c ****   int16_t ddF_y = -2 * r;
 171              		.loc 1 54 0
 172 006a 0133     		add	r3, r3, #1
 173 006c 9846     		mov	r8, r3
  63:.\GFXmaster.c **** 
  64:.\GFXmaster.c ****   while (x<y) {
 174              		.loc 1 64 0
 175 006e 62E0     		b	.L5
 176              	.LVL12:
 177              	.L7:
  65:.\GFXmaster.c ****     if (f >= 0) {
 178              		.loc 1 65 0
 179 0070 5B46     		mov	r3, fp
 180 0072 1BB2     		sxth	r3, r3
 181 0074 002B     		cmp	r3, #0
 182 0076 0BDB     		blt	.L6
  66:.\GFXmaster.c ****       y--;
 183              		.loc 1 66 0
 184 0078 029B     		ldr	r3, [sp, #8]
 185 007a 013B     		sub	r3, r3, #1
 186 007c 1BB2     		sxth	r3, r3
 187 007e 0293     		str	r3, [sp, #8]
 188              	.LVL13:
  67:.\GFXmaster.c ****       ddF_y += 2;
 189              		.loc 1 67 0
 190 0080 059B     		ldr	r3, [sp, #20]
 191 0082 0233     		add	r3, r3, #2
 192 0084 9BB2     		uxth	r3, r3
 193 0086 9AB2     		uxth	r2, r3
 194 0088 0592     		str	r2, [sp, #20]
 195              	.LVL14:
  68:.\GFXmaster.c ****       f += ddF_y;
 196              		.loc 1 68 0
 197 008a 5B44     		add	r3, r3, fp
 198 008c 9BB2     		uxth	r3, r3
 199 008e 9B46     		mov	fp, r3
 200              	.LVL15:
 201              	.L6:
  69:.\GFXmaster.c ****     }
  70:.\GFXmaster.c ****     x++;
 202              		.loc 1 70 0
 203 0090 039C     		ldr	r4, [sp, #12]
 204 0092 0134     		add	r4, r4, #1
 205 0094 A4B2     		uxth	r4, r4
 206 0096 A3B2     		uxth	r3, r4
 207 0098 0393     		str	r3, [sp, #12]
 208              	.LVL16:
  71:.\GFXmaster.c ****     ddF_x += 2;
 209              		.loc 1 71 0
 210 009a 4346     		mov	r3, r8
 211 009c 0233     		add	r3, r3, #2
 212 009e 9BB2     		uxth	r3, r3
ARM GAS  C:\Users\username\AppData\Local\Temp\ccSuCzK2.s 			page 6


 213 00a0 9AB2     		uxth	r2, r3
 214 00a2 9046     		mov	r8, r2
 215              	.LVL17:
  72:.\GFXmaster.c ****     f += ddF_x;
 216              		.loc 1 72 0
 217 00a4 5B44     		add	r3, r3, fp
 218 00a6 9BB2     		uxth	r3, r3
 219 00a8 9B46     		mov	fp, r3
 220              	.LVL18:
  73:.\GFXmaster.c ****   
  74:.\GFXmaster.c ****     drawPixel(x0 + x, y0 + y, color);
 221              		.loc 1 74 0
 222 00aa 4B46     		mov	r3, r9
 223 00ac 1F19     		add	r7, r3, r4
 224 00ae 6B46     		mov	r3, sp
 225 00b0 1D89     		ldrh	r5, [r3, #8]
 226 00b2 5346     		mov	r3, r10
 227 00b4 5E19     		add	r6, r3, r5
 228 00b6 3FB2     		sxth	r7, r7
 229 00b8 36B2     		sxth	r6, r6
 230 00ba 381C     		mov	r0, r7
 231 00bc 311C     		mov	r1, r6
 232 00be 019A     		ldr	r2, [sp, #4]
 233 00c0 FFF7FEFF 		bl	drawPixel
 234              	.LVL19:
  75:.\GFXmaster.c ****     drawPixel(x0 - x, y0 + y, color);
 235              		.loc 1 75 0
 236 00c4 4B46     		mov	r3, r9
 237 00c6 1B1B     		sub	r3, r3, r4
 238 00c8 1BB2     		sxth	r3, r3
 239 00ca 0493     		str	r3, [sp, #16]
 240 00cc 181C     		mov	r0, r3
 241 00ce 311C     		mov	r1, r6
 242 00d0 019A     		ldr	r2, [sp, #4]
 243 00d2 FFF7FEFF 		bl	drawPixel
 244              	.LVL20:
  76:.\GFXmaster.c ****     drawPixel(x0 + x, y0 - y, color);
 245              		.loc 1 76 0
 246 00d6 5246     		mov	r2, r10
 247 00d8 561B     		sub	r6, r2, r5
 248 00da 36B2     		sxth	r6, r6
 249 00dc 381C     		mov	r0, r7
 250 00de 311C     		mov	r1, r6
 251 00e0 019F     		ldr	r7, [sp, #4]
 252 00e2 3A1C     		mov	r2, r7
 253 00e4 FFF7FEFF 		bl	drawPixel
 254              	.LVL21:
  77:.\GFXmaster.c ****     drawPixel(x0 - x, y0 - y, color);
 255              		.loc 1 77 0
 256 00e8 0498     		ldr	r0, [sp, #16]
 257 00ea 311C     		mov	r1, r6
 258 00ec 0197     		str	r7, [sp, #4]
 259 00ee 3A1C     		mov	r2, r7
 260 00f0 FFF7FEFF 		bl	drawPixel
 261              	.LVL22:
  78:.\GFXmaster.c ****     drawPixel(x0 + y, y0 + x, color);
 262              		.loc 1 78 0
ARM GAS  C:\Users\username\AppData\Local\Temp\ccSuCzK2.s 			page 7


 263 00f4 4B46     		mov	r3, r9
 264 00f6 5E19     		add	r6, r3, r5
 265 00f8 5346     		mov	r3, r10
 266 00fa 1F19     		add	r7, r3, r4
 267 00fc 36B2     		sxth	r6, r6
 268 00fe 3FB2     		sxth	r7, r7
 269 0100 301C     		mov	r0, r6
 270 0102 391C     		mov	r1, r7
 271 0104 019A     		ldr	r2, [sp, #4]
 272 0106 FFF7FEFF 		bl	drawPixel
 273              	.LVL23:
  79:.\GFXmaster.c ****     drawPixel(x0 - y, y0 + x, color);
 274              		.loc 1 79 0
 275 010a 4B46     		mov	r3, r9
 276 010c 5D1B     		sub	r5, r3, r5
 277 010e 2DB2     		sxth	r5, r5
 278 0110 281C     		mov	r0, r5
 279 0112 391C     		mov	r1, r7
 280 0114 019F     		ldr	r7, [sp, #4]
 281 0116 3A1C     		mov	r2, r7
 282 0118 FFF7FEFF 		bl	drawPixel
 283              	.LVL24:
  80:.\GFXmaster.c ****     drawPixel(x0 + y, y0 - x, color);
 284              		.loc 1 80 0
 285 011c 5346     		mov	r3, r10
 286 011e 1C1B     		sub	r4, r3, r4
 287 0120 24B2     		sxth	r4, r4
 288 0122 301C     		mov	r0, r6
 289 0124 211C     		mov	r1, r4
 290 0126 3A1C     		mov	r2, r7
 291 0128 FFF7FEFF 		bl	drawPixel
 292              	.LVL25:
  81:.\GFXmaster.c ****     drawPixel(x0 - y, y0 - x, color);
 293              		.loc 1 81 0
 294 012c 281C     		mov	r0, r5
 295 012e 211C     		mov	r1, r4
 296 0130 3A1C     		mov	r2, r7
 297 0132 FFF7FEFF 		bl	drawPixel
 298              	.LVL26:
 299              	.L5:
  64:.\GFXmaster.c ****     if (f >= 0) {
 300              		.loc 1 64 0
 301 0136 6B46     		mov	r3, sp
 302 0138 0C22     		mov	r2, #12
 303 013a 9B5E     		ldrsh	r3, [r3, r2]
 304 013c 029A     		ldr	r2, [sp, #8]
 305 013e 9342     		cmp	r3, r2
 306 0140 96DB     		blt	.L7
  82:.\GFXmaster.c ****   }
  83:.\GFXmaster.c **** }
 307              		.loc 1 83 0
 308 0142 07B0     		add	sp, sp, #28
 309              		@ sp needed
 310              	.LVL27:
 311              	.LVL28:
 312              	.LVL29:
 313 0144 3CBC     		pop	{r2, r3, r4, r5}
ARM GAS  C:\Users\username\AppData\Local\Temp\ccSuCzK2.s 			page 8


 314 0146 9046     		mov	r8, r2
 315 0148 9946     		mov	r9, r3
 316 014a A246     		mov	r10, r4
 317 014c AB46     		mov	fp, r5
 318 014e F0BD     		pop	{r4, r5, r6, r7, pc}
 319              		.cfi_endproc
 320              	.LFE36:
 321              		.size	drawCircle, .-drawCircle
 322              		.section	.text.drawCircleHelper,"ax",%progbits
 323              		.align	2
 324              		.global	drawCircleHelper
 325              		.code	16
 326              		.thumb_func
 327              		.type	drawCircleHelper, %function
 328              	drawCircleHelper:
 329              	.LFB37:
  84:.\GFXmaster.c **** 
  85:.\GFXmaster.c **** 
  86:.\GFXmaster.c **** void drawCircleHelper( int16_t x0, int16_t y0, int16_t r, uint8_t cornername, uint16_t color) {
 330              		.loc 1 86 0
 331              		.cfi_startproc
 332              	.LVL30:
 333 0000 F0B5     		push	{r4, r5, r6, r7, lr}
 334              		.cfi_def_cfa_offset 20
 335              		.cfi_offset 4, -20
 336              		.cfi_offset 5, -16
 337              		.cfi_offset 6, -12
 338              		.cfi_offset 7, -8
 339              		.cfi_offset 14, -4
 340 0002 5F46     		mov	r7, fp
 341 0004 5646     		mov	r6, r10
 342 0006 4D46     		mov	r5, r9
 343 0008 4446     		mov	r4, r8
 344 000a F0B4     		push	{r4, r5, r6, r7}
 345              		.cfi_def_cfa_offset 36
 346              		.cfi_offset 8, -36
 347              		.cfi_offset 9, -32
 348              		.cfi_offset 10, -28
 349              		.cfi_offset 11, -24
 350 000c 87B0     		sub	sp, sp, #28
 351              		.cfi_def_cfa_offset 64
 352 000e 0390     		str	r0, [sp, #12]
 353 0010 0491     		str	r1, [sp, #16]
 354 0012 171C     		mov	r7, r2
 355 0014 9946     		mov	r9, r3
 356 0016 10AB     		add	r3, sp, #64
 357              	.LVL31:
 358 0018 1B88     		ldrh	r3, [r3]
 359              	.LVL32:
 360 001a 0293     		str	r3, [sp, #8]
  87:.\GFXmaster.c ****   int16_t f     = 1 - r;
 361              		.loc 1 87 0
 362 001c 92B2     		uxth	r2, r2
 363 001e 0124     		mov	r4, #1
 364 0020 A41A     		sub	r4, r4, r2
 365 0022 A4B2     		uxth	r4, r4
 366              	.LVL33:
ARM GAS  C:\Users\username\AppData\Local\Temp\ccSuCzK2.s 			page 9


  88:.\GFXmaster.c ****   int16_t ddF_x = 1;
  89:.\GFXmaster.c ****   int16_t ddF_y = -2 * r;
 367              		.loc 1 89 0
 368 0024 D303     		lsl	r3, r2, #15
 369 0026 9B1A     		sub	r3, r3, r2
 370 0028 5A00     		lsl	r2, r3, #1
 371              	.LVL34:
 372 002a 93B2     		uxth	r3, r2
 373 002c 9A46     		mov	r10, r3
 374              	.LVL35:
  90:.\GFXmaster.c ****   int16_t x     = 0;
 375              		.loc 1 90 0
 376 002e 0023     		mov	r3, #0
 377 0030 0193     		str	r3, [sp, #4]
  88:.\GFXmaster.c ****   int16_t ddF_x = 1;
 378              		.loc 1 88 0
 379 0032 0133     		add	r3, r3, #1
 380 0034 9846     		mov	r8, r3
 381 0036 4E46     		mov	r6, r9
  91:.\GFXmaster.c ****   int16_t y     = r;
  92:.\GFXmaster.c **** 
  93:.\GFXmaster.c ****   while (x<y) {
 382              		.loc 1 93 0
 383 0038 7CE0     		b	.L9
 384              	.LVL36:
 385              	.L15:
  94:.\GFXmaster.c ****     if (f >= 0) {
 386              		.loc 1 94 0
 387 003a 23B2     		sxth	r3, r4
 388 003c 002B     		cmp	r3, #0
 389 003e 08DB     		blt	.L10
  95:.\GFXmaster.c ****       y--;
 390              		.loc 1 95 0
 391 0040 013F     		sub	r7, r7, #1
 392              	.LVL37:
 393 0042 3FB2     		sxth	r7, r7
 394              	.LVL38:
  96:.\GFXmaster.c ****       ddF_y += 2;
 395              		.loc 1 96 0
 396 0044 5346     		mov	r3, r10
 397 0046 0233     		add	r3, r3, #2
 398 0048 9BB2     		uxth	r3, r3
 399 004a 9AB2     		uxth	r2, r3
 400 004c 9246     		mov	r10, r2
 401              	.LVL39:
  97:.\GFXmaster.c ****       f     += ddF_y;
 402              		.loc 1 97 0
 403 004e 1C19     		add	r4, r3, r4
 404              	.LVL40:
 405 0050 A4B2     		uxth	r4, r4
 406              	.LVL41:
 407              	.L10:
  98:.\GFXmaster.c ****     }
  99:.\GFXmaster.c ****     x++;
 408              		.loc 1 99 0
 409 0052 019D     		ldr	r5, [sp, #4]
 410 0054 0135     		add	r5, r5, #1
ARM GAS  C:\Users\username\AppData\Local\Temp\ccSuCzK2.s 			page 10


 411 0056 ADB2     		uxth	r5, r5
 412 0058 ABB2     		uxth	r3, r5
 413 005a 0193     		str	r3, [sp, #4]
 414              	.LVL42:
 100:.\GFXmaster.c ****     ddF_x += 2;
 415              		.loc 1 100 0
 416 005c 4346     		mov	r3, r8
 417 005e 0233     		add	r3, r3, #2
 418 0060 9BB2     		uxth	r3, r3
 419 0062 9AB2     		uxth	r2, r3
 420 0064 9046     		mov	r8, r2
 421              	.LVL43:
 101:.\GFXmaster.c ****     f     += ddF_x;
 422              		.loc 1 101 0
 423 0066 1C19     		add	r4, r3, r4
 424              	.LVL44:
 425 0068 A4B2     		uxth	r4, r4
 426              	.LVL45:
 102:.\GFXmaster.c ****     if (cornername & 0x4) {
 427              		.loc 1 102 0
 428 006a 7307     		lsl	r3, r6, #29
 429 006c 16D5     		bpl	.L11
 103:.\GFXmaster.c ****       drawPixel(x0 + x, y0 + y, color);
 430              		.loc 1 103 0
 431 006e 6B46     		mov	r3, sp
 432 0070 9889     		ldrh	r0, [r3, #12]
 433 0072 198A     		ldrh	r1, [r3, #16]
 434 0074 BBB2     		uxth	r3, r7
 435 0076 0590     		str	r0, [sp, #20]
 436 0078 2818     		add	r0, r5, r0
 437 007a 00B2     		sxth	r0, r0
 438 007c 8946     		mov	r9, r1
 439 007e 9B46     		mov	fp, r3
 440 0080 5944     		add	r1, r1, fp
 441 0082 09B2     		sxth	r1, r1
 442 0084 029A     		ldr	r2, [sp, #8]
 443 0086 FFF7FEFF 		bl	drawPixel
 444              	.LVL46:
 104:.\GFXmaster.c ****       drawPixel(x0 + y, y0 + x, color);
 445              		.loc 1 104 0
 446 008a 059B     		ldr	r3, [sp, #20]
 447 008c 5B44     		add	r3, r3, fp
 448 008e 18B2     		sxth	r0, r3
 449 0090 4B46     		mov	r3, r9
 450 0092 E918     		add	r1, r5, r3
 451 0094 09B2     		sxth	r1, r1
 452 0096 029A     		ldr	r2, [sp, #8]
 453 0098 FFF7FEFF 		bl	drawPixel
 454              	.LVL47:
 455              	.L11:
 105:.\GFXmaster.c ****     } 
 106:.\GFXmaster.c ****     if (cornername & 0x2) {
 456              		.loc 1 106 0
 457 009c B307     		lsl	r3, r6, #30
 458 009e 16D5     		bpl	.L12
 107:.\GFXmaster.c ****       drawPixel(x0 + x, y0 - y, color);
 459              		.loc 1 107 0
ARM GAS  C:\Users\username\AppData\Local\Temp\ccSuCzK2.s 			page 11


 460 00a0 6B46     		mov	r3, sp
 461 00a2 9889     		ldrh	r0, [r3, #12]
 462 00a4 198A     		ldrh	r1, [r3, #16]
 463 00a6 BBB2     		uxth	r3, r7
 464 00a8 0590     		str	r0, [sp, #20]
 465 00aa 2818     		add	r0, r5, r0
 466 00ac 00B2     		sxth	r0, r0
 467 00ae 8946     		mov	r9, r1
 468 00b0 9B46     		mov	fp, r3
 469 00b2 C91A     		sub	r1, r1, r3
 470 00b4 09B2     		sxth	r1, r1
 471 00b6 029A     		ldr	r2, [sp, #8]
 472 00b8 FFF7FEFF 		bl	drawPixel
 473              	.LVL48:
 108:.\GFXmaster.c ****       drawPixel(x0 + y, y0 - x, color);
 474              		.loc 1 108 0
 475 00bc 059B     		ldr	r3, [sp, #20]
 476 00be 5B44     		add	r3, r3, fp
 477 00c0 18B2     		sxth	r0, r3
 478 00c2 4B46     		mov	r3, r9
 479 00c4 591B     		sub	r1, r3, r5
 480 00c6 09B2     		sxth	r1, r1
 481 00c8 029A     		ldr	r2, [sp, #8]
 482 00ca FFF7FEFF 		bl	drawPixel
 483              	.LVL49:
 484              	.L12:
 109:.\GFXmaster.c ****     }
 110:.\GFXmaster.c ****     if (cornername & 0x8) {
 485              		.loc 1 110 0
 486 00ce 3307     		lsl	r3, r6, #28
 487 00d0 16D5     		bpl	.L13
 111:.\GFXmaster.c ****       drawPixel(x0 - y, y0 + x, color);
 488              		.loc 1 111 0
 489 00d2 6B46     		mov	r3, sp
 490 00d4 9889     		ldrh	r0, [r3, #12]
 491 00d6 B9B2     		uxth	r1, r7
 492 00d8 1B8A     		ldrh	r3, [r3, #16]
 493 00da 8346     		mov	fp, r0
 494 00dc 0591     		str	r1, [sp, #20]
 495 00de 401A     		sub	r0, r0, r1
 496 00e0 00B2     		sxth	r0, r0
 497 00e2 9946     		mov	r9, r3
 498 00e4 E918     		add	r1, r5, r3
 499 00e6 09B2     		sxth	r1, r1
 500 00e8 029A     		ldr	r2, [sp, #8]
 501 00ea FFF7FEFF 		bl	drawPixel
 502              	.LVL50:
 112:.\GFXmaster.c ****       drawPixel(x0 - x, y0 + y, color);
 503              		.loc 1 112 0
 504 00ee 5946     		mov	r1, fp
 505 00f0 481B     		sub	r0, r1, r5
 506 00f2 00B2     		sxth	r0, r0
 507 00f4 059B     		ldr	r3, [sp, #20]
 508 00f6 4B44     		add	r3, r3, r9
 509 00f8 19B2     		sxth	r1, r3
 510 00fa 029A     		ldr	r2, [sp, #8]
 511 00fc FFF7FEFF 		bl	drawPixel
ARM GAS  C:\Users\username\AppData\Local\Temp\ccSuCzK2.s 			page 12


 512              	.LVL51:
 513              	.L13:
 113:.\GFXmaster.c ****     }
 114:.\GFXmaster.c ****     if (cornername & 0x1) {
 514              		.loc 1 114 0
 515 0100 F307     		lsl	r3, r6, #31
 516 0102 17D5     		bpl	.L9
 115:.\GFXmaster.c ****       drawPixel(x0 - y, y0 - x, color);
 517              		.loc 1 115 0
 518 0104 6B46     		mov	r3, sp
 519 0106 9889     		ldrh	r0, [r3, #12]
 520 0108 B9B2     		uxth	r1, r7
 521 010a 1B8A     		ldrh	r3, [r3, #16]
 522 010c 8346     		mov	fp, r0
 523 010e 0591     		str	r1, [sp, #20]
 524 0110 401A     		sub	r0, r0, r1
 525 0112 00B2     		sxth	r0, r0
 526 0114 9946     		mov	r9, r3
 527 0116 591B     		sub	r1, r3, r5
 528 0118 09B2     		sxth	r1, r1
 529 011a 029A     		ldr	r2, [sp, #8]
 530 011c FFF7FEFF 		bl	drawPixel
 531              	.LVL52:
 116:.\GFXmaster.c ****       drawPixel(x0 - x, y0 - y, color);
 532              		.loc 1 116 0
 533 0120 5946     		mov	r1, fp
 534 0122 4D1B     		sub	r5, r1, r5
 535 0124 28B2     		sxth	r0, r5
 536 0126 4946     		mov	r1, r9
 537 0128 059B     		ldr	r3, [sp, #20]
 538 012a C91A     		sub	r1, r1, r3
 539 012c 09B2     		sxth	r1, r1
 540 012e 029A     		ldr	r2, [sp, #8]
 541 0130 FFF7FEFF 		bl	drawPixel
 542              	.LVL53:
 543              	.L9:
  93:.\GFXmaster.c ****     if (f >= 0) {
 544              		.loc 1 93 0
 545 0134 6B46     		mov	r3, sp
 546 0136 0422     		mov	r2, #4
 547 0138 9B5E     		ldrsh	r3, [r3, r2]
 548 013a BB42     		cmp	r3, r7
 549 013c 00DA     		bge	.LCB585
 550 013e 7CE7     		b	.L15	@long jump
 551              	.LCB585:
 117:.\GFXmaster.c ****     }
 118:.\GFXmaster.c ****   }
 119:.\GFXmaster.c **** }
 552              		.loc 1 119 0
 553 0140 07B0     		add	sp, sp, #28
 554              		@ sp needed
 555              	.LVL54:
 556              	.LVL55:
 557              	.LVL56:
 558              	.LVL57:
 559 0142 3CBC     		pop	{r2, r3, r4, r5}
 560 0144 9046     		mov	r8, r2
ARM GAS  C:\Users\username\AppData\Local\Temp\ccSuCzK2.s 			page 13


 561 0146 9946     		mov	r9, r3
 562 0148 A246     		mov	r10, r4
 563 014a AB46     		mov	fp, r5
 564 014c F0BD     		pop	{r4, r5, r6, r7, pc}
 565              		.cfi_endproc
 566              	.LFE37:
 567              		.size	drawCircleHelper, .-drawCircleHelper
 568 014e C046     		.section	.text.fillCircleHelper,"ax",%progbits
 569              		.align	2
 570              		.global	fillCircleHelper
 571              		.code	16
 572              		.thumb_func
 573              		.type	fillCircleHelper, %function
 574              	fillCircleHelper:
 575              	.LFB39:
 120:.\GFXmaster.c **** 
 121:.\GFXmaster.c **** 
 122:.\GFXmaster.c **** 
 123:.\GFXmaster.c **** void fillCircle(int16_t x0, int16_t y0, int16_t r, uint16_t color) {
 124:.\GFXmaster.c ****   drawFastVLine(x0, y0-r, 2*r+1, color);
 125:.\GFXmaster.c ****   fillCircleHelper(x0, y0, r, 3, 0, color);
 126:.\GFXmaster.c **** }
 127:.\GFXmaster.c **** 
 128:.\GFXmaster.c **** 
 129:.\GFXmaster.c **** void fillCircleHelper(int16_t x0, int16_t y0, int16_t r,
 130:.\GFXmaster.c ****     uint8_t cornername, int16_t delta, uint16_t color) {
 576              		.loc 1 130 0
 577              		.cfi_startproc
 578              	.LVL58:
 579 0000 F0B5     		push	{r4, r5, r6, r7, lr}
 580              		.cfi_def_cfa_offset 20
 581              		.cfi_offset 4, -20
 582              		.cfi_offset 5, -16
 583              		.cfi_offset 6, -12
 584              		.cfi_offset 7, -8
 585              		.cfi_offset 14, -4
 586 0002 5F46     		mov	r7, fp
 587 0004 5646     		mov	r6, r10
 588 0006 4D46     		mov	r5, r9
 589 0008 4446     		mov	r4, r8
 590 000a F0B4     		push	{r4, r5, r6, r7}
 591              		.cfi_def_cfa_offset 36
 592              		.cfi_offset 8, -36
 593              		.cfi_offset 9, -32
 594              		.cfi_offset 10, -28
 595              		.cfi_offset 11, -24
 596 000c 89B0     		sub	sp, sp, #36
 597              		.cfi_def_cfa_offset 72
 598 000e 0290     		str	r0, [sp, #8]
 599 0010 0391     		str	r1, [sp, #12]
 600 0012 9046     		mov	r8, r2
 601 0014 9946     		mov	r9, r3
 602 0016 12AB     		add	r3, sp, #72
 603              	.LVL59:
 604 0018 0022     		mov	r2, #0
 605 001a 9B5E     		ldrsh	r3, [r3, r2]
 606              	.LVL60:
ARM GAS  C:\Users\username\AppData\Local\Temp\ccSuCzK2.s 			page 14


 607 001c 0493     		str	r3, [sp, #16]
 608 001e 13AB     		add	r3, sp, #76
 609              	.LVL61:
 610 0020 1B88     		ldrh	r3, [r3]
 611              	.LVL62:
 612 0022 0193     		str	r3, [sp, #4]
 131:.\GFXmaster.c **** 
 132:.\GFXmaster.c ****   int16_t f     = 1 - r;
 613              		.loc 1 132 0
 614 0024 4346     		mov	r3, r8
 615 0026 6A46     		mov	r2, sp
 616 0028 9382     		strh	r3, [r2, #20]
 617 002a 928A     		ldrh	r2, [r2, #20]
 618 002c 0124     		mov	r4, #1
 619 002e A41A     		sub	r4, r4, r2
 620 0030 A4B2     		uxth	r4, r4
 621              	.LVL63:
 133:.\GFXmaster.c ****   int16_t ddF_x = 1;
 134:.\GFXmaster.c ****   int16_t ddF_y = -2 * r;
 622              		.loc 1 134 0
 623 0032 D303     		lsl	r3, r2, #15
 624 0034 9B1A     		sub	r3, r3, r2
 625 0036 5A00     		lsl	r2, r3, #1
 626 0038 93B2     		uxth	r3, r2
 627 003a 9B46     		mov	fp, r3
 628              	.LVL64:
 135:.\GFXmaster.c ****   int16_t x     = 0;
 629              		.loc 1 135 0
 630 003c 0027     		mov	r7, #0
 133:.\GFXmaster.c ****   int16_t ddF_x = 1;
 631              		.loc 1 133 0
 632 003e 0123     		mov	r3, #1
 633 0040 9A46     		mov	r10, r3
 634 0042 4646     		mov	r6, r8
 136:.\GFXmaster.c ****   int16_t y     = r;
 137:.\GFXmaster.c **** 
 138:.\GFXmaster.c ****   while (x<y) {
 635              		.loc 1 138 0
 636 0044 69E0     		b	.L17
 637              	.LVL65:
 638              	.L21:
 139:.\GFXmaster.c ****     if (f >= 0) {
 639              		.loc 1 139 0
 640 0046 23B2     		sxth	r3, r4
 641 0048 002B     		cmp	r3, #0
 642 004a 08DB     		blt	.L18
 140:.\GFXmaster.c ****       y--;
 643              		.loc 1 140 0
 644 004c 013E     		sub	r6, r6, #1
 645              	.LVL66:
 646 004e 36B2     		sxth	r6, r6
 647              	.LVL67:
 141:.\GFXmaster.c ****       ddF_y += 2;
 648              		.loc 1 141 0
 649 0050 5B46     		mov	r3, fp
 650 0052 0233     		add	r3, r3, #2
 651 0054 9BB2     		uxth	r3, r3
ARM GAS  C:\Users\username\AppData\Local\Temp\ccSuCzK2.s 			page 15


 652 0056 9AB2     		uxth	r2, r3
 653 0058 9346     		mov	fp, r2
 654              	.LVL68:
 142:.\GFXmaster.c ****       f     += ddF_y;
 655              		.loc 1 142 0
 656 005a 1C19     		add	r4, r3, r4
 657              	.LVL69:
 658 005c A4B2     		uxth	r4, r4
 659              	.LVL70:
 660              	.L18:
 143:.\GFXmaster.c ****     }
 144:.\GFXmaster.c ****     x++;
 661              		.loc 1 144 0
 662 005e 0137     		add	r7, r7, #1
 663              	.LVL71:
 664 0060 BDB2     		uxth	r5, r7
 665 0062 AFB2     		uxth	r7, r5
 666              	.LVL72:
 145:.\GFXmaster.c ****     ddF_x += 2;
 667              		.loc 1 145 0
 668 0064 5346     		mov	r3, r10
 669 0066 0233     		add	r3, r3, #2
 670 0068 9BB2     		uxth	r3, r3
 671 006a 9AB2     		uxth	r2, r3
 672 006c 9246     		mov	r10, r2
 673              	.LVL73:
 146:.\GFXmaster.c ****     f     += ddF_x;
 674              		.loc 1 146 0
 675 006e 1C19     		add	r4, r3, r4
 676              	.LVL74:
 677 0070 A4B2     		uxth	r4, r4
 678              	.LVL75:
 147:.\GFXmaster.c **** 
 148:.\GFXmaster.c ****     if (cornername & 0x1) {
 679              		.loc 1 148 0
 680 0072 4B46     		mov	r3, r9
 681 0074 DB07     		lsl	r3, r3, #31
 682 0076 26D5     		bpl	.L19
 149:.\GFXmaster.c ****       drawFastVLine(x0+x, y0-y, 2*y+1+delta, color);
 683              		.loc 1 149 0
 684 0078 6B46     		mov	r3, sp
 685 007a 1889     		ldrh	r0, [r3, #8]
 686 007c 9989     		ldrh	r1, [r3, #12]
 687 007e B2B2     		uxth	r2, r6
 688 0080 1B8A     		ldrh	r3, [r3, #16]
 689 0082 0590     		str	r0, [sp, #20]
 690 0084 2818     		add	r0, r5, r0
 691 0086 00B2     		sxth	r0, r0
 692 0088 9046     		mov	r8, r2
 693 008a 0691     		str	r1, [sp, #24]
 694 008c 0A1C     		mov	r2, r1
 695 008e 4146     		mov	r1, r8
 696 0090 511A     		sub	r1, r2, r1
 697 0092 09B2     		sxth	r1, r1
 698 0094 4246     		mov	r2, r8
 699 0096 5200     		lsl	r2, r2, #1
 700 0098 0793     		str	r3, [sp, #28]
ARM GAS  C:\Users\username\AppData\Local\Temp\ccSuCzK2.s 			page 16


 701 009a 9C46     		mov	ip, r3
 702 009c 6244     		add	r2, r2, ip
 703 009e 0132     		add	r2, r2, #1
 704 00a0 12B2     		sxth	r2, r2
 705 00a2 019B     		ldr	r3, [sp, #4]
 706 00a4 FFF7FEFF 		bl	drawFastVLine
 707              	.LVL76:
 150:.\GFXmaster.c ****       drawFastVLine(x0+y, y0-x, 2*x+1+delta, color);
 708              		.loc 1 150 0
 709 00a8 0598     		ldr	r0, [sp, #20]
 710 00aa 4044     		add	r0, r0, r8
 711 00ac 00B2     		sxth	r0, r0
 712 00ae 069A     		ldr	r2, [sp, #24]
 713 00b0 511B     		sub	r1, r2, r5
 714 00b2 09B2     		sxth	r1, r1
 715 00b4 6A00     		lsl	r2, r5, #1
 716 00b6 079B     		ldr	r3, [sp, #28]
 717 00b8 9C46     		mov	ip, r3
 718 00ba 6244     		add	r2, r2, ip
 719 00bc 0132     		add	r2, r2, #1
 720 00be 12B2     		sxth	r2, r2
 721 00c0 019B     		ldr	r3, [sp, #4]
 722 00c2 FFF7FEFF 		bl	drawFastVLine
 723              	.LVL77:
 724              	.L19:
 151:.\GFXmaster.c ****     }
 152:.\GFXmaster.c ****     if (cornername & 0x2) {
 725              		.loc 1 152 0
 726 00c6 4B46     		mov	r3, r9
 727 00c8 9B07     		lsl	r3, r3, #30
 728 00ca 26D5     		bpl	.L17
 153:.\GFXmaster.c ****       drawFastVLine(x0-x, y0-y, 2*y+1+delta, color);
 729              		.loc 1 153 0
 730 00cc 6B46     		mov	r3, sp
 731 00ce 1889     		ldrh	r0, [r3, #8]
 732 00d0 9989     		ldrh	r1, [r3, #12]
 733 00d2 B2B2     		uxth	r2, r6
 734 00d4 1B8A     		ldrh	r3, [r3, #16]
 735 00d6 0590     		str	r0, [sp, #20]
 736 00d8 401B     		sub	r0, r0, r5
 737 00da 00B2     		sxth	r0, r0
 738 00dc 9046     		mov	r8, r2
 739 00de 0691     		str	r1, [sp, #24]
 740 00e0 0A1C     		mov	r2, r1
 741 00e2 4146     		mov	r1, r8
 742 00e4 511A     		sub	r1, r2, r1
 743 00e6 09B2     		sxth	r1, r1
 744 00e8 4246     		mov	r2, r8
 745 00ea 5200     		lsl	r2, r2, #1
 746 00ec 0793     		str	r3, [sp, #28]
 747 00ee 9C46     		mov	ip, r3
 748 00f0 6244     		add	r2, r2, ip
 749 00f2 0132     		add	r2, r2, #1
 750 00f4 12B2     		sxth	r2, r2
 751 00f6 019B     		ldr	r3, [sp, #4]
 752 00f8 FFF7FEFF 		bl	drawFastVLine
 753              	.LVL78:
ARM GAS  C:\Users\username\AppData\Local\Temp\ccSuCzK2.s 			page 17


 154:.\GFXmaster.c ****       drawFastVLine(x0-y, y0-x, 2*x+1+delta, color);
 754              		.loc 1 154 0
 755 00fc 0598     		ldr	r0, [sp, #20]
 756 00fe 4146     		mov	r1, r8
 757 0100 401A     		sub	r0, r0, r1
 758 0102 00B2     		sxth	r0, r0
 759 0104 069A     		ldr	r2, [sp, #24]
 760 0106 511B     		sub	r1, r2, r5
 761 0108 09B2     		sxth	r1, r1
 762 010a 6D00     		lsl	r5, r5, #1
 763 010c 079A     		ldr	r2, [sp, #28]
 764 010e 5219     		add	r2, r2, r5
 765 0110 0132     		add	r2, r2, #1
 766 0112 12B2     		sxth	r2, r2
 767 0114 019B     		ldr	r3, [sp, #4]
 768 0116 FFF7FEFF 		bl	drawFastVLine
 769              	.LVL79:
 770              	.L17:
 138:.\GFXmaster.c ****     if (f >= 0) {
 771              		.loc 1 138 0
 772 011a 3BB2     		sxth	r3, r7
 773 011c B342     		cmp	r3, r6
 774 011e 92DB     		blt	.L21
 155:.\GFXmaster.c ****     }
 156:.\GFXmaster.c ****   }
 157:.\GFXmaster.c **** }
 775              		.loc 1 157 0
 776 0120 09B0     		add	sp, sp, #36
 777              		@ sp needed
 778              	.LVL80:
 779              	.LVL81:
 780              	.LVL82:
 781              	.LVL83:
 782              	.LVL84:
 783 0122 3CBC     		pop	{r2, r3, r4, r5}
 784 0124 9046     		mov	r8, r2
 785 0126 9946     		mov	r9, r3
 786 0128 A246     		mov	r10, r4
 787 012a AB46     		mov	fp, r5
 788 012c F0BD     		pop	{r4, r5, r6, r7, pc}
 789              		.cfi_endproc
 790              	.LFE39:
 791              		.size	fillCircleHelper, .-fillCircleHelper
 792 012e C046     		.section	.text.fillCircle,"ax",%progbits
 793              		.align	2
 794              		.global	fillCircle
 795              		.code	16
 796              		.thumb_func
 797              		.type	fillCircle, %function
 798              	fillCircle:
 799              	.LFB38:
 123:.\GFXmaster.c ****   drawFastVLine(x0, y0-r, 2*r+1, color);
 800              		.loc 1 123 0
 801              		.cfi_startproc
 802              	.LVL85:
 803 0000 F0B5     		push	{r4, r5, r6, r7, lr}
 804              		.cfi_def_cfa_offset 20
ARM GAS  C:\Users\username\AppData\Local\Temp\ccSuCzK2.s 			page 18


 805              		.cfi_offset 4, -20
 806              		.cfi_offset 5, -16
 807              		.cfi_offset 6, -12
 808              		.cfi_offset 7, -8
 809              		.cfi_offset 14, -4
 810 0002 83B0     		sub	sp, sp, #12
 811              		.cfi_def_cfa_offset 32
 812 0004 061C     		mov	r6, r0
 813 0006 0D1C     		mov	r5, r1
 814 0008 141C     		mov	r4, r2
 815 000a 1F1C     		mov	r7, r3
 124:.\GFXmaster.c ****   fillCircleHelper(x0, y0, r, 3, 0, color);
 816              		.loc 1 124 0
 817 000c 92B2     		uxth	r2, r2
 818 000e 891A     		sub	r1, r1, r2
 819              	.LVL86:
 820 0010 09B2     		sxth	r1, r1
 821 0012 5200     		lsl	r2, r2, #1
 822              	.LVL87:
 823 0014 0132     		add	r2, r2, #1
 824 0016 12B2     		sxth	r2, r2
 825 0018 FFF7FEFF 		bl	drawFastVLine
 826              	.LVL88:
 125:.\GFXmaster.c **** }
 827              		.loc 1 125 0
 828 001c 0023     		mov	r3, #0
 829 001e 0093     		str	r3, [sp]
 830 0020 0197     		str	r7, [sp, #4]
 831 0022 301C     		mov	r0, r6
 832 0024 291C     		mov	r1, r5
 833 0026 221C     		mov	r2, r4
 834 0028 0333     		add	r3, r3, #3
 835 002a FFF7FEFF 		bl	fillCircleHelper
 836              	.LVL89:
 126:.\GFXmaster.c **** 
 837              		.loc 1 126 0
 838 002e 03B0     		add	sp, sp, #12
 839              		@ sp needed
 840 0030 F0BD     		pop	{r4, r5, r6, r7, pc}
 841              		.cfi_endproc
 842              	.LFE38:
 843              		.size	fillCircle, .-fillCircle
 844 0032 C046     		.section	.text.drawLine,"ax",%progbits
 845              		.align	2
 846              		.global	drawLine
 847              		.code	16
 848              		.thumb_func
 849              		.type	drawLine, %function
 850              	drawLine:
 851              	.LFB40:
 158:.\GFXmaster.c **** 
 159:.\GFXmaster.c **** 
 160:.\GFXmaster.c **** // Bresenham's algorithm - thx wikpedia
 161:.\GFXmaster.c **** void drawLine(int16_t x0, int16_t y0, int16_t x1, int16_t y1, uint16_t color) {
 852              		.loc 1 161 0
 853              		.cfi_startproc
 854              	.LVL90:
ARM GAS  C:\Users\username\AppData\Local\Temp\ccSuCzK2.s 			page 19


 855 0000 F0B5     		push	{r4, r5, r6, r7, lr}
 856              		.cfi_def_cfa_offset 20
 857              		.cfi_offset 4, -20
 858              		.cfi_offset 5, -16
 859              		.cfi_offset 6, -12
 860              		.cfi_offset 7, -8
 861              		.cfi_offset 14, -4
 862 0002 5F46     		mov	r7, fp
 863 0004 5646     		mov	r6, r10
 864 0006 4D46     		mov	r5, r9
 865 0008 4446     		mov	r4, r8
 866 000a F0B4     		push	{r4, r5, r6, r7}
 867              		.cfi_def_cfa_offset 36
 868              		.cfi_offset 8, -36
 869              		.cfi_offset 9, -32
 870              		.cfi_offset 10, -28
 871              		.cfi_offset 11, -24
 872 000c 83B0     		sub	sp, sp, #12
 873              		.cfi_def_cfa_offset 48
 874 000e 041C     		mov	r4, r0
 875 0010 0E1C     		mov	r6, r1
 876 0012 171C     		mov	r7, r2
 877 0014 0CAA     		add	r2, sp, #48
 878              	.LVL91:
 879 0016 1288     		ldrh	r2, [r2]
 880              	.LVL92:
 881 0018 0192     		str	r2, [sp, #4]
 162:.\GFXmaster.c ****     
 163:.\GFXmaster.c ****   int16_t steep = abs(y1 - y0) > abs(x1 - x0);
 882              		.loc 1 163 0
 883 001a 581A     		sub	r0, r3, r1
 884              	.LVL93:
 885 001c C217     		asr	r2, r0, #31
 886 001e 8018     		add	r0, r0, r2
 887 0020 5040     		eor	r0, r2
 888 0022 391B     		sub	r1, r7, r4
 889              	.LVL94:
 890 0024 CA17     		asr	r2, r1, #31
 891 0026 8918     		add	r1, r1, r2
 892 0028 5140     		eor	r1, r2
 893 002a 0122     		mov	r2, #1
 894 002c 8842     		cmp	r0, r1
 895 002e 00DC     		bgt	.L24
 896 0030 0022     		mov	r2, #0
 897              	.L24:
 898 0032 D2B2     		uxtb	r2, r2
 899 0034 92B2     		uxth	r2, r2
 900 0036 9046     		mov	r8, r2
 901              	.LVL95:
 164:.\GFXmaster.c **** 
 165:.\GFXmaster.c ****   if (steep) {
 902              		.loc 1 165 0
 903 0038 002A     		cmp	r2, #0
 904 003a 05D0     		beq	.L25
 905 003c 3A1C     		mov	r2, r7
 906              	.LVL96:
 907              	.LBB2:
ARM GAS  C:\Users\username\AppData\Local\Temp\ccSuCzK2.s 			page 20


 166:.\GFXmaster.c ****     swap(x0, y0);
 167:.\GFXmaster.c ****     swap(x1, y1);
 908              		.loc 1 167 0
 909 003e 1F1C     		mov	r7, r3
 910 0040 131C     		mov	r3, r2
 911              	.LVL97:
 912              	.LBE2:
 913 0042 221C     		mov	r2, r4
 914              	.LBB3:
 166:.\GFXmaster.c ****     swap(x0, y0);
 915              		.loc 1 166 0
 916 0044 341C     		mov	r4, r6
 917 0046 161C     		mov	r6, r2
 918              	.L25:
 919              	.LVL98:
 920              	.LBE3:
 168:.\GFXmaster.c ****   }
 169:.\GFXmaster.c **** 
 170:.\GFXmaster.c ****   if (x0 > x1) {
 921              		.loc 1 170 0
 922 0048 BC42     		cmp	r4, r7
 923 004a 05DD     		ble	.L26
 924 004c 321C     		mov	r2, r6
 925              	.LBB4:
 171:.\GFXmaster.c ****     swap(x0, x1);
 172:.\GFXmaster.c ****     swap(y0, y1);
 926              		.loc 1 172 0
 927 004e 1E1C     		mov	r6, r3
 928              	.LVL99:
 929 0050 131C     		mov	r3, r2
 930              	.LVL100:
 931              	.LBE4:
 932 0052 221C     		mov	r2, r4
 933              	.LBB5:
 171:.\GFXmaster.c ****     swap(x0, x1);
 934              		.loc 1 171 0
 935 0054 3C1C     		mov	r4, r7
 936              	.LVL101:
 937 0056 171C     		mov	r7, r2
 938              	.LVL102:
 939              	.L26:
 940              	.LBE5:
 173:.\GFXmaster.c ****   }
 174:.\GFXmaster.c **** 
 175:.\GFXmaster.c ****   int16_t dx, dy;
 176:.\GFXmaster.c ****   dx = x1 - x0;
 941              		.loc 1 176 0
 942 0058 3A1B     		sub	r2, r7, r4
 943 005a 92B2     		uxth	r2, r2
 944 005c 9246     		mov	r10, r2
 945              	.LVL103:
 177:.\GFXmaster.c ****   dy = abs(y1 - y0);
 946              		.loc 1 177 0
 947 005e 9A1B     		sub	r2, r3, r6
 948 0060 D117     		asr	r1, r2, #31
 949 0062 5218     		add	r2, r2, r1
 950 0064 4A40     		eor	r2, r1
ARM GAS  C:\Users\username\AppData\Local\Temp\ccSuCzK2.s 			page 21


 951 0066 9146     		mov	r9, r2
 952              	.LVL104:
 178:.\GFXmaster.c **** 
 179:.\GFXmaster.c ****   int16_t err = dx / 2;
 953              		.loc 1 179 0
 954 0068 5246     		mov	r2, r10
 955 006a 12B2     		sxth	r2, r2
 956 006c D50F     		lsr	r5, r2, #31
 957 006e AA18     		add	r2, r5, r2
 958 0070 5210     		asr	r2, r2, #1
 959 0072 95B2     		uxth	r5, r2
 960              	.LVL105:
 180:.\GFXmaster.c ****   int16_t ystep;
 181:.\GFXmaster.c **** 
 182:.\GFXmaster.c ****   if (y0 < y1) {
 961              		.loc 1 182 0
 962 0074 9E42     		cmp	r6, r3
 963 0076 02DA     		bge	.L35
 183:.\GFXmaster.c ****     ystep = 1;
 964              		.loc 1 183 0
 965 0078 0123     		mov	r3, #1
 966              	.LVL106:
 967 007a 9B46     		mov	fp, r3
 968 007c 1DE0     		b	.L28
 969              	.LVL107:
 970              	.L35:
 184:.\GFXmaster.c ****   } else {
 185:.\GFXmaster.c ****     ystep = -1;
 971              		.loc 1 185 0
 972 007e 134B     		ldr	r3, .L36
 973              	.LVL108:
 974 0080 9B46     		mov	fp, r3
 975 0082 1AE0     		b	.L28
 976              	.LVL109:
 977              	.L32:
 186:.\GFXmaster.c ****   }
 187:.\GFXmaster.c **** 
 188:.\GFXmaster.c ****   for (; x0<=x1; x0++) {
 189:.\GFXmaster.c ****     if (steep) {
 978              		.loc 1 189 0
 979 0084 4346     		mov	r3, r8
 980 0086 002B     		cmp	r3, #0
 981 0088 05D0     		beq	.L29
 982              	.LVL110:
 190:.\GFXmaster.c ****       drawPixel(y0, x0, color);
 983              		.loc 1 190 0
 984 008a 301C     		mov	r0, r6
 985 008c 211C     		mov	r1, r4
 986 008e 019A     		ldr	r2, [sp, #4]
 987 0090 FFF7FEFF 		bl	drawPixel
 988              	.LVL111:
 989 0094 04E0     		b	.L30
 990              	.LVL112:
 991              	.L29:
 191:.\GFXmaster.c ****     } else {
 192:.\GFXmaster.c ****       drawPixel(x0, y0, color);
 992              		.loc 1 192 0
ARM GAS  C:\Users\username\AppData\Local\Temp\ccSuCzK2.s 			page 22


 993 0096 201C     		mov	r0, r4
 994 0098 311C     		mov	r1, r6
 995 009a 019A     		ldr	r2, [sp, #4]
 996 009c FFF7FEFF 		bl	drawPixel
 997              	.LVL113:
 998              	.L30:
 193:.\GFXmaster.c ****     }
 194:.\GFXmaster.c ****     err -= dy;
 999              		.loc 1 194 0
 1000 00a0 4B46     		mov	r3, r9
 1001 00a2 ED1A     		sub	r5, r5, r3
 1002              	.LVL114:
 1003 00a4 ABB2     		uxth	r3, r5
 1004 00a6 9DB2     		uxth	r5, r3
 1005              	.LVL115:
 195:.\GFXmaster.c ****     if (err < 0) {
 1006              		.loc 1 195 0
 1007 00a8 2AB2     		sxth	r2, r5
 1008 00aa 002A     		cmp	r2, #0
 1009 00ac 03DA     		bge	.L31
 196:.\GFXmaster.c ****       y0 += ystep;
 1010              		.loc 1 196 0
 1011 00ae 5E44     		add	r6, r6, fp
 1012              	.LVL116:
 1013 00b0 36B2     		sxth	r6, r6
 1014              	.LVL117:
 197:.\GFXmaster.c ****       err += dx;
 1015              		.loc 1 197 0
 1016 00b2 5344     		add	r3, r3, r10
 1017 00b4 9DB2     		uxth	r5, r3
 1018              	.LVL118:
 1019              	.L31:
 188:.\GFXmaster.c ****     if (steep) {
 1020              		.loc 1 188 0
 1021 00b6 0134     		add	r4, r4, #1
 1022              	.LVL119:
 1023 00b8 24B2     		sxth	r4, r4
 1024              	.LVL120:
 1025              	.L28:
 188:.\GFXmaster.c ****     if (steep) {
 1026              		.loc 1 188 0 is_stmt 0 discriminator 1
 1027 00ba BC42     		cmp	r4, r7
 1028 00bc E2DD     		ble	.L32
 198:.\GFXmaster.c ****     }
 199:.\GFXmaster.c ****   }
 200:.\GFXmaster.c **** }
 1029              		.loc 1 200 0 is_stmt 1
 1030 00be 03B0     		add	sp, sp, #12
 1031              		@ sp needed
 1032              	.LVL121:
 1033              	.LVL122:
 1034              	.LVL123:
 1035              	.LVL124:
 1036              	.LVL125:
 1037              	.LVL126:
 1038              	.LVL127:
 1039              	.LVL128:
ARM GAS  C:\Users\username\AppData\Local\Temp\ccSuCzK2.s 			page 23


 1040 00c0 3CBC     		pop	{r2, r3, r4, r5}
 1041 00c2 9046     		mov	r8, r2
 1042 00c4 9946     		mov	r9, r3
 1043 00c6 A246     		mov	r10, r4
 1044 00c8 AB46     		mov	fp, r5
 1045 00ca F0BD     		pop	{r4, r5, r6, r7, pc}
 1046              	.L37:
 1047              		.align	2
 1048              	.L36:
 1049 00cc FFFF0000 		.word	65535
 1050              		.cfi_endproc
 1051              	.LFE40:
 1052              		.size	drawLine, .-drawLine
 1053              		.section	.text.drawRect,"ax",%progbits
 1054              		.align	2
 1055              		.global	drawRect
 1056              		.code	16
 1057              		.thumb_func
 1058              		.type	drawRect, %function
 1059              	drawRect:
 1060              	.LFB41:
 201:.\GFXmaster.c **** 
 202:.\GFXmaster.c **** 
 203:.\GFXmaster.c **** // Draw a rectangle
 204:.\GFXmaster.c **** void drawRect(int16_t x, int16_t y,
 205:.\GFXmaster.c **** 			    int16_t w, int16_t h,
 206:.\GFXmaster.c **** 			    uint16_t color) {
 1061              		.loc 1 206 0
 1062              		.cfi_startproc
 1063              	.LVL129:
 1064 0000 F0B5     		push	{r4, r5, r6, r7, lr}
 1065              		.cfi_def_cfa_offset 20
 1066              		.cfi_offset 4, -20
 1067              		.cfi_offset 5, -16
 1068              		.cfi_offset 6, -12
 1069              		.cfi_offset 7, -8
 1070              		.cfi_offset 14, -4
 1071 0002 83B0     		sub	sp, sp, #12
 1072              		.cfi_def_cfa_offset 32
 1073 0004 071C     		mov	r7, r0
 1074 0006 0E1C     		mov	r6, r1
 1075 0008 141C     		mov	r4, r2
 1076 000a 0193     		str	r3, [sp, #4]
 1077 000c 08AB     		add	r3, sp, #32
 1078              	.LVL130:
 1079 000e 1D88     		ldrh	r5, [r3]
 207:.\GFXmaster.c ****   drawFastHLine(x, y, w, color);
 1080              		.loc 1 207 0
 1081 0010 2B1C     		mov	r3, r5
 1082              	.LVL131:
 1083 0012 FFF7FEFF 		bl	drawFastHLine
 1084              	.LVL132:
 208:.\GFXmaster.c ****   drawFastHLine(x, y+h-1, w, color);
 1085              		.loc 1 208 0
 1086 0016 019B     		ldr	r3, [sp, #4]
 1087 0018 F118     		add	r1, r6, r3
 1088 001a 0139     		sub	r1, r1, #1
ARM GAS  C:\Users\username\AppData\Local\Temp\ccSuCzK2.s 			page 24


 1089 001c 09B2     		sxth	r1, r1
 1090 001e 381C     		mov	r0, r7
 1091 0020 221C     		mov	r2, r4
 1092 0022 2B1C     		mov	r3, r5
 1093 0024 FFF7FEFF 		bl	drawFastHLine
 1094              	.LVL133:
 209:.\GFXmaster.c ****   drawFastVLine(x, y, h, color);
 1095              		.loc 1 209 0
 1096 0028 381C     		mov	r0, r7
 1097 002a 311C     		mov	r1, r6
 1098 002c 019A     		ldr	r2, [sp, #4]
 1099 002e 2B1C     		mov	r3, r5
 1100 0030 FFF7FEFF 		bl	drawFastVLine
 1101              	.LVL134:
 210:.\GFXmaster.c ****   drawFastVLine(x+w-1, y, h, color);
 1102              		.loc 1 210 0
 1103 0034 3819     		add	r0, r7, r4
 1104 0036 0138     		sub	r0, r0, #1
 1105 0038 00B2     		sxth	r0, r0
 1106 003a 311C     		mov	r1, r6
 1107 003c 019A     		ldr	r2, [sp, #4]
 1108 003e 2B1C     		mov	r3, r5
 1109 0040 FFF7FEFF 		bl	drawFastVLine
 1110              	.LVL135:
 211:.\GFXmaster.c **** }
 1111              		.loc 1 211 0
 1112 0044 03B0     		add	sp, sp, #12
 1113              		@ sp needed
 1114 0046 F0BD     		pop	{r4, r5, r6, r7, pc}
 1115              		.cfi_endproc
 1116              	.LFE41:
 1117              		.size	drawRect, .-drawRect
 1118              		.section	.text.fillRect,"ax",%progbits
 1119              		.align	2
 1120              		.global	fillRect
 1121              		.code	16
 1122              		.thumb_func
 1123              		.type	fillRect, %function
 1124              	fillRect:
 1125              	.LFB42:
 212:.\GFXmaster.c **** 
 213:.\GFXmaster.c **** /*
 214:.\GFXmaster.c **** void drawFastVLine(int16_t x, int16_t y,            // currently overridden in yourDisplay.h
 215:.\GFXmaster.c **** 				 int16_t h, uint16_t color) {
 216:.\GFXmaster.c ****   // Update in subclasses if desired!
 217:.\GFXmaster.c ****   drawLine(x, y, x, y+h-1, color);
 218:.\GFXmaster.c **** }
 219:.\GFXmaster.c **** */
 220:.\GFXmaster.c ****                 
 221:.\GFXmaster.c **** /*
 222:.\GFXmaster.c **** void drawFastHLine(int16_t x, int16_t y,           // currently overridden in yourDisplay.h
 223:.\GFXmaster.c **** 				 int16_t w, uint16_t color) {
 224:.\GFXmaster.c ****   // Update in subclasses if desired!
 225:.\GFXmaster.c ****   drawLine(x, y, x+w-1, y, color);
 226:.\GFXmaster.c **** }
 227:.\GFXmaster.c **** */                
 228:.\GFXmaster.c ****   
ARM GAS  C:\Users\username\AppData\Local\Temp\ccSuCzK2.s 			page 25


 229:.\GFXmaster.c **** 
 230:.\GFXmaster.c **** void fillRect(int16_t x, int16_t y, int16_t w, int16_t h, uint16_t color) {
 1126              		.loc 1 230 0
 1127              		.cfi_startproc
 1128              	.LVL136:
 1129 0000 F0B5     		push	{r4, r5, r6, r7, lr}
 1130              		.cfi_def_cfa_offset 20
 1131              		.cfi_offset 4, -20
 1132              		.cfi_offset 5, -16
 1133              		.cfi_offset 6, -12
 1134              		.cfi_offset 7, -8
 1135              		.cfi_offset 14, -4
 1136 0002 83B0     		sub	sp, sp, #12
 1137              		.cfi_def_cfa_offset 32
 1138 0004 061C     		mov	r6, r0
 1139 0006 0091     		str	r1, [sp]
 1140 0008 171C     		mov	r7, r2
 1141 000a 0193     		str	r3, [sp, #4]
 1142 000c 08AB     		add	r3, sp, #32
 1143              	.LVL137:
 1144 000e 1D88     		ldrh	r5, [r3]
 1145              	.LVL138:
 231:.\GFXmaster.c ****   // Update in subclasses if desired!
 232:.\GFXmaster.c ****   int16_t i = x;
 233:.\GFXmaster.c ****   for (i=x; i<x+w; i++) {
 1146              		.loc 1 233 0
 1147 0010 041C     		mov	r4, r0
 1148 0012 07E0     		b	.L40
 1149              	.LVL139:
 1150              	.L41:
 234:.\GFXmaster.c ****     drawFastVLine(i, y, h, color);
 1151              		.loc 1 234 0 discriminator 3
 1152 0014 201C     		mov	r0, r4
 1153 0016 0099     		ldr	r1, [sp]
 1154 0018 019A     		ldr	r2, [sp, #4]
 1155 001a 2B1C     		mov	r3, r5
 1156 001c FFF7FEFF 		bl	drawFastVLine
 1157              	.LVL140:
 233:.\GFXmaster.c ****     drawFastVLine(i, y, h, color);
 1158              		.loc 1 233 0 discriminator 3
 1159 0020 0134     		add	r4, r4, #1
 1160              	.LVL141:
 1161 0022 24B2     		sxth	r4, r4
 1162              	.LVL142:
 1163              	.L40:
 233:.\GFXmaster.c ****     drawFastVLine(i, y, h, color);
 1164              		.loc 1 233 0 is_stmt 0 discriminator 1
 1165 0024 F319     		add	r3, r6, r7
 1166 0026 9C42     		cmp	r4, r3
 1167 0028 F4DB     		blt	.L41
 235:.\GFXmaster.c ****   }
 236:.\GFXmaster.c **** }
 1168              		.loc 1 236 0 is_stmt 1
 1169 002a 03B0     		add	sp, sp, #12
 1170              		@ sp needed
 1171              	.LVL143:
 1172 002c F0BD     		pop	{r4, r5, r6, r7, pc}
ARM GAS  C:\Users\username\AppData\Local\Temp\ccSuCzK2.s 			page 26


 1173              		.cfi_endproc
 1174              	.LFE42:
 1175              		.size	fillRect, .-fillRect
 1176 002e C046     		.section	.text.fillScreen,"ax",%progbits
 1177              		.align	2
 1178              		.global	fillScreen
 1179              		.code	16
 1180              		.thumb_func
 1181              		.type	fillScreen, %function
 1182              	fillScreen:
 1183              	.LFB43:
 237:.\GFXmaster.c **** 
 238:.\GFXmaster.c **** void fillScreen(uint16_t color) {
 1184              		.loc 1 238 0
 1185              		.cfi_startproc
 1186              	.LVL144:
 1187 0000 00B5     		push	{lr}
 1188              		.cfi_def_cfa_offset 4
 1189              		.cfi_offset 14, -4
 1190 0002 83B0     		sub	sp, sp, #12
 1191              		.cfi_def_cfa_offset 16
 239:.\GFXmaster.c ****   fillRect(0, 0, _width, _height, color);
 1192              		.loc 1 239 0
 1193 0004 064B     		ldr	r3, .L43
 1194 0006 0022     		mov	r2, #0
 1195 0008 9A5E     		ldrsh	r2, [r3, r2]
 1196 000a 064B     		ldr	r3, .L43+4
 1197 000c 0021     		mov	r1, #0
 1198 000e 5B5E     		ldrsh	r3, [r3, r1]
 1199 0010 0090     		str	r0, [sp]
 1200 0012 0020     		mov	r0, #0
 1201              	.LVL145:
 1202 0014 0021     		mov	r1, #0
 1203 0016 FFF7FEFF 		bl	fillRect
 1204              	.LVL146:
 240:.\GFXmaster.c **** }                
 1205              		.loc 1 240 0
 1206 001a 03B0     		add	sp, sp, #12
 1207              		@ sp needed
 1208 001c 00BD     		pop	{pc}
 1209              	.L44:
 1210 001e C046     		.align	2
 1211              	.L43:
 1212 0020 00000000 		.word	_width
 1213 0024 00000000 		.word	_height
 1214              		.cfi_endproc
 1215              	.LFE43:
 1216              		.size	fillScreen, .-fillScreen
 1217              		.section	.text.drawRoundRect,"ax",%progbits
 1218              		.align	2
 1219              		.global	drawRoundRect
 1220              		.code	16
 1221              		.thumb_func
 1222              		.type	drawRoundRect, %function
 1223              	drawRoundRect:
 1224              	.LFB44:
 241:.\GFXmaster.c ****                 
ARM GAS  C:\Users\username\AppData\Local\Temp\ccSuCzK2.s 			page 27


 242:.\GFXmaster.c ****   
 243:.\GFXmaster.c **** 
 244:.\GFXmaster.c **** // Draw a rounded rectangle
 245:.\GFXmaster.c **** void drawRoundRect(int16_t x, int16_t y, int16_t w, int16_t h, int16_t r, uint16_t color) {
 1225              		.loc 1 245 0
 1226              		.cfi_startproc
 1227              	.LVL147:
 1228 0000 F0B5     		push	{r4, r5, r6, r7, lr}
 1229              		.cfi_def_cfa_offset 20
 1230              		.cfi_offset 4, -20
 1231              		.cfi_offset 5, -16
 1232              		.cfi_offset 6, -12
 1233              		.cfi_offset 7, -8
 1234              		.cfi_offset 14, -4
 1235 0002 5F46     		mov	r7, fp
 1236 0004 5646     		mov	r6, r10
 1237 0006 4D46     		mov	r5, r9
 1238 0008 4446     		mov	r4, r8
 1239 000a F0B4     		push	{r4, r5, r6, r7}
 1240              		.cfi_def_cfa_offset 36
 1241              		.cfi_offset 8, -36
 1242              		.cfi_offset 9, -32
 1243              		.cfi_offset 10, -28
 1244              		.cfi_offset 11, -24
 1245 000c 87B0     		sub	sp, sp, #28
 1246              		.cfi_def_cfa_offset 64
 1247 000e 0D1C     		mov	r5, r1
 1248 0010 1F1C     		mov	r7, r3
 1249 0012 10AB     		add	r3, sp, #64
 1250              	.LVL148:
 1251 0014 0021     		mov	r1, #0
 1252 0016 5B5E     		ldrsh	r3, [r3, r1]
 1253              	.LVL149:
 1254 0018 191C     		mov	r1, r3
 1255 001a 11AB     		add	r3, sp, #68
 1256              	.LVL150:
 1257 001c 1B88     		ldrh	r3, [r3]
 1258              	.LVL151:
 1259 001e 9846     		mov	r8, r3
 246:.\GFXmaster.c ****   // smarter version
 247:.\GFXmaster.c ****   drawFastHLine(x+r  , y    , w-2*r, color); // Top
 1260              		.loc 1 247 0
 1261 0020 0390     		str	r0, [sp, #12]
 1262 0022 6B46     		mov	r3, sp
 1263 0024 9B89     		ldrh	r3, [r3, #12]
 1264 0026 9A46     		mov	r10, r3
 1265 0028 0491     		str	r1, [sp, #16]
 1266 002a 6B46     		mov	r3, sp
 1267 002c 1B8A     		ldrh	r3, [r3, #16]
 1268 002e 9946     		mov	r9, r3
 1269 0030 5346     		mov	r3, r10
 1270 0032 4B44     		add	r3, r3, r9
 1271 0034 181C     		mov	r0, r3
 1272              	.LVL152:
 1273 0036 4B46     		mov	r3, r9
 1274 0038 DB03     		lsl	r3, r3, #15
 1275 003a 4C46     		mov	r4, r9
ARM GAS  C:\Users\username\AppData\Local\Temp\ccSuCzK2.s 			page 28


 1276 003c 1B1B     		sub	r3, r3, r4
 1277 003e 5900     		lsl	r1, r3, #1
 1278 0040 8BB2     		uxth	r3, r1
 1279 0042 9B46     		mov	fp, r3
 1280 0044 94B2     		uxth	r4, r2
 1281 0046 1B19     		add	r3, r3, r4
 1282 0048 02B2     		sxth	r2, r0
 1283              	.LVL153:
 1284 004a 1BB2     		sxth	r3, r3
 1285 004c 0292     		str	r2, [sp, #8]
 1286 004e 101C     		mov	r0, r2
 1287 0050 291C     		mov	r1, r5
 1288 0052 0593     		str	r3, [sp, #20]
 1289 0054 1A1C     		mov	r2, r3
 1290 0056 4346     		mov	r3, r8
 1291 0058 FFF7FEFF 		bl	drawFastHLine
 1292              	.LVL154:
 248:.\GFXmaster.c ****   drawFastHLine(x+r  , y+h-1, w-2*r, color); // Bottom
 1293              		.loc 1 248 0
 1294 005c ADB2     		uxth	r5, r5
 1295 005e BFB2     		uxth	r7, r7
 1296 0060 EE19     		add	r6, r5, r7
 1297 0062 B6B2     		uxth	r6, r6
 1298 0064 711E     		sub	r1, r6, #1
 1299 0066 09B2     		sxth	r1, r1
 1300 0068 0298     		ldr	r0, [sp, #8]
 1301 006a 059A     		ldr	r2, [sp, #20]
 1302 006c 4346     		mov	r3, r8
 1303 006e FFF7FEFF 		bl	drawFastHLine
 1304              	.LVL155:
 249:.\GFXmaster.c ****   drawFastVLine(x    , y+r  , h-2*r, color); // Left
 1305              		.loc 1 249 0
 1306 0072 4D44     		add	r5, r5, r9
 1307 0074 5F44     		add	r7, r7, fp
 1308 0076 2DB2     		sxth	r5, r5
 1309 0078 3FB2     		sxth	r7, r7
 1310 007a 0398     		ldr	r0, [sp, #12]
 1311 007c 291C     		mov	r1, r5
 1312 007e 3A1C     		mov	r2, r7
 1313 0080 4346     		mov	r3, r8
 1314 0082 FFF7FEFF 		bl	drawFastVLine
 1315              	.LVL156:
 250:.\GFXmaster.c ****   drawFastVLine(x+w-1, y+r  , h-2*r, color); // Right
 1316              		.loc 1 250 0
 1317 0086 5444     		add	r4, r4, r10
 1318              	.LVL157:
 1319 0088 A4B2     		uxth	r4, r4
 1320 008a 601E     		sub	r0, r4, #1
 1321 008c 00B2     		sxth	r0, r0
 1322 008e 291C     		mov	r1, r5
 1323 0090 3A1C     		mov	r2, r7
 1324 0092 4346     		mov	r3, r8
 1325 0094 FFF7FEFF 		bl	drawFastVLine
 1326              	.LVL158:
 251:.\GFXmaster.c ****   // draw four corners
 252:.\GFXmaster.c ****   drawCircleHelper(x+r    , y+r    , r, 1, color);
 1327              		.loc 1 252 0
ARM GAS  C:\Users\username\AppData\Local\Temp\ccSuCzK2.s 			page 29


 1328 0098 4346     		mov	r3, r8
 1329 009a 0093     		str	r3, [sp]
 1330 009c 0298     		ldr	r0, [sp, #8]
 1331 009e 291C     		mov	r1, r5
 1332 00a0 049F     		ldr	r7, [sp, #16]
 1333 00a2 3A1C     		mov	r2, r7
 1334 00a4 0123     		mov	r3, #1
 1335 00a6 FFF7FEFF 		bl	drawCircleHelper
 1336              	.LVL159:
 253:.\GFXmaster.c ****   drawCircleHelper(x+w-r-1, y+r    , r, 2, color);
 1337              		.loc 1 253 0
 1338 00aa 4B46     		mov	r3, r9
 1339 00ac E41A     		sub	r4, r4, r3
 1340 00ae 013C     		sub	r4, r4, #1
 1341 00b0 24B2     		sxth	r4, r4
 1342 00b2 4346     		mov	r3, r8
 1343 00b4 0093     		str	r3, [sp]
 1344 00b6 201C     		mov	r0, r4
 1345 00b8 291C     		mov	r1, r5
 1346 00ba 3A1C     		mov	r2, r7
 1347 00bc 0223     		mov	r3, #2
 1348 00be FFF7FEFF 		bl	drawCircleHelper
 1349              	.LVL160:
 254:.\GFXmaster.c ****   drawCircleHelper(x+w-r-1, y+h-r-1, r, 4, color);
 1350              		.loc 1 254 0
 1351 00c2 4B46     		mov	r3, r9
 1352 00c4 F61A     		sub	r6, r6, r3
 1353 00c6 013E     		sub	r6, r6, #1
 1354 00c8 36B2     		sxth	r6, r6
 1355 00ca 4346     		mov	r3, r8
 1356 00cc 0093     		str	r3, [sp]
 1357 00ce 201C     		mov	r0, r4
 1358 00d0 311C     		mov	r1, r6
 1359 00d2 3A1C     		mov	r2, r7
 1360 00d4 0423     		mov	r3, #4
 1361 00d6 FFF7FEFF 		bl	drawCircleHelper
 1362              	.LVL161:
 255:.\GFXmaster.c ****   drawCircleHelper(x+r    , y+h-r-1, r, 8, color);
 1363              		.loc 1 255 0
 1364 00da 4346     		mov	r3, r8
 1365 00dc 0093     		str	r3, [sp]
 1366 00de 0298     		ldr	r0, [sp, #8]
 1367 00e0 311C     		mov	r1, r6
 1368 00e2 3A1C     		mov	r2, r7
 1369 00e4 0823     		mov	r3, #8
 1370 00e6 FFF7FEFF 		bl	drawCircleHelper
 1371              	.LVL162:
 256:.\GFXmaster.c **** }
 1372              		.loc 1 256 0
 1373 00ea 07B0     		add	sp, sp, #28
 1374              		@ sp needed
 1375 00ec 3CBC     		pop	{r2, r3, r4, r5}
 1376 00ee 9046     		mov	r8, r2
 1377 00f0 9946     		mov	r9, r3
 1378 00f2 A246     		mov	r10, r4
 1379 00f4 AB46     		mov	fp, r5
 1380 00f6 F0BD     		pop	{r4, r5, r6, r7, pc}
ARM GAS  C:\Users\username\AppData\Local\Temp\ccSuCzK2.s 			page 30


 1381              		.cfi_endproc
 1382              	.LFE44:
 1383              		.size	drawRoundRect, .-drawRoundRect
 1384              		.section	.text.fillRoundRect,"ax",%progbits
 1385              		.align	2
 1386              		.global	fillRoundRect
 1387              		.code	16
 1388              		.thumb_func
 1389              		.type	fillRoundRect, %function
 1390              	fillRoundRect:
 1391              	.LFB45:
 257:.\GFXmaster.c **** 
 258:.\GFXmaster.c **** 
 259:.\GFXmaster.c **** // Fill a rounded rectangle
 260:.\GFXmaster.c **** void fillRoundRect(int16_t x, int16_t y, int16_t w, int16_t h, int16_t r, uint16_t color) {
 1392              		.loc 1 260 0
 1393              		.cfi_startproc
 1394              	.LVL163:
 1395 0000 F0B5     		push	{r4, r5, r6, r7, lr}
 1396              		.cfi_def_cfa_offset 20
 1397              		.cfi_offset 4, -20
 1398              		.cfi_offset 5, -16
 1399              		.cfi_offset 6, -12
 1400              		.cfi_offset 7, -8
 1401              		.cfi_offset 14, -4
 1402 0002 5746     		mov	r7, r10
 1403 0004 80B4     		push	{r7}
 1404              		.cfi_def_cfa_offset 24
 1405              		.cfi_offset 10, -24
 1406 0006 86B0     		sub	sp, sp, #24
 1407              		.cfi_def_cfa_offset 48
 1408 0008 0291     		str	r1, [sp, #8]
 1409 000a 0393     		str	r3, [sp, #12]
 1410 000c 0CAB     		add	r3, sp, #48
 1411              	.LVL164:
 1412 000e 0025     		mov	r5, #0
 1413 0010 5C5F     		ldrsh	r4, [r3, r5]
 1414 0012 0DAB     		add	r3, sp, #52
 1415              	.LVL165:
 1416 0014 1F88     		ldrh	r7, [r3]
 261:.\GFXmaster.c ****   // smarter version
 262:.\GFXmaster.c ****   fillRect(x+r, y, w-2*r, h, color);
 1417              		.loc 1 262 0
 1418 0016 80B2     		uxth	r0, r0
 1419 0018 8246     		mov	r10, r0
 1420 001a 0494     		str	r4, [sp, #16]
 1421 001c 6B46     		mov	r3, sp
 1422              	.LVL166:
 1423 001e 1E8A     		ldrh	r6, [r3, #16]
 1424 0020 8019     		add	r0, r0, r6
 1425              	.LVL167:
 1426 0022 F303     		lsl	r3, r6, #15
 1427 0024 9B1B     		sub	r3, r3, r6
 1428 0026 5900     		lsl	r1, r3, #1
 1429              	.LVL168:
 1430 0028 8DB2     		uxth	r5, r1
 1431 002a 94B2     		uxth	r4, r2
ARM GAS  C:\Users\username\AppData\Local\Temp\ccSuCzK2.s 			page 31


 1432 002c 02B2     		sxth	r2, r0
 1433              	.LVL169:
 1434 002e 101C     		mov	r0, r2
 1435 0030 2A19     		add	r2, r5, r4
 1436 0032 12B2     		sxth	r2, r2
 1437 0034 0097     		str	r7, [sp]
 1438 0036 0590     		str	r0, [sp, #20]
 1439 0038 0299     		ldr	r1, [sp, #8]
 1440 003a 039B     		ldr	r3, [sp, #12]
 1441 003c FFF7FEFF 		bl	fillRect
 1442              	.LVL170:
 263:.\GFXmaster.c **** 
 264:.\GFXmaster.c ****   // draw four corners
 265:.\GFXmaster.c ****   fillCircleHelper(x+w-r-1, y+r, r, 1, h-2*r-1, color);
 1443              		.loc 1 265 0
 1444 0040 029B     		ldr	r3, [sp, #8]
 1445 0042 F318     		add	r3, r6, r3
 1446 0044 0399     		ldr	r1, [sp, #12]
 1447 0046 8C46     		mov	ip, r1
 1448 0048 6544     		add	r5, r5, ip
 1449 004a 013D     		sub	r5, r5, #1
 1450 004c 211C     		mov	r1, r4
 1451 004e 5144     		add	r1, r1, r10
 1452 0050 881B     		sub	r0, r1, r6
 1453 0052 0138     		sub	r0, r0, #1
 1454 0054 00B2     		sxth	r0, r0
 1455 0056 1EB2     		sxth	r6, r3
 1456 0058 2DB2     		sxth	r5, r5
 1457 005a 0095     		str	r5, [sp]
 1458 005c 0197     		str	r7, [sp, #4]
 1459 005e 311C     		mov	r1, r6
 1460 0060 049C     		ldr	r4, [sp, #16]
 1461              	.LVL171:
 1462 0062 221C     		mov	r2, r4
 1463 0064 0123     		mov	r3, #1
 1464 0066 FFF7FEFF 		bl	fillCircleHelper
 1465              	.LVL172:
 266:.\GFXmaster.c ****   fillCircleHelper(x+r    , y+r, r, 2, h-2*r-1, color);
 1466              		.loc 1 266 0
 1467 006a 0095     		str	r5, [sp]
 1468 006c 0197     		str	r7, [sp, #4]
 1469 006e 0598     		ldr	r0, [sp, #20]
 1470 0070 311C     		mov	r1, r6
 1471 0072 221C     		mov	r2, r4
 1472 0074 0223     		mov	r3, #2
 1473 0076 FFF7FEFF 		bl	fillCircleHelper
 1474              	.LVL173:
 267:.\GFXmaster.c **** }
 1475              		.loc 1 267 0
 1476 007a 06B0     		add	sp, sp, #24
 1477              		@ sp needed
 1478              	.LVL174:
 1479 007c 04BC     		pop	{r2}
 1480 007e 9246     		mov	r10, r2
 1481 0080 F0BD     		pop	{r4, r5, r6, r7, pc}
 1482              		.cfi_endproc
 1483              	.LFE45:
ARM GAS  C:\Users\username\AppData\Local\Temp\ccSuCzK2.s 			page 32


 1484              		.size	fillRoundRect, .-fillRoundRect
 1485 0082 C046     		.section	.text.drawTriangle,"ax",%progbits
 1486              		.align	2
 1487              		.global	drawTriangle
 1488              		.code	16
 1489              		.thumb_func
 1490              		.type	drawTriangle, %function
 1491              	drawTriangle:
 1492              	.LFB46:
 268:.\GFXmaster.c **** 
 269:.\GFXmaster.c **** 
 270:.\GFXmaster.c **** 
 271:.\GFXmaster.c **** // Draw a triangle
 272:.\GFXmaster.c **** void drawTriangle(int16_t x0, int16_t y0, int16_t x1, int16_t y1,
 273:.\GFXmaster.c **** 				int16_t x2, int16_t y2, uint16_t color) {
 1493              		.loc 1 273 0
 1494              		.cfi_startproc
 1495              	.LVL175:
 1496 0000 F0B5     		push	{r4, r5, r6, r7, lr}
 1497              		.cfi_def_cfa_offset 20
 1498              		.cfi_offset 4, -20
 1499              		.cfi_offset 5, -16
 1500              		.cfi_offset 6, -12
 1501              		.cfi_offset 7, -8
 1502              		.cfi_offset 14, -4
 1503 0002 87B0     		sub	sp, sp, #28
 1504              		.cfi_def_cfa_offset 48
 1505 0004 171C     		mov	r7, r2
 1506 0006 0393     		str	r3, [sp, #12]
 1507 0008 0CAB     		add	r3, sp, #48
 1508              	.LVL176:
 1509 000a 0022     		mov	r2, #0
 1510 000c 9D5E     		ldrsh	r5, [r3, r2]
 1511              	.LVL177:
 1512 000e 0DAB     		add	r3, sp, #52
 1513              	.LVL178:
 1514 0010 0022     		mov	r2, #0
 1515 0012 9C5E     		ldrsh	r4, [r3, r2]
 1516 0014 0EAB     		add	r3, sp, #56
 1517              	.LVL179:
 1518 0016 1E88     		ldrh	r6, [r3]
 274:.\GFXmaster.c ****   drawLine(x0, y0, x1, y1, color);
 1519              		.loc 1 274 0
 1520 0018 0096     		str	r6, [sp]
 1521 001a 0490     		str	r0, [sp, #16]
 1522 001c 0591     		str	r1, [sp, #20]
 1523 001e 3A1C     		mov	r2, r7
 1524 0020 039B     		ldr	r3, [sp, #12]
 1525              	.LVL180:
 1526 0022 FFF7FEFF 		bl	drawLine
 1527              	.LVL181:
 275:.\GFXmaster.c ****   drawLine(x1, y1, x2, y2, color);
 1528              		.loc 1 275 0
 1529 0026 0096     		str	r6, [sp]
 1530 0028 381C     		mov	r0, r7
 1531 002a 0399     		ldr	r1, [sp, #12]
 1532 002c 2A1C     		mov	r2, r5
ARM GAS  C:\Users\username\AppData\Local\Temp\ccSuCzK2.s 			page 33


 1533 002e 231C     		mov	r3, r4
 1534 0030 FFF7FEFF 		bl	drawLine
 1535              	.LVL182:
 276:.\GFXmaster.c ****   drawLine(x2, y2, x0, y0, color);
 1536              		.loc 1 276 0
 1537 0034 0096     		str	r6, [sp]
 1538 0036 281C     		mov	r0, r5
 1539 0038 211C     		mov	r1, r4
 1540 003a 049A     		ldr	r2, [sp, #16]
 1541 003c 059B     		ldr	r3, [sp, #20]
 1542 003e FFF7FEFF 		bl	drawLine
 1543              	.LVL183:
 277:.\GFXmaster.c **** }
 1544              		.loc 1 277 0
 1545 0042 07B0     		add	sp, sp, #28
 1546              		@ sp needed
 1547 0044 F0BD     		pop	{r4, r5, r6, r7, pc}
 1548              		.cfi_endproc
 1549              	.LFE46:
 1550              		.size	drawTriangle, .-drawTriangle
 1551              		.global	__aeabi_idiv
 1552 0046 C046     		.section	.text.fillTriangle,"ax",%progbits
 1553              		.align	2
 1554              		.global	fillTriangle
 1555              		.code	16
 1556              		.thumb_func
 1557              		.type	fillTriangle, %function
 1558              	fillTriangle:
 1559              	.LFB47:
 278:.\GFXmaster.c **** 
 279:.\GFXmaster.c **** 
 280:.\GFXmaster.c ****                 
 281:.\GFXmaster.c **** // Fill a triangle
 282:.\GFXmaster.c **** void fillTriangle ( int16_t x0, int16_t y0,
 283:.\GFXmaster.c **** 				  int16_t x1, int16_t y1,
 284:.\GFXmaster.c **** 				  int16_t x2, int16_t y2, uint16_t color) {
 1560              		.loc 1 284 0
 1561              		.cfi_startproc
 1562              	.LVL184:
 1563 0000 F0B5     		push	{r4, r5, r6, r7, lr}
 1564              		.cfi_def_cfa_offset 20
 1565              		.cfi_offset 4, -20
 1566              		.cfi_offset 5, -16
 1567              		.cfi_offset 6, -12
 1568              		.cfi_offset 7, -8
 1569              		.cfi_offset 14, -4
 1570 0002 5F46     		mov	r7, fp
 1571 0004 5646     		mov	r6, r10
 1572 0006 4D46     		mov	r5, r9
 1573 0008 4446     		mov	r4, r8
 1574 000a F0B4     		push	{r4, r5, r6, r7}
 1575              		.cfi_def_cfa_offset 36
 1576              		.cfi_offset 8, -36
 1577              		.cfi_offset 9, -32
 1578              		.cfi_offset 10, -28
 1579              		.cfi_offset 11, -24
 1580 000c 8BB0     		sub	sp, sp, #44
ARM GAS  C:\Users\username\AppData\Local\Temp\ccSuCzK2.s 			page 34


 1581              		.cfi_def_cfa_offset 80
 1582 000e 0F1C     		mov	r7, r1
 1583 0010 0891     		str	r1, [sp, #32]
 1584 0012 1E1C     		mov	r6, r3
 1585 0014 0793     		str	r3, [sp, #28]
 1586 0016 14AB     		add	r3, sp, #80
 1587              	.LVL185:
 1588 0018 0025     		mov	r5, #0
 1589 001a 5B5F     		ldrsh	r3, [r3, r5]
 1590              	.LVL186:
 1591 001c 15A9     		add	r1, sp, #84
 1592              	.LVL187:
 1593 001e 0025     		mov	r5, #0
 1594 0020 4C5F     		ldrsh	r4, [r1, r5]
 1595 0022 A246     		mov	r10, r4
 1596 0024 16A9     		add	r1, sp, #88
 1597              	.LVL188:
 1598 0026 0C88     		ldrh	r4, [r1]
 1599 0028 0194     		str	r4, [sp, #4]
 285:.\GFXmaster.c **** 
 286:.\GFXmaster.c ****   int16_t a, b, y, last;
 287:.\GFXmaster.c **** 
 288:.\GFXmaster.c ****   // Sort coordinates by Y order (y2 >= y1 >= y0)
 289:.\GFXmaster.c ****   if (y0 > y1) {
 1600              		.loc 1 289 0
 1601 002a B742     		cmp	r7, r6
 1602 002c 04DD     		ble	.L49
 1603              	.LBB6:
 290:.\GFXmaster.c ****     swap(y0, y1); swap(x0, x1);
 1604              		.loc 1 290 0
 1605 002e 0896     		str	r6, [sp, #32]
 1606 0030 0797     		str	r7, [sp, #28]
 1607              	.LBE6:
 1608 0032 011C     		mov	r1, r0
 1609              	.LVL189:
 1610              	.LBB7:
 1611 0034 101C     		mov	r0, r2
 1612              	.LVL190:
 1613 0036 0A1C     		mov	r2, r1
 1614              	.LVL191:
 1615              	.L49:
 1616              	.LBE7:
 291:.\GFXmaster.c ****   }
 292:.\GFXmaster.c ****   if (y1 > y2) {
 1617              		.loc 1 292 0
 1618 0038 0799     		ldr	r1, [sp, #28]
 1619 003a 5145     		cmp	r1, r10
 1620 003c 05DD     		ble	.L50
 1621              	.LBB8:
 293:.\GFXmaster.c ****     swap(y2, y1); swap(x2, x1);
 1622              		.loc 1 293 0
 1623 003e 5446     		mov	r4, r10
 1624 0040 0794     		str	r4, [sp, #28]
 1625              	.LVL192:
 1626 0042 8A46     		mov	r10, r1
 1627              	.LBE8:
 1628 0044 111C     		mov	r1, r2
ARM GAS  C:\Users\username\AppData\Local\Temp\ccSuCzK2.s 			page 35


 1629              	.LBB9:
 1630 0046 1A1C     		mov	r2, r3
 1631              	.LVL193:
 1632 0048 0B1C     		mov	r3, r1
 1633              	.L50:
 1634              	.LVL194:
 1635              	.LBE9:
 294:.\GFXmaster.c ****   }
 295:.\GFXmaster.c ****   if (y0 > y1) {
 1636              		.loc 1 295 0
 1637 004a 0899     		ldr	r1, [sp, #32]
 1638 004c 079C     		ldr	r4, [sp, #28]
 1639 004e A142     		cmp	r1, r4
 1640 0050 04DD     		ble	.L51
 1641              	.LBB10:
 296:.\GFXmaster.c ****     swap(y0, y1); swap(x0, x1);
 1642              		.loc 1 296 0
 1643 0052 0894     		str	r4, [sp, #32]
 1644              	.LVL195:
 1645 0054 0791     		str	r1, [sp, #28]
 1646              	.LVL196:
 1647              	.LBE10:
 1648 0056 011C     		mov	r1, r0
 1649              	.LBB11:
 1650 0058 101C     		mov	r0, r2
 1651              	.LVL197:
 1652 005a 0A1C     		mov	r2, r1
 1653              	.LVL198:
 1654              	.L51:
 1655              	.LBE11:
 297:.\GFXmaster.c ****   }
 298:.\GFXmaster.c **** 
 299:.\GFXmaster.c ****   if(y0 == y2) { // Handle awkward all-on-same-line case as its own thing
 1656              		.loc 1 299 0
 1657 005c 0899     		ldr	r1, [sp, #32]
 1658 005e 5145     		cmp	r1, r10
 1659 0060 18D1     		bne	.L52
 1660              	.LVL199:
 300:.\GFXmaster.c ****     a = b = x0;
 301:.\GFXmaster.c ****     if(x1 < a)      a = x1;
 1661              		.loc 1 301 0
 1662 0062 9042     		cmp	r0, r2
 1663 0064 05DC     		bgt	.L53
 302:.\GFXmaster.c ****     else if(x1 > b) b = x1;
 1664              		.loc 1 302 0
 1665 0066 01DB     		blt	.L66
 300:.\GFXmaster.c ****     a = b = x0;
 1666              		.loc 1 300 0
 1667 0068 021C     		mov	r2, r0
 1668              	.LVL200:
 1669 006a 02E0     		b	.L53
 1670              	.LVL201:
 1671              	.L66:
 1672 006c 111C     		mov	r1, r2
 1673 006e 021C     		mov	r2, r0
 1674              	.LVL202:
 1675              		.loc 1 302 0
ARM GAS  C:\Users\username\AppData\Local\Temp\ccSuCzK2.s 			page 36


 1676 0070 081C     		mov	r0, r1
 1677              	.LVL203:
 1678              	.L53:
 303:.\GFXmaster.c ****     if(x2 < a)      a = x2;
 1679              		.loc 1 303 0
 1680 0072 9342     		cmp	r3, r2
 1681 0074 05DB     		blt	.L54
 304:.\GFXmaster.c ****     else if(x2 > b) b = x2;
 1682              		.loc 1 304 0
 1683 0076 8342     		cmp	r3, r0
 1684 0078 01DC     		bgt	.L67
 1685 007a 131C     		mov	r3, r2
 1686              	.LVL204:
 1687 007c 01E0     		b	.L54
 1688              	.LVL205:
 1689              	.L67:
 1690 007e 181C     		mov	r0, r3
 1691              	.LVL206:
 1692 0080 131C     		mov	r3, r2
 1693              	.LVL207:
 1694              	.L54:
 305:.\GFXmaster.c ****     drawFastHLine(a, y0, b-a+1, color);
 1695              		.loc 1 305 0
 1696 0082 C21A     		sub	r2, r0, r3
 1697 0084 501C     		add	r0, r2, #1
 1698              	.LVL208:
 1699 0086 02B2     		sxth	r2, r0
 1700 0088 181C     		mov	r0, r3
 1701 008a 0899     		ldr	r1, [sp, #32]
 1702 008c 019B     		ldr	r3, [sp, #4]
 1703              	.LVL209:
 1704 008e FFF7FEFF 		bl	drawFastHLine
 1705              	.LVL210:
 306:.\GFXmaster.c ****     return;
 1706              		.loc 1 306 0
 1707 0092 92E0     		b	.L48
 1708              	.LVL211:
 1709              	.L52:
 307:.\GFXmaster.c ****   }
 308:.\GFXmaster.c **** 
 309:.\GFXmaster.c ****   int16_t
 310:.\GFXmaster.c ****     dx01 = x1 - x0,
 1710              		.loc 1 310 0
 1711 0094 92B2     		uxth	r2, r2
 1712 0096 9346     		mov	fp, r2
 1713 0098 82B2     		uxth	r2, r0
 1714              	.LVL212:
 1715 009a 9046     		mov	r8, r2
 1716 009c 5A46     		mov	r2, fp
 1717 009e 4146     		mov	r1, r8
 1718 00a0 521A     		sub	r2, r2, r1
 1719 00a2 92B2     		uxth	r2, r2
 1720 00a4 0492     		str	r2, [sp, #16]
 1721              	.LVL213:
 311:.\GFXmaster.c ****     dy01 = y1 - y0,
 1722              		.loc 1 311 0
 1723 00a6 079C     		ldr	r4, [sp, #28]
ARM GAS  C:\Users\username\AppData\Local\Temp\ccSuCzK2.s 			page 37


 1724 00a8 A1B2     		uxth	r1, r4
 1725 00aa 6A46     		mov	r2, sp
 1726 00ac 108C     		ldrh	r0, [r2, #32]
 1727              	.LVL214:
 1728 00ae 0A1A     		sub	r2, r1, r0
 1729 00b0 92B2     		uxth	r2, r2
 1730 00b2 0592     		str	r2, [sp, #20]
 1731              	.LVL215:
 312:.\GFXmaster.c ****     dx02 = x2 - x0,
 1732              		.loc 1 312 0
 1733 00b4 9BB2     		uxth	r3, r3
 1734 00b6 4246     		mov	r2, r8
 1735 00b8 9A1A     		sub	r2, r3, r2
 1736 00ba 92B2     		uxth	r2, r2
 1737 00bc 0392     		str	r2, [sp, #12]
 1738              	.LVL216:
 313:.\GFXmaster.c ****     dy02 = y2 - y0,
 1739              		.loc 1 313 0
 1740 00be 5246     		mov	r2, r10
 1741 00c0 6D46     		mov	r5, sp
 1742 00c2 2A81     		strh	r2, [r5, #8]
 1743 00c4 2A89     		ldrh	r2, [r5, #8]
 1744 00c6 101A     		sub	r0, r2, r0
 1745 00c8 80B2     		uxth	r0, r0
 1746 00ca 0290     		str	r0, [sp, #8]
 1747              	.LVL217:
 314:.\GFXmaster.c ****     dx12 = x2 - x1,
 1748              		.loc 1 314 0
 1749 00cc 5846     		mov	r0, fp
 1750 00ce 1B1A     		sub	r3, r3, r0
 1751              	.LVL218:
 1752 00d0 9BB2     		uxth	r3, r3
 1753 00d2 0993     		str	r3, [sp, #36]
 1754              	.LVL219:
 315:.\GFXmaster.c ****     dy12 = y2 - y1;
 1755              		.loc 1 315 0
 1756 00d4 521A     		sub	r2, r2, r1
 1757 00d6 93B2     		uxth	r3, r2
 1758 00d8 0693     		str	r3, [sp, #24]
 1759              	.LVL220:
 316:.\GFXmaster.c ****   int32_t
 317:.\GFXmaster.c ****     sa   = 0,
 318:.\GFXmaster.c ****     sb   = 0;
 319:.\GFXmaster.c **** 
 320:.\GFXmaster.c ****   // For upper part of triangle, find scanline crossings for segments
 321:.\GFXmaster.c ****   // 0-1 and 0-2.  If y1=y2 (flat-bottomed triangle), the scanline y1
 322:.\GFXmaster.c ****   // is included here (and second loop will be skipped, avoiding a /0
 323:.\GFXmaster.c ****   // error there), otherwise scanline y1 is skipped here and handled
 324:.\GFXmaster.c ****   // in the second loop...which also avoids a /0 error here if y0=y1
 325:.\GFXmaster.c ****   // (flat-topped triangle).
 326:.\GFXmaster.c ****   if(y1 == y2) last = y1;   // Include y1 scanline
 1760              		.loc 1 326 0
 1761 00da 5445     		cmp	r4, r10
 1762 00dc 03D0     		beq	.L68
 327:.\GFXmaster.c ****   else         last = y1-1; // Skip it
 1763              		.loc 1 327 0
 1764 00de 4B1E     		sub	r3, r1, #1
ARM GAS  C:\Users\username\AppData\Local\Temp\ccSuCzK2.s 			page 38


 1765 00e0 1BB2     		sxth	r3, r3
 1766 00e2 9946     		mov	r9, r3
 1767              	.LVL221:
 1768 00e4 01E0     		b	.L56
 1769              	.LVL222:
 1770              	.L68:
 326:.\GFXmaster.c ****   else         last = y1-1; // Skip it
 1771              		.loc 1 326 0
 1772 00e6 079B     		ldr	r3, [sp, #28]
 1773 00e8 9946     		mov	r9, r3
 1774              	.L56:
 1775              	.LVL223:
 328:.\GFXmaster.c **** 
 329:.\GFXmaster.c ****   for(y=y0; y<=last; y++) {
 1776              		.loc 1 329 0
 1777 00ea 089D     		ldr	r5, [sp, #32]
 318:.\GFXmaster.c **** 
 1778              		.loc 1 318 0
 1779 00ec 0027     		mov	r7, #0
 317:.\GFXmaster.c ****     sb   = 0;
 1780              		.loc 1 317 0
 1781 00ee 0026     		mov	r6, #0
 1782              		.loc 1 329 0
 1783 00f0 29E0     		b	.L57
 1784              	.LVL224:
 1785              	.L59:
 330:.\GFXmaster.c ****     a   = x0 + sa / dy01;
 1786              		.loc 1 330 0
 1787 00f2 6B46     		mov	r3, sp
 1788 00f4 1421     		mov	r1, #20
 1789 00f6 595E     		ldrsh	r1, [r3, r1]
 1790 00f8 301C     		mov	r0, r6
 1791 00fa FFF7FEFF 		bl	__aeabi_idiv
 1792              	.LVL225:
 1793 00fe 4044     		add	r0, r0, r8
 1794 0100 84B2     		uxth	r4, r0
 1795              	.LVL226:
 331:.\GFXmaster.c ****     b   = x0 + sb / dy02;
 1796              		.loc 1 331 0
 1797 0102 6B46     		mov	r3, sp
 1798 0104 0821     		mov	r1, #8
 1799 0106 595E     		ldrsh	r1, [r3, r1]
 1800 0108 381C     		mov	r0, r7
 1801 010a FFF7FEFF 		bl	__aeabi_idiv
 1802              	.LVL227:
 1803 010e 021C     		mov	r2, r0
 1804 0110 4244     		add	r2, r2, r8
 1805 0112 92B2     		uxth	r2, r2
 1806              	.LVL228:
 332:.\GFXmaster.c ****     sa += dx01;
 1807              		.loc 1 332 0
 1808 0114 6B46     		mov	r3, sp
 1809 0116 1021     		mov	r1, #16
 1810 0118 5B5E     		ldrsh	r3, [r3, r1]
 1811 011a F618     		add	r6, r6, r3
 1812              	.LVL229:
 333:.\GFXmaster.c ****     sb += dx02;
ARM GAS  C:\Users\username\AppData\Local\Temp\ccSuCzK2.s 			page 39


 1813              		.loc 1 333 0
 1814 011c 6B46     		mov	r3, sp
 1815 011e 0C21     		mov	r1, #12
 1816 0120 5B5E     		ldrsh	r3, [r3, r1]
 1817 0122 FF18     		add	r7, r7, r3
 1818              	.LVL230:
 334:.\GFXmaster.c ****     /* longhand:
 335:.\GFXmaster.c ****     a = x0 + (x1 - x0) * (y - y0) / (y1 - y0);
 336:.\GFXmaster.c ****     b = x0 + (x2 - x0) * (y - y0) / (y2 - y0);
 337:.\GFXmaster.c ****     */
 338:.\GFXmaster.c ****     if(a > b) swap(a,b);
 1819              		.loc 1 338 0
 1820 0124 21B2     		sxth	r1, r4
 1821 0126 13B2     		sxth	r3, r2
 1822 0128 9942     		cmp	r1, r3
 1823 012a 02DC     		bgt	.L58
 1824 012c 131C     		mov	r3, r2
 330:.\GFXmaster.c ****     b   = x0 + sb / dy02;
 1825              		.loc 1 330 0
 1826 012e 221C     		mov	r2, r4
 1827              	.LVL231:
 331:.\GFXmaster.c ****     sa += dx01;
 1828              		.loc 1 331 0
 1829 0130 1C1C     		mov	r4, r3
 1830              	.LVL232:
 1831              	.L58:
 339:.\GFXmaster.c ****     drawFastHLine(a, y, b-a+1, color);
 1832              		.loc 1 339 0 discriminator 2
 1833 0132 10B2     		sxth	r0, r2
 1834 0134 A21A     		sub	r2, r4, r2
 1835              	.LVL233:
 1836 0136 541C     		add	r4, r2, #1
 1837              	.LVL234:
 1838 0138 22B2     		sxth	r2, r4
 1839 013a 291C     		mov	r1, r5
 1840 013c 019B     		ldr	r3, [sp, #4]
 1841 013e FFF7FEFF 		bl	drawFastHLine
 1842              	.LVL235:
 329:.\GFXmaster.c ****     a   = x0 + sa / dy01;
 1843              		.loc 1 329 0 discriminator 2
 1844 0142 0135     		add	r5, r5, #1
 1845              	.LVL236:
 1846 0144 2DB2     		sxth	r5, r5
 1847              	.LVL237:
 1848              	.L57:
 329:.\GFXmaster.c ****     a   = x0 + sa / dy01;
 1849              		.loc 1 329 0 is_stmt 0 discriminator 1
 1850 0146 4D45     		cmp	r5, r9
 1851 0148 D3DD     		ble	.L59
 340:.\GFXmaster.c ****   }
 341:.\GFXmaster.c **** 
 342:.\GFXmaster.c ****   // For lower part of triangle, find scanline crossings for segments
 343:.\GFXmaster.c ****   // 0-2 and 1-2.  This loop is skipped if y1=y2.
 344:.\GFXmaster.c ****   sa = dx12 * (y - y1);
 1852              		.loc 1 344 0 is_stmt 1
 1853 014a 6B46     		mov	r3, sp
 1854 014c 2422     		mov	r2, #36
ARM GAS  C:\Users\username\AppData\Local\Temp\ccSuCzK2.s 			page 40


 1855 014e 9B5E     		ldrsh	r3, [r3, r2]
 1856 0150 0493     		str	r3, [sp, #16]
 1857              	.LVL238:
 1858 0152 079A     		ldr	r2, [sp, #28]
 1859 0154 AE1A     		sub	r6, r5, r2
 1860              	.LVL239:
 1861 0156 5E43     		mul	r6, r3
 1862              	.LVL240:
 345:.\GFXmaster.c ****   sb = dx02 * (y - y0);
 1863              		.loc 1 345 0
 1864 0158 6B46     		mov	r3, sp
 1865 015a 0C22     		mov	r2, #12
 1866 015c 9B5E     		ldrsh	r3, [r3, r2]
 1867 015e 9946     		mov	r9, r3
 1868              	.LVL241:
 1869 0160 089B     		ldr	r3, [sp, #32]
 1870 0162 EF1A     		sub	r7, r5, r3
 1871              	.LVL242:
 1872 0164 4B46     		mov	r3, r9
 1873 0166 5F43     		mul	r7, r3
 1874              	.LVL243:
 346:.\GFXmaster.c ****   for(; y<=y2; y++) {
 1875              		.loc 1 346 0
 1876 0168 25E0     		b	.L60
 1877              	.L62:
 347:.\GFXmaster.c ****     a   = x1 + sa / dy12;
 1878              		.loc 1 347 0
 1879 016a 6B46     		mov	r3, sp
 1880 016c 1821     		mov	r1, #24
 1881 016e 595E     		ldrsh	r1, [r3, r1]
 1882 0170 301C     		mov	r0, r6
 1883 0172 FFF7FEFF 		bl	__aeabi_idiv
 1884              	.LVL244:
 1885 0176 5844     		add	r0, r0, fp
 1886 0178 84B2     		uxth	r4, r0
 1887              	.LVL245:
 348:.\GFXmaster.c ****     b   = x0 + sb / dy02;
 1888              		.loc 1 348 0
 1889 017a 6B46     		mov	r3, sp
 1890 017c 0821     		mov	r1, #8
 1891 017e 595E     		ldrsh	r1, [r3, r1]
 1892 0180 381C     		mov	r0, r7
 1893 0182 FFF7FEFF 		bl	__aeabi_idiv
 1894              	.LVL246:
 1895 0186 021C     		mov	r2, r0
 1896 0188 4244     		add	r2, r2, r8
 1897 018a 92B2     		uxth	r2, r2
 1898              	.LVL247:
 349:.\GFXmaster.c ****     sa += dx12;
 1899              		.loc 1 349 0
 1900 018c 049B     		ldr	r3, [sp, #16]
 1901 018e 9C46     		mov	ip, r3
 1902 0190 6644     		add	r6, r6, ip
 1903              	.LVL248:
 350:.\GFXmaster.c ****     sb += dx02;
 1904              		.loc 1 350 0
 1905 0192 4F44     		add	r7, r7, r9
ARM GAS  C:\Users\username\AppData\Local\Temp\ccSuCzK2.s 			page 41


 1906              	.LVL249:
 351:.\GFXmaster.c ****     /* longhand:
 352:.\GFXmaster.c ****     a = x1 + (x2 - x1) * (y - y1) / (y2 - y1);
 353:.\GFXmaster.c ****     b = x0 + (x2 - x0) * (y - y0) / (y2 - y0);
 354:.\GFXmaster.c ****     */
 355:.\GFXmaster.c ****     if(a > b) swap(a,b);
 1907              		.loc 1 355 0
 1908 0194 21B2     		sxth	r1, r4
 1909 0196 13B2     		sxth	r3, r2
 1910 0198 9942     		cmp	r1, r3
 1911 019a 02DC     		bgt	.L61
 1912 019c 131C     		mov	r3, r2
 347:.\GFXmaster.c ****     b   = x0 + sb / dy02;
 1913              		.loc 1 347 0
 1914 019e 221C     		mov	r2, r4
 1915              	.LVL250:
 348:.\GFXmaster.c ****     sa += dx12;
 1916              		.loc 1 348 0
 1917 01a0 1C1C     		mov	r4, r3
 1918              	.LVL251:
 1919              	.L61:
 356:.\GFXmaster.c ****     drawFastHLine(a, y, b-a+1, color);
 1920              		.loc 1 356 0
 1921 01a2 10B2     		sxth	r0, r2
 1922 01a4 A21A     		sub	r2, r4, r2
 1923              	.LVL252:
 1924 01a6 541C     		add	r4, r2, #1
 1925              	.LVL253:
 1926 01a8 22B2     		sxth	r2, r4
 1927 01aa 291C     		mov	r1, r5
 1928 01ac 019B     		ldr	r3, [sp, #4]
 1929 01ae FFF7FEFF 		bl	drawFastHLine
 1930              	.LVL254:
 346:.\GFXmaster.c ****     a   = x1 + sa / dy12;
 1931              		.loc 1 346 0
 1932 01b2 0135     		add	r5, r5, #1
 1933              	.LVL255:
 1934 01b4 2DB2     		sxth	r5, r5
 1935              	.LVL256:
 1936              	.L60:
 346:.\GFXmaster.c ****     a   = x1 + sa / dy12;
 1937              		.loc 1 346 0 is_stmt 0 discriminator 1
 1938 01b6 5545     		cmp	r5, r10
 1939 01b8 D7DD     		ble	.L62
 1940              	.LVL257:
 1941              	.L48:
 357:.\GFXmaster.c ****   }
 358:.\GFXmaster.c **** }       
 1942              		.loc 1 358 0 is_stmt 1
 1943 01ba 0BB0     		add	sp, sp, #44
 1944              		@ sp needed
 1945              	.LVL258:
 1946 01bc 3CBC     		pop	{r2, r3, r4, r5}
 1947 01be 9046     		mov	r8, r2
 1948 01c0 9946     		mov	r9, r3
 1949 01c2 A246     		mov	r10, r4
 1950 01c4 AB46     		mov	fp, r5
ARM GAS  C:\Users\username\AppData\Local\Temp\ccSuCzK2.s 			page 42


 1951 01c6 F0BD     		pop	{r4, r5, r6, r7, pc}
 1952              		.cfi_endproc
 1953              	.LFE47:
 1954              		.size	fillTriangle, .-fillTriangle
 1955              		.section	.text.drawBitmap,"ax",%progbits
 1956              		.align	2
 1957              		.global	drawBitmap
 1958              		.code	16
 1959              		.thumb_func
 1960              		.type	drawBitmap, %function
 1961              	drawBitmap:
 1962              	.LFB48:
 359:.\GFXmaster.c ****                 
 360:.\GFXmaster.c **** 
 361:.\GFXmaster.c ****                 
 362:.\GFXmaster.c ****                 
 363:.\GFXmaster.c **** /*
 364:.\GFXmaster.c **** void invertDisplay(boolean i) {
 365:.\GFXmaster.c ****   // Do nothing, must be subclassed if supported  ***Comment out if subclassed
 366:.\GFXmaster.c **** }
 367:.\GFXmaster.c **** */                
 368:.\GFXmaster.c ****                 
 369:.\GFXmaster.c ****      
 370:.\GFXmaster.c ****                 
 371:.\GFXmaster.c **** void drawBitmap(int16_t x, int16_t y,
 372:.\GFXmaster.c **** 			      const uint8_t *bitmap, int16_t w, int16_t h,
 373:.\GFXmaster.c **** 			      uint16_t color) {
 1963              		.loc 1 373 0
 1964              		.cfi_startproc
 1965              	.LVL259:
 1966 0000 F0B5     		push	{r4, r5, r6, r7, lr}
 1967              		.cfi_def_cfa_offset 20
 1968              		.cfi_offset 4, -20
 1969              		.cfi_offset 5, -16
 1970              		.cfi_offset 6, -12
 1971              		.cfi_offset 7, -8
 1972              		.cfi_offset 14, -4
 1973 0002 5F46     		mov	r7, fp
 1974 0004 5646     		mov	r6, r10
 1975 0006 4D46     		mov	r5, r9
 1976 0008 E0B4     		push	{r5, r6, r7}
 1977              		.cfi_def_cfa_offset 32
 1978              		.cfi_offset 9, -32
 1979              		.cfi_offset 10, -28
 1980              		.cfi_offset 11, -24
 1981 000a 82B0     		sub	sp, sp, #8
 1982              		.cfi_def_cfa_offset 40
 1983 000c 8246     		mov	r10, r0
 1984 000e 8946     		mov	r9, r1
 1985 0010 171C     		mov	r7, r2
 1986 0012 1E1C     		mov	r6, r3
 1987 0014 0AAB     		add	r3, sp, #40
 1988              	.LVL260:
 1989 0016 0022     		mov	r2, #0
 1990 0018 9B5E     		ldrsh	r3, [r3, r2]
 1991              	.LVL261:
 1992 001a 9B46     		mov	fp, r3
ARM GAS  C:\Users\username\AppData\Local\Temp\ccSuCzK2.s 			page 43


 1993 001c 0BAB     		add	r3, sp, #44
 1994              	.LVL262:
 1995 001e 1B88     		ldrh	r3, [r3]
 1996              	.LVL263:
 1997 0020 0193     		str	r3, [sp, #4]
 374:.\GFXmaster.c **** 
 375:.\GFXmaster.c ****   int16_t i, j;
 376:.\GFXmaster.c ****   int16_t byteWidth = (w + 7) / 8;
 1998              		.loc 1 376 0
 1999 0022 F31D     		add	r3, r6, #7
 2000 0024 DA17     		asr	r2, r3, #31
 2001 0026 520F     		lsr	r2, r2, #29
 2002 0028 D318     		add	r3, r2, r3
 2003 002a DB10     		asr	r3, r3, #3
 2004 002c 9BB2     		uxth	r3, r3
 2005 002e 0093     		str	r3, [sp]
 2006              	.LVL264:
 377:.\GFXmaster.c **** 
 378:.\GFXmaster.c ****   for(j=0; j<h; j++) {
 2007              		.loc 1 378 0
 2008 0030 0025     		mov	r5, #0
 2009 0032 27E0     		b	.L70
 2010              	.LVL265:
 2011              	.L72:
 2012              	.LBB12:
 379:.\GFXmaster.c ****     for(i=0; i<w; i++ ) {
 380:.\GFXmaster.c ****       if(pgm_read_byte(bitmap + j * byteWidth + i / 8) & (128 >> (i & 7))) {
 2013              		.loc 1 380 0
 2014 0034 29B2     		sxth	r1, r5
 2015 0036 6B46     		mov	r3, sp
 2016 0038 0020     		mov	r0, #0
 2017 003a 185E     		ldrsh	r0, [r3, r0]
 2018 003c 021C     		mov	r2, r0
 2019 003e 4A43     		mul	r2, r1
 2020 0040 23B2     		sxth	r3, r4
 2021 0042 D817     		asr	r0, r3, #31
 2022 0044 400F     		lsr	r0, r0, #29
 2023 0046 C018     		add	r0, r0, r3
 2024 0048 C310     		asr	r3, r0, #3
 2025 004a D018     		add	r0, r2, r3
 2026 004c 3818     		add	r0, r7, r0
 2027 004e FFF7FEFF 		bl	pgm_read_byte
 2028              	.LVL266:
 2029 0052 A4B2     		uxth	r4, r4
 2030 0054 0723     		mov	r3, #7
 2031 0056 2340     		and	r3, r4
 2032 0058 8022     		mov	r2, #128
 2033 005a 1A41     		asr	r2, r2, r3
 2034 005c 0242     		tst	r2, r0
 2035 005e 08D0     		beq	.L71
 381:.\GFXmaster.c ****         drawPixel(x+i, y+j, color);
 2036              		.loc 1 381 0
 2037 0060 5346     		mov	r3, r10
 2038 0062 E018     		add	r0, r4, r3
 2039 0064 00B2     		sxth	r0, r0
 2040 0066 4B46     		mov	r3, r9
 2041 0068 5919     		add	r1, r3, r5
ARM GAS  C:\Users\username\AppData\Local\Temp\ccSuCzK2.s 			page 44


 2042 006a 09B2     		sxth	r1, r1
 2043 006c 019A     		ldr	r2, [sp, #4]
 2044 006e FFF7FEFF 		bl	drawPixel
 2045              	.LVL267:
 2046              	.L71:
 2047              	.LBE12:
 379:.\GFXmaster.c ****     for(i=0; i<w; i++ ) {
 2048              		.loc 1 379 0 discriminator 2
 2049 0072 0134     		add	r4, r4, #1
 2050              	.LVL268:
 2051 0074 A4B2     		uxth	r4, r4
 2052              	.LVL269:
 2053 0076 00E0     		b	.L73
 2054              	.LVL270:
 2055              	.L74:
 2056 0078 0024     		mov	r4, #0
 2057              	.L73:
 2058              	.LVL271:
 379:.\GFXmaster.c ****     for(i=0; i<w; i++ ) {
 2059              		.loc 1 379 0 is_stmt 0 discriminator 1
 2060 007a 23B2     		sxth	r3, r4
 2061 007c B342     		cmp	r3, r6
 2062 007e D9DB     		blt	.L72
 378:.\GFXmaster.c ****     for(i=0; i<w; i++ ) {
 2063              		.loc 1 378 0 is_stmt 1 discriminator 2
 2064 0080 0135     		add	r5, r5, #1
 2065              	.LVL272:
 2066 0082 ADB2     		uxth	r5, r5
 2067              	.LVL273:
 2068              	.L70:
 378:.\GFXmaster.c ****     for(i=0; i<w; i++ ) {
 2069              		.loc 1 378 0 is_stmt 0 discriminator 1
 2070 0084 2BB2     		sxth	r3, r5
 2071 0086 5B45     		cmp	r3, fp
 2072 0088 F6DB     		blt	.L74
 382:.\GFXmaster.c ****       }
 383:.\GFXmaster.c ****     }
 384:.\GFXmaster.c ****   }
 385:.\GFXmaster.c **** }
 2073              		.loc 1 385 0 is_stmt 1
 2074 008a 02B0     		add	sp, sp, #8
 2075              	.LVL274:
 2076              		@ sp needed
 2077              	.LVL275:
 2078              	.LVL276:
 2079 008c 1CBC     		pop	{r2, r3, r4}
 2080 008e 9146     		mov	r9, r2
 2081 0090 9A46     		mov	r10, r3
 2082 0092 A346     		mov	fp, r4
 2083 0094 F0BD     		pop	{r4, r5, r6, r7, pc}
 2084              		.cfi_endproc
 2085              	.LFE48:
 2086              		.size	drawBitmap, .-drawBitmap
 2087 0096 C046     		.section	.text.drawBitmapBG,"ax",%progbits
 2088              		.align	2
 2089              		.global	drawBitmapBG
 2090              		.code	16
ARM GAS  C:\Users\username\AppData\Local\Temp\ccSuCzK2.s 			page 45


 2091              		.thumb_func
 2092              		.type	drawBitmapBG, %function
 2093              	drawBitmapBG:
 2094              	.LFB49:
 386:.\GFXmaster.c ****                 
 387:.\GFXmaster.c ****                 
 388:.\GFXmaster.c **** 
 389:.\GFXmaster.c ****                 
 390:.\GFXmaster.c **** // Draw a 1-bit color bitmap at the specified x, y position from the
 391:.\GFXmaster.c **** // provided bitmap buffer (must be PROGMEM memory) using color as the
 392:.\GFXmaster.c **** // foreground color and bg as the background color.
 393:.\GFXmaster.c **** void drawBitmapBG(int16_t x, int16_t y,
 394:.\GFXmaster.c ****             const uint8_t *bitmap, int16_t w, int16_t h,
 395:.\GFXmaster.c ****             uint16_t color, uint16_t bg) {
 2095              		.loc 1 395 0
 2096              		.cfi_startproc
 2097              	.LVL277:
 2098 0000 F0B5     		push	{r4, r5, r6, r7, lr}
 2099              		.cfi_def_cfa_offset 20
 2100              		.cfi_offset 4, -20
 2101              		.cfi_offset 5, -16
 2102              		.cfi_offset 6, -12
 2103              		.cfi_offset 7, -8
 2104              		.cfi_offset 14, -4
 2105 0002 5F46     		mov	r7, fp
 2106 0004 5646     		mov	r6, r10
 2107 0006 4D46     		mov	r5, r9
 2108 0008 E0B4     		push	{r5, r6, r7}
 2109              		.cfi_def_cfa_offset 32
 2110              		.cfi_offset 9, -32
 2111              		.cfi_offset 10, -28
 2112              		.cfi_offset 11, -24
 2113 000a 84B0     		sub	sp, sp, #16
 2114              		.cfi_def_cfa_offset 48
 2115 000c 8246     		mov	r10, r0
 2116 000e 8946     		mov	r9, r1
 2117 0010 171C     		mov	r7, r2
 2118 0012 1E1C     		mov	r6, r3
 2119 0014 0CAB     		add	r3, sp, #48
 2120              	.LVL278:
 2121 0016 0022     		mov	r2, #0
 2122 0018 9B5E     		ldrsh	r3, [r3, r2]
 2123              	.LVL279:
 2124 001a 9B46     		mov	fp, r3
 2125 001c 0DAB     		add	r3, sp, #52
 2126              	.LVL280:
 2127 001e 1B88     		ldrh	r3, [r3]
 2128              	.LVL281:
 2129 0020 0293     		str	r3, [sp, #8]
 2130 0022 0EAB     		add	r3, sp, #56
 2131              	.LVL282:
 2132 0024 1B88     		ldrh	r3, [r3]
 2133              	.LVL283:
 2134 0026 0393     		str	r3, [sp, #12]
 396:.\GFXmaster.c **** 
 397:.\GFXmaster.c ****   int16_t i, j, byteWidth = (w + 7) / 8;
 2135              		.loc 1 397 0
ARM GAS  C:\Users\username\AppData\Local\Temp\ccSuCzK2.s 			page 46


 2136 0028 F31D     		add	r3, r6, #7
 2137 002a DA17     		asr	r2, r3, #31
 2138 002c 520F     		lsr	r2, r2, #29
 2139 002e D318     		add	r3, r2, r3
 2140 0030 DB10     		asr	r3, r3, #3
 2141 0032 9BB2     		uxth	r3, r3
 2142 0034 0193     		str	r3, [sp, #4]
 2143              	.LVL284:
 398:.\GFXmaster.c ****   
 399:.\GFXmaster.c ****   for(j=0; j<h; j++) {
 2144              		.loc 1 399 0
 2145 0036 0025     		mov	r5, #0
 2146 0038 31E0     		b	.L76
 2147              	.LVL285:
 2148              	.L79:
 2149              	.LBB13:
 400:.\GFXmaster.c ****     for(i=0; i<w; i++ ) {
 401:.\GFXmaster.c ****       if(pgm_read_byte(bitmap + j * byteWidth + i / 8) & (128 >> (i & 7))) {
 2150              		.loc 1 401 0
 2151 003a 29B2     		sxth	r1, r5
 2152 003c 6B46     		mov	r3, sp
 2153 003e 0420     		mov	r0, #4
 2154 0040 185E     		ldrsh	r0, [r3, r0]
 2155 0042 021C     		mov	r2, r0
 2156 0044 4A43     		mul	r2, r1
 2157 0046 23B2     		sxth	r3, r4
 2158 0048 D817     		asr	r0, r3, #31
 2159 004a 400F     		lsr	r0, r0, #29
 2160 004c C018     		add	r0, r0, r3
 2161 004e C310     		asr	r3, r0, #3
 2162 0050 D018     		add	r0, r2, r3
 2163 0052 3818     		add	r0, r7, r0
 2164 0054 FFF7FEFF 		bl	pgm_read_byte
 2165              	.LVL286:
 2166 0058 A4B2     		uxth	r4, r4
 2167 005a 0723     		mov	r3, #7
 2168 005c 2340     		and	r3, r4
 2169 005e 8022     		mov	r2, #128
 2170 0060 1A41     		asr	r2, r2, r3
 2171 0062 0242     		tst	r2, r0
 2172 0064 09D0     		beq	.L77
 402:.\GFXmaster.c ****         drawPixel(x+i, y+j, color);
 2173              		.loc 1 402 0
 2174 0066 5346     		mov	r3, r10
 2175 0068 E018     		add	r0, r4, r3
 2176 006a 00B2     		sxth	r0, r0
 2177 006c 4B46     		mov	r3, r9
 2178 006e 5919     		add	r1, r3, r5
 2179 0070 09B2     		sxth	r1, r1
 2180 0072 029A     		ldr	r2, [sp, #8]
 2181 0074 FFF7FEFF 		bl	drawPixel
 2182              	.LVL287:
 2183 0078 08E0     		b	.L78
 2184              	.L77:
 403:.\GFXmaster.c ****       }
 404:.\GFXmaster.c ****       else {
 405:.\GFXmaster.c ****       	drawPixel(x+i, y+j, bg);
ARM GAS  C:\Users\username\AppData\Local\Temp\ccSuCzK2.s 			page 47


 2185              		.loc 1 405 0
 2186 007a 5346     		mov	r3, r10
 2187 007c E018     		add	r0, r4, r3
 2188 007e 00B2     		sxth	r0, r0
 2189 0080 4B46     		mov	r3, r9
 2190 0082 5919     		add	r1, r3, r5
 2191 0084 09B2     		sxth	r1, r1
 2192 0086 039A     		ldr	r2, [sp, #12]
 2193 0088 FFF7FEFF 		bl	drawPixel
 2194              	.LVL288:
 2195              	.L78:
 2196              	.LBE13:
 400:.\GFXmaster.c ****       if(pgm_read_byte(bitmap + j * byteWidth + i / 8) & (128 >> (i & 7))) {
 2197              		.loc 1 400 0 discriminator 2
 2198 008c 0134     		add	r4, r4, #1
 2199              	.LVL289:
 2200 008e A4B2     		uxth	r4, r4
 2201              	.LVL290:
 2202 0090 00E0     		b	.L80
 2203              	.LVL291:
 2204              	.L81:
 2205 0092 0024     		mov	r4, #0
 2206              	.L80:
 2207              	.LVL292:
 400:.\GFXmaster.c ****       if(pgm_read_byte(bitmap + j * byteWidth + i / 8) & (128 >> (i & 7))) {
 2208              		.loc 1 400 0 is_stmt 0 discriminator 1
 2209 0094 23B2     		sxth	r3, r4
 2210 0096 B342     		cmp	r3, r6
 2211 0098 CFDB     		blt	.L79
 399:.\GFXmaster.c ****     for(i=0; i<w; i++ ) {
 2212              		.loc 1 399 0 is_stmt 1 discriminator 2
 2213 009a 0135     		add	r5, r5, #1
 2214              	.LVL293:
 2215 009c ADB2     		uxth	r5, r5
 2216              	.LVL294:
 2217              	.L76:
 399:.\GFXmaster.c ****     for(i=0; i<w; i++ ) {
 2218              		.loc 1 399 0 is_stmt 0 discriminator 1
 2219 009e 2BB2     		sxth	r3, r5
 2220 00a0 5B45     		cmp	r3, fp
 2221 00a2 F6DB     		blt	.L81
 406:.\GFXmaster.c ****       }
 407:.\GFXmaster.c ****     }
 408:.\GFXmaster.c ****   }
 409:.\GFXmaster.c **** }   
 2222              		.loc 1 409 0 is_stmt 1
 2223 00a4 04B0     		add	sp, sp, #16
 2224              		@ sp needed
 2225              	.LVL295:
 2226              	.LVL296:
 2227 00a6 1CBC     		pop	{r2, r3, r4}
 2228 00a8 9146     		mov	r9, r2
 2229 00aa 9A46     		mov	r10, r3
 2230 00ac A346     		mov	fp, r4
 2231 00ae F0BD     		pop	{r4, r5, r6, r7, pc}
 2232              		.cfi_endproc
 2233              	.LFE49:
ARM GAS  C:\Users\username\AppData\Local\Temp\ccSuCzK2.s 			page 48


 2234              		.size	drawBitmapBG, .-drawBitmapBG
 2235              		.section	.text.drawXBitmap,"ax",%progbits
 2236              		.align	2
 2237              		.global	drawXBitmap
 2238              		.code	16
 2239              		.thumb_func
 2240              		.type	drawXBitmap, %function
 2241              	drawXBitmap:
 2242              	.LFB50:
 410:.\GFXmaster.c ****             
 411:.\GFXmaster.c ****             
 412:.\GFXmaster.c ****             
 413:.\GFXmaster.c **** 
 414:.\GFXmaster.c **** //Draw XBitMap Files (*.xbm), exported from GIMP,
 415:.\GFXmaster.c **** //Usage: Export from GIMP to *.xbm, rename *.xbm to *.c and open in editor.
 416:.\GFXmaster.c **** //C Array can be directly used with this function
 417:.\GFXmaster.c **** void drawXBitmap(int16_t x, int16_t y,
 418:.\GFXmaster.c ****                               const uint8_t *bitmap, int16_t w, int16_t h,
 419:.\GFXmaster.c ****                               uint16_t color) {
 2243              		.loc 1 419 0
 2244              		.cfi_startproc
 2245              	.LVL297:
 2246 0000 F0B5     		push	{r4, r5, r6, r7, lr}
 2247              		.cfi_def_cfa_offset 20
 2248              		.cfi_offset 4, -20
 2249              		.cfi_offset 5, -16
 2250              		.cfi_offset 6, -12
 2251              		.cfi_offset 7, -8
 2252              		.cfi_offset 14, -4
 2253 0002 5F46     		mov	r7, fp
 2254 0004 5646     		mov	r6, r10
 2255 0006 4D46     		mov	r5, r9
 2256 0008 4446     		mov	r4, r8
 2257 000a F0B4     		push	{r4, r5, r6, r7}
 2258              		.cfi_def_cfa_offset 36
 2259              		.cfi_offset 8, -36
 2260              		.cfi_offset 9, -32
 2261              		.cfi_offset 10, -28
 2262              		.cfi_offset 11, -24
 2263 000c 85B0     		sub	sp, sp, #20
 2264              		.cfi_def_cfa_offset 56
 2265 000e 8346     		mov	fp, r0
 2266 0010 8A46     		mov	r10, r1
 2267 0012 9146     		mov	r9, r2
 2268 0014 9846     		mov	r8, r3
 2269 0016 0EAB     		add	r3, sp, #56
 2270              	.LVL298:
 2271 0018 0022     		mov	r2, #0
 2272 001a 9B5E     		ldrsh	r3, [r3, r2]
 2273              	.LVL299:
 2274 001c 0393     		str	r3, [sp, #12]
 2275 001e 0FAB     		add	r3, sp, #60
 2276              	.LVL300:
 2277 0020 1B88     		ldrh	r3, [r3]
 2278              	.LVL301:
 2279 0022 0293     		str	r3, [sp, #8]
 420:.\GFXmaster.c ****   
ARM GAS  C:\Users\username\AppData\Local\Temp\ccSuCzK2.s 			page 49


 421:.\GFXmaster.c ****   int16_t i, j, byteWidth = (w + 7) / 8;
 2280              		.loc 1 421 0
 2281 0024 4346     		mov	r3, r8
 2282 0026 0733     		add	r3, r3, #7
 2283 0028 DA17     		asr	r2, r3, #31
 2284 002a 520F     		lsr	r2, r2, #29
 2285 002c D318     		add	r3, r2, r3
 2286 002e DB10     		asr	r3, r3, #3
 2287 0030 9BB2     		uxth	r3, r3
 2288 0032 0193     		str	r3, [sp, #4]
 2289              	.LVL302:
 422:.\GFXmaster.c ****   
 423:.\GFXmaster.c ****   for(j=0; j<h; j++) {
 2290              		.loc 1 423 0
 2291 0034 0027     		mov	r7, #0
 2292 0036 26E0     		b	.L83
 2293              	.LVL303:
 2294              	.L85:
 2295              	.LBB14:
 424:.\GFXmaster.c ****     for(i=0; i<w; i++ ) {
 425:.\GFXmaster.c ****       if(pgm_read_byte(bitmap + j * byteWidth + i / 8) & (1 << (i % 8))) {
 2296              		.loc 1 425 0
 2297 0038 38B2     		sxth	r0, r7
 2298 003a 6B46     		mov	r3, sp
 2299 003c 0422     		mov	r2, #4
 2300 003e 9B5E     		ldrsh	r3, [r3, r2]
 2301 0040 5843     		mul	r0, r3
 2302 0042 2CB2     		sxth	r4, r5
 2303 0044 E617     		asr	r6, r4, #31
 2304 0046 760F     		lsr	r6, r6, #29
 2305 0048 3419     		add	r4, r6, r4
 2306 004a E310     		asr	r3, r4, #3
 2307 004c C018     		add	r0, r0, r3
 2308 004e 4844     		add	r0, r0, r9
 2309 0050 FFF7FEFF 		bl	pgm_read_byte
 2310              	.LVL304:
 2311 0054 0723     		mov	r3, #7
 2312 0056 1C40     		and	r4, r3
 2313 0058 A61B     		sub	r6, r4, r6
 2314 005a 36B2     		sxth	r6, r6
 2315 005c 3041     		asr	r0, r0, r6
 2316 005e C307     		lsl	r3, r0, #31
 2317 0060 08D5     		bpl	.L84
 426:.\GFXmaster.c ****         drawPixel(x+i, y+j, color);
 2318              		.loc 1 426 0
 2319 0062 5B46     		mov	r3, fp
 2320 0064 5819     		add	r0, r3, r5
 2321 0066 00B2     		sxth	r0, r0
 2322 0068 5346     		mov	r3, r10
 2323 006a D919     		add	r1, r3, r7
 2324 006c 09B2     		sxth	r1, r1
 2325 006e 029A     		ldr	r2, [sp, #8]
 2326 0070 FFF7FEFF 		bl	drawPixel
 2327              	.LVL305:
 2328              	.L84:
 2329              	.LBE14:
 424:.\GFXmaster.c ****     for(i=0; i<w; i++ ) {
ARM GAS  C:\Users\username\AppData\Local\Temp\ccSuCzK2.s 			page 50


 2330              		.loc 1 424 0 discriminator 2
 2331 0074 0135     		add	r5, r5, #1
 2332              	.LVL306:
 2333 0076 ADB2     		uxth	r5, r5
 2334              	.LVL307:
 2335 0078 00E0     		b	.L86
 2336              	.LVL308:
 2337              	.L87:
 2338 007a 0025     		mov	r5, #0
 2339              	.L86:
 2340              	.LVL309:
 424:.\GFXmaster.c ****     for(i=0; i<w; i++ ) {
 2341              		.loc 1 424 0 is_stmt 0 discriminator 1
 2342 007c 2BB2     		sxth	r3, r5
 2343 007e 4345     		cmp	r3, r8
 2344 0080 DADB     		blt	.L85
 423:.\GFXmaster.c ****     for(i=0; i<w; i++ ) {
 2345              		.loc 1 423 0 is_stmt 1 discriminator 2
 2346 0082 0137     		add	r7, r7, #1
 2347              	.LVL310:
 2348 0084 BFB2     		uxth	r7, r7
 2349              	.LVL311:
 2350              	.L83:
 423:.\GFXmaster.c ****     for(i=0; i<w; i++ ) {
 2351              		.loc 1 423 0 is_stmt 0 discriminator 1
 2352 0086 3BB2     		sxth	r3, r7
 2353 0088 039A     		ldr	r2, [sp, #12]
 2354 008a 9342     		cmp	r3, r2
 2355 008c F5DB     		blt	.L87
 427:.\GFXmaster.c ****       }
 428:.\GFXmaster.c ****     }
 429:.\GFXmaster.c ****   }
 430:.\GFXmaster.c **** }            
 2356              		.loc 1 430 0 is_stmt 1
 2357 008e 05B0     		add	sp, sp, #20
 2358              		@ sp needed
 2359              	.LVL312:
 2360              	.LVL313:
 2361 0090 3CBC     		pop	{r2, r3, r4, r5}
 2362 0092 9046     		mov	r8, r2
 2363 0094 9946     		mov	r9, r3
 2364 0096 A246     		mov	r10, r4
 2365 0098 AB46     		mov	fp, r5
 2366 009a F0BD     		pop	{r4, r5, r6, r7, pc}
 2367              		.cfi_endproc
 2368              	.LFE50:
 2369              		.size	drawXBitmap, .-drawXBitmap
 2370              		.section	.text.drawChar,"ax",%progbits
 2371              		.align	2
 2372              		.global	drawChar
 2373              		.code	16
 2374              		.thumb_func
 2375              		.type	drawChar, %function
 2376              	drawChar:
 2377              	.LFB53:
 431:.\GFXmaster.c ****             
 432:.\GFXmaster.c ****     
ARM GAS  C:\Users\username\AppData\Local\Temp\ccSuCzK2.s 			page 51


 433:.\GFXmaster.c **** void writeString(char string[]){
 434:.\GFXmaster.c ****     unsigned int iterator = 0;
 435:.\GFXmaster.c ****     for(iterator=0;iterator < strlen(string);iterator++){
 436:.\GFXmaster.c ****         write(string[iterator]);
 437:.\GFXmaster.c ****     }
 438:.\GFXmaster.c **** }
 439:.\GFXmaster.c ****                             
 440:.\GFXmaster.c **** void write(uint8_t c) {
 441:.\GFXmaster.c **** 
 442:.\GFXmaster.c ****   if (c == '\n') {
 443:.\GFXmaster.c ****     cursor_y += textsize*8;
 444:.\GFXmaster.c ****     cursor_x  = 0;
 445:.\GFXmaster.c ****   } else if (c == '\r') {
 446:.\GFXmaster.c ****     // skip em
 447:.\GFXmaster.c ****   } else {
 448:.\GFXmaster.c ****     drawChar(cursor_x, cursor_y, c, textcolor, textbgcolor, textsize);
 449:.\GFXmaster.c ****     cursor_x += textsize*6;
 450:.\GFXmaster.c ****     if (wrap && (cursor_x > (_width - textsize*6))) {
 451:.\GFXmaster.c ****       cursor_y += textsize*8;
 452:.\GFXmaster.c ****       cursor_x = 0;
 453:.\GFXmaster.c ****     }
 454:.\GFXmaster.c ****   }
 455:.\GFXmaster.c **** 
 456:.\GFXmaster.c **** }
 457:.\GFXmaster.c **** 
 458:.\GFXmaster.c **** 
 459:.\GFXmaster.c **** 
 460:.\GFXmaster.c **** // Draw a character
 461:.\GFXmaster.c **** void drawChar(int16_t x, int16_t y, unsigned char c,
 462:.\GFXmaster.c **** 			    uint16_t color, uint16_t bg, uint8_t size) {
 2378              		.loc 1 462 0
 2379              		.cfi_startproc
 2380              	.LVL314:
 2381 0000 F0B5     		push	{r4, r5, r6, r7, lr}
 2382              		.cfi_def_cfa_offset 20
 2383              		.cfi_offset 4, -20
 2384              		.cfi_offset 5, -16
 2385              		.cfi_offset 6, -12
 2386              		.cfi_offset 7, -8
 2387              		.cfi_offset 14, -4
 2388 0002 5F46     		mov	r7, fp
 2389 0004 5646     		mov	r6, r10
 2390 0006 4D46     		mov	r5, r9
 2391 0008 4446     		mov	r4, r8
 2392 000a F0B4     		push	{r4, r5, r6, r7}
 2393              		.cfi_def_cfa_offset 36
 2394              		.cfi_offset 8, -36
 2395              		.cfi_offset 9, -32
 2396              		.cfi_offset 10, -28
 2397              		.cfi_offset 11, -24
 2398 000c 85B0     		sub	sp, sp, #20
 2399              		.cfi_def_cfa_offset 56
 2400 000e 8146     		mov	r9, r0
 2401 0010 8A46     		mov	r10, r1
 2402 0012 0392     		str	r2, [sp, #12]
 2403 0014 9846     		mov	r8, r3
 2404 0016 0EAB     		add	r3, sp, #56
ARM GAS  C:\Users\username\AppData\Local\Temp\ccSuCzK2.s 			page 52


 2405              	.LVL315:
 2406 0018 1B88     		ldrh	r3, [r3]
 2407              	.LVL316:
 2408 001a 9B46     		mov	fp, r3
 2409 001c 0FAB     		add	r3, sp, #60
 2410              	.LVL317:
 2411 001e 1F78     		ldrb	r7, [r3]
 463:.\GFXmaster.c **** 
 464:.\GFXmaster.c ****   if((x >= _width)            || // Clip right
 2412              		.loc 1 464 0
 2413 0020 3C4B     		ldr	r3, .L101
 2414              	.LVL318:
 2415 0022 0022     		mov	r2, #0
 2416 0024 9B5E     		ldrsh	r3, [r3, r2]
 2417              	.LVL319:
 2418 0026 9842     		cmp	r0, r3
 2419 0028 6DDA     		bge	.L88
 2420              		.loc 1 464 0 is_stmt 0 discriminator 1
 2421 002a 3B4B     		ldr	r3, .L101+4
 2422 002c 0022     		mov	r2, #0
 2423 002e 9B5E     		ldrsh	r3, [r3, r2]
 2424 0030 9942     		cmp	r1, r3
 2425 0032 68DA     		bge	.L88
 465:.\GFXmaster.c ****      (y >= _height)           || // Clip bottom
 466:.\GFXmaster.c ****      ((x + 6 * size - 1) < 0) || // Clip left
 2426              		.loc 1 466 0 is_stmt 1
 2427 0034 7B00     		lsl	r3, r7, #1
 2428 0036 DB19     		add	r3, r3, r7
 2429 0038 5B00     		lsl	r3, r3, #1
 2430 003a 4B44     		add	r3, r3, r9
 465:.\GFXmaster.c ****      (y >= _height)           || // Clip bottom
 2431              		.loc 1 465 0
 2432 003c 012B     		cmp	r3, #1
 2433 003e 62D4     		bmi	.L88
 467:.\GFXmaster.c ****      ((y + 8 * size - 1) < 0))   // Clip top
 2434              		.loc 1 467 0
 2435 0040 FB00     		lsl	r3, r7, #3
 2436 0042 5344     		add	r3, r3, r10
 466:.\GFXmaster.c ****      ((y + 8 * size - 1) < 0))   // Clip top
 2437              		.loc 1 466 0
 2438 0044 012B     		cmp	r3, #1
 2439 0046 5ED4     		bmi	.L88
 468:.\GFXmaster.c ****     return;
 469:.\GFXmaster.c **** 
 470:.\GFXmaster.c ****   if(!_cp437 && (c >= 176)) c++; // Handle 'classic' charset behavior
 2440              		.loc 1 470 0
 2441 0048 344B     		ldr	r3, .L101+8
 2442 004a 1B78     		ldrb	r3, [r3]
 2443 004c 002B     		cmp	r3, #0
 2444 004e 05D1     		bne	.L90
 2445              		.loc 1 470 0 is_stmt 0 discriminator 1
 2446 0050 039B     		ldr	r3, [sp, #12]
 2447 0052 AF2B     		cmp	r3, #175
 2448 0054 02D9     		bls	.L90
 2449              		.loc 1 470 0 discriminator 2
 2450 0056 0133     		add	r3, r3, #1
 2451 0058 DBB2     		uxtb	r3, r3
ARM GAS  C:\Users\username\AppData\Local\Temp\ccSuCzK2.s 			page 53


 2452 005a 0393     		str	r3, [sp, #12]
 2453              	.LVL320:
 2454              	.L90:
 471:.\GFXmaster.c **** 
 472:.\GFXmaster.c ****   int8_t i = 0;
 473:.\GFXmaster.c ****   int8_t j =0;
 474:.\GFXmaster.c ****   for (i=0; i<6; i++ ) {
 2455              		.loc 1 474 0 is_stmt 1
 2456 005c 0026     		mov	r6, #0
 2457 005e 4FE0     		b	.L91
 2458              	.LVL321:
 2459              	.L99:
 2460              	.LBB15:
 475:.\GFXmaster.c ****     unsigned char line;
 476:.\GFXmaster.c **** 
 477:.\GFXmaster.c ****     if (i == 5) 
 2461              		.loc 1 477 0
 2462 0060 052E     		cmp	r6, #5
 2463 0062 07D0     		beq	.L100
 478:.\GFXmaster.c ****       line = 0x0;
 479:.\GFXmaster.c ****     else 
 480:.\GFXmaster.c ****         line = *(font+(c*5)+i);//line = pgm_read_byte(font+(c*5)+i);
 2464              		.loc 1 480 0
 2465 0064 039A     		ldr	r2, [sp, #12]
 2466 0066 9300     		lsl	r3, r2, #2
 2467 0068 9A18     		add	r2, r3, r2
 2468 006a 73B2     		sxtb	r3, r6
 2469 006c D318     		add	r3, r2, r3
 2470 006e 2C4A     		ldr	r2, .L101+12
 2471 0070 D55C     		ldrb	r5, [r2, r3]
 2472              	.LVL322:
 2473 0072 00E0     		b	.L92
 2474              	.LVL323:
 2475              	.L100:
 478:.\GFXmaster.c ****       line = 0x0;
 2476              		.loc 1 478 0
 2477 0074 0025     		mov	r5, #0
 2478              	.L92:
 478:.\GFXmaster.c ****       line = 0x0;
 2479              		.loc 1 478 0 is_stmt 0 discriminator 1
 2480 0076 0024     		mov	r4, #0
 2481 0078 3DE0     		b	.L93
 2482              	.LVL324:
 2483              	.L98:
 481:.\GFXmaster.c ****     for (j = 0; j<8; j++) {
 482:.\GFXmaster.c ****       if (line & 0x1) {
 2484              		.loc 1 482 0 is_stmt 1
 2485 007a EB07     		lsl	r3, r5, #31
 2486 007c 1BD5     		bpl	.L94
 483:.\GFXmaster.c ****         if (size == 1) // default size
 2487              		.loc 1 483 0
 2488 007e 012F     		cmp	r7, #1
 2489 0080 09D1     		bne	.L95
 484:.\GFXmaster.c ****           drawPixel(x+i, y+j, color);
 2490              		.loc 1 484 0
 2491 0082 70B2     		sxtb	r0, r6
 2492 0084 4844     		add	r0, r0, r9
ARM GAS  C:\Users\username\AppData\Local\Temp\ccSuCzK2.s 			page 54


 2493 0086 00B2     		sxth	r0, r0
 2494 0088 61B2     		sxtb	r1, r4
 2495 008a 5144     		add	r1, r1, r10
 2496 008c 09B2     		sxth	r1, r1
 2497 008e 4246     		mov	r2, r8
 2498 0090 FFF7FEFF 		bl	drawPixel
 2499              	.LVL325:
 2500 0094 2CE0     		b	.L96
 2501              	.L95:
 485:.\GFXmaster.c ****         else {  // big size
 486:.\GFXmaster.c ****           fillRect(x+(i*size), y+(j*size), size, size, color);
 2502              		.loc 1 486 0
 2503 0096 BBB2     		uxth	r3, r7
 2504 0098 70B2     		sxtb	r0, r6
 2505 009a 5843     		mul	r0, r3
 2506 009c 4844     		add	r0, r0, r9
 2507 009e 00B2     		sxth	r0, r0
 2508 00a0 61B2     		sxtb	r1, r4
 2509 00a2 5943     		mul	r1, r3
 2510 00a4 5144     		add	r1, r1, r10
 2511 00a6 09B2     		sxth	r1, r1
 2512 00a8 1BB2     		sxth	r3, r3
 2513 00aa 4246     		mov	r2, r8
 2514 00ac 0092     		str	r2, [sp]
 2515 00ae 1A1C     		mov	r2, r3
 2516 00b0 FFF7FEFF 		bl	fillRect
 2517              	.LVL326:
 2518 00b4 1CE0     		b	.L96
 2519              	.L94:
 487:.\GFXmaster.c ****         } 
 488:.\GFXmaster.c ****       } 
 489:.\GFXmaster.c ****       else if (bg != color) {
 2520              		.loc 1 489 0
 2521 00b6 C345     		cmp	fp, r8
 2522 00b8 1AD0     		beq	.L96
 490:.\GFXmaster.c ****         if (size == 1) // default size
 2523              		.loc 1 490 0
 2524 00ba 012F     		cmp	r7, #1
 2525 00bc 09D1     		bne	.L97
 491:.\GFXmaster.c ****           drawPixel(x+i, y+j, bg);
 2526              		.loc 1 491 0
 2527 00be 70B2     		sxtb	r0, r6
 2528 00c0 4844     		add	r0, r0, r9
 2529 00c2 00B2     		sxth	r0, r0
 2530 00c4 61B2     		sxtb	r1, r4
 2531 00c6 5144     		add	r1, r1, r10
 2532 00c8 09B2     		sxth	r1, r1
 2533 00ca 5A46     		mov	r2, fp
 2534 00cc FFF7FEFF 		bl	drawPixel
 2535              	.LVL327:
 2536 00d0 0EE0     		b	.L96
 2537              	.L97:
 492:.\GFXmaster.c ****         else {  // big size
 493:.\GFXmaster.c ****           fillRect(x+i*size, y+j*size, size, size, bg);
 2538              		.loc 1 493 0
 2539 00d2 BBB2     		uxth	r3, r7
 2540 00d4 70B2     		sxtb	r0, r6
ARM GAS  C:\Users\username\AppData\Local\Temp\ccSuCzK2.s 			page 55


 2541 00d6 5843     		mul	r0, r3
 2542 00d8 4844     		add	r0, r0, r9
 2543 00da 00B2     		sxth	r0, r0
 2544 00dc 61B2     		sxtb	r1, r4
 2545 00de 5943     		mul	r1, r3
 2546 00e0 5144     		add	r1, r1, r10
 2547 00e2 09B2     		sxth	r1, r1
 2548 00e4 1BB2     		sxth	r3, r3
 2549 00e6 5A46     		mov	r2, fp
 2550 00e8 0092     		str	r2, [sp]
 2551 00ea 1A1C     		mov	r2, r3
 2552 00ec FFF7FEFF 		bl	fillRect
 2553              	.LVL328:
 2554              	.L96:
 494:.\GFXmaster.c ****         }
 495:.\GFXmaster.c ****       }
 496:.\GFXmaster.c ****       line >>= 1;
 2555              		.loc 1 496 0 discriminator 2
 2556 00f0 6D08     		lsr	r5, r5, #1
 2557              	.LVL329:
 481:.\GFXmaster.c ****       if (line & 0x1) {
 2558              		.loc 1 481 0 discriminator 2
 2559 00f2 0134     		add	r4, r4, #1
 2560              	.LVL330:
 2561 00f4 E4B2     		uxtb	r4, r4
 2562              	.LVL331:
 2563              	.L93:
 481:.\GFXmaster.c ****       if (line & 0x1) {
 2564              		.loc 1 481 0 is_stmt 0 discriminator 1
 2565 00f6 63B2     		sxtb	r3, r4
 2566 00f8 072B     		cmp	r3, #7
 2567 00fa BEDD     		ble	.L98
 2568              	.LBE15:
 474:.\GFXmaster.c ****     unsigned char line;
 2569              		.loc 1 474 0 is_stmt 1 discriminator 2
 2570 00fc 0136     		add	r6, r6, #1
 2571              	.LVL332:
 2572 00fe F6B2     		uxtb	r6, r6
 2573              	.LVL333:
 2574              	.L91:
 474:.\GFXmaster.c ****     unsigned char line;
 2575              		.loc 1 474 0 is_stmt 0 discriminator 1
 2576 0100 73B2     		sxtb	r3, r6
 2577 0102 052B     		cmp	r3, #5
 2578 0104 ACDD     		ble	.L99
 2579              	.LVL334:
 2580              	.L88:
 497:.\GFXmaster.c ****     }
 498:.\GFXmaster.c ****   }
 499:.\GFXmaster.c **** }
 2581              		.loc 1 499 0 is_stmt 1
 2582 0106 05B0     		add	sp, sp, #20
 2583              		@ sp needed
 2584 0108 3CBC     		pop	{r2, r3, r4, r5}
 2585 010a 9046     		mov	r8, r2
 2586 010c 9946     		mov	r9, r3
 2587 010e A246     		mov	r10, r4
ARM GAS  C:\Users\username\AppData\Local\Temp\ccSuCzK2.s 			page 56


 2588 0110 AB46     		mov	fp, r5
 2589 0112 F0BD     		pop	{r4, r5, r6, r7, pc}
 2590              	.L102:
 2591              		.align	2
 2592              	.L101:
 2593 0114 00000000 		.word	_width
 2594 0118 00000000 		.word	_height
 2595 011c 00000000 		.word	_cp437
 2596 0120 00000000 		.word	.LANCHOR0
 2597              		.cfi_endproc
 2598              	.LFE53:
 2599              		.size	drawChar, .-drawChar
 2600              		.section	.text.write,"ax",%progbits
 2601              		.align	2
 2602              		.global	write
 2603              		.code	16
 2604              		.thumb_func
 2605              		.type	write, %function
 2606              	write:
 2607              	.LFB52:
 440:.\GFXmaster.c **** 
 2608              		.loc 1 440 0
 2609              		.cfi_startproc
 2610              	.LVL335:
 2611 0000 70B5     		push	{r4, r5, r6, lr}
 2612              		.cfi_def_cfa_offset 16
 2613              		.cfi_offset 4, -16
 2614              		.cfi_offset 5, -12
 2615              		.cfi_offset 6, -8
 2616              		.cfi_offset 14, -4
 2617 0002 82B0     		sub	sp, sp, #8
 2618              		.cfi_def_cfa_offset 24
 442:.\GFXmaster.c ****     cursor_y += textsize*8;
 2619              		.loc 1 442 0
 2620 0004 0A28     		cmp	r0, #10
 2621 0006 0AD1     		bne	.L104
 443:.\GFXmaster.c ****     cursor_x  = 0;
 2622              		.loc 1 443 0
 2623 0008 1F49     		ldr	r1, .L106
 2624 000a 204B     		ldr	r3, .L106+4
 2625 000c 1B78     		ldrb	r3, [r3]
 2626 000e DB00     		lsl	r3, r3, #3
 2627 0010 0A88     		ldrh	r2, [r1]
 2628 0012 9B18     		add	r3, r3, r2
 2629 0014 0B80     		strh	r3, [r1]
 444:.\GFXmaster.c ****   } else if (c == '\r') {
 2630              		.loc 1 444 0
 2631 0016 0022     		mov	r2, #0
 2632 0018 1D4B     		ldr	r3, .L106+8
 2633 001a 1A80     		strh	r2, [r3]
 2634 001c 31E0     		b	.L103
 2635              	.L104:
 445:.\GFXmaster.c ****     // skip em
 2636              		.loc 1 445 0
 2637 001e 0D28     		cmp	r0, #13
 2638 0020 2FD0     		beq	.L103
 2639 0022 021C     		mov	r2, r0
ARM GAS  C:\Users\username\AppData\Local\Temp\ccSuCzK2.s 			page 57


 448:.\GFXmaster.c ****     cursor_x += textsize*6;
 2640              		.loc 1 448 0
 2641 0024 1A4C     		ldr	r4, .L106+8
 2642 0026 0023     		mov	r3, #0
 2643 0028 E05E     		ldrsh	r0, [r4, r3]
 2644              	.LVL336:
 2645 002a 174B     		ldr	r3, .L106
 2646 002c 0021     		mov	r1, #0
 2647 002e 595E     		ldrsh	r1, [r3, r1]
 2648 0030 184B     		ldr	r3, .L106+12
 2649 0032 1B88     		ldrh	r3, [r3]
 2650 0034 184D     		ldr	r5, .L106+16
 2651 0036 2D88     		ldrh	r5, [r5]
 2652 0038 0095     		str	r5, [sp]
 2653 003a 144D     		ldr	r5, .L106+4
 2654 003c 2E78     		ldrb	r6, [r5]
 2655 003e 0196     		str	r6, [sp, #4]
 2656 0040 FFF7FEFF 		bl	drawChar
 2657              	.LVL337:
 449:.\GFXmaster.c ****     if (wrap && (cursor_x > (_width - textsize*6))) {
 2658              		.loc 1 449 0
 2659 0044 2A78     		ldrb	r2, [r5]
 2660 0046 90B2     		uxth	r0, r2
 2661 0048 4100     		lsl	r1, r0, #1
 2662 004a 4118     		add	r1, r0, r1
 2663 004c 4D00     		lsl	r5, r1, #1
 2664 004e 2388     		ldrh	r3, [r4]
 2665 0050 EB18     		add	r3, r5, r3
 2666 0052 9BB2     		uxth	r3, r3
 2667 0054 2380     		strh	r3, [r4]
 450:.\GFXmaster.c ****       cursor_y += textsize*8;
 2668              		.loc 1 450 0
 2669 0056 1149     		ldr	r1, .L106+20
 2670 0058 0978     		ldrb	r1, [r1]
 2671 005a 0029     		cmp	r1, #0
 2672 005c 11D0     		beq	.L103
 450:.\GFXmaster.c ****       cursor_y += textsize*8;
 2673              		.loc 1 450 0 is_stmt 0 discriminator 1
 2674 005e 1BB2     		sxth	r3, r3
 2675 0060 9100     		lsl	r1, r2, #2
 2676 0062 521A     		sub	r2, r2, r1
 2677 0064 5200     		lsl	r2, r2, #1
 2678 0066 0E49     		ldr	r1, .L106+24
 2679 0068 0024     		mov	r4, #0
 2680 006a 095F     		ldrsh	r1, [r1, r4]
 2681 006c 8A18     		add	r2, r1, r2
 2682 006e 9342     		cmp	r3, r2
 2683 0070 07DD     		ble	.L103
 451:.\GFXmaster.c ****       cursor_x = 0;
 2684              		.loc 1 451 0 is_stmt 1
 2685 0072 054A     		ldr	r2, .L106
 2686 0074 C000     		lsl	r0, r0, #3
 2687 0076 1388     		ldrh	r3, [r2]
 2688 0078 C018     		add	r0, r0, r3
 2689 007a 1080     		strh	r0, [r2]
 452:.\GFXmaster.c ****     }
 2690              		.loc 1 452 0
ARM GAS  C:\Users\username\AppData\Local\Temp\ccSuCzK2.s 			page 58


 2691 007c 0022     		mov	r2, #0
 2692 007e 044B     		ldr	r3, .L106+8
 2693 0080 1A80     		strh	r2, [r3]
 2694              	.L103:
 456:.\GFXmaster.c **** 
 2695              		.loc 1 456 0
 2696 0082 02B0     		add	sp, sp, #8
 2697              		@ sp needed
 2698 0084 70BD     		pop	{r4, r5, r6, pc}
 2699              	.L107:
 2700 0086 C046     		.align	2
 2701              	.L106:
 2702 0088 00000000 		.word	cursor_y
 2703 008c 00000000 		.word	textsize
 2704 0090 00000000 		.word	cursor_x
 2705 0094 00000000 		.word	textcolor
 2706 0098 00000000 		.word	textbgcolor
 2707 009c 00000000 		.word	wrap
 2708 00a0 00000000 		.word	_width
 2709              		.cfi_endproc
 2710              	.LFE52:
 2711              		.size	write, .-write
 2712              		.section	.text.writeString,"ax",%progbits
 2713              		.align	2
 2714              		.global	writeString
 2715              		.code	16
 2716              		.thumb_func
 2717              		.type	writeString, %function
 2718              	writeString:
 2719              	.LFB51:
 433:.\GFXmaster.c ****     unsigned int iterator = 0;
 2720              		.loc 1 433 0
 2721              		.cfi_startproc
 2722              	.LVL338:
 2723 0000 38B5     		push	{r3, r4, r5, lr}
 2724              		.cfi_def_cfa_offset 16
 2725              		.cfi_offset 3, -16
 2726              		.cfi_offset 4, -12
 2727              		.cfi_offset 5, -8
 2728              		.cfi_offset 14, -4
 2729 0002 051C     		mov	r5, r0
 2730              	.LVL339:
 435:.\GFXmaster.c ****         write(string[iterator]);
 2731              		.loc 1 435 0
 2732 0004 0024     		mov	r4, #0
 2733 0006 03E0     		b	.L109
 2734              	.LVL340:
 2735              	.L110:
 436:.\GFXmaster.c ****     }
 2736              		.loc 1 436 0 discriminator 3
 2737 0008 285D     		ldrb	r0, [r5, r4]
 2738 000a FFF7FEFF 		bl	write
 2739              	.LVL341:
 435:.\GFXmaster.c ****         write(string[iterator]);
 2740              		.loc 1 435 0 discriminator 3
 2741 000e 0134     		add	r4, r4, #1
 2742              	.LVL342:
ARM GAS  C:\Users\username\AppData\Local\Temp\ccSuCzK2.s 			page 59


 2743              	.L109:
 435:.\GFXmaster.c ****         write(string[iterator]);
 2744              		.loc 1 435 0 is_stmt 0 discriminator 1
 2745 0010 281C     		mov	r0, r5
 2746 0012 FFF7FEFF 		bl	strlen
 2747              	.LVL343:
 2748 0016 A042     		cmp	r0, r4
 2749 0018 F6D8     		bhi	.L110
 438:.\GFXmaster.c ****                             
 2750              		.loc 1 438 0 is_stmt 1
 2751              		@ sp needed
 2752              	.LVL344:
 2753              	.LVL345:
 2754 001a 38BD     		pop	{r3, r4, r5, pc}
 2755              		.cfi_endproc
 2756              	.LFE51:
 2757              		.size	writeString, .-writeString
 2758              		.section	.text.setCursor,"ax",%progbits
 2759              		.align	2
 2760              		.global	setCursor
 2761              		.code	16
 2762              		.thumb_func
 2763              		.type	setCursor, %function
 2764              	setCursor:
 2765              	.LFB54:
 500:.\GFXmaster.c **** 
 501:.\GFXmaster.c **** 
 502:.\GFXmaster.c ****                 
 503:.\GFXmaster.c **** void setCursor(int16_t x, int16_t y) {
 2766              		.loc 1 503 0
 2767              		.cfi_startproc
 2768              	.LVL346:
 504:.\GFXmaster.c ****   cursor_x = x;
 2769              		.loc 1 504 0
 2770 0000 024B     		ldr	r3, .L112
 2771 0002 1880     		strh	r0, [r3]
 505:.\GFXmaster.c ****   cursor_y = y;
 2772              		.loc 1 505 0
 2773 0004 024B     		ldr	r3, .L112+4
 2774 0006 1980     		strh	r1, [r3]
 506:.\GFXmaster.c **** }
 2775              		.loc 1 506 0
 2776              		@ sp needed
 2777 0008 7047     		bx	lr
 2778              	.L113:
 2779 000a C046     		.align	2
 2780              	.L112:
 2781 000c 00000000 		.word	cursor_x
 2782 0010 00000000 		.word	cursor_y
 2783              		.cfi_endproc
 2784              	.LFE54:
 2785              		.size	setCursor, .-setCursor
 2786              		.section	.text.getCursorX,"ax",%progbits
 2787              		.align	2
 2788              		.global	getCursorX
 2789              		.code	16
 2790              		.thumb_func
ARM GAS  C:\Users\username\AppData\Local\Temp\ccSuCzK2.s 			page 60


 2791              		.type	getCursorX, %function
 2792              	getCursorX:
 2793              	.LFB55:
 507:.\GFXmaster.c **** 
 508:.\GFXmaster.c **** 
 509:.\GFXmaster.c **** int16_t getCursorX(void) {          //used to be a const method
 2794              		.loc 1 509 0
 2795              		.cfi_startproc
 510:.\GFXmaster.c ****   return cursor_x;
 2796              		.loc 1 510 0
 2797 0000 014B     		ldr	r3, .L115
 2798 0002 0020     		mov	r0, #0
 2799 0004 185E     		ldrsh	r0, [r3, r0]
 511:.\GFXmaster.c **** }
 2800              		.loc 1 511 0
 2801              		@ sp needed
 2802 0006 7047     		bx	lr
 2803              	.L116:
 2804              		.align	2
 2805              	.L115:
 2806 0008 00000000 		.word	cursor_x
 2807              		.cfi_endproc
 2808              	.LFE55:
 2809              		.size	getCursorX, .-getCursorX
 2810              		.section	.text.getCursorY,"ax",%progbits
 2811              		.align	2
 2812              		.global	getCursorY
 2813              		.code	16
 2814              		.thumb_func
 2815              		.type	getCursorY, %function
 2816              	getCursorY:
 2817              	.LFB56:
 512:.\GFXmaster.c **** 
 513:.\GFXmaster.c ****   
 514:.\GFXmaster.c **** 
 515:.\GFXmaster.c **** int16_t getCursorY(void) {          // used to be a const method
 2818              		.loc 1 515 0
 2819              		.cfi_startproc
 516:.\GFXmaster.c ****   return cursor_y;
 2820              		.loc 1 516 0
 2821 0000 014B     		ldr	r3, .L118
 2822 0002 0020     		mov	r0, #0
 2823 0004 185E     		ldrsh	r0, [r3, r0]
 517:.\GFXmaster.c **** }
 2824              		.loc 1 517 0
 2825              		@ sp needed
 2826 0006 7047     		bx	lr
 2827              	.L119:
 2828              		.align	2
 2829              	.L118:
 2830 0008 00000000 		.word	cursor_y
 2831              		.cfi_endproc
 2832              	.LFE56:
 2833              		.size	getCursorY, .-getCursorY
 2834              		.section	.text.setTextSize,"ax",%progbits
 2835              		.align	2
 2836              		.global	setTextSize
ARM GAS  C:\Users\username\AppData\Local\Temp\ccSuCzK2.s 			page 61


 2837              		.code	16
 2838              		.thumb_func
 2839              		.type	setTextSize, %function
 2840              	setTextSize:
 2841              	.LFB57:
 518:.\GFXmaster.c **** 
 519:.\GFXmaster.c **** 
 520:.\GFXmaster.c **** void setTextSize(uint8_t s) {
 2842              		.loc 1 520 0
 2843              		.cfi_startproc
 2844              	.LVL347:
 521:.\GFXmaster.c ****   textsize = (s > 0) ? s : 1;
 2845              		.loc 1 521 0
 2846 0000 0028     		cmp	r0, #0
 2847 0002 00D1     		bne	.L121
 2848 0004 0130     		add	r0, r0, #1
 2849              	.LVL348:
 2850              	.L121:
 2851              		.loc 1 521 0 is_stmt 0 discriminator 4
 2852 0006 014B     		ldr	r3, .L123
 2853 0008 1870     		strb	r0, [r3]
 522:.\GFXmaster.c **** }
 2854              		.loc 1 522 0 is_stmt 1 discriminator 4
 2855              		@ sp needed
 2856 000a 7047     		bx	lr
 2857              	.L124:
 2858              		.align	2
 2859              	.L123:
 2860 000c 00000000 		.word	textsize
 2861              		.cfi_endproc
 2862              	.LFE57:
 2863              		.size	setTextSize, .-setTextSize
 2864              		.section	.text.setTextColor,"ax",%progbits
 2865              		.align	2
 2866              		.global	setTextColor
 2867              		.code	16
 2868              		.thumb_func
 2869              		.type	setTextColor, %function
 2870              	setTextColor:
 2871              	.LFB58:
 523:.\GFXmaster.c **** 
 524:.\GFXmaster.c **** 
 525:.\GFXmaster.c **** void setTextColor(uint16_t c) {
 2872              		.loc 1 525 0
 2873              		.cfi_startproc
 2874              	.LVL349:
 526:.\GFXmaster.c ****   // For 'transparent' background, we'll set the bg 
 527:.\GFXmaster.c ****   // to the same as fg instead of using a flag
 528:.\GFXmaster.c ****   textcolor = textbgcolor = c;
 2875              		.loc 1 528 0
 2876 0000 024B     		ldr	r3, .L126
 2877 0002 1880     		strh	r0, [r3]
 2878 0004 024B     		ldr	r3, .L126+4
 2879 0006 1880     		strh	r0, [r3]
 529:.\GFXmaster.c **** }
 2880              		.loc 1 529 0
 2881              		@ sp needed
ARM GAS  C:\Users\username\AppData\Local\Temp\ccSuCzK2.s 			page 62


 2882 0008 7047     		bx	lr
 2883              	.L127:
 2884 000a C046     		.align	2
 2885              	.L126:
 2886 000c 00000000 		.word	textbgcolor
 2887 0010 00000000 		.word	textcolor
 2888              		.cfi_endproc
 2889              	.LFE58:
 2890              		.size	setTextColor, .-setTextColor
 2891              		.section	.text.setTextColorBG,"ax",%progbits
 2892              		.align	2
 2893              		.global	setTextColorBG
 2894              		.code	16
 2895              		.thumb_func
 2896              		.type	setTextColorBG, %function
 2897              	setTextColorBG:
 2898              	.LFB59:
 530:.\GFXmaster.c **** 
 531:.\GFXmaster.c **** 
 532:.\GFXmaster.c **** void setTextColorBG(uint16_t c, uint16_t b) {
 2899              		.loc 1 532 0
 2900              		.cfi_startproc
 2901              	.LVL350:
 533:.\GFXmaster.c ****   textcolor   = c;
 2902              		.loc 1 533 0
 2903 0000 024B     		ldr	r3, .L129
 2904 0002 1880     		strh	r0, [r3]
 534:.\GFXmaster.c ****   textbgcolor = b; 
 2905              		.loc 1 534 0
 2906 0004 024B     		ldr	r3, .L129+4
 2907 0006 1980     		strh	r1, [r3]
 535:.\GFXmaster.c **** }
 2908              		.loc 1 535 0
 2909              		@ sp needed
 2910 0008 7047     		bx	lr
 2911              	.L130:
 2912 000a C046     		.align	2
 2913              	.L129:
 2914 000c 00000000 		.word	textcolor
 2915 0010 00000000 		.word	textbgcolor
 2916              		.cfi_endproc
 2917              	.LFE59:
 2918              		.size	setTextColorBG, .-setTextColorBG
 2919              		.section	.text.setTextWrap,"ax",%progbits
 2920              		.align	2
 2921              		.global	setTextWrap
 2922              		.code	16
 2923              		.thumb_func
 2924              		.type	setTextWrap, %function
 2925              	setTextWrap:
 2926              	.LFB60:
 536:.\GFXmaster.c **** 
 537:.\GFXmaster.c **** void setTextWrap(uint8_t w) {               //changed from boolean
 2927              		.loc 1 537 0
 2928              		.cfi_startproc
 2929              	.LVL351:
 538:.\GFXmaster.c ****   wrap = w;
ARM GAS  C:\Users\username\AppData\Local\Temp\ccSuCzK2.s 			page 63


 2930              		.loc 1 538 0
 2931 0000 014B     		ldr	r3, .L132
 2932 0002 1870     		strb	r0, [r3]
 539:.\GFXmaster.c **** }
 2933              		.loc 1 539 0
 2934              		@ sp needed
 2935 0004 7047     		bx	lr
 2936              	.L133:
 2937 0006 C046     		.align	2
 2938              	.L132:
 2939 0008 00000000 		.word	wrap
 2940              		.cfi_endproc
 2941              	.LFE60:
 2942              		.size	setTextWrap, .-setTextWrap
 2943              		.section	.text.getRotation,"ax",%progbits
 2944              		.align	2
 2945              		.global	getRotation
 2946              		.code	16
 2947              		.thumb_func
 2948              		.type	getRotation, %function
 2949              	getRotation:
 2950              	.LFB61:
 540:.\GFXmaster.c **** 
 541:.\GFXmaster.c **** uint8_t getRotation(void) {         // used to be a const method
 2951              		.loc 1 541 0
 2952              		.cfi_startproc
 542:.\GFXmaster.c ****   return rotation;
 2953              		.loc 1 542 0
 2954 0000 014B     		ldr	r3, .L135
 2955 0002 1878     		ldrb	r0, [r3]
 543:.\GFXmaster.c **** }
 2956              		.loc 1 543 0
 2957              		@ sp needed
 2958 0004 7047     		bx	lr
 2959              	.L136:
 2960 0006 C046     		.align	2
 2961              	.L135:
 2962 0008 00000000 		.word	rotation
 2963              		.cfi_endproc
 2964              	.LFE61:
 2965              		.size	getRotation, .-getRotation
 2966              		.section	.text.setRotation,"ax",%progbits
 2967              		.align	2
 2968              		.global	setRotation
 2969              		.code	16
 2970              		.thumb_func
 2971              		.type	setRotation, %function
 2972              	setRotation:
 2973              	.LFB62:
 544:.\GFXmaster.c **** 
 545:.\GFXmaster.c **** 
 546:.\GFXmaster.c **** void setRotation(uint8_t x) {
 2974              		.loc 1 546 0
 2975              		.cfi_startproc
 2976              	.LVL352:
 547:.\GFXmaster.c ****   rotation = (x & 3);
 2977              		.loc 1 547 0
ARM GAS  C:\Users\username\AppData\Local\Temp\ccSuCzK2.s 			page 64


 2978 0000 0323     		mov	r3, #3
 2979 0002 1840     		and	r0, r3
 2980              	.LVL353:
 2981 0004 0E4B     		ldr	r3, .L141
 2982 0006 1870     		strb	r0, [r3]
 548:.\GFXmaster.c ****   switch(rotation) {
 2983              		.loc 1 548 0
 2984 0008 0128     		cmp	r0, #1
 2985 000a 0FD0     		beq	.L139
 2986 000c 0028     		cmp	r0, #0
 2987 000e 04D0     		beq	.L140
 2988 0010 0228     		cmp	r0, #2
 2989 0012 02D0     		beq	.L140
 2990 0014 0328     		cmp	r0, #3
 2991 0016 11D1     		bne	.L137
 2992 0018 08E0     		b	.L139
 2993              	.L140:
 549:.\GFXmaster.c ****    case 0:
 550:.\GFXmaster.c ****    case 2:
 551:.\GFXmaster.c ****     _width  = WIDTH;
 2994              		.loc 1 551 0
 2995 001a 0A4B     		ldr	r3, .L141+4
 2996 001c 1A88     		ldrh	r2, [r3]
 2997 001e 0A4B     		ldr	r3, .L141+8
 2998 0020 1A80     		strh	r2, [r3]
 552:.\GFXmaster.c ****     _height = HEIGHT;
 2999              		.loc 1 552 0
 3000 0022 0A4B     		ldr	r3, .L141+12
 3001 0024 1A88     		ldrh	r2, [r3]
 3002 0026 0A4B     		ldr	r3, .L141+16
 3003 0028 1A80     		strh	r2, [r3]
 553:.\GFXmaster.c ****     break;
 3004              		.loc 1 553 0
 3005 002a 07E0     		b	.L137
 3006              	.L139:
 554:.\GFXmaster.c ****    case 1:
 555:.\GFXmaster.c ****    case 3:
 556:.\GFXmaster.c ****     _width  = HEIGHT;
 3007              		.loc 1 556 0
 3008 002c 074B     		ldr	r3, .L141+12
 3009 002e 1A88     		ldrh	r2, [r3]
 3010 0030 054B     		ldr	r3, .L141+8
 3011 0032 1A80     		strh	r2, [r3]
 557:.\GFXmaster.c ****     _height = WIDTH;
 3012              		.loc 1 557 0
 3013 0034 034B     		ldr	r3, .L141+4
 3014 0036 1A88     		ldrh	r2, [r3]
 3015 0038 054B     		ldr	r3, .L141+16
 3016 003a 1A80     		strh	r2, [r3]
 3017              	.L137:
 558:.\GFXmaster.c ****     break;
 559:.\GFXmaster.c ****   }
 560:.\GFXmaster.c **** }
 3018              		.loc 1 560 0
 3019              		@ sp needed
 3020 003c 7047     		bx	lr
 3021              	.L142:
ARM GAS  C:\Users\username\AppData\Local\Temp\ccSuCzK2.s 			page 65


 3022 003e C046     		.align	2
 3023              	.L141:
 3024 0040 00000000 		.word	rotation
 3025 0044 00000000 		.word	WIDTH
 3026 0048 00000000 		.word	_width
 3027 004c 00000000 		.word	HEIGHT
 3028 0050 00000000 		.word	_height
 3029              		.cfi_endproc
 3030              	.LFE62:
 3031              		.size	setRotation, .-setRotation
 3032              		.section	.text.cp437,"ax",%progbits
 3033              		.align	2
 3034              		.global	cp437
 3035              		.code	16
 3036              		.thumb_func
 3037              		.type	cp437, %function
 3038              	cp437:
 3039              	.LFB63:
 561:.\GFXmaster.c **** 
 562:.\GFXmaster.c **** 
 563:.\GFXmaster.c **** 
 564:.\GFXmaster.c **** 
 565:.\GFXmaster.c **** // Enable (or disable) Code Page 437-compatible charset.
 566:.\GFXmaster.c **** // There was an error in glcdfont.c for the longest time -- one character
 567:.\GFXmaster.c **** // (#176, the 'light shade' block) was missing -- this threw off the index
 568:.\GFXmaster.c **** // of every character that followed it.  But a TON of code has been written
 569:.\GFXmaster.c **** // with the erroneous character indices.  By default, the library uses the
 570:.\GFXmaster.c **** // original 'wrong' behavior and old sketches will still work.  Pass 'true'
 571:.\GFXmaster.c **** // to this function to use correct CP437 character values in your code.
 572:.\GFXmaster.c **** 
 573:.\GFXmaster.c **** void cp437(uint8_t x) {            //changed from boolean
 3040              		.loc 1 573 0
 3041              		.cfi_startproc
 3042              	.LVL354:
 574:.\GFXmaster.c ****   _cp437 = x;
 3043              		.loc 1 574 0
 3044 0000 014B     		ldr	r3, .L144
 3045 0002 1870     		strb	r0, [r3]
 575:.\GFXmaster.c **** }
 3046              		.loc 1 575 0
 3047              		@ sp needed
 3048 0004 7047     		bx	lr
 3049              	.L145:
 3050 0006 C046     		.align	2
 3051              	.L144:
 3052 0008 00000000 		.word	_cp437
 3053              		.cfi_endproc
 3054              	.LFE63:
 3055              		.size	cp437, .-cp437
 3056              		.section	.text.width,"ax",%progbits
 3057              		.align	2
 3058              		.global	width
 3059              		.code	16
 3060              		.thumb_func
 3061              		.type	width, %function
 3062              	width:
 3063              	.LFB64:
ARM GAS  C:\Users\username\AppData\Local\Temp\ccSuCzK2.s 			page 66


 576:.\GFXmaster.c **** 
 577:.\GFXmaster.c **** 
 578:.\GFXmaster.c **** 
 579:.\GFXmaster.c **** // Return the size of the display (per current rotation)
 580:.\GFXmaster.c **** int16_t width(void) {                   //used to be a const method
 3064              		.loc 1 580 0
 3065              		.cfi_startproc
 581:.\GFXmaster.c ****   return _width;
 3066              		.loc 1 581 0
 3067 0000 014B     		ldr	r3, .L147
 3068 0002 0020     		mov	r0, #0
 3069 0004 185E     		ldrsh	r0, [r3, r0]
 582:.\GFXmaster.c **** }
 3070              		.loc 1 582 0
 3071              		@ sp needed
 3072 0006 7047     		bx	lr
 3073              	.L148:
 3074              		.align	2
 3075              	.L147:
 3076 0008 00000000 		.word	_width
 3077              		.cfi_endproc
 3078              	.LFE64:
 3079              		.size	width, .-width
 3080              		.section	.text.height,"ax",%progbits
 3081              		.align	2
 3082              		.global	height
 3083              		.code	16
 3084              		.thumb_func
 3085              		.type	height, %function
 3086              	height:
 3087              	.LFB65:
 583:.\GFXmaster.c **** 
 584:.\GFXmaster.c **** int16_t height(void) {                  //used to be a const method
 3088              		.loc 1 584 0
 3089              		.cfi_startproc
 585:.\GFXmaster.c ****   return _height;
 3090              		.loc 1 585 0
 3091 0000 014B     		ldr	r3, .L150
 3092 0002 0020     		mov	r0, #0
 3093 0004 185E     		ldrsh	r0, [r3, r0]
 586:.\GFXmaster.c **** }
 3094              		.loc 1 586 0
 3095              		@ sp needed
 3096 0006 7047     		bx	lr
 3097              	.L151:
 3098              		.align	2
 3099              	.L150:
 3100 0008 00000000 		.word	_height
 3101              		.cfi_endproc
 3102              	.LFE65:
 3103              		.size	height, .-height
 3104              		.comm	_cp437,1,1
 3105              		.comm	wrap,1,1
 3106              		.comm	rotation,1,1
 3107              		.comm	textsize,1,1
 3108              		.comm	textbgcolor,2,2
 3109              		.comm	textcolor,2,2
ARM GAS  C:\Users\username\AppData\Local\Temp\ccSuCzK2.s 			page 67


 3110              		.comm	cursor_y,2,2
 3111              		.comm	cursor_x,2,2
 3112              		.comm	_height,2,2
 3113              		.comm	_width,2,2
 3114              		.comm	HEIGHT,2,2
 3115              		.comm	WIDTH,2,2
 3116              		.section	.rodata
 3117              		.align	2
 3118              		.set	.LANCHOR0,. + 0
 3119              		.type	font, %object
 3120              		.size	font, 1280
 3121              	font:
 3122 0000 00       		.byte	0
 3123 0001 00       		.byte	0
 3124 0002 00       		.byte	0
 3125 0003 00       		.byte	0
 3126 0004 00       		.byte	0
 3127 0005 3E       		.byte	62
 3128 0006 5B       		.byte	91
 3129 0007 4F       		.byte	79
 3130 0008 5B       		.byte	91
 3131 0009 3E       		.byte	62
 3132 000a 3E       		.byte	62
 3133 000b 6B       		.byte	107
 3134 000c 4F       		.byte	79
 3135 000d 6B       		.byte	107
 3136 000e 3E       		.byte	62
 3137 000f 1C       		.byte	28
 3138 0010 3E       		.byte	62
 3139 0011 7C       		.byte	124
 3140 0012 3E       		.byte	62
 3141 0013 1C       		.byte	28
 3142 0014 18       		.byte	24
 3143 0015 3C       		.byte	60
 3144 0016 7E       		.byte	126
 3145 0017 3C       		.byte	60
 3146 0018 18       		.byte	24
 3147 0019 1C       		.byte	28
 3148 001a 57       		.byte	87
 3149 001b 7D       		.byte	125
 3150 001c 57       		.byte	87
 3151 001d 1C       		.byte	28
 3152 001e 1C       		.byte	28
 3153 001f 5E       		.byte	94
 3154 0020 7F       		.byte	127
 3155 0021 5E       		.byte	94
 3156 0022 1C       		.byte	28
 3157 0023 00       		.byte	0
 3158 0024 18       		.byte	24
 3159 0025 3C       		.byte	60
 3160 0026 18       		.byte	24
 3161 0027 00       		.byte	0
 3162 0028 FF       		.byte	-1
 3163 0029 E7       		.byte	-25
 3164 002a C3       		.byte	-61
 3165 002b E7       		.byte	-25
 3166 002c FF       		.byte	-1
ARM GAS  C:\Users\username\AppData\Local\Temp\ccSuCzK2.s 			page 68


 3167 002d 00       		.byte	0
 3168 002e 18       		.byte	24
 3169 002f 24       		.byte	36
 3170 0030 18       		.byte	24
 3171 0031 00       		.byte	0
 3172 0032 FF       		.byte	-1
 3173 0033 E7       		.byte	-25
 3174 0034 DB       		.byte	-37
 3175 0035 E7       		.byte	-25
 3176 0036 FF       		.byte	-1
 3177 0037 30       		.byte	48
 3178 0038 48       		.byte	72
 3179 0039 3A       		.byte	58
 3180 003a 06       		.byte	6
 3181 003b 0E       		.byte	14
 3182 003c 26       		.byte	38
 3183 003d 29       		.byte	41
 3184 003e 79       		.byte	121
 3185 003f 29       		.byte	41
 3186 0040 26       		.byte	38
 3187 0041 40       		.byte	64
 3188 0042 7F       		.byte	127
 3189 0043 05       		.byte	5
 3190 0044 05       		.byte	5
 3191 0045 07       		.byte	7
 3192 0046 40       		.byte	64
 3193 0047 7F       		.byte	127
 3194 0048 05       		.byte	5
 3195 0049 25       		.byte	37
 3196 004a 3F       		.byte	63
 3197 004b 5A       		.byte	90
 3198 004c 3C       		.byte	60
 3199 004d E7       		.byte	-25
 3200 004e 3C       		.byte	60
 3201 004f 5A       		.byte	90
 3202 0050 7F       		.byte	127
 3203 0051 3E       		.byte	62
 3204 0052 1C       		.byte	28
 3205 0053 1C       		.byte	28
 3206 0054 08       		.byte	8
 3207 0055 08       		.byte	8
 3208 0056 1C       		.byte	28
 3209 0057 1C       		.byte	28
 3210 0058 3E       		.byte	62
 3211 0059 7F       		.byte	127
 3212 005a 14       		.byte	20
 3213 005b 22       		.byte	34
 3214 005c 7F       		.byte	127
 3215 005d 22       		.byte	34
 3216 005e 14       		.byte	20
 3217 005f 5F       		.byte	95
 3218 0060 5F       		.byte	95
 3219 0061 00       		.byte	0
 3220 0062 5F       		.byte	95
 3221 0063 5F       		.byte	95
 3222 0064 06       		.byte	6
 3223 0065 09       		.byte	9
ARM GAS  C:\Users\username\AppData\Local\Temp\ccSuCzK2.s 			page 69


 3224 0066 7F       		.byte	127
 3225 0067 01       		.byte	1
 3226 0068 7F       		.byte	127
 3227 0069 00       		.byte	0
 3228 006a 66       		.byte	102
 3229 006b 89       		.byte	-119
 3230 006c 95       		.byte	-107
 3231 006d 6A       		.byte	106
 3232 006e 60       		.byte	96
 3233 006f 60       		.byte	96
 3234 0070 60       		.byte	96
 3235 0071 60       		.byte	96
 3236 0072 60       		.byte	96
 3237 0073 94       		.byte	-108
 3238 0074 A2       		.byte	-94
 3239 0075 FF       		.byte	-1
 3240 0076 A2       		.byte	-94
 3241 0077 94       		.byte	-108
 3242 0078 08       		.byte	8
 3243 0079 04       		.byte	4
 3244 007a 7E       		.byte	126
 3245 007b 04       		.byte	4
 3246 007c 08       		.byte	8
 3247 007d 10       		.byte	16
 3248 007e 20       		.byte	32
 3249 007f 7E       		.byte	126
 3250 0080 20       		.byte	32
 3251 0081 10       		.byte	16
 3252 0082 08       		.byte	8
 3253 0083 08       		.byte	8
 3254 0084 2A       		.byte	42
 3255 0085 1C       		.byte	28
 3256 0086 08       		.byte	8
 3257 0087 08       		.byte	8
 3258 0088 1C       		.byte	28
 3259 0089 2A       		.byte	42
 3260 008a 08       		.byte	8
 3261 008b 08       		.byte	8
 3262 008c 1E       		.byte	30
 3263 008d 10       		.byte	16
 3264 008e 10       		.byte	16
 3265 008f 10       		.byte	16
 3266 0090 10       		.byte	16
 3267 0091 0C       		.byte	12
 3268 0092 1E       		.byte	30
 3269 0093 0C       		.byte	12
 3270 0094 1E       		.byte	30
 3271 0095 0C       		.byte	12
 3272 0096 30       		.byte	48
 3273 0097 38       		.byte	56
 3274 0098 3E       		.byte	62
 3275 0099 38       		.byte	56
 3276 009a 30       		.byte	48
 3277 009b 06       		.byte	6
 3278 009c 0E       		.byte	14
 3279 009d 3E       		.byte	62
 3280 009e 0E       		.byte	14
ARM GAS  C:\Users\username\AppData\Local\Temp\ccSuCzK2.s 			page 70


 3281 009f 06       		.byte	6
 3282 00a0 00       		.byte	0
 3283 00a1 00       		.byte	0
 3284 00a2 00       		.byte	0
 3285 00a3 00       		.byte	0
 3286 00a4 00       		.byte	0
 3287 00a5 00       		.byte	0
 3288 00a6 00       		.byte	0
 3289 00a7 5F       		.byte	95
 3290 00a8 00       		.byte	0
 3291 00a9 00       		.byte	0
 3292 00aa 00       		.byte	0
 3293 00ab 07       		.byte	7
 3294 00ac 00       		.byte	0
 3295 00ad 07       		.byte	7
 3296 00ae 00       		.byte	0
 3297 00af 14       		.byte	20
 3298 00b0 7F       		.byte	127
 3299 00b1 14       		.byte	20
 3300 00b2 7F       		.byte	127
 3301 00b3 14       		.byte	20
 3302 00b4 24       		.byte	36
 3303 00b5 2A       		.byte	42
 3304 00b6 7F       		.byte	127
 3305 00b7 2A       		.byte	42
 3306 00b8 12       		.byte	18
 3307 00b9 23       		.byte	35
 3308 00ba 13       		.byte	19
 3309 00bb 08       		.byte	8
 3310 00bc 64       		.byte	100
 3311 00bd 62       		.byte	98
 3312 00be 36       		.byte	54
 3313 00bf 49       		.byte	73
 3314 00c0 56       		.byte	86
 3315 00c1 20       		.byte	32
 3316 00c2 50       		.byte	80
 3317 00c3 00       		.byte	0
 3318 00c4 08       		.byte	8
 3319 00c5 07       		.byte	7
 3320 00c6 03       		.byte	3
 3321 00c7 00       		.byte	0
 3322 00c8 00       		.byte	0
 3323 00c9 1C       		.byte	28
 3324 00ca 22       		.byte	34
 3325 00cb 41       		.byte	65
 3326 00cc 00       		.byte	0
 3327 00cd 00       		.byte	0
 3328 00ce 41       		.byte	65
 3329 00cf 22       		.byte	34
 3330 00d0 1C       		.byte	28
 3331 00d1 00       		.byte	0
 3332 00d2 2A       		.byte	42
 3333 00d3 1C       		.byte	28
 3334 00d4 7F       		.byte	127
 3335 00d5 1C       		.byte	28
 3336 00d6 2A       		.byte	42
 3337 00d7 08       		.byte	8
ARM GAS  C:\Users\username\AppData\Local\Temp\ccSuCzK2.s 			page 71


 3338 00d8 08       		.byte	8
 3339 00d9 3E       		.byte	62
 3340 00da 08       		.byte	8
 3341 00db 08       		.byte	8
 3342 00dc 00       		.byte	0
 3343 00dd 80       		.byte	-128
 3344 00de 70       		.byte	112
 3345 00df 30       		.byte	48
 3346 00e0 00       		.byte	0
 3347 00e1 08       		.byte	8
 3348 00e2 08       		.byte	8
 3349 00e3 08       		.byte	8
 3350 00e4 08       		.byte	8
 3351 00e5 08       		.byte	8
 3352 00e6 00       		.byte	0
 3353 00e7 00       		.byte	0
 3354 00e8 60       		.byte	96
 3355 00e9 60       		.byte	96
 3356 00ea 00       		.byte	0
 3357 00eb 20       		.byte	32
 3358 00ec 10       		.byte	16
 3359 00ed 08       		.byte	8
 3360 00ee 04       		.byte	4
 3361 00ef 02       		.byte	2
 3362 00f0 3E       		.byte	62
 3363 00f1 51       		.byte	81
 3364 00f2 49       		.byte	73
 3365 00f3 45       		.byte	69
 3366 00f4 3E       		.byte	62
 3367 00f5 00       		.byte	0
 3368 00f6 42       		.byte	66
 3369 00f7 7F       		.byte	127
 3370 00f8 40       		.byte	64
 3371 00f9 00       		.byte	0
 3372 00fa 72       		.byte	114
 3373 00fb 49       		.byte	73
 3374 00fc 49       		.byte	73
 3375 00fd 49       		.byte	73
 3376 00fe 46       		.byte	70
 3377 00ff 21       		.byte	33
 3378 0100 41       		.byte	65
 3379 0101 49       		.byte	73
 3380 0102 4D       		.byte	77
 3381 0103 33       		.byte	51
 3382 0104 18       		.byte	24
 3383 0105 14       		.byte	20
 3384 0106 12       		.byte	18
 3385 0107 7F       		.byte	127
 3386 0108 10       		.byte	16
 3387 0109 27       		.byte	39
 3388 010a 45       		.byte	69
 3389 010b 45       		.byte	69
 3390 010c 45       		.byte	69
 3391 010d 39       		.byte	57
 3392 010e 3C       		.byte	60
 3393 010f 4A       		.byte	74
 3394 0110 49       		.byte	73
ARM GAS  C:\Users\username\AppData\Local\Temp\ccSuCzK2.s 			page 72


 3395 0111 49       		.byte	73
 3396 0112 31       		.byte	49
 3397 0113 41       		.byte	65
 3398 0114 21       		.byte	33
 3399 0115 11       		.byte	17
 3400 0116 09       		.byte	9
 3401 0117 07       		.byte	7
 3402 0118 36       		.byte	54
 3403 0119 49       		.byte	73
 3404 011a 49       		.byte	73
 3405 011b 49       		.byte	73
 3406 011c 36       		.byte	54
 3407 011d 46       		.byte	70
 3408 011e 49       		.byte	73
 3409 011f 49       		.byte	73
 3410 0120 29       		.byte	41
 3411 0121 1E       		.byte	30
 3412 0122 00       		.byte	0
 3413 0123 00       		.byte	0
 3414 0124 14       		.byte	20
 3415 0125 00       		.byte	0
 3416 0126 00       		.byte	0
 3417 0127 00       		.byte	0
 3418 0128 40       		.byte	64
 3419 0129 34       		.byte	52
 3420 012a 00       		.byte	0
 3421 012b 00       		.byte	0
 3422 012c 00       		.byte	0
 3423 012d 08       		.byte	8
 3424 012e 14       		.byte	20
 3425 012f 22       		.byte	34
 3426 0130 41       		.byte	65
 3427 0131 14       		.byte	20
 3428 0132 14       		.byte	20
 3429 0133 14       		.byte	20
 3430 0134 14       		.byte	20
 3431 0135 14       		.byte	20
 3432 0136 00       		.byte	0
 3433 0137 41       		.byte	65
 3434 0138 22       		.byte	34
 3435 0139 14       		.byte	20
 3436 013a 08       		.byte	8
 3437 013b 02       		.byte	2
 3438 013c 01       		.byte	1
 3439 013d 59       		.byte	89
 3440 013e 09       		.byte	9
 3441 013f 06       		.byte	6
 3442 0140 3E       		.byte	62
 3443 0141 41       		.byte	65
 3444 0142 5D       		.byte	93
 3445 0143 59       		.byte	89
 3446 0144 4E       		.byte	78
 3447 0145 7C       		.byte	124
 3448 0146 12       		.byte	18
 3449 0147 11       		.byte	17
 3450 0148 12       		.byte	18
 3451 0149 7C       		.byte	124
ARM GAS  C:\Users\username\AppData\Local\Temp\ccSuCzK2.s 			page 73


 3452 014a 7F       		.byte	127
 3453 014b 49       		.byte	73
 3454 014c 49       		.byte	73
 3455 014d 49       		.byte	73
 3456 014e 36       		.byte	54
 3457 014f 3E       		.byte	62
 3458 0150 41       		.byte	65
 3459 0151 41       		.byte	65
 3460 0152 41       		.byte	65
 3461 0153 22       		.byte	34
 3462 0154 7F       		.byte	127
 3463 0155 41       		.byte	65
 3464 0156 41       		.byte	65
 3465 0157 41       		.byte	65
 3466 0158 3E       		.byte	62
 3467 0159 7F       		.byte	127
 3468 015a 49       		.byte	73
 3469 015b 49       		.byte	73
 3470 015c 49       		.byte	73
 3471 015d 41       		.byte	65
 3472 015e 7F       		.byte	127
 3473 015f 09       		.byte	9
 3474 0160 09       		.byte	9
 3475 0161 09       		.byte	9
 3476 0162 01       		.byte	1
 3477 0163 3E       		.byte	62
 3478 0164 41       		.byte	65
 3479 0165 41       		.byte	65
 3480 0166 51       		.byte	81
 3481 0167 73       		.byte	115
 3482 0168 7F       		.byte	127
 3483 0169 08       		.byte	8
 3484 016a 08       		.byte	8
 3485 016b 08       		.byte	8
 3486 016c 7F       		.byte	127
 3487 016d 00       		.byte	0
 3488 016e 41       		.byte	65
 3489 016f 7F       		.byte	127
 3490 0170 41       		.byte	65
 3491 0171 00       		.byte	0
 3492 0172 20       		.byte	32
 3493 0173 40       		.byte	64
 3494 0174 41       		.byte	65
 3495 0175 3F       		.byte	63
 3496 0176 01       		.byte	1
 3497 0177 7F       		.byte	127
 3498 0178 08       		.byte	8
 3499 0179 14       		.byte	20
 3500 017a 22       		.byte	34
 3501 017b 41       		.byte	65
 3502 017c 7F       		.byte	127
 3503 017d 40       		.byte	64
 3504 017e 40       		.byte	64
 3505 017f 40       		.byte	64
 3506 0180 40       		.byte	64
 3507 0181 7F       		.byte	127
 3508 0182 02       		.byte	2
ARM GAS  C:\Users\username\AppData\Local\Temp\ccSuCzK2.s 			page 74


 3509 0183 1C       		.byte	28
 3510 0184 02       		.byte	2
 3511 0185 7F       		.byte	127
 3512 0186 7F       		.byte	127
 3513 0187 04       		.byte	4
 3514 0188 08       		.byte	8
 3515 0189 10       		.byte	16
 3516 018a 7F       		.byte	127
 3517 018b 3E       		.byte	62
 3518 018c 41       		.byte	65
 3519 018d 41       		.byte	65
 3520 018e 41       		.byte	65
 3521 018f 3E       		.byte	62
 3522 0190 7F       		.byte	127
 3523 0191 09       		.byte	9
 3524 0192 09       		.byte	9
 3525 0193 09       		.byte	9
 3526 0194 06       		.byte	6
 3527 0195 3E       		.byte	62
 3528 0196 41       		.byte	65
 3529 0197 51       		.byte	81
 3530 0198 21       		.byte	33
 3531 0199 5E       		.byte	94
 3532 019a 7F       		.byte	127
 3533 019b 09       		.byte	9
 3534 019c 19       		.byte	25
 3535 019d 29       		.byte	41
 3536 019e 46       		.byte	70
 3537 019f 26       		.byte	38
 3538 01a0 49       		.byte	73
 3539 01a1 49       		.byte	73
 3540 01a2 49       		.byte	73
 3541 01a3 32       		.byte	50
 3542 01a4 03       		.byte	3
 3543 01a5 01       		.byte	1
 3544 01a6 7F       		.byte	127
 3545 01a7 01       		.byte	1
 3546 01a8 03       		.byte	3
 3547 01a9 3F       		.byte	63
 3548 01aa 40       		.byte	64
 3549 01ab 40       		.byte	64
 3550 01ac 40       		.byte	64
 3551 01ad 3F       		.byte	63
 3552 01ae 1F       		.byte	31
 3553 01af 20       		.byte	32
 3554 01b0 40       		.byte	64
 3555 01b1 20       		.byte	32
 3556 01b2 1F       		.byte	31
 3557 01b3 3F       		.byte	63
 3558 01b4 40       		.byte	64
 3559 01b5 38       		.byte	56
 3560 01b6 40       		.byte	64
 3561 01b7 3F       		.byte	63
 3562 01b8 63       		.byte	99
 3563 01b9 14       		.byte	20
 3564 01ba 08       		.byte	8
 3565 01bb 14       		.byte	20
ARM GAS  C:\Users\username\AppData\Local\Temp\ccSuCzK2.s 			page 75


 3566 01bc 63       		.byte	99
 3567 01bd 03       		.byte	3
 3568 01be 04       		.byte	4
 3569 01bf 78       		.byte	120
 3570 01c0 04       		.byte	4
 3571 01c1 03       		.byte	3
 3572 01c2 61       		.byte	97
 3573 01c3 59       		.byte	89
 3574 01c4 49       		.byte	73
 3575 01c5 4D       		.byte	77
 3576 01c6 43       		.byte	67
 3577 01c7 00       		.byte	0
 3578 01c8 7F       		.byte	127
 3579 01c9 41       		.byte	65
 3580 01ca 41       		.byte	65
 3581 01cb 41       		.byte	65
 3582 01cc 02       		.byte	2
 3583 01cd 04       		.byte	4
 3584 01ce 08       		.byte	8
 3585 01cf 10       		.byte	16
 3586 01d0 20       		.byte	32
 3587 01d1 00       		.byte	0
 3588 01d2 41       		.byte	65
 3589 01d3 41       		.byte	65
 3590 01d4 41       		.byte	65
 3591 01d5 7F       		.byte	127
 3592 01d6 04       		.byte	4
 3593 01d7 02       		.byte	2
 3594 01d8 01       		.byte	1
 3595 01d9 02       		.byte	2
 3596 01da 04       		.byte	4
 3597 01db 40       		.byte	64
 3598 01dc 40       		.byte	64
 3599 01dd 40       		.byte	64
 3600 01de 40       		.byte	64
 3601 01df 40       		.byte	64
 3602 01e0 00       		.byte	0
 3603 01e1 03       		.byte	3
 3604 01e2 07       		.byte	7
 3605 01e3 08       		.byte	8
 3606 01e4 00       		.byte	0
 3607 01e5 20       		.byte	32
 3608 01e6 54       		.byte	84
 3609 01e7 54       		.byte	84
 3610 01e8 78       		.byte	120
 3611 01e9 40       		.byte	64
 3612 01ea 7F       		.byte	127
 3613 01eb 28       		.byte	40
 3614 01ec 44       		.byte	68
 3615 01ed 44       		.byte	68
 3616 01ee 38       		.byte	56
 3617 01ef 38       		.byte	56
 3618 01f0 44       		.byte	68
 3619 01f1 44       		.byte	68
 3620 01f2 44       		.byte	68
 3621 01f3 28       		.byte	40
 3622 01f4 38       		.byte	56
ARM GAS  C:\Users\username\AppData\Local\Temp\ccSuCzK2.s 			page 76


 3623 01f5 44       		.byte	68
 3624 01f6 44       		.byte	68
 3625 01f7 28       		.byte	40
 3626 01f8 7F       		.byte	127
 3627 01f9 38       		.byte	56
 3628 01fa 54       		.byte	84
 3629 01fb 54       		.byte	84
 3630 01fc 54       		.byte	84
 3631 01fd 18       		.byte	24
 3632 01fe 00       		.byte	0
 3633 01ff 08       		.byte	8
 3634 0200 7E       		.byte	126
 3635 0201 09       		.byte	9
 3636 0202 02       		.byte	2
 3637 0203 18       		.byte	24
 3638 0204 A4       		.byte	-92
 3639 0205 A4       		.byte	-92
 3640 0206 9C       		.byte	-100
 3641 0207 78       		.byte	120
 3642 0208 7F       		.byte	127
 3643 0209 08       		.byte	8
 3644 020a 04       		.byte	4
 3645 020b 04       		.byte	4
 3646 020c 78       		.byte	120
 3647 020d 00       		.byte	0
 3648 020e 44       		.byte	68
 3649 020f 7D       		.byte	125
 3650 0210 40       		.byte	64
 3651 0211 00       		.byte	0
 3652 0212 20       		.byte	32
 3653 0213 40       		.byte	64
 3654 0214 40       		.byte	64
 3655 0215 3D       		.byte	61
 3656 0216 00       		.byte	0
 3657 0217 7F       		.byte	127
 3658 0218 10       		.byte	16
 3659 0219 28       		.byte	40
 3660 021a 44       		.byte	68
 3661 021b 00       		.byte	0
 3662 021c 00       		.byte	0
 3663 021d 41       		.byte	65
 3664 021e 7F       		.byte	127
 3665 021f 40       		.byte	64
 3666 0220 00       		.byte	0
 3667 0221 7C       		.byte	124
 3668 0222 04       		.byte	4
 3669 0223 78       		.byte	120
 3670 0224 04       		.byte	4
 3671 0225 78       		.byte	120
 3672 0226 7C       		.byte	124
 3673 0227 08       		.byte	8
 3674 0228 04       		.byte	4
 3675 0229 04       		.byte	4
 3676 022a 78       		.byte	120
 3677 022b 38       		.byte	56
 3678 022c 44       		.byte	68
 3679 022d 44       		.byte	68
ARM GAS  C:\Users\username\AppData\Local\Temp\ccSuCzK2.s 			page 77


 3680 022e 44       		.byte	68
 3681 022f 38       		.byte	56
 3682 0230 FC       		.byte	-4
 3683 0231 18       		.byte	24
 3684 0232 24       		.byte	36
 3685 0233 24       		.byte	36
 3686 0234 18       		.byte	24
 3687 0235 18       		.byte	24
 3688 0236 24       		.byte	36
 3689 0237 24       		.byte	36
 3690 0238 18       		.byte	24
 3691 0239 FC       		.byte	-4
 3692 023a 7C       		.byte	124
 3693 023b 08       		.byte	8
 3694 023c 04       		.byte	4
 3695 023d 04       		.byte	4
 3696 023e 08       		.byte	8
 3697 023f 48       		.byte	72
 3698 0240 54       		.byte	84
 3699 0241 54       		.byte	84
 3700 0242 54       		.byte	84
 3701 0243 24       		.byte	36
 3702 0244 04       		.byte	4
 3703 0245 04       		.byte	4
 3704 0246 3F       		.byte	63
 3705 0247 44       		.byte	68
 3706 0248 24       		.byte	36
 3707 0249 3C       		.byte	60
 3708 024a 40       		.byte	64
 3709 024b 40       		.byte	64
 3710 024c 20       		.byte	32
 3711 024d 7C       		.byte	124
 3712 024e 1C       		.byte	28
 3713 024f 20       		.byte	32
 3714 0250 40       		.byte	64
 3715 0251 20       		.byte	32
 3716 0252 1C       		.byte	28
 3717 0253 3C       		.byte	60
 3718 0254 40       		.byte	64
 3719 0255 30       		.byte	48
 3720 0256 40       		.byte	64
 3721 0257 3C       		.byte	60
 3722 0258 44       		.byte	68
 3723 0259 28       		.byte	40
 3724 025a 10       		.byte	16
 3725 025b 28       		.byte	40
 3726 025c 44       		.byte	68
 3727 025d 4C       		.byte	76
 3728 025e 90       		.byte	-112
 3729 025f 90       		.byte	-112
 3730 0260 90       		.byte	-112
 3731 0261 7C       		.byte	124
 3732 0262 44       		.byte	68
 3733 0263 64       		.byte	100
 3734 0264 54       		.byte	84
 3735 0265 4C       		.byte	76
 3736 0266 44       		.byte	68
ARM GAS  C:\Users\username\AppData\Local\Temp\ccSuCzK2.s 			page 78


 3737 0267 00       		.byte	0
 3738 0268 08       		.byte	8
 3739 0269 36       		.byte	54
 3740 026a 41       		.byte	65
 3741 026b 00       		.byte	0
 3742 026c 00       		.byte	0
 3743 026d 00       		.byte	0
 3744 026e 77       		.byte	119
 3745 026f 00       		.byte	0
 3746 0270 00       		.byte	0
 3747 0271 00       		.byte	0
 3748 0272 41       		.byte	65
 3749 0273 36       		.byte	54
 3750 0274 08       		.byte	8
 3751 0275 00       		.byte	0
 3752 0276 02       		.byte	2
 3753 0277 01       		.byte	1
 3754 0278 02       		.byte	2
 3755 0279 04       		.byte	4
 3756 027a 02       		.byte	2
 3757 027b 3C       		.byte	60
 3758 027c 26       		.byte	38
 3759 027d 23       		.byte	35
 3760 027e 26       		.byte	38
 3761 027f 3C       		.byte	60
 3762 0280 1E       		.byte	30
 3763 0281 A1       		.byte	-95
 3764 0282 A1       		.byte	-95
 3765 0283 61       		.byte	97
 3766 0284 12       		.byte	18
 3767 0285 3A       		.byte	58
 3768 0286 40       		.byte	64
 3769 0287 40       		.byte	64
 3770 0288 20       		.byte	32
 3771 0289 7A       		.byte	122
 3772 028a 38       		.byte	56
 3773 028b 54       		.byte	84
 3774 028c 54       		.byte	84
 3775 028d 55       		.byte	85
 3776 028e 59       		.byte	89
 3777 028f 21       		.byte	33
 3778 0290 55       		.byte	85
 3779 0291 55       		.byte	85
 3780 0292 79       		.byte	121
 3781 0293 41       		.byte	65
 3782 0294 22       		.byte	34
 3783 0295 54       		.byte	84
 3784 0296 54       		.byte	84
 3785 0297 78       		.byte	120
 3786 0298 42       		.byte	66
 3787 0299 21       		.byte	33
 3788 029a 55       		.byte	85
 3789 029b 54       		.byte	84
 3790 029c 78       		.byte	120
 3791 029d 40       		.byte	64
 3792 029e 20       		.byte	32
 3793 029f 54       		.byte	84
ARM GAS  C:\Users\username\AppData\Local\Temp\ccSuCzK2.s 			page 79


 3794 02a0 55       		.byte	85
 3795 02a1 79       		.byte	121
 3796 02a2 40       		.byte	64
 3797 02a3 0C       		.byte	12
 3798 02a4 1E       		.byte	30
 3799 02a5 52       		.byte	82
 3800 02a6 72       		.byte	114
 3801 02a7 12       		.byte	18
 3802 02a8 39       		.byte	57
 3803 02a9 55       		.byte	85
 3804 02aa 55       		.byte	85
 3805 02ab 55       		.byte	85
 3806 02ac 59       		.byte	89
 3807 02ad 39       		.byte	57
 3808 02ae 54       		.byte	84
 3809 02af 54       		.byte	84
 3810 02b0 54       		.byte	84
 3811 02b1 59       		.byte	89
 3812 02b2 39       		.byte	57
 3813 02b3 55       		.byte	85
 3814 02b4 54       		.byte	84
 3815 02b5 54       		.byte	84
 3816 02b6 58       		.byte	88
 3817 02b7 00       		.byte	0
 3818 02b8 00       		.byte	0
 3819 02b9 45       		.byte	69
 3820 02ba 7C       		.byte	124
 3821 02bb 41       		.byte	65
 3822 02bc 00       		.byte	0
 3823 02bd 02       		.byte	2
 3824 02be 45       		.byte	69
 3825 02bf 7D       		.byte	125
 3826 02c0 42       		.byte	66
 3827 02c1 00       		.byte	0
 3828 02c2 01       		.byte	1
 3829 02c3 45       		.byte	69
 3830 02c4 7C       		.byte	124
 3831 02c5 40       		.byte	64
 3832 02c6 7D       		.byte	125
 3833 02c7 12       		.byte	18
 3834 02c8 11       		.byte	17
 3835 02c9 12       		.byte	18
 3836 02ca 7D       		.byte	125
 3837 02cb F0       		.byte	-16
 3838 02cc 28       		.byte	40
 3839 02cd 25       		.byte	37
 3840 02ce 28       		.byte	40
 3841 02cf F0       		.byte	-16
 3842 02d0 7C       		.byte	124
 3843 02d1 54       		.byte	84
 3844 02d2 55       		.byte	85
 3845 02d3 45       		.byte	69
 3846 02d4 00       		.byte	0
 3847 02d5 20       		.byte	32
 3848 02d6 54       		.byte	84
 3849 02d7 54       		.byte	84
 3850 02d8 7C       		.byte	124
ARM GAS  C:\Users\username\AppData\Local\Temp\ccSuCzK2.s 			page 80


 3851 02d9 54       		.byte	84
 3852 02da 7C       		.byte	124
 3853 02db 0A       		.byte	10
 3854 02dc 09       		.byte	9
 3855 02dd 7F       		.byte	127
 3856 02de 49       		.byte	73
 3857 02df 32       		.byte	50
 3858 02e0 49       		.byte	73
 3859 02e1 49       		.byte	73
 3860 02e2 49       		.byte	73
 3861 02e3 32       		.byte	50
 3862 02e4 3A       		.byte	58
 3863 02e5 44       		.byte	68
 3864 02e6 44       		.byte	68
 3865 02e7 44       		.byte	68
 3866 02e8 3A       		.byte	58
 3867 02e9 32       		.byte	50
 3868 02ea 4A       		.byte	74
 3869 02eb 48       		.byte	72
 3870 02ec 48       		.byte	72
 3871 02ed 30       		.byte	48
 3872 02ee 3A       		.byte	58
 3873 02ef 41       		.byte	65
 3874 02f0 41       		.byte	65
 3875 02f1 21       		.byte	33
 3876 02f2 7A       		.byte	122
 3877 02f3 3A       		.byte	58
 3878 02f4 42       		.byte	66
 3879 02f5 40       		.byte	64
 3880 02f6 20       		.byte	32
 3881 02f7 78       		.byte	120
 3882 02f8 00       		.byte	0
 3883 02f9 9D       		.byte	-99
 3884 02fa A0       		.byte	-96
 3885 02fb A0       		.byte	-96
 3886 02fc 7D       		.byte	125
 3887 02fd 3D       		.byte	61
 3888 02fe 42       		.byte	66
 3889 02ff 42       		.byte	66
 3890 0300 42       		.byte	66
 3891 0301 3D       		.byte	61
 3892 0302 3D       		.byte	61
 3893 0303 40       		.byte	64
 3894 0304 40       		.byte	64
 3895 0305 40       		.byte	64
 3896 0306 3D       		.byte	61
 3897 0307 3C       		.byte	60
 3898 0308 24       		.byte	36
 3899 0309 FF       		.byte	-1
 3900 030a 24       		.byte	36
 3901 030b 24       		.byte	36
 3902 030c 48       		.byte	72
 3903 030d 7E       		.byte	126
 3904 030e 49       		.byte	73
 3905 030f 43       		.byte	67
 3906 0310 66       		.byte	102
 3907 0311 2B       		.byte	43
ARM GAS  C:\Users\username\AppData\Local\Temp\ccSuCzK2.s 			page 81


 3908 0312 2F       		.byte	47
 3909 0313 FC       		.byte	-4
 3910 0314 2F       		.byte	47
 3911 0315 2B       		.byte	43
 3912 0316 FF       		.byte	-1
 3913 0317 09       		.byte	9
 3914 0318 29       		.byte	41
 3915 0319 F6       		.byte	-10
 3916 031a 20       		.byte	32
 3917 031b C0       		.byte	-64
 3918 031c 88       		.byte	-120
 3919 031d 7E       		.byte	126
 3920 031e 09       		.byte	9
 3921 031f 03       		.byte	3
 3922 0320 20       		.byte	32
 3923 0321 54       		.byte	84
 3924 0322 54       		.byte	84
 3925 0323 79       		.byte	121
 3926 0324 41       		.byte	65
 3927 0325 00       		.byte	0
 3928 0326 00       		.byte	0
 3929 0327 44       		.byte	68
 3930 0328 7D       		.byte	125
 3931 0329 41       		.byte	65
 3932 032a 30       		.byte	48
 3933 032b 48       		.byte	72
 3934 032c 48       		.byte	72
 3935 032d 4A       		.byte	74
 3936 032e 32       		.byte	50
 3937 032f 38       		.byte	56
 3938 0330 40       		.byte	64
 3939 0331 40       		.byte	64
 3940 0332 22       		.byte	34
 3941 0333 7A       		.byte	122
 3942 0334 00       		.byte	0
 3943 0335 7A       		.byte	122
 3944 0336 0A       		.byte	10
 3945 0337 0A       		.byte	10
 3946 0338 72       		.byte	114
 3947 0339 7D       		.byte	125
 3948 033a 0D       		.byte	13
 3949 033b 19       		.byte	25
 3950 033c 31       		.byte	49
 3951 033d 7D       		.byte	125
 3952 033e 26       		.byte	38
 3953 033f 29       		.byte	41
 3954 0340 29       		.byte	41
 3955 0341 2F       		.byte	47
 3956 0342 28       		.byte	40
 3957 0343 26       		.byte	38
 3958 0344 29       		.byte	41
 3959 0345 29       		.byte	41
 3960 0346 29       		.byte	41
 3961 0347 26       		.byte	38
 3962 0348 30       		.byte	48
 3963 0349 48       		.byte	72
 3964 034a 4D       		.byte	77
ARM GAS  C:\Users\username\AppData\Local\Temp\ccSuCzK2.s 			page 82


 3965 034b 40       		.byte	64
 3966 034c 20       		.byte	32
 3967 034d 38       		.byte	56
 3968 034e 08       		.byte	8
 3969 034f 08       		.byte	8
 3970 0350 08       		.byte	8
 3971 0351 08       		.byte	8
 3972 0352 08       		.byte	8
 3973 0353 08       		.byte	8
 3974 0354 08       		.byte	8
 3975 0355 08       		.byte	8
 3976 0356 38       		.byte	56
 3977 0357 2F       		.byte	47
 3978 0358 10       		.byte	16
 3979 0359 C8       		.byte	-56
 3980 035a AC       		.byte	-84
 3981 035b BA       		.byte	-70
 3982 035c 2F       		.byte	47
 3983 035d 10       		.byte	16
 3984 035e 28       		.byte	40
 3985 035f 34       		.byte	52
 3986 0360 FA       		.byte	-6
 3987 0361 00       		.byte	0
 3988 0362 00       		.byte	0
 3989 0363 7B       		.byte	123
 3990 0364 00       		.byte	0
 3991 0365 00       		.byte	0
 3992 0366 08       		.byte	8
 3993 0367 14       		.byte	20
 3994 0368 2A       		.byte	42
 3995 0369 14       		.byte	20
 3996 036a 22       		.byte	34
 3997 036b 22       		.byte	34
 3998 036c 14       		.byte	20
 3999 036d 2A       		.byte	42
 4000 036e 14       		.byte	20
 4001 036f 08       		.byte	8
 4002 0370 55       		.byte	85
 4003 0371 00       		.byte	0
 4004 0372 55       		.byte	85
 4005 0373 00       		.byte	0
 4006 0374 55       		.byte	85
 4007 0375 AA       		.byte	-86
 4008 0376 55       		.byte	85
 4009 0377 AA       		.byte	-86
 4010 0378 55       		.byte	85
 4011 0379 AA       		.byte	-86
 4012 037a FF       		.byte	-1
 4013 037b 55       		.byte	85
 4014 037c FF       		.byte	-1
 4015 037d 55       		.byte	85
 4016 037e FF       		.byte	-1
 4017 037f 00       		.byte	0
 4018 0380 00       		.byte	0
 4019 0381 00       		.byte	0
 4020 0382 FF       		.byte	-1
 4021 0383 00       		.byte	0
ARM GAS  C:\Users\username\AppData\Local\Temp\ccSuCzK2.s 			page 83


 4022 0384 10       		.byte	16
 4023 0385 10       		.byte	16
 4024 0386 10       		.byte	16
 4025 0387 FF       		.byte	-1
 4026 0388 00       		.byte	0
 4027 0389 14       		.byte	20
 4028 038a 14       		.byte	20
 4029 038b 14       		.byte	20
 4030 038c FF       		.byte	-1
 4031 038d 00       		.byte	0
 4032 038e 10       		.byte	16
 4033 038f 10       		.byte	16
 4034 0390 FF       		.byte	-1
 4035 0391 00       		.byte	0
 4036 0392 FF       		.byte	-1
 4037 0393 10       		.byte	16
 4038 0394 10       		.byte	16
 4039 0395 F0       		.byte	-16
 4040 0396 10       		.byte	16
 4041 0397 F0       		.byte	-16
 4042 0398 14       		.byte	20
 4043 0399 14       		.byte	20
 4044 039a 14       		.byte	20
 4045 039b FC       		.byte	-4
 4046 039c 00       		.byte	0
 4047 039d 14       		.byte	20
 4048 039e 14       		.byte	20
 4049 039f F7       		.byte	-9
 4050 03a0 00       		.byte	0
 4051 03a1 FF       		.byte	-1
 4052 03a2 00       		.byte	0
 4053 03a3 00       		.byte	0
 4054 03a4 FF       		.byte	-1
 4055 03a5 00       		.byte	0
 4056 03a6 FF       		.byte	-1
 4057 03a7 14       		.byte	20
 4058 03a8 14       		.byte	20
 4059 03a9 F4       		.byte	-12
 4060 03aa 04       		.byte	4
 4061 03ab FC       		.byte	-4
 4062 03ac 14       		.byte	20
 4063 03ad 14       		.byte	20
 4064 03ae 17       		.byte	23
 4065 03af 10       		.byte	16
 4066 03b0 1F       		.byte	31
 4067 03b1 10       		.byte	16
 4068 03b2 10       		.byte	16
 4069 03b3 1F       		.byte	31
 4070 03b4 10       		.byte	16
 4071 03b5 1F       		.byte	31
 4072 03b6 14       		.byte	20
 4073 03b7 14       		.byte	20
 4074 03b8 14       		.byte	20
 4075 03b9 1F       		.byte	31
 4076 03ba 00       		.byte	0
 4077 03bb 10       		.byte	16
 4078 03bc 10       		.byte	16
ARM GAS  C:\Users\username\AppData\Local\Temp\ccSuCzK2.s 			page 84


 4079 03bd 10       		.byte	16
 4080 03be F0       		.byte	-16
 4081 03bf 00       		.byte	0
 4082 03c0 00       		.byte	0
 4083 03c1 00       		.byte	0
 4084 03c2 00       		.byte	0
 4085 03c3 1F       		.byte	31
 4086 03c4 10       		.byte	16
 4087 03c5 10       		.byte	16
 4088 03c6 10       		.byte	16
 4089 03c7 10       		.byte	16
 4090 03c8 1F       		.byte	31
 4091 03c9 10       		.byte	16
 4092 03ca 10       		.byte	16
 4093 03cb 10       		.byte	16
 4094 03cc 10       		.byte	16
 4095 03cd F0       		.byte	-16
 4096 03ce 10       		.byte	16
 4097 03cf 00       		.byte	0
 4098 03d0 00       		.byte	0
 4099 03d1 00       		.byte	0
 4100 03d2 FF       		.byte	-1
 4101 03d3 10       		.byte	16
 4102 03d4 10       		.byte	16
 4103 03d5 10       		.byte	16
 4104 03d6 10       		.byte	16
 4105 03d7 10       		.byte	16
 4106 03d8 10       		.byte	16
 4107 03d9 10       		.byte	16
 4108 03da 10       		.byte	16
 4109 03db 10       		.byte	16
 4110 03dc FF       		.byte	-1
 4111 03dd 10       		.byte	16
 4112 03de 00       		.byte	0
 4113 03df 00       		.byte	0
 4114 03e0 00       		.byte	0
 4115 03e1 FF       		.byte	-1
 4116 03e2 14       		.byte	20
 4117 03e3 00       		.byte	0
 4118 03e4 00       		.byte	0
 4119 03e5 FF       		.byte	-1
 4120 03e6 00       		.byte	0
 4121 03e7 FF       		.byte	-1
 4122 03e8 00       		.byte	0
 4123 03e9 00       		.byte	0
 4124 03ea 1F       		.byte	31
 4125 03eb 10       		.byte	16
 4126 03ec 17       		.byte	23
 4127 03ed 00       		.byte	0
 4128 03ee 00       		.byte	0
 4129 03ef FC       		.byte	-4
 4130 03f0 04       		.byte	4
 4131 03f1 F4       		.byte	-12
 4132 03f2 14       		.byte	20
 4133 03f3 14       		.byte	20
 4134 03f4 17       		.byte	23
 4135 03f5 10       		.byte	16
ARM GAS  C:\Users\username\AppData\Local\Temp\ccSuCzK2.s 			page 85


 4136 03f6 17       		.byte	23
 4137 03f7 14       		.byte	20
 4138 03f8 14       		.byte	20
 4139 03f9 F4       		.byte	-12
 4140 03fa 04       		.byte	4
 4141 03fb F4       		.byte	-12
 4142 03fc 00       		.byte	0
 4143 03fd 00       		.byte	0
 4144 03fe FF       		.byte	-1
 4145 03ff 00       		.byte	0
 4146 0400 F7       		.byte	-9
 4147 0401 14       		.byte	20
 4148 0402 14       		.byte	20
 4149 0403 14       		.byte	20
 4150 0404 14       		.byte	20
 4151 0405 14       		.byte	20
 4152 0406 14       		.byte	20
 4153 0407 14       		.byte	20
 4154 0408 F7       		.byte	-9
 4155 0409 00       		.byte	0
 4156 040a F7       		.byte	-9
 4157 040b 14       		.byte	20
 4158 040c 14       		.byte	20
 4159 040d 14       		.byte	20
 4160 040e 17       		.byte	23
 4161 040f 14       		.byte	20
 4162 0410 10       		.byte	16
 4163 0411 10       		.byte	16
 4164 0412 1F       		.byte	31
 4165 0413 10       		.byte	16
 4166 0414 1F       		.byte	31
 4167 0415 14       		.byte	20
 4168 0416 14       		.byte	20
 4169 0417 14       		.byte	20
 4170 0418 F4       		.byte	-12
 4171 0419 14       		.byte	20
 4172 041a 10       		.byte	16
 4173 041b 10       		.byte	16
 4174 041c F0       		.byte	-16
 4175 041d 10       		.byte	16
 4176 041e F0       		.byte	-16
 4177 041f 00       		.byte	0
 4178 0420 00       		.byte	0
 4179 0421 1F       		.byte	31
 4180 0422 10       		.byte	16
 4181 0423 1F       		.byte	31
 4182 0424 00       		.byte	0
 4183 0425 00       		.byte	0
 4184 0426 00       		.byte	0
 4185 0427 1F       		.byte	31
 4186 0428 14       		.byte	20
 4187 0429 00       		.byte	0
 4188 042a 00       		.byte	0
 4189 042b 00       		.byte	0
 4190 042c FC       		.byte	-4
 4191 042d 14       		.byte	20
 4192 042e 00       		.byte	0
ARM GAS  C:\Users\username\AppData\Local\Temp\ccSuCzK2.s 			page 86


 4193 042f 00       		.byte	0
 4194 0430 F0       		.byte	-16
 4195 0431 10       		.byte	16
 4196 0432 F0       		.byte	-16
 4197 0433 10       		.byte	16
 4198 0434 10       		.byte	16
 4199 0435 FF       		.byte	-1
 4200 0436 10       		.byte	16
 4201 0437 FF       		.byte	-1
 4202 0438 14       		.byte	20
 4203 0439 14       		.byte	20
 4204 043a 14       		.byte	20
 4205 043b FF       		.byte	-1
 4206 043c 14       		.byte	20
 4207 043d 10       		.byte	16
 4208 043e 10       		.byte	16
 4209 043f 10       		.byte	16
 4210 0440 1F       		.byte	31
 4211 0441 00       		.byte	0
 4212 0442 00       		.byte	0
 4213 0443 00       		.byte	0
 4214 0444 00       		.byte	0
 4215 0445 F0       		.byte	-16
 4216 0446 10       		.byte	16
 4217 0447 FF       		.byte	-1
 4218 0448 FF       		.byte	-1
 4219 0449 FF       		.byte	-1
 4220 044a FF       		.byte	-1
 4221 044b FF       		.byte	-1
 4222 044c F0       		.byte	-16
 4223 044d F0       		.byte	-16
 4224 044e F0       		.byte	-16
 4225 044f F0       		.byte	-16
 4226 0450 F0       		.byte	-16
 4227 0451 FF       		.byte	-1
 4228 0452 FF       		.byte	-1
 4229 0453 FF       		.byte	-1
 4230 0454 00       		.byte	0
 4231 0455 00       		.byte	0
 4232 0456 00       		.byte	0
 4233 0457 00       		.byte	0
 4234 0458 00       		.byte	0
 4235 0459 FF       		.byte	-1
 4236 045a FF       		.byte	-1
 4237 045b 0F       		.byte	15
 4238 045c 0F       		.byte	15
 4239 045d 0F       		.byte	15
 4240 045e 0F       		.byte	15
 4241 045f 0F       		.byte	15
 4242 0460 38       		.byte	56
 4243 0461 44       		.byte	68
 4244 0462 44       		.byte	68
 4245 0463 38       		.byte	56
 4246 0464 44       		.byte	68
 4247 0465 FC       		.byte	-4
 4248 0466 4A       		.byte	74
 4249 0467 4A       		.byte	74
ARM GAS  C:\Users\username\AppData\Local\Temp\ccSuCzK2.s 			page 87


 4250 0468 4A       		.byte	74
 4251 0469 34       		.byte	52
 4252 046a 7E       		.byte	126
 4253 046b 02       		.byte	2
 4254 046c 02       		.byte	2
 4255 046d 06       		.byte	6
 4256 046e 06       		.byte	6
 4257 046f 02       		.byte	2
 4258 0470 7E       		.byte	126
 4259 0471 02       		.byte	2
 4260 0472 7E       		.byte	126
 4261 0473 02       		.byte	2
 4262 0474 63       		.byte	99
 4263 0475 55       		.byte	85
 4264 0476 49       		.byte	73
 4265 0477 41       		.byte	65
 4266 0478 63       		.byte	99
 4267 0479 38       		.byte	56
 4268 047a 44       		.byte	68
 4269 047b 44       		.byte	68
 4270 047c 3C       		.byte	60
 4271 047d 04       		.byte	4
 4272 047e 40       		.byte	64
 4273 047f 7E       		.byte	126
 4274 0480 20       		.byte	32
 4275 0481 1E       		.byte	30
 4276 0482 20       		.byte	32
 4277 0483 06       		.byte	6
 4278 0484 02       		.byte	2
 4279 0485 7E       		.byte	126
 4280 0486 02       		.byte	2
 4281 0487 02       		.byte	2
 4282 0488 99       		.byte	-103
 4283 0489 A5       		.byte	-91
 4284 048a E7       		.byte	-25
 4285 048b A5       		.byte	-91
 4286 048c 99       		.byte	-103
 4287 048d 1C       		.byte	28
 4288 048e 2A       		.byte	42
 4289 048f 49       		.byte	73
 4290 0490 2A       		.byte	42
 4291 0491 1C       		.byte	28
 4292 0492 4C       		.byte	76
 4293 0493 72       		.byte	114
 4294 0494 01       		.byte	1
 4295 0495 72       		.byte	114
 4296 0496 4C       		.byte	76
 4297 0497 30       		.byte	48
 4298 0498 4A       		.byte	74
 4299 0499 4D       		.byte	77
 4300 049a 4D       		.byte	77
 4301 049b 30       		.byte	48
 4302 049c 30       		.byte	48
 4303 049d 48       		.byte	72
 4304 049e 78       		.byte	120
 4305 049f 48       		.byte	72
 4306 04a0 30       		.byte	48
ARM GAS  C:\Users\username\AppData\Local\Temp\ccSuCzK2.s 			page 88


 4307 04a1 BC       		.byte	-68
 4308 04a2 62       		.byte	98
 4309 04a3 5A       		.byte	90
 4310 04a4 46       		.byte	70
 4311 04a5 3D       		.byte	61
 4312 04a6 3E       		.byte	62
 4313 04a7 49       		.byte	73
 4314 04a8 49       		.byte	73
 4315 04a9 49       		.byte	73
 4316 04aa 00       		.byte	0
 4317 04ab 7E       		.byte	126
 4318 04ac 01       		.byte	1
 4319 04ad 01       		.byte	1
 4320 04ae 01       		.byte	1
 4321 04af 7E       		.byte	126
 4322 04b0 2A       		.byte	42
 4323 04b1 2A       		.byte	42
 4324 04b2 2A       		.byte	42
 4325 04b3 2A       		.byte	42
 4326 04b4 2A       		.byte	42
 4327 04b5 44       		.byte	68
 4328 04b6 44       		.byte	68
 4329 04b7 5F       		.byte	95
 4330 04b8 44       		.byte	68
 4331 04b9 44       		.byte	68
 4332 04ba 40       		.byte	64
 4333 04bb 51       		.byte	81
 4334 04bc 4A       		.byte	74
 4335 04bd 44       		.byte	68
 4336 04be 40       		.byte	64
 4337 04bf 40       		.byte	64
 4338 04c0 44       		.byte	68
 4339 04c1 4A       		.byte	74
 4340 04c2 51       		.byte	81
 4341 04c3 40       		.byte	64
 4342 04c4 00       		.byte	0
 4343 04c5 00       		.byte	0
 4344 04c6 FF       		.byte	-1
 4345 04c7 01       		.byte	1
 4346 04c8 03       		.byte	3
 4347 04c9 E0       		.byte	-32
 4348 04ca 80       		.byte	-128
 4349 04cb FF       		.byte	-1
 4350 04cc 00       		.byte	0
 4351 04cd 00       		.byte	0
 4352 04ce 08       		.byte	8
 4353 04cf 08       		.byte	8
 4354 04d0 6B       		.byte	107
 4355 04d1 6B       		.byte	107
 4356 04d2 08       		.byte	8
 4357 04d3 36       		.byte	54
 4358 04d4 12       		.byte	18
 4359 04d5 36       		.byte	54
 4360 04d6 24       		.byte	36
 4361 04d7 36       		.byte	54
 4362 04d8 06       		.byte	6
 4363 04d9 0F       		.byte	15
ARM GAS  C:\Users\username\AppData\Local\Temp\ccSuCzK2.s 			page 89


 4364 04da 09       		.byte	9
 4365 04db 0F       		.byte	15
 4366 04dc 06       		.byte	6
 4367 04dd 00       		.byte	0
 4368 04de 00       		.byte	0
 4369 04df 18       		.byte	24
 4370 04e0 18       		.byte	24
 4371 04e1 00       		.byte	0
 4372 04e2 00       		.byte	0
 4373 04e3 00       		.byte	0
 4374 04e4 10       		.byte	16
 4375 04e5 10       		.byte	16
 4376 04e6 00       		.byte	0
 4377 04e7 30       		.byte	48
 4378 04e8 40       		.byte	64
 4379 04e9 FF       		.byte	-1
 4380 04ea 01       		.byte	1
 4381 04eb 01       		.byte	1
 4382 04ec 00       		.byte	0
 4383 04ed 1F       		.byte	31
 4384 04ee 01       		.byte	1
 4385 04ef 01       		.byte	1
 4386 04f0 1E       		.byte	30
 4387 04f1 00       		.byte	0
 4388 04f2 19       		.byte	25
 4389 04f3 1D       		.byte	29
 4390 04f4 17       		.byte	23
 4391 04f5 12       		.byte	18
 4392 04f6 00       		.byte	0
 4393 04f7 3C       		.byte	60
 4394 04f8 3C       		.byte	60
 4395 04f9 3C       		.byte	60
 4396 04fa 3C       		.byte	60
 4397 04fb 00       		.byte	0
 4398 04fc 00       		.byte	0
 4399 04fd 00       		.byte	0
 4400 04fe 00       		.byte	0
 4401 04ff 00       		.byte	0
 4402              		.text
 4403              	.Letext0:
 4404              		.file 2 "c:\\program files (x86)\\cypress\\psoc creator\\3.3\\psoc creator\\import\\gnu\\arm\\4.9.
 4405              		.file 3 "c:\\program files (x86)\\cypress\\psoc creator\\3.3\\psoc creator\\import\\gnu\\arm\\4.9.
 4406              		.file 4 "c:\\program files (x86)\\cypress\\psoc creator\\3.3\\psoc creator\\import\\gnu\\arm\\4.9.
 4407              		.file 5 ".\\glcdfont.c"
 4408              		.file 6 ".\\GFXmaster.h"
 4409              		.file 7 ".\\SSD1306.h"
 4410              		.file 8 "c:\\program files (x86)\\cypress\\psoc creator\\3.3\\psoc creator\\import\\gnu\\arm\\4.9.