ARM GAS  C:\Users\username\AppData\Local\Temp\cc0FlDXj.s 			page 1


   1              		.cpu cortex-m0
   2              		.fpu softvfp
   3              		.eabi_attribute 20, 1
   4              		.eabi_attribute 21, 1
   5              		.eabi_attribute 23, 3
   6              		.eabi_attribute 24, 1
   7              		.eabi_attribute 25, 1
   8              		.eabi_attribute 26, 1
   9              		.eabi_attribute 30, 1
  10              		.eabi_attribute 34, 0
  11              		.eabi_attribute 18, 4
  12              		.code	16
  13              		.file	"I2C_bus_I2C_MASTER.c"
  14              		.text
  15              	.Ltext0:
  16              		.cfi_sections	.debug_frame
  17              		.section	.text.I2C_bus_I2CMasterSendStart,"ax",%progbits
  18              		.align	2
  19              		.global	I2C_bus_I2CMasterSendStart
  20              		.code	16
  21              		.thumb_func
  22              		.type	I2C_bus_I2CMasterSendStart, %function
  23              	I2C_bus_I2CMasterSendStart:
  24              	.LFB4:
  25              		.file 1 ".\\Generated_Source\\PSoC4\\I2C_bus_I2C_MASTER.c"
   1:.\Generated_Source\PSoC4/I2C_bus_I2C_MASTER.c **** /*******************************************************************************
   2:.\Generated_Source\PSoC4/I2C_bus_I2C_MASTER.c **** * File Name: I2C_bus_I2C_MASTER.c
   3:.\Generated_Source\PSoC4/I2C_bus_I2C_MASTER.c **** * Version 3.0
   4:.\Generated_Source\PSoC4/I2C_bus_I2C_MASTER.c **** *
   5:.\Generated_Source\PSoC4/I2C_bus_I2C_MASTER.c **** * Description:
   6:.\Generated_Source\PSoC4/I2C_bus_I2C_MASTER.c **** *  This file provides the source code to the API for the SCB Component in
   7:.\Generated_Source\PSoC4/I2C_bus_I2C_MASTER.c **** *  I2C Master mode.
   8:.\Generated_Source\PSoC4/I2C_bus_I2C_MASTER.c **** *
   9:.\Generated_Source\PSoC4/I2C_bus_I2C_MASTER.c **** * Note:
  10:.\Generated_Source\PSoC4/I2C_bus_I2C_MASTER.c **** *
  11:.\Generated_Source\PSoC4/I2C_bus_I2C_MASTER.c **** *******************************************************************************
  12:.\Generated_Source\PSoC4/I2C_bus_I2C_MASTER.c **** * Copyright 2013-2015, Cypress Semiconductor Corporation.  All rights reserved.
  13:.\Generated_Source\PSoC4/I2C_bus_I2C_MASTER.c **** * You may use this file only in accordance with the license, terms, conditions,
  14:.\Generated_Source\PSoC4/I2C_bus_I2C_MASTER.c **** * disclaimers, and limitations in the end user license agreement accompanying
  15:.\Generated_Source\PSoC4/I2C_bus_I2C_MASTER.c **** * the software package with which this file was provided.
  16:.\Generated_Source\PSoC4/I2C_bus_I2C_MASTER.c **** *******************************************************************************/
  17:.\Generated_Source\PSoC4/I2C_bus_I2C_MASTER.c **** 
  18:.\Generated_Source\PSoC4/I2C_bus_I2C_MASTER.c **** #include "I2C_bus_PVT.h"
  19:.\Generated_Source\PSoC4/I2C_bus_I2C_MASTER.c **** #include "I2C_bus_I2C_PVT.h"
  20:.\Generated_Source\PSoC4/I2C_bus_I2C_MASTER.c **** 
  21:.\Generated_Source\PSoC4/I2C_bus_I2C_MASTER.c **** #if(I2C_bus_I2C_MASTER_CONST)
  22:.\Generated_Source\PSoC4/I2C_bus_I2C_MASTER.c **** 
  23:.\Generated_Source\PSoC4/I2C_bus_I2C_MASTER.c **** /***************************************
  24:.\Generated_Source\PSoC4/I2C_bus_I2C_MASTER.c **** *      I2C Master Private Vars
  25:.\Generated_Source\PSoC4/I2C_bus_I2C_MASTER.c **** ***************************************/
  26:.\Generated_Source\PSoC4/I2C_bus_I2C_MASTER.c **** 
  27:.\Generated_Source\PSoC4/I2C_bus_I2C_MASTER.c **** /* Master variables */
  28:.\Generated_Source\PSoC4/I2C_bus_I2C_MASTER.c **** volatile uint16 I2C_bus_mstrStatus;      /* Master Status byte  */
  29:.\Generated_Source\PSoC4/I2C_bus_I2C_MASTER.c **** volatile uint8  I2C_bus_mstrControl;     /* Master Control byte */
  30:.\Generated_Source\PSoC4/I2C_bus_I2C_MASTER.c **** 
  31:.\Generated_Source\PSoC4/I2C_bus_I2C_MASTER.c **** /* Receive buffer variables */
  32:.\Generated_Source\PSoC4/I2C_bus_I2C_MASTER.c **** volatile uint8 * I2C_bus_mstrRdBufPtr;   /* Pointer to Master Read buffer */
ARM GAS  C:\Users\username\AppData\Local\Temp\cc0FlDXj.s 			page 2


  33:.\Generated_Source\PSoC4/I2C_bus_I2C_MASTER.c **** volatile uint32  I2C_bus_mstrRdBufSize;  /* Master Read buffer size       */
  34:.\Generated_Source\PSoC4/I2C_bus_I2C_MASTER.c **** volatile uint32  I2C_bus_mstrRdBufIndex; /* Master Read buffer Index      */
  35:.\Generated_Source\PSoC4/I2C_bus_I2C_MASTER.c **** 
  36:.\Generated_Source\PSoC4/I2C_bus_I2C_MASTER.c **** /* Transmit buffer variables */
  37:.\Generated_Source\PSoC4/I2C_bus_I2C_MASTER.c **** volatile uint8 * I2C_bus_mstrWrBufPtr;   /* Pointer to Master Write buffer */
  38:.\Generated_Source\PSoC4/I2C_bus_I2C_MASTER.c **** volatile uint32  I2C_bus_mstrWrBufSize;  /* Master Write buffer size       */
  39:.\Generated_Source\PSoC4/I2C_bus_I2C_MASTER.c **** volatile uint32  I2C_bus_mstrWrBufIndex; /* Master Write buffer Index      */
  40:.\Generated_Source\PSoC4/I2C_bus_I2C_MASTER.c **** volatile uint32  I2C_bus_mstrWrBufIndexTmp; /* Master Write buffer Index Tmp */
  41:.\Generated_Source\PSoC4/I2C_bus_I2C_MASTER.c **** 
  42:.\Generated_Source\PSoC4/I2C_bus_I2C_MASTER.c **** #if (!I2C_bus_CY_SCBIP_V0 && \
  43:.\Generated_Source\PSoC4/I2C_bus_I2C_MASTER.c ****     I2C_bus_I2C_MULTI_MASTER_SLAVE_CONST && I2C_bus_I2C_WAKE_ENABLE_CONST)
  44:.\Generated_Source\PSoC4/I2C_bus_I2C_MASTER.c ****     static void I2C_bus_I2CMasterDisableEcAm(void);
  45:.\Generated_Source\PSoC4/I2C_bus_I2C_MASTER.c **** #endif /* (!I2C_bus_CY_SCBIP_V0) */
  46:.\Generated_Source\PSoC4/I2C_bus_I2C_MASTER.c **** 
  47:.\Generated_Source\PSoC4/I2C_bus_I2C_MASTER.c **** 
  48:.\Generated_Source\PSoC4/I2C_bus_I2C_MASTER.c **** /*******************************************************************************
  49:.\Generated_Source\PSoC4/I2C_bus_I2C_MASTER.c **** * Function Name: I2C_bus_I2CMasterWriteBuf
  50:.\Generated_Source\PSoC4/I2C_bus_I2C_MASTER.c **** ********************************************************************************
  51:.\Generated_Source\PSoC4/I2C_bus_I2C_MASTER.c **** *
  52:.\Generated_Source\PSoC4/I2C_bus_I2C_MASTER.c **** * Summary:
  53:.\Generated_Source\PSoC4/I2C_bus_I2C_MASTER.c **** * Automatically writes an entire buffer of data to a slave device.
  54:.\Generated_Source\PSoC4/I2C_bus_I2C_MASTER.c **** * Once the data transfer is initiated by this function, further data transfer
  55:.\Generated_Source\PSoC4/I2C_bus_I2C_MASTER.c **** * is handled by the included ISR.
  56:.\Generated_Source\PSoC4/I2C_bus_I2C_MASTER.c **** * Enables the I2C interrupt and clears SCB_ I2C_MSTAT_WR_CMPLT status.
  57:.\Generated_Source\PSoC4/I2C_bus_I2C_MASTER.c **** *
  58:.\Generated_Source\PSoC4/I2C_bus_I2C_MASTER.c **** * Parameters:
  59:.\Generated_Source\PSoC4/I2C_bus_I2C_MASTER.c **** *  slaveAddr: 7-bit slave address.
  60:.\Generated_Source\PSoC4/I2C_bus_I2C_MASTER.c **** *  xferData:  Pointer to buffer of data to be sent.
  61:.\Generated_Source\PSoC4/I2C_bus_I2C_MASTER.c **** *  cnt:       Size of buffer to send.
  62:.\Generated_Source\PSoC4/I2C_bus_I2C_MASTER.c **** *  mode:      Transfer mode defines: start or restart condition generation at
  63:.\Generated_Source\PSoC4/I2C_bus_I2C_MASTER.c **** *             begin of the transfer and complete the transfer or halt before
  64:.\Generated_Source\PSoC4/I2C_bus_I2C_MASTER.c **** *             generating a stop.
  65:.\Generated_Source\PSoC4/I2C_bus_I2C_MASTER.c **** *
  66:.\Generated_Source\PSoC4/I2C_bus_I2C_MASTER.c **** * Return:
  67:.\Generated_Source\PSoC4/I2C_bus_I2C_MASTER.c **** *  Error status.
  68:.\Generated_Source\PSoC4/I2C_bus_I2C_MASTER.c **** *
  69:.\Generated_Source\PSoC4/I2C_bus_I2C_MASTER.c **** * Global variables:
  70:.\Generated_Source\PSoC4/I2C_bus_I2C_MASTER.c **** *  I2C_bus_mstrStatus  - used to store current status of I2C Master.
  71:.\Generated_Source\PSoC4/I2C_bus_I2C_MASTER.c **** *  I2C_bus_state       - used to store current state of software FSM.
  72:.\Generated_Source\PSoC4/I2C_bus_I2C_MASTER.c **** *  I2C_bus_mstrControl - used to control master end of transaction with
  73:.\Generated_Source\PSoC4/I2C_bus_I2C_MASTER.c **** *  or without the Stop generation.
  74:.\Generated_Source\PSoC4/I2C_bus_I2C_MASTER.c **** *  I2C_bus_mstrWrBufPtr - used to store pointer to master write buffer.
  75:.\Generated_Source\PSoC4/I2C_bus_I2C_MASTER.c **** *  I2C_bus_mstrWrBufIndex - used to current index within master write
  76:.\Generated_Source\PSoC4/I2C_bus_I2C_MASTER.c **** *  buffer.
  77:.\Generated_Source\PSoC4/I2C_bus_I2C_MASTER.c **** *  I2C_bus_mstrWrBufSize - used to store master write buffer size.
  78:.\Generated_Source\PSoC4/I2C_bus_I2C_MASTER.c **** *
  79:.\Generated_Source\PSoC4/I2C_bus_I2C_MASTER.c **** *******************************************************************************/
  80:.\Generated_Source\PSoC4/I2C_bus_I2C_MASTER.c **** uint32 I2C_bus_I2CMasterWriteBuf(uint32 slaveAddress, uint8 * wrData, uint32 cnt, uint32 mode)
  81:.\Generated_Source\PSoC4/I2C_bus_I2C_MASTER.c **** {
  82:.\Generated_Source\PSoC4/I2C_bus_I2C_MASTER.c ****     uint32 errStatus;
  83:.\Generated_Source\PSoC4/I2C_bus_I2C_MASTER.c **** 
  84:.\Generated_Source\PSoC4/I2C_bus_I2C_MASTER.c ****     errStatus = I2C_bus_I2C_MSTR_NOT_READY;
  85:.\Generated_Source\PSoC4/I2C_bus_I2C_MASTER.c **** 
  86:.\Generated_Source\PSoC4/I2C_bus_I2C_MASTER.c ****     if(NULL != wrData)  /* Check buffer pointer */
  87:.\Generated_Source\PSoC4/I2C_bus_I2C_MASTER.c ****     {
  88:.\Generated_Source\PSoC4/I2C_bus_I2C_MASTER.c ****         /* Check FSM state and bus before generating Start/ReStart condition */
  89:.\Generated_Source\PSoC4/I2C_bus_I2C_MASTER.c ****         if(I2C_bus_CHECK_I2C_FSM_IDLE)
ARM GAS  C:\Users\username\AppData\Local\Temp\cc0FlDXj.s 			page 3


  90:.\Generated_Source\PSoC4/I2C_bus_I2C_MASTER.c ****         {
  91:.\Generated_Source\PSoC4/I2C_bus_I2C_MASTER.c ****             I2C_bus_DisableInt();  /* Lock from interruption */
  92:.\Generated_Source\PSoC4/I2C_bus_I2C_MASTER.c **** 
  93:.\Generated_Source\PSoC4/I2C_bus_I2C_MASTER.c ****             /* Check bus state */
  94:.\Generated_Source\PSoC4/I2C_bus_I2C_MASTER.c ****             errStatus = I2C_bus_CHECK_I2C_STATUS(I2C_bus_I2C_STATUS_BUS_BUSY) ?
  95:.\Generated_Source\PSoC4/I2C_bus_I2C_MASTER.c ****                             I2C_bus_I2C_MSTR_BUS_BUSY : I2C_bus_I2C_MSTR_NO_ERROR;
  96:.\Generated_Source\PSoC4/I2C_bus_I2C_MASTER.c ****         }
  97:.\Generated_Source\PSoC4/I2C_bus_I2C_MASTER.c ****         else if(I2C_bus_CHECK_I2C_FSM_HALT)
  98:.\Generated_Source\PSoC4/I2C_bus_I2C_MASTER.c ****         {
  99:.\Generated_Source\PSoC4/I2C_bus_I2C_MASTER.c ****             I2C_bus_mstrStatus &= (uint16) ~I2C_bus_I2C_MSTAT_XFER_HALT;
 100:.\Generated_Source\PSoC4/I2C_bus_I2C_MASTER.c ****                               errStatus  = I2C_bus_I2C_MSTR_NO_ERROR;
 101:.\Generated_Source\PSoC4/I2C_bus_I2C_MASTER.c ****         }
 102:.\Generated_Source\PSoC4/I2C_bus_I2C_MASTER.c ****         else
 103:.\Generated_Source\PSoC4/I2C_bus_I2C_MASTER.c ****         {
 104:.\Generated_Source\PSoC4/I2C_bus_I2C_MASTER.c ****             /* Unexpected FSM state: exit */
 105:.\Generated_Source\PSoC4/I2C_bus_I2C_MASTER.c ****         }
 106:.\Generated_Source\PSoC4/I2C_bus_I2C_MASTER.c ****     }
 107:.\Generated_Source\PSoC4/I2C_bus_I2C_MASTER.c **** 
 108:.\Generated_Source\PSoC4/I2C_bus_I2C_MASTER.c ****     /* Check if master is ready to start  */
 109:.\Generated_Source\PSoC4/I2C_bus_I2C_MASTER.c ****     if(I2C_bus_I2C_MSTR_NO_ERROR == errStatus) /* No error proceed */
 110:.\Generated_Source\PSoC4/I2C_bus_I2C_MASTER.c ****     {
 111:.\Generated_Source\PSoC4/I2C_bus_I2C_MASTER.c ****     #if (!I2C_bus_CY_SCBIP_V0 && \
 112:.\Generated_Source\PSoC4/I2C_bus_I2C_MASTER.c ****         I2C_bus_I2C_MULTI_MASTER_SLAVE_CONST && I2C_bus_I2C_WAKE_ENABLE_CONST)
 113:.\Generated_Source\PSoC4/I2C_bus_I2C_MASTER.c ****             I2C_bus_I2CMasterDisableEcAm();
 114:.\Generated_Source\PSoC4/I2C_bus_I2C_MASTER.c ****     #endif /* (!I2C_bus_CY_SCBIP_V0) */
 115:.\Generated_Source\PSoC4/I2C_bus_I2C_MASTER.c **** 
 116:.\Generated_Source\PSoC4/I2C_bus_I2C_MASTER.c ****         /* Set up write transaction */
 117:.\Generated_Source\PSoC4/I2C_bus_I2C_MASTER.c ****         I2C_bus_state = I2C_bus_I2C_FSM_MSTR_WR_ADDR;
 118:.\Generated_Source\PSoC4/I2C_bus_I2C_MASTER.c ****         I2C_bus_mstrWrBufIndexTmp = 0u;
 119:.\Generated_Source\PSoC4/I2C_bus_I2C_MASTER.c ****         I2C_bus_mstrWrBufIndex    = 0u;
 120:.\Generated_Source\PSoC4/I2C_bus_I2C_MASTER.c ****         I2C_bus_mstrWrBufSize     = cnt;
 121:.\Generated_Source\PSoC4/I2C_bus_I2C_MASTER.c ****         I2C_bus_mstrWrBufPtr      = (volatile uint8 *) wrData;
 122:.\Generated_Source\PSoC4/I2C_bus_I2C_MASTER.c ****         I2C_bus_mstrControl       = (uint8) mode;
 123:.\Generated_Source\PSoC4/I2C_bus_I2C_MASTER.c **** 
 124:.\Generated_Source\PSoC4/I2C_bus_I2C_MASTER.c ****         slaveAddress = I2C_bus_GET_I2C_8BIT_ADDRESS(slaveAddress);
 125:.\Generated_Source\PSoC4/I2C_bus_I2C_MASTER.c **** 
 126:.\Generated_Source\PSoC4/I2C_bus_I2C_MASTER.c ****         I2C_bus_mstrStatus &= (uint16) ~I2C_bus_I2C_MSTAT_WR_CMPLT;
 127:.\Generated_Source\PSoC4/I2C_bus_I2C_MASTER.c **** 
 128:.\Generated_Source\PSoC4/I2C_bus_I2C_MASTER.c ****         I2C_bus_ClearMasterInterruptSource(I2C_bus_INTR_MASTER_ALL);
 129:.\Generated_Source\PSoC4/I2C_bus_I2C_MASTER.c ****         I2C_bus_ClearTxInterruptSource(I2C_bus_INTR_TX_UNDERFLOW);
 130:.\Generated_Source\PSoC4/I2C_bus_I2C_MASTER.c **** 
 131:.\Generated_Source\PSoC4/I2C_bus_I2C_MASTER.c ****         /* The TX and RX FIFO have to be EMPTY */
 132:.\Generated_Source\PSoC4/I2C_bus_I2C_MASTER.c **** 
 133:.\Generated_Source\PSoC4/I2C_bus_I2C_MASTER.c ****         /* Enable interrupt source to catch when address is sent */
 134:.\Generated_Source\PSoC4/I2C_bus_I2C_MASTER.c ****         I2C_bus_SetTxInterruptMode(I2C_bus_INTR_TX_UNDERFLOW);
 135:.\Generated_Source\PSoC4/I2C_bus_I2C_MASTER.c **** 
 136:.\Generated_Source\PSoC4/I2C_bus_I2C_MASTER.c ****         /* Generate Start or ReStart */
 137:.\Generated_Source\PSoC4/I2C_bus_I2C_MASTER.c ****         if(I2C_bus_CHECK_I2C_MODE_RESTART(mode))
 138:.\Generated_Source\PSoC4/I2C_bus_I2C_MASTER.c ****         {
 139:.\Generated_Source\PSoC4/I2C_bus_I2C_MASTER.c ****             I2C_bus_I2C_MASTER_GENERATE_RESTART;
 140:.\Generated_Source\PSoC4/I2C_bus_I2C_MASTER.c ****             I2C_bus_TX_FIFO_WR_REG = slaveAddress;
 141:.\Generated_Source\PSoC4/I2C_bus_I2C_MASTER.c ****         }
 142:.\Generated_Source\PSoC4/I2C_bus_I2C_MASTER.c ****         else
 143:.\Generated_Source\PSoC4/I2C_bus_I2C_MASTER.c ****         {
 144:.\Generated_Source\PSoC4/I2C_bus_I2C_MASTER.c ****             I2C_bus_TX_FIFO_WR_REG = slaveAddress;
 145:.\Generated_Source\PSoC4/I2C_bus_I2C_MASTER.c ****             I2C_bus_I2C_MASTER_GENERATE_START;
 146:.\Generated_Source\PSoC4/I2C_bus_I2C_MASTER.c ****         }
ARM GAS  C:\Users\username\AppData\Local\Temp\cc0FlDXj.s 			page 4


 147:.\Generated_Source\PSoC4/I2C_bus_I2C_MASTER.c ****     }
 148:.\Generated_Source\PSoC4/I2C_bus_I2C_MASTER.c **** 
 149:.\Generated_Source\PSoC4/I2C_bus_I2C_MASTER.c ****     I2C_bus_EnableInt();   /* Release lock */
 150:.\Generated_Source\PSoC4/I2C_bus_I2C_MASTER.c **** 
 151:.\Generated_Source\PSoC4/I2C_bus_I2C_MASTER.c ****     return(errStatus);
 152:.\Generated_Source\PSoC4/I2C_bus_I2C_MASTER.c **** }
 153:.\Generated_Source\PSoC4/I2C_bus_I2C_MASTER.c **** 
 154:.\Generated_Source\PSoC4/I2C_bus_I2C_MASTER.c **** 
 155:.\Generated_Source\PSoC4/I2C_bus_I2C_MASTER.c **** /*******************************************************************************
 156:.\Generated_Source\PSoC4/I2C_bus_I2C_MASTER.c **** * Function Name: I2C_bus_I2CMasterReadBuf
 157:.\Generated_Source\PSoC4/I2C_bus_I2C_MASTER.c **** ********************************************************************************
 158:.\Generated_Source\PSoC4/I2C_bus_I2C_MASTER.c **** *
 159:.\Generated_Source\PSoC4/I2C_bus_I2C_MASTER.c **** * Summary:
 160:.\Generated_Source\PSoC4/I2C_bus_I2C_MASTER.c **** *  Automatically reads an entire buffer of data from a slave device.
 161:.\Generated_Source\PSoC4/I2C_bus_I2C_MASTER.c **** *  Once the data transfer is initiated by this function, further data transfer
 162:.\Generated_Source\PSoC4/I2C_bus_I2C_MASTER.c **** *  is handled by the included ISR.
 163:.\Generated_Source\PSoC4/I2C_bus_I2C_MASTER.c **** * Enables the I2C interrupt and clears SCB_ I2C_MSTAT_RD_CMPLT status.
 164:.\Generated_Source\PSoC4/I2C_bus_I2C_MASTER.c **** *
 165:.\Generated_Source\PSoC4/I2C_bus_I2C_MASTER.c **** * Parameters:
 166:.\Generated_Source\PSoC4/I2C_bus_I2C_MASTER.c **** *  slaveAddr: 7-bit slave address.
 167:.\Generated_Source\PSoC4/I2C_bus_I2C_MASTER.c **** *  xferData:  Pointer to buffer where to put data from slave.
 168:.\Generated_Source\PSoC4/I2C_bus_I2C_MASTER.c **** *  cnt:       Size of buffer to read.
 169:.\Generated_Source\PSoC4/I2C_bus_I2C_MASTER.c **** *  mode:      Transfer mode defines: start or restart condition generation at
 170:.\Generated_Source\PSoC4/I2C_bus_I2C_MASTER.c **** *             begin of the transfer and complete the transfer or halt before
 171:.\Generated_Source\PSoC4/I2C_bus_I2C_MASTER.c **** *             generating a stop.
 172:.\Generated_Source\PSoC4/I2C_bus_I2C_MASTER.c **** *
 173:.\Generated_Source\PSoC4/I2C_bus_I2C_MASTER.c **** * Return:
 174:.\Generated_Source\PSoC4/I2C_bus_I2C_MASTER.c **** *  Error status.
 175:.\Generated_Source\PSoC4/I2C_bus_I2C_MASTER.c **** *
 176:.\Generated_Source\PSoC4/I2C_bus_I2C_MASTER.c **** * Global variables:
 177:.\Generated_Source\PSoC4/I2C_bus_I2C_MASTER.c **** *  I2C_bus_mstrStatus  - used to store current status of I2C Master.
 178:.\Generated_Source\PSoC4/I2C_bus_I2C_MASTER.c **** *  I2C_bus_state       - used to store current state of software FSM.
 179:.\Generated_Source\PSoC4/I2C_bus_I2C_MASTER.c **** *  I2C_bus_mstrControl - used to control master end of transaction with
 180:.\Generated_Source\PSoC4/I2C_bus_I2C_MASTER.c **** *  or without the Stop generation.
 181:.\Generated_Source\PSoC4/I2C_bus_I2C_MASTER.c **** *  I2C_bus_mstrRdBufPtr - used to store pointer to master write buffer.
 182:.\Generated_Source\PSoC4/I2C_bus_I2C_MASTER.c **** *  I2C_bus_mstrRdBufIndex - used to current index within master write
 183:.\Generated_Source\PSoC4/I2C_bus_I2C_MASTER.c **** *  buffer.
 184:.\Generated_Source\PSoC4/I2C_bus_I2C_MASTER.c **** *  I2C_bus_mstrRdBufSize - used to store master write buffer size.
 185:.\Generated_Source\PSoC4/I2C_bus_I2C_MASTER.c **** *
 186:.\Generated_Source\PSoC4/I2C_bus_I2C_MASTER.c **** *******************************************************************************/
 187:.\Generated_Source\PSoC4/I2C_bus_I2C_MASTER.c **** uint32 I2C_bus_I2CMasterReadBuf(uint32 slaveAddress, uint8 * rdData, uint32 cnt, uint32 mode)
 188:.\Generated_Source\PSoC4/I2C_bus_I2C_MASTER.c **** {
 189:.\Generated_Source\PSoC4/I2C_bus_I2C_MASTER.c ****     uint32 errStatus;
 190:.\Generated_Source\PSoC4/I2C_bus_I2C_MASTER.c **** 
 191:.\Generated_Source\PSoC4/I2C_bus_I2C_MASTER.c ****     errStatus = I2C_bus_I2C_MSTR_NOT_READY;
 192:.\Generated_Source\PSoC4/I2C_bus_I2C_MASTER.c **** 
 193:.\Generated_Source\PSoC4/I2C_bus_I2C_MASTER.c ****     if(NULL != rdData)
 194:.\Generated_Source\PSoC4/I2C_bus_I2C_MASTER.c ****     {
 195:.\Generated_Source\PSoC4/I2C_bus_I2C_MASTER.c ****         /* Check FSM state and bus before generating Start/ReStart condition */
 196:.\Generated_Source\PSoC4/I2C_bus_I2C_MASTER.c ****         if(I2C_bus_CHECK_I2C_FSM_IDLE)
 197:.\Generated_Source\PSoC4/I2C_bus_I2C_MASTER.c ****         {
 198:.\Generated_Source\PSoC4/I2C_bus_I2C_MASTER.c ****             I2C_bus_DisableInt();  /* Lock from interruption */
 199:.\Generated_Source\PSoC4/I2C_bus_I2C_MASTER.c **** 
 200:.\Generated_Source\PSoC4/I2C_bus_I2C_MASTER.c ****             /* Check bus state */
 201:.\Generated_Source\PSoC4/I2C_bus_I2C_MASTER.c ****             errStatus = I2C_bus_CHECK_I2C_STATUS(I2C_bus_I2C_STATUS_BUS_BUSY) ?
 202:.\Generated_Source\PSoC4/I2C_bus_I2C_MASTER.c ****                             I2C_bus_I2C_MSTR_BUS_BUSY : I2C_bus_I2C_MSTR_NO_ERROR;
 203:.\Generated_Source\PSoC4/I2C_bus_I2C_MASTER.c ****         }
ARM GAS  C:\Users\username\AppData\Local\Temp\cc0FlDXj.s 			page 5


 204:.\Generated_Source\PSoC4/I2C_bus_I2C_MASTER.c ****         else if(I2C_bus_CHECK_I2C_FSM_HALT)
 205:.\Generated_Source\PSoC4/I2C_bus_I2C_MASTER.c ****         {
 206:.\Generated_Source\PSoC4/I2C_bus_I2C_MASTER.c ****             I2C_bus_mstrStatus &= (uint16) ~I2C_bus_I2C_MSTAT_XFER_HALT;
 207:.\Generated_Source\PSoC4/I2C_bus_I2C_MASTER.c ****                               errStatus  =  I2C_bus_I2C_MSTR_NO_ERROR;
 208:.\Generated_Source\PSoC4/I2C_bus_I2C_MASTER.c ****         }
 209:.\Generated_Source\PSoC4/I2C_bus_I2C_MASTER.c ****         else
 210:.\Generated_Source\PSoC4/I2C_bus_I2C_MASTER.c ****         {
 211:.\Generated_Source\PSoC4/I2C_bus_I2C_MASTER.c ****             /* Unexpected FSM state: exit */
 212:.\Generated_Source\PSoC4/I2C_bus_I2C_MASTER.c ****         }
 213:.\Generated_Source\PSoC4/I2C_bus_I2C_MASTER.c ****     }
 214:.\Generated_Source\PSoC4/I2C_bus_I2C_MASTER.c **** 
 215:.\Generated_Source\PSoC4/I2C_bus_I2C_MASTER.c ****     /* Check master ready to proceed */
 216:.\Generated_Source\PSoC4/I2C_bus_I2C_MASTER.c ****     if(I2C_bus_I2C_MSTR_NO_ERROR == errStatus) /* No error proceed */
 217:.\Generated_Source\PSoC4/I2C_bus_I2C_MASTER.c ****     {
 218:.\Generated_Source\PSoC4/I2C_bus_I2C_MASTER.c ****         #if (!I2C_bus_CY_SCBIP_V0 && \
 219:.\Generated_Source\PSoC4/I2C_bus_I2C_MASTER.c ****         I2C_bus_I2C_MULTI_MASTER_SLAVE_CONST && I2C_bus_I2C_WAKE_ENABLE_CONST)
 220:.\Generated_Source\PSoC4/I2C_bus_I2C_MASTER.c ****             I2C_bus_I2CMasterDisableEcAm();
 221:.\Generated_Source\PSoC4/I2C_bus_I2C_MASTER.c ****         #endif /* (!I2C_bus_CY_SCBIP_V0) */
 222:.\Generated_Source\PSoC4/I2C_bus_I2C_MASTER.c **** 
 223:.\Generated_Source\PSoC4/I2C_bus_I2C_MASTER.c ****         /* Set up read transaction */
 224:.\Generated_Source\PSoC4/I2C_bus_I2C_MASTER.c ****         I2C_bus_state = I2C_bus_I2C_FSM_MSTR_RD_ADDR;
 225:.\Generated_Source\PSoC4/I2C_bus_I2C_MASTER.c ****         I2C_bus_mstrRdBufIndex = 0u;
 226:.\Generated_Source\PSoC4/I2C_bus_I2C_MASTER.c ****         I2C_bus_mstrRdBufSize  = cnt;
 227:.\Generated_Source\PSoC4/I2C_bus_I2C_MASTER.c ****         I2C_bus_mstrRdBufPtr   = (volatile uint8 *) rdData;
 228:.\Generated_Source\PSoC4/I2C_bus_I2C_MASTER.c ****         I2C_bus_mstrControl    = (uint8) mode;
 229:.\Generated_Source\PSoC4/I2C_bus_I2C_MASTER.c **** 
 230:.\Generated_Source\PSoC4/I2C_bus_I2C_MASTER.c ****         slaveAddress = (I2C_bus_GET_I2C_8BIT_ADDRESS(slaveAddress) | I2C_bus_I2C_READ_FLAG);
 231:.\Generated_Source\PSoC4/I2C_bus_I2C_MASTER.c **** 
 232:.\Generated_Source\PSoC4/I2C_bus_I2C_MASTER.c ****         I2C_bus_mstrStatus &= (uint16) ~I2C_bus_I2C_MSTAT_RD_CMPLT;
 233:.\Generated_Source\PSoC4/I2C_bus_I2C_MASTER.c **** 
 234:.\Generated_Source\PSoC4/I2C_bus_I2C_MASTER.c ****         I2C_bus_ClearMasterInterruptSource(I2C_bus_INTR_MASTER_ALL);
 235:.\Generated_Source\PSoC4/I2C_bus_I2C_MASTER.c **** 
 236:.\Generated_Source\PSoC4/I2C_bus_I2C_MASTER.c ****         /* TX and RX FIFO have to be EMPTY */
 237:.\Generated_Source\PSoC4/I2C_bus_I2C_MASTER.c **** 
 238:.\Generated_Source\PSoC4/I2C_bus_I2C_MASTER.c ****         /* Prepare reading */
 239:.\Generated_Source\PSoC4/I2C_bus_I2C_MASTER.c ****         if(I2C_bus_mstrRdBufSize < I2C_bus_I2C_FIFO_SIZE)
 240:.\Generated_Source\PSoC4/I2C_bus_I2C_MASTER.c ****         {
 241:.\Generated_Source\PSoC4/I2C_bus_I2C_MASTER.c ****             /* Reading byte-by-byte */
 242:.\Generated_Source\PSoC4/I2C_bus_I2C_MASTER.c ****             I2C_bus_SetRxInterruptMode(I2C_bus_INTR_RX_NOT_EMPTY);
 243:.\Generated_Source\PSoC4/I2C_bus_I2C_MASTER.c ****         }
 244:.\Generated_Source\PSoC4/I2C_bus_I2C_MASTER.c ****         else
 245:.\Generated_Source\PSoC4/I2C_bus_I2C_MASTER.c ****         {
 246:.\Generated_Source\PSoC4/I2C_bus_I2C_MASTER.c ****             /* Receive RX FIFO chunks */
 247:.\Generated_Source\PSoC4/I2C_bus_I2C_MASTER.c ****             I2C_bus_ENABLE_MASTER_AUTO_DATA_ACK;
 248:.\Generated_Source\PSoC4/I2C_bus_I2C_MASTER.c ****             I2C_bus_SetRxInterruptMode(I2C_bus_INTR_RX_FULL);
 249:.\Generated_Source\PSoC4/I2C_bus_I2C_MASTER.c ****         }
 250:.\Generated_Source\PSoC4/I2C_bus_I2C_MASTER.c **** 
 251:.\Generated_Source\PSoC4/I2C_bus_I2C_MASTER.c ****         /* Generate Start or ReStart */
 252:.\Generated_Source\PSoC4/I2C_bus_I2C_MASTER.c ****         if(I2C_bus_CHECK_I2C_MODE_RESTART(mode))
 253:.\Generated_Source\PSoC4/I2C_bus_I2C_MASTER.c ****         {
 254:.\Generated_Source\PSoC4/I2C_bus_I2C_MASTER.c ****             I2C_bus_I2C_MASTER_GENERATE_RESTART;
 255:.\Generated_Source\PSoC4/I2C_bus_I2C_MASTER.c ****             I2C_bus_TX_FIFO_WR_REG = (slaveAddress);
 256:.\Generated_Source\PSoC4/I2C_bus_I2C_MASTER.c ****         }
 257:.\Generated_Source\PSoC4/I2C_bus_I2C_MASTER.c ****         else
 258:.\Generated_Source\PSoC4/I2C_bus_I2C_MASTER.c ****         {
 259:.\Generated_Source\PSoC4/I2C_bus_I2C_MASTER.c ****             I2C_bus_TX_FIFO_WR_REG = (slaveAddress);
 260:.\Generated_Source\PSoC4/I2C_bus_I2C_MASTER.c ****             I2C_bus_I2C_MASTER_GENERATE_START;
ARM GAS  C:\Users\username\AppData\Local\Temp\cc0FlDXj.s 			page 6


 261:.\Generated_Source\PSoC4/I2C_bus_I2C_MASTER.c ****         }
 262:.\Generated_Source\PSoC4/I2C_bus_I2C_MASTER.c ****     }
 263:.\Generated_Source\PSoC4/I2C_bus_I2C_MASTER.c **** 
 264:.\Generated_Source\PSoC4/I2C_bus_I2C_MASTER.c ****     I2C_bus_EnableInt();   /* Release lock */
 265:.\Generated_Source\PSoC4/I2C_bus_I2C_MASTER.c **** 
 266:.\Generated_Source\PSoC4/I2C_bus_I2C_MASTER.c ****     return(errStatus);
 267:.\Generated_Source\PSoC4/I2C_bus_I2C_MASTER.c **** }
 268:.\Generated_Source\PSoC4/I2C_bus_I2C_MASTER.c **** 
 269:.\Generated_Source\PSoC4/I2C_bus_I2C_MASTER.c **** 
 270:.\Generated_Source\PSoC4/I2C_bus_I2C_MASTER.c **** /*******************************************************************************
 271:.\Generated_Source\PSoC4/I2C_bus_I2C_MASTER.c **** * Function Name: I2C_bus_I2CMasterSendStart
 272:.\Generated_Source\PSoC4/I2C_bus_I2C_MASTER.c **** ********************************************************************************
 273:.\Generated_Source\PSoC4/I2C_bus_I2C_MASTER.c **** *
 274:.\Generated_Source\PSoC4/I2C_bus_I2C_MASTER.c **** * Summary:
 275:.\Generated_Source\PSoC4/I2C_bus_I2C_MASTER.c **** *  Generates Start condition and sends slave address with read/write bit.
 276:.\Generated_Source\PSoC4/I2C_bus_I2C_MASTER.c **** *  Disables the I2C interrupt.
 277:.\Generated_Source\PSoC4/I2C_bus_I2C_MASTER.c **** *  This function is blocking and does not return until start condition and
 278:.\Generated_Source\PSoC4/I2C_bus_I2C_MASTER.c **** *  address byte are sent and ACK/NACK response is received or errors occurred.
 279:.\Generated_Source\PSoC4/I2C_bus_I2C_MASTER.c **** *
 280:.\Generated_Source\PSoC4/I2C_bus_I2C_MASTER.c **** * Parameters:
 281:.\Generated_Source\PSoC4/I2C_bus_I2C_MASTER.c **** *  slaveAddress: Right justified 7-bit Slave address (valid range 8 to 120).
 282:.\Generated_Source\PSoC4/I2C_bus_I2C_MASTER.c **** *  bitRnW:       Direction of the following transfer. It is defined by
 283:.\Generated_Source\PSoC4/I2C_bus_I2C_MASTER.c **** *                read/write bit within address byte.
 284:.\Generated_Source\PSoC4/I2C_bus_I2C_MASTER.c **** *
 285:.\Generated_Source\PSoC4/I2C_bus_I2C_MASTER.c **** * Return:
 286:.\Generated_Source\PSoC4/I2C_bus_I2C_MASTER.c **** *  Error status.
 287:.\Generated_Source\PSoC4/I2C_bus_I2C_MASTER.c **** *
 288:.\Generated_Source\PSoC4/I2C_bus_I2C_MASTER.c **** * Global variables:
 289:.\Generated_Source\PSoC4/I2C_bus_I2C_MASTER.c **** *  I2C_bus_state - used to store current state of software FSM.
 290:.\Generated_Source\PSoC4/I2C_bus_I2C_MASTER.c **** *
 291:.\Generated_Source\PSoC4/I2C_bus_I2C_MASTER.c **** *******************************************************************************/
 292:.\Generated_Source\PSoC4/I2C_bus_I2C_MASTER.c **** uint32 I2C_bus_I2CMasterSendStart(uint32 slaveAddress, uint32 bitRnW)
 293:.\Generated_Source\PSoC4/I2C_bus_I2C_MASTER.c **** {
  26              		.loc 1 293 0
  27              		.cfi_startproc
  28              	.LVL0:
  29 0000 38B5     		push	{r3, r4, r5, lr}
  30              		.cfi_def_cfa_offset 16
  31              		.cfi_offset 3, -16
  32              		.cfi_offset 4, -12
  33              		.cfi_offset 5, -8
  34              		.cfi_offset 14, -4
  35              	.LVL1:
 294:.\Generated_Source\PSoC4/I2C_bus_I2C_MASTER.c ****     uint32  resetIp;
 295:.\Generated_Source\PSoC4/I2C_bus_I2C_MASTER.c ****     uint32 errStatus;
 296:.\Generated_Source\PSoC4/I2C_bus_I2C_MASTER.c **** 
 297:.\Generated_Source\PSoC4/I2C_bus_I2C_MASTER.c ****     resetIp   = 0u;
 298:.\Generated_Source\PSoC4/I2C_bus_I2C_MASTER.c ****     errStatus = I2C_bus_I2C_MSTR_NOT_READY;
 299:.\Generated_Source\PSoC4/I2C_bus_I2C_MASTER.c **** 
 300:.\Generated_Source\PSoC4/I2C_bus_I2C_MASTER.c ****     /* Check FSM state before generating Start condition */
 301:.\Generated_Source\PSoC4/I2C_bus_I2C_MASTER.c ****     if(I2C_bus_CHECK_I2C_FSM_IDLE)
  36              		.loc 1 301 0
  37 0002 2E4B     		ldr	r3, .L12
  38 0004 1B78     		ldrb	r3, [r3]
  39 0006 102B     		cmp	r3, #16
  40 0008 53D1     		bne	.L8
 302:.\Generated_Source\PSoC4/I2C_bus_I2C_MASTER.c ****     {
ARM GAS  C:\Users\username\AppData\Local\Temp\cc0FlDXj.s 			page 7


 303:.\Generated_Source\PSoC4/I2C_bus_I2C_MASTER.c ****         /* If bus is free, generate Start condition */
 304:.\Generated_Source\PSoC4/I2C_bus_I2C_MASTER.c ****         if(I2C_bus_CHECK_I2C_STATUS(I2C_bus_I2C_STATUS_BUS_BUSY))
  41              		.loc 1 304 0
  42 000a 2D4B     		ldr	r3, .L12+4
  43 000c 1B68     		ldr	r3, [r3]
  44 000e DB07     		lsl	r3, r3, #31
  45 0010 51D4     		bmi	.L9
  46 0012 0D1C     		mov	r5, r1
  47 0014 041C     		mov	r4, r0
 305:.\Generated_Source\PSoC4/I2C_bus_I2C_MASTER.c ****         {
 306:.\Generated_Source\PSoC4/I2C_bus_I2C_MASTER.c ****             errStatus = I2C_bus_I2C_MSTR_BUS_BUSY;
 307:.\Generated_Source\PSoC4/I2C_bus_I2C_MASTER.c ****         }
 308:.\Generated_Source\PSoC4/I2C_bus_I2C_MASTER.c ****         else
 309:.\Generated_Source\PSoC4/I2C_bus_I2C_MASTER.c ****         {
 310:.\Generated_Source\PSoC4/I2C_bus_I2C_MASTER.c ****             I2C_bus_DisableInt();  /* Lock from interruption */
  48              		.loc 1 310 0
  49 0016 0A20     		mov	r0, #10
  50              	.LVL2:
  51 0018 FFF7FEFF 		bl	CyIntDisable
  52              	.LVL3:
 311:.\Generated_Source\PSoC4/I2C_bus_I2C_MASTER.c **** 
 312:.\Generated_Source\PSoC4/I2C_bus_I2C_MASTER.c ****         #if (!I2C_bus_CY_SCBIP_V0 && \
 313:.\Generated_Source\PSoC4/I2C_bus_I2C_MASTER.c ****             I2C_bus_I2C_MULTI_MASTER_SLAVE_CONST && I2C_bus_I2C_WAKE_ENABLE_CONST)
 314:.\Generated_Source\PSoC4/I2C_bus_I2C_MASTER.c ****             I2C_bus_I2CMasterDisableEcAm();
 315:.\Generated_Source\PSoC4/I2C_bus_I2C_MASTER.c ****         #endif /* (!I2C_bus_CY_SCBIP_V0) */
 316:.\Generated_Source\PSoC4/I2C_bus_I2C_MASTER.c **** 
 317:.\Generated_Source\PSoC4/I2C_bus_I2C_MASTER.c ****             slaveAddress = I2C_bus_GET_I2C_8BIT_ADDRESS(slaveAddress);
  53              		.loc 1 317 0
  54 001c 6000     		lsl	r0, r4, #1
  55 001e FF23     		mov	r3, #255
  56 0020 1840     		and	r0, r3
  57              	.LVL4:
 318:.\Generated_Source\PSoC4/I2C_bus_I2C_MASTER.c **** 
 319:.\Generated_Source\PSoC4/I2C_bus_I2C_MASTER.c ****             if(0u == bitRnW) /* Write direction */
  58              		.loc 1 319 0
  59 0022 002D     		cmp	r5, #0
  60 0024 03D1     		bne	.L3
 320:.\Generated_Source\PSoC4/I2C_bus_I2C_MASTER.c ****             {
 321:.\Generated_Source\PSoC4/I2C_bus_I2C_MASTER.c ****                 I2C_bus_state = I2C_bus_I2C_FSM_MSTR_WR_DATA;
  61              		.loc 1 321 0
  62 0026 2422     		mov	r2, #36
  63 0028 244B     		ldr	r3, .L12
  64 002a 1A70     		strb	r2, [r3]
  65 002c 04E0     		b	.L4
  66              	.L3:
 322:.\Generated_Source\PSoC4/I2C_bus_I2C_MASTER.c ****             }
 323:.\Generated_Source\PSoC4/I2C_bus_I2C_MASTER.c ****             else /* Read direction */
 324:.\Generated_Source\PSoC4/I2C_bus_I2C_MASTER.c ****             {
 325:.\Generated_Source\PSoC4/I2C_bus_I2C_MASTER.c ****                 I2C_bus_state = I2C_bus_I2C_FSM_MSTR_RD_DATA;
  67              		.loc 1 325 0
  68 002e 2522     		mov	r2, #37
  69 0030 224B     		ldr	r3, .L12
  70 0032 1A70     		strb	r2, [r3]
 326:.\Generated_Source\PSoC4/I2C_bus_I2C_MASTER.c ****                          slaveAddress |= I2C_bus_I2C_READ_FLAG;
  71              		.loc 1 326 0
  72 0034 0123     		mov	r3, #1
  73 0036 1843     		orr	r0, r3
ARM GAS  C:\Users\username\AppData\Local\Temp\cc0FlDXj.s 			page 8


  74              	.LVL5:
  75              	.L4:
 327:.\Generated_Source\PSoC4/I2C_bus_I2C_MASTER.c ****             }
 328:.\Generated_Source\PSoC4/I2C_bus_I2C_MASTER.c **** 
 329:.\Generated_Source\PSoC4/I2C_bus_I2C_MASTER.c ****             /* TX and RX FIFO have to be EMPTY */
 330:.\Generated_Source\PSoC4/I2C_bus_I2C_MASTER.c **** 
 331:.\Generated_Source\PSoC4/I2C_bus_I2C_MASTER.c ****             I2C_bus_TX_FIFO_WR_REG = slaveAddress; /* Put address in TX FIFO */
  76              		.loc 1 331 0
  77 0038 224B     		ldr	r3, .L12+8
  78 003a 1860     		str	r0, [r3]
 332:.\Generated_Source\PSoC4/I2C_bus_I2C_MASTER.c ****             I2C_bus_ClearMasterInterruptSource(I2C_bus_INTR_MASTER_ALL);
  79              		.loc 1 332 0
  80 003c 224A     		ldr	r2, .L12+12
  81 003e 234B     		ldr	r3, .L12+16
  82 0040 1A60     		str	r2, [r3]
 333:.\Generated_Source\PSoC4/I2C_bus_I2C_MASTER.c **** 
 334:.\Generated_Source\PSoC4/I2C_bus_I2C_MASTER.c ****             I2C_bus_I2C_MASTER_GENERATE_START;
  83              		.loc 1 334 0
  84 0042 0222     		mov	r2, #2
  85 0044 224B     		ldr	r3, .L12+20
  86 0046 1A60     		str	r2, [r3]
  87              	.L5:
 335:.\Generated_Source\PSoC4/I2C_bus_I2C_MASTER.c **** 
 336:.\Generated_Source\PSoC4/I2C_bus_I2C_MASTER.c **** 
 337:.\Generated_Source\PSoC4/I2C_bus_I2C_MASTER.c ****             while(!I2C_bus_CHECK_INTR_MASTER(I2C_bus_INTR_MASTER_I2C_ACK      |
  88              		.loc 1 337 0 discriminator 1
  89 0048 204B     		ldr	r3, .L12+16
  90 004a 1A68     		ldr	r2, [r3]
  91 004c 0823     		mov	r3, #8
  92 004e FF33     		add	r3, r3, #255
  93 0050 1A42     		tst	r2, r3
  94 0052 F9D0     		beq	.L5
 338:.\Generated_Source\PSoC4/I2C_bus_I2C_MASTER.c ****                                                       I2C_bus_INTR_MASTER_I2C_NACK     |
 339:.\Generated_Source\PSoC4/I2C_bus_I2C_MASTER.c ****                                                       I2C_bus_INTR_MASTER_I2C_ARB_LOST |
 340:.\Generated_Source\PSoC4/I2C_bus_I2C_MASTER.c ****                                                       I2C_bus_INTR_MASTER_I2C_BUS_ERROR))
 341:.\Generated_Source\PSoC4/I2C_bus_I2C_MASTER.c ****             {
 342:.\Generated_Source\PSoC4/I2C_bus_I2C_MASTER.c ****                 /*
 343:.\Generated_Source\PSoC4/I2C_bus_I2C_MASTER.c ****                 * Write: wait until address has been transferred
 344:.\Generated_Source\PSoC4/I2C_bus_I2C_MASTER.c ****                 * Read : wait until address has been transferred, data byte is going to RX FIFO as 
 345:.\Generated_Source\PSoC4/I2C_bus_I2C_MASTER.c ****                 */
 346:.\Generated_Source\PSoC4/I2C_bus_I2C_MASTER.c ****             }
 347:.\Generated_Source\PSoC4/I2C_bus_I2C_MASTER.c **** 
 348:.\Generated_Source\PSoC4/I2C_bus_I2C_MASTER.c ****             /* Check the results of the address phase */
 349:.\Generated_Source\PSoC4/I2C_bus_I2C_MASTER.c ****             if(I2C_bus_CHECK_INTR_MASTER(I2C_bus_INTR_MASTER_I2C_ACK))
  95              		.loc 1 349 0
  96 0054 1D4B     		ldr	r3, .L12+16
  97 0056 1B68     		ldr	r3, [r3]
  98 0058 5B07     		lsl	r3, r3, #29
  99 005a 14D4     		bmi	.L10
 350:.\Generated_Source\PSoC4/I2C_bus_I2C_MASTER.c ****             {
 351:.\Generated_Source\PSoC4/I2C_bus_I2C_MASTER.c ****                 errStatus = I2C_bus_I2C_MSTR_NO_ERROR;
 352:.\Generated_Source\PSoC4/I2C_bus_I2C_MASTER.c ****             }
 353:.\Generated_Source\PSoC4/I2C_bus_I2C_MASTER.c ****             else if(I2C_bus_CHECK_INTR_MASTER(I2C_bus_INTR_MASTER_I2C_NACK))
 100              		.loc 1 353 0
 101 005c 1B4B     		ldr	r3, .L12+16
 102 005e 1B68     		ldr	r3, [r3]
 103 0060 9B07     		lsl	r3, r3, #30
ARM GAS  C:\Users\username\AppData\Local\Temp\cc0FlDXj.s 			page 9


 104 0062 13D4     		bmi	.L11
 354:.\Generated_Source\PSoC4/I2C_bus_I2C_MASTER.c ****             {
 355:.\Generated_Source\PSoC4/I2C_bus_I2C_MASTER.c ****                 errStatus = I2C_bus_I2C_MSTR_ERR_LB_NAK;
 356:.\Generated_Source\PSoC4/I2C_bus_I2C_MASTER.c ****             }
 357:.\Generated_Source\PSoC4/I2C_bus_I2C_MASTER.c ****             else if(I2C_bus_CHECK_INTR_MASTER(I2C_bus_INTR_MASTER_I2C_ARB_LOST))
 105              		.loc 1 357 0
 106 0064 194B     		ldr	r3, .L12+16
 107 0066 1B68     		ldr	r3, [r3]
 108 0068 DB07     		lsl	r3, r3, #31
 109 006a 05D5     		bpl	.L7
 358:.\Generated_Source\PSoC4/I2C_bus_I2C_MASTER.c ****             {
 359:.\Generated_Source\PSoC4/I2C_bus_I2C_MASTER.c ****                 I2C_bus_state = I2C_bus_I2C_FSM_IDLE;
 110              		.loc 1 359 0
 111 006c 1022     		mov	r2, #16
 112 006e 134B     		ldr	r3, .L12
 113 0070 1A70     		strb	r2, [r3]
 114              	.LVL6:
 360:.\Generated_Source\PSoC4/I2C_bus_I2C_MASTER.c ****                              errStatus = I2C_bus_I2C_MSTR_ERR_ARB_LOST;
 115              		.loc 1 360 0
 116 0072 0120     		mov	r0, #1
 117              	.LVL7:
 361:.\Generated_Source\PSoC4/I2C_bus_I2C_MASTER.c ****                              resetIp   = I2C_bus_I2C_RESET_ERROR;
 118              		.loc 1 361 0
 119 0074 0121     		mov	r1, #1
 120 0076 0BE0     		b	.L6
 121              	.LVL8:
 122              	.L7:
 362:.\Generated_Source\PSoC4/I2C_bus_I2C_MASTER.c ****             }
 363:.\Generated_Source\PSoC4/I2C_bus_I2C_MASTER.c ****             else /* I2C_bus_INTR_MASTER_I2C_BUS_ERROR set is else condition */
 364:.\Generated_Source\PSoC4/I2C_bus_I2C_MASTER.c ****             {
 365:.\Generated_Source\PSoC4/I2C_bus_I2C_MASTER.c ****                 I2C_bus_state = I2C_bus_I2C_FSM_IDLE;
 123              		.loc 1 365 0
 124 0078 1022     		mov	r2, #16
 125 007a 104B     		ldr	r3, .L12
 126 007c 1A70     		strb	r2, [r3]
 127              	.LVL9:
 366:.\Generated_Source\PSoC4/I2C_bus_I2C_MASTER.c ****                              errStatus = I2C_bus_I2C_MSTR_ERR_BUS_ERR;
 128              		.loc 1 366 0
 129 007e 8020     		mov	r0, #128
 130              	.LVL10:
 131 0080 4000     		lsl	r0, r0, #1
 367:.\Generated_Source\PSoC4/I2C_bus_I2C_MASTER.c ****                              resetIp   = I2C_bus_I2C_RESET_ERROR;
 132              		.loc 1 367 0
 133 0082 0121     		mov	r1, #1
 134 0084 04E0     		b	.L6
 135              	.LVL11:
 136              	.L10:
 351:.\Generated_Source\PSoC4/I2C_bus_I2C_MASTER.c ****             }
 137              		.loc 1 351 0
 138 0086 0020     		mov	r0, #0
 139              	.LVL12:
 297:.\Generated_Source\PSoC4/I2C_bus_I2C_MASTER.c ****     errStatus = I2C_bus_I2C_MSTR_NOT_READY;
 140              		.loc 1 297 0
 141 0088 0021     		mov	r1, #0
 142 008a 01E0     		b	.L6
 143              	.LVL13:
 144              	.L11:
ARM GAS  C:\Users\username\AppData\Local\Temp\cc0FlDXj.s 			page 10


 355:.\Generated_Source\PSoC4/I2C_bus_I2C_MASTER.c ****             }
 145              		.loc 1 355 0
 146 008c 0220     		mov	r0, #2
 147              	.LVL14:
 297:.\Generated_Source\PSoC4/I2C_bus_I2C_MASTER.c ****     errStatus = I2C_bus_I2C_MSTR_NOT_READY;
 148              		.loc 1 297 0
 149 008e 0021     		mov	r1, #0
 150              	.LVL15:
 151              	.L6:
 368:.\Generated_Source\PSoC4/I2C_bus_I2C_MASTER.c ****             }
 369:.\Generated_Source\PSoC4/I2C_bus_I2C_MASTER.c **** 
 370:.\Generated_Source\PSoC4/I2C_bus_I2C_MASTER.c ****             I2C_bus_ClearMasterInterruptSource(I2C_bus_INTR_MASTER_I2C_ACK      |
 152              		.loc 1 370 0
 153 0090 0822     		mov	r2, #8
 154 0092 FF32     		add	r2, r2, #255
 155 0094 0D4B     		ldr	r3, .L12+16
 156 0096 1A60     		str	r2, [r3]
 371:.\Generated_Source\PSoC4/I2C_bus_I2C_MASTER.c ****                                                         I2C_bus_INTR_MASTER_I2C_NACK     |
 372:.\Generated_Source\PSoC4/I2C_bus_I2C_MASTER.c ****                                                         I2C_bus_INTR_MASTER_I2C_ARB_LOST |
 373:.\Generated_Source\PSoC4/I2C_bus_I2C_MASTER.c ****                                                         I2C_bus_INTR_MASTER_I2C_BUS_ERROR);
 374:.\Generated_Source\PSoC4/I2C_bus_I2C_MASTER.c **** 
 375:.\Generated_Source\PSoC4/I2C_bus_I2C_MASTER.c ****             /* Reset block in case of: LOST_ARB or BUS_ERR */
 376:.\Generated_Source\PSoC4/I2C_bus_I2C_MASTER.c ****             if(0u != resetIp)
 157              		.loc 1 376 0
 158 0098 0029     		cmp	r1, #0
 159 009a 0DD0     		beq	.L2
 377:.\Generated_Source\PSoC4/I2C_bus_I2C_MASTER.c ****             {
 378:.\Generated_Source\PSoC4/I2C_bus_I2C_MASTER.c ****                 I2C_bus_SCB_SW_RESET;
 160              		.loc 1 378 0
 161 009c 0D4A     		ldr	r2, .L12+24
 162 009e 1368     		ldr	r3, [r2]
 163 00a0 5B00     		lsl	r3, r3, #1
 164 00a2 5B08     		lsr	r3, r3, #1
 165 00a4 1360     		str	r3, [r2]
 166 00a6 1368     		ldr	r3, [r2]
 167 00a8 8021     		mov	r1, #128
 168              	.LVL16:
 169 00aa 0906     		lsl	r1, r1, #24
 170 00ac 0B43     		orr	r3, r1
 171 00ae 1360     		str	r3, [r2]
 172 00b0 02E0     		b	.L2
 173              	.LVL17:
 174              	.L8:
 298:.\Generated_Source\PSoC4/I2C_bus_I2C_MASTER.c **** 
 175              		.loc 1 298 0
 176 00b2 0420     		mov	r0, #4
 177              	.LVL18:
 178 00b4 00E0     		b	.L2
 179              	.LVL19:
 180              	.L9:
 306:.\Generated_Source\PSoC4/I2C_bus_I2C_MASTER.c ****         }
 181              		.loc 1 306 0
 182 00b6 0820     		mov	r0, #8
 183              	.LVL20:
 184              	.L2:
 379:.\Generated_Source\PSoC4/I2C_bus_I2C_MASTER.c ****             }
 380:.\Generated_Source\PSoC4/I2C_bus_I2C_MASTER.c ****         }
ARM GAS  C:\Users\username\AppData\Local\Temp\cc0FlDXj.s 			page 11


 381:.\Generated_Source\PSoC4/I2C_bus_I2C_MASTER.c ****     }
 382:.\Generated_Source\PSoC4/I2C_bus_I2C_MASTER.c **** 
 383:.\Generated_Source\PSoC4/I2C_bus_I2C_MASTER.c ****     return(errStatus);
 384:.\Generated_Source\PSoC4/I2C_bus_I2C_MASTER.c **** }
 185              		.loc 1 384 0
 186              		@ sp needed
 187 00b8 38BD     		pop	{r3, r4, r5, pc}
 188              	.L13:
 189 00ba C046     		.align	2
 190              	.L12:
 191 00bc 00000000 		.word	I2C_bus_state
 192 00c0 64002540 		.word	1076166756
 193 00c4 40022540 		.word	1076167232
 194 00c8 17030000 		.word	791
 195 00cc 000F2540 		.word	1076170496
 196 00d0 68002540 		.word	1076166760
 197 00d4 00002540 		.word	1076166656
 198              		.cfi_endproc
 199              	.LFE4:
 200              		.size	I2C_bus_I2CMasterSendStart, .-I2C_bus_I2CMasterSendStart
 201              		.section	.text.I2C_bus_I2CMasterSendStop,"ax",%progbits
 202              		.align	2
 203              		.global	I2C_bus_I2CMasterSendStop
 204              		.code	16
 205              		.thumb_func
 206              		.type	I2C_bus_I2CMasterSendStop, %function
 207              	I2C_bus_I2CMasterSendStop:
 208              	.LFB6:
 385:.\Generated_Source\PSoC4/I2C_bus_I2C_MASTER.c **** 
 386:.\Generated_Source\PSoC4/I2C_bus_I2C_MASTER.c **** 
 387:.\Generated_Source\PSoC4/I2C_bus_I2C_MASTER.c **** /*******************************************************************************
 388:.\Generated_Source\PSoC4/I2C_bus_I2C_MASTER.c **** * Function Name: I2C_bus_I2CMasterSendRestart
 389:.\Generated_Source\PSoC4/I2C_bus_I2C_MASTER.c **** ********************************************************************************
 390:.\Generated_Source\PSoC4/I2C_bus_I2C_MASTER.c **** *
 391:.\Generated_Source\PSoC4/I2C_bus_I2C_MASTER.c **** * Summary:
 392:.\Generated_Source\PSoC4/I2C_bus_I2C_MASTER.c **** *  Generates Restart condition and sends slave address with read/write bit.
 393:.\Generated_Source\PSoC4/I2C_bus_I2C_MASTER.c **** *  This function is blocking and does not return until start condition and
 394:.\Generated_Source\PSoC4/I2C_bus_I2C_MASTER.c **** *  address are sent and ACK/NACK response is received or errors occurred.
 395:.\Generated_Source\PSoC4/I2C_bus_I2C_MASTER.c **** *
 396:.\Generated_Source\PSoC4/I2C_bus_I2C_MASTER.c **** * Parameters:
 397:.\Generated_Source\PSoC4/I2C_bus_I2C_MASTER.c **** *  slaveAddress: Right justified 7-bit Slave address (valid range 8 to 120).
 398:.\Generated_Source\PSoC4/I2C_bus_I2C_MASTER.c **** *  bitRnW:       Direction of the following transfer. It is defined by
 399:.\Generated_Source\PSoC4/I2C_bus_I2C_MASTER.c **** *                read/write bit within address byte.
 400:.\Generated_Source\PSoC4/I2C_bus_I2C_MASTER.c **** *
 401:.\Generated_Source\PSoC4/I2C_bus_I2C_MASTER.c **** * Return:
 402:.\Generated_Source\PSoC4/I2C_bus_I2C_MASTER.c **** *  Error status
 403:.\Generated_Source\PSoC4/I2C_bus_I2C_MASTER.c **** *
 404:.\Generated_Source\PSoC4/I2C_bus_I2C_MASTER.c **** *
 405:.\Generated_Source\PSoC4/I2C_bus_I2C_MASTER.c **** * Global variables:
 406:.\Generated_Source\PSoC4/I2C_bus_I2C_MASTER.c **** *  I2C_bus_state - used to store current state of software FSM.
 407:.\Generated_Source\PSoC4/I2C_bus_I2C_MASTER.c **** *
 408:.\Generated_Source\PSoC4/I2C_bus_I2C_MASTER.c **** *******************************************************************************/
 409:.\Generated_Source\PSoC4/I2C_bus_I2C_MASTER.c **** uint32 I2C_bus_I2CMasterSendRestart(uint32 slaveAddress, uint32 bitRnW)
 410:.\Generated_Source\PSoC4/I2C_bus_I2C_MASTER.c **** {
 411:.\Generated_Source\PSoC4/I2C_bus_I2C_MASTER.c ****     uint32 resetIp;
 412:.\Generated_Source\PSoC4/I2C_bus_I2C_MASTER.c ****     uint32 errStatus;
 413:.\Generated_Source\PSoC4/I2C_bus_I2C_MASTER.c **** 
ARM GAS  C:\Users\username\AppData\Local\Temp\cc0FlDXj.s 			page 12


 414:.\Generated_Source\PSoC4/I2C_bus_I2C_MASTER.c ****     resetIp   = 0u;
 415:.\Generated_Source\PSoC4/I2C_bus_I2C_MASTER.c ****     errStatus = I2C_bus_I2C_MSTR_NOT_READY;
 416:.\Generated_Source\PSoC4/I2C_bus_I2C_MASTER.c **** 
 417:.\Generated_Source\PSoC4/I2C_bus_I2C_MASTER.c ****     /* Check FSM state before generating ReStart condition */
 418:.\Generated_Source\PSoC4/I2C_bus_I2C_MASTER.c ****     if(I2C_bus_CHECK_I2C_MASTER_ACTIVE)
 419:.\Generated_Source\PSoC4/I2C_bus_I2C_MASTER.c ****     {
 420:.\Generated_Source\PSoC4/I2C_bus_I2C_MASTER.c ****         slaveAddress = I2C_bus_GET_I2C_8BIT_ADDRESS(slaveAddress);
 421:.\Generated_Source\PSoC4/I2C_bus_I2C_MASTER.c **** 
 422:.\Generated_Source\PSoC4/I2C_bus_I2C_MASTER.c ****         if(0u == bitRnW) /* Write direction */
 423:.\Generated_Source\PSoC4/I2C_bus_I2C_MASTER.c ****         {
 424:.\Generated_Source\PSoC4/I2C_bus_I2C_MASTER.c ****             I2C_bus_state = I2C_bus_I2C_FSM_MSTR_WR_DATA;
 425:.\Generated_Source\PSoC4/I2C_bus_I2C_MASTER.c ****         }
 426:.\Generated_Source\PSoC4/I2C_bus_I2C_MASTER.c ****         else  /* Read direction */
 427:.\Generated_Source\PSoC4/I2C_bus_I2C_MASTER.c ****         {
 428:.\Generated_Source\PSoC4/I2C_bus_I2C_MASTER.c ****             I2C_bus_state  = I2C_bus_I2C_FSM_MSTR_RD_DATA;
 429:.\Generated_Source\PSoC4/I2C_bus_I2C_MASTER.c ****                       slaveAddress |= I2C_bus_I2C_READ_FLAG;
 430:.\Generated_Source\PSoC4/I2C_bus_I2C_MASTER.c ****         }
 431:.\Generated_Source\PSoC4/I2C_bus_I2C_MASTER.c **** 
 432:.\Generated_Source\PSoC4/I2C_bus_I2C_MASTER.c ****         /* TX and RX FIFO have to be EMPTY */
 433:.\Generated_Source\PSoC4/I2C_bus_I2C_MASTER.c **** 
 434:.\Generated_Source\PSoC4/I2C_bus_I2C_MASTER.c ****         /* Clean-up interrupt status */
 435:.\Generated_Source\PSoC4/I2C_bus_I2C_MASTER.c ****         I2C_bus_ClearMasterInterruptSource(I2C_bus_INTR_MASTER_ALL);
 436:.\Generated_Source\PSoC4/I2C_bus_I2C_MASTER.c **** 
 437:.\Generated_Source\PSoC4/I2C_bus_I2C_MASTER.c ****         /* A proper ReStart sequence is: generate ReStart, then put an address byte in the TX FIFO.
 438:.\Generated_Source\PSoC4/I2C_bus_I2C_MASTER.c ****         * Otherwise the master treats the address in the TX FIFO as a data byte if a previous trans
 439:.\Generated_Source\PSoC4/I2C_bus_I2C_MASTER.c ****         * The write transfer continues instead of ReStart.
 440:.\Generated_Source\PSoC4/I2C_bus_I2C_MASTER.c ****         */
 441:.\Generated_Source\PSoC4/I2C_bus_I2C_MASTER.c ****         I2C_bus_I2C_MASTER_GENERATE_RESTART;
 442:.\Generated_Source\PSoC4/I2C_bus_I2C_MASTER.c **** 
 443:.\Generated_Source\PSoC4/I2C_bus_I2C_MASTER.c ****         while(I2C_bus_CHECK_I2C_MASTER_CMD(I2C_bus_I2C_MASTER_CMD_M_START))
 444:.\Generated_Source\PSoC4/I2C_bus_I2C_MASTER.c ****         {
 445:.\Generated_Source\PSoC4/I2C_bus_I2C_MASTER.c ****             /* Wait until ReStart has been generated */
 446:.\Generated_Source\PSoC4/I2C_bus_I2C_MASTER.c ****         }
 447:.\Generated_Source\PSoC4/I2C_bus_I2C_MASTER.c **** 
 448:.\Generated_Source\PSoC4/I2C_bus_I2C_MASTER.c ****         /* Put address into TX FIFO */
 449:.\Generated_Source\PSoC4/I2C_bus_I2C_MASTER.c ****         I2C_bus_TX_FIFO_WR_REG = slaveAddress;
 450:.\Generated_Source\PSoC4/I2C_bus_I2C_MASTER.c **** 
 451:.\Generated_Source\PSoC4/I2C_bus_I2C_MASTER.c ****         /* Wait for address to be transferred */
 452:.\Generated_Source\PSoC4/I2C_bus_I2C_MASTER.c ****         while(!I2C_bus_CHECK_INTR_MASTER(I2C_bus_INTR_MASTER_I2C_ACK      |
 453:.\Generated_Source\PSoC4/I2C_bus_I2C_MASTER.c ****                                                   I2C_bus_INTR_MASTER_I2C_NACK     |
 454:.\Generated_Source\PSoC4/I2C_bus_I2C_MASTER.c ****                                                   I2C_bus_INTR_MASTER_I2C_ARB_LOST |
 455:.\Generated_Source\PSoC4/I2C_bus_I2C_MASTER.c ****                                                   I2C_bus_INTR_MASTER_I2C_BUS_ERROR))
 456:.\Generated_Source\PSoC4/I2C_bus_I2C_MASTER.c ****         {
 457:.\Generated_Source\PSoC4/I2C_bus_I2C_MASTER.c ****             /* Wait until address has been transferred */
 458:.\Generated_Source\PSoC4/I2C_bus_I2C_MASTER.c ****         }
 459:.\Generated_Source\PSoC4/I2C_bus_I2C_MASTER.c **** 
 460:.\Generated_Source\PSoC4/I2C_bus_I2C_MASTER.c ****         /* Check results of address phase */
 461:.\Generated_Source\PSoC4/I2C_bus_I2C_MASTER.c ****         if(I2C_bus_CHECK_INTR_MASTER(I2C_bus_INTR_MASTER_I2C_ACK))
 462:.\Generated_Source\PSoC4/I2C_bus_I2C_MASTER.c ****         {
 463:.\Generated_Source\PSoC4/I2C_bus_I2C_MASTER.c ****             errStatus = I2C_bus_I2C_MSTR_NO_ERROR;
 464:.\Generated_Source\PSoC4/I2C_bus_I2C_MASTER.c ****         }
 465:.\Generated_Source\PSoC4/I2C_bus_I2C_MASTER.c ****         else if(I2C_bus_CHECK_INTR_MASTER(I2C_bus_INTR_MASTER_I2C_NACK))
 466:.\Generated_Source\PSoC4/I2C_bus_I2C_MASTER.c ****         {
 467:.\Generated_Source\PSoC4/I2C_bus_I2C_MASTER.c ****              errStatus = I2C_bus_I2C_MSTR_ERR_LB_NAK;
 468:.\Generated_Source\PSoC4/I2C_bus_I2C_MASTER.c ****         }
 469:.\Generated_Source\PSoC4/I2C_bus_I2C_MASTER.c ****         else if(I2C_bus_CHECK_INTR_MASTER(I2C_bus_INTR_MASTER_I2C_ARB_LOST))
 470:.\Generated_Source\PSoC4/I2C_bus_I2C_MASTER.c ****         {
ARM GAS  C:\Users\username\AppData\Local\Temp\cc0FlDXj.s 			page 13


 471:.\Generated_Source\PSoC4/I2C_bus_I2C_MASTER.c ****             I2C_bus_state = I2C_bus_I2C_FSM_IDLE;
 472:.\Generated_Source\PSoC4/I2C_bus_I2C_MASTER.c ****                          errStatus = I2C_bus_I2C_MSTR_ERR_ARB_LOST;
 473:.\Generated_Source\PSoC4/I2C_bus_I2C_MASTER.c ****                          resetIp   = I2C_bus_I2C_RESET_ERROR;
 474:.\Generated_Source\PSoC4/I2C_bus_I2C_MASTER.c ****         }
 475:.\Generated_Source\PSoC4/I2C_bus_I2C_MASTER.c ****         else /* I2C_bus_INTR_MASTER_I2C_BUS_ERROR set is else condition */
 476:.\Generated_Source\PSoC4/I2C_bus_I2C_MASTER.c ****         {
 477:.\Generated_Source\PSoC4/I2C_bus_I2C_MASTER.c ****             I2C_bus_state = I2C_bus_I2C_FSM_IDLE;
 478:.\Generated_Source\PSoC4/I2C_bus_I2C_MASTER.c ****                          errStatus = I2C_bus_I2C_MSTR_ERR_BUS_ERR;
 479:.\Generated_Source\PSoC4/I2C_bus_I2C_MASTER.c ****                          resetIp   = I2C_bus_I2C_RESET_ERROR;
 480:.\Generated_Source\PSoC4/I2C_bus_I2C_MASTER.c ****         }
 481:.\Generated_Source\PSoC4/I2C_bus_I2C_MASTER.c **** 
 482:.\Generated_Source\PSoC4/I2C_bus_I2C_MASTER.c ****         I2C_bus_ClearMasterInterruptSource(I2C_bus_INTR_MASTER_I2C_ACK      |
 483:.\Generated_Source\PSoC4/I2C_bus_I2C_MASTER.c ****                                                     I2C_bus_INTR_MASTER_I2C_NACK     |
 484:.\Generated_Source\PSoC4/I2C_bus_I2C_MASTER.c ****                                                     I2C_bus_INTR_MASTER_I2C_ARB_LOST |
 485:.\Generated_Source\PSoC4/I2C_bus_I2C_MASTER.c ****                                                     I2C_bus_INTR_MASTER_I2C_BUS_ERROR);
 486:.\Generated_Source\PSoC4/I2C_bus_I2C_MASTER.c **** 
 487:.\Generated_Source\PSoC4/I2C_bus_I2C_MASTER.c ****         /* Reset block in case of: LOST_ARB or BUS_ERR */
 488:.\Generated_Source\PSoC4/I2C_bus_I2C_MASTER.c ****         if(0u != resetIp)
 489:.\Generated_Source\PSoC4/I2C_bus_I2C_MASTER.c ****         {
 490:.\Generated_Source\PSoC4/I2C_bus_I2C_MASTER.c ****             I2C_bus_SCB_SW_RESET;
 491:.\Generated_Source\PSoC4/I2C_bus_I2C_MASTER.c ****         }
 492:.\Generated_Source\PSoC4/I2C_bus_I2C_MASTER.c ****     }
 493:.\Generated_Source\PSoC4/I2C_bus_I2C_MASTER.c **** 
 494:.\Generated_Source\PSoC4/I2C_bus_I2C_MASTER.c ****     return(errStatus);
 495:.\Generated_Source\PSoC4/I2C_bus_I2C_MASTER.c **** }
 496:.\Generated_Source\PSoC4/I2C_bus_I2C_MASTER.c **** 
 497:.\Generated_Source\PSoC4/I2C_bus_I2C_MASTER.c **** 
 498:.\Generated_Source\PSoC4/I2C_bus_I2C_MASTER.c **** /*******************************************************************************
 499:.\Generated_Source\PSoC4/I2C_bus_I2C_MASTER.c **** * Function Name: I2C_bus_I2CMasterSendStop
 500:.\Generated_Source\PSoC4/I2C_bus_I2C_MASTER.c **** ********************************************************************************
 501:.\Generated_Source\PSoC4/I2C_bus_I2C_MASTER.c **** *
 502:.\Generated_Source\PSoC4/I2C_bus_I2C_MASTER.c **** * Summary:
 503:.\Generated_Source\PSoC4/I2C_bus_I2C_MASTER.c **** *  Generates Stop condition on the bus.
 504:.\Generated_Source\PSoC4/I2C_bus_I2C_MASTER.c **** *  At least one byte has to be read if start or restart condition with read
 505:.\Generated_Source\PSoC4/I2C_bus_I2C_MASTER.c **** *  direction was generated before.
 506:.\Generated_Source\PSoC4/I2C_bus_I2C_MASTER.c **** *  This function is blocking and does not return until a stop condition
 507:.\Generated_Source\PSoC4/I2C_bus_I2C_MASTER.c **** *  is generated or error occurred.
 508:.\Generated_Source\PSoC4/I2C_bus_I2C_MASTER.c **** *
 509:.\Generated_Source\PSoC4/I2C_bus_I2C_MASTER.c **** * Parameters:
 510:.\Generated_Source\PSoC4/I2C_bus_I2C_MASTER.c **** *  None
 511:.\Generated_Source\PSoC4/I2C_bus_I2C_MASTER.c **** *
 512:.\Generated_Source\PSoC4/I2C_bus_I2C_MASTER.c **** * Return:
 513:.\Generated_Source\PSoC4/I2C_bus_I2C_MASTER.c **** *  Error status
 514:.\Generated_Source\PSoC4/I2C_bus_I2C_MASTER.c **** *
 515:.\Generated_Source\PSoC4/I2C_bus_I2C_MASTER.c **** * Side Effects:
 516:.\Generated_Source\PSoC4/I2C_bus_I2C_MASTER.c **** *  A valid Start or ReStart condition must be generated before calling
 517:.\Generated_Source\PSoC4/I2C_bus_I2C_MASTER.c **** *  this function. This function does nothing if Start or ReStart condition
 518:.\Generated_Source\PSoC4/I2C_bus_I2C_MASTER.c **** *  failed before this function was called.
 519:.\Generated_Source\PSoC4/I2C_bus_I2C_MASTER.c **** *  For read transfer, at least one byte has to be read before Stop generation.
 520:.\Generated_Source\PSoC4/I2C_bus_I2C_MASTER.c **** *
 521:.\Generated_Source\PSoC4/I2C_bus_I2C_MASTER.c **** * Global variables:
 522:.\Generated_Source\PSoC4/I2C_bus_I2C_MASTER.c **** *  I2C_bus_state - used to store current state of software FSM.
 523:.\Generated_Source\PSoC4/I2C_bus_I2C_MASTER.c **** *
 524:.\Generated_Source\PSoC4/I2C_bus_I2C_MASTER.c **** *******************************************************************************/
 525:.\Generated_Source\PSoC4/I2C_bus_I2C_MASTER.c **** uint32 I2C_bus_I2CMasterSendStop(void)
 526:.\Generated_Source\PSoC4/I2C_bus_I2C_MASTER.c **** {
 209              		.loc 1 526 0
ARM GAS  C:\Users\username\AppData\Local\Temp\cc0FlDXj.s 			page 14


 210              		.cfi_startproc
 211              	.LVL21:
 527:.\Generated_Source\PSoC4/I2C_bus_I2C_MASTER.c ****     uint32 resetIp;
 528:.\Generated_Source\PSoC4/I2C_bus_I2C_MASTER.c ****     uint32 errStatus;
 529:.\Generated_Source\PSoC4/I2C_bus_I2C_MASTER.c **** 
 530:.\Generated_Source\PSoC4/I2C_bus_I2C_MASTER.c ****     resetIp   = 0u;
 531:.\Generated_Source\PSoC4/I2C_bus_I2C_MASTER.c ****     errStatus = I2C_bus_I2C_MSTR_NOT_READY;
 532:.\Generated_Source\PSoC4/I2C_bus_I2C_MASTER.c **** 
 533:.\Generated_Source\PSoC4/I2C_bus_I2C_MASTER.c ****     /* Check FSM state before generating Stop condition */
 534:.\Generated_Source\PSoC4/I2C_bus_I2C_MASTER.c ****     if(I2C_bus_CHECK_I2C_MASTER_ACTIVE)
 212              		.loc 1 534 0
 213 0000 1D4B     		ldr	r3, .L23
 214 0002 1B78     		ldrb	r3, [r3]
 215 0004 9B06     		lsl	r3, r3, #26
 216 0006 34D5     		bpl	.L19
 535:.\Generated_Source\PSoC4/I2C_bus_I2C_MASTER.c ****     {
 536:.\Generated_Source\PSoC4/I2C_bus_I2C_MASTER.c ****         /*
 537:.\Generated_Source\PSoC4/I2C_bus_I2C_MASTER.c ****         * Write direction: generates Stop
 538:.\Generated_Source\PSoC4/I2C_bus_I2C_MASTER.c ****         * Read  direction: generates NACK and Stop
 539:.\Generated_Source\PSoC4/I2C_bus_I2C_MASTER.c ****         */
 540:.\Generated_Source\PSoC4/I2C_bus_I2C_MASTER.c ****         I2C_bus_I2C_MASTER_GENERATE_STOP;
 217              		.loc 1 540 0
 218 0008 1C4B     		ldr	r3, .L23+4
 219 000a 1B68     		ldr	r3, [r3]
 220 000c 9B06     		lsl	r3, r3, #26
 221 000e 01D5     		bpl	.L20
 222 0010 1822     		mov	r2, #24
 223 0012 00E0     		b	.L16
 224              	.L20:
 225 0014 1022     		mov	r2, #16
 226              	.L16:
 227              		.loc 1 540 0 is_stmt 0 discriminator 4
 228 0016 1A4B     		ldr	r3, .L23+8
 229 0018 1A60     		str	r2, [r3]
 230              	.L17:
 541:.\Generated_Source\PSoC4/I2C_bus_I2C_MASTER.c **** 
 542:.\Generated_Source\PSoC4/I2C_bus_I2C_MASTER.c ****         while(!I2C_bus_CHECK_INTR_MASTER(I2C_bus_INTR_MASTER_I2C_STOP     |
 231              		.loc 1 542 0 is_stmt 1 discriminator 1
 232 001a 1A4B     		ldr	r3, .L23+12
 233 001c 1A68     		ldr	r2, [r3]
 234 001e 1223     		mov	r3, #18
 235 0020 FF33     		add	r3, r3, #255
 236 0022 1A42     		tst	r2, r3
 237 0024 F9D0     		beq	.L17
 543:.\Generated_Source\PSoC4/I2C_bus_I2C_MASTER.c ****                                                   I2C_bus_INTR_MASTER_I2C_ARB_LOST |
 544:.\Generated_Source\PSoC4/I2C_bus_I2C_MASTER.c ****                                                   I2C_bus_INTR_MASTER_I2C_BUS_ERROR))
 545:.\Generated_Source\PSoC4/I2C_bus_I2C_MASTER.c ****         {
 546:.\Generated_Source\PSoC4/I2C_bus_I2C_MASTER.c ****             /* Wait until Stop has been generated */
 547:.\Generated_Source\PSoC4/I2C_bus_I2C_MASTER.c ****         }
 548:.\Generated_Source\PSoC4/I2C_bus_I2C_MASTER.c **** 
 549:.\Generated_Source\PSoC4/I2C_bus_I2C_MASTER.c ****         /* Check Stop generation */
 550:.\Generated_Source\PSoC4/I2C_bus_I2C_MASTER.c ****         if(I2C_bus_CHECK_INTR_MASTER(I2C_bus_INTR_MASTER_I2C_STOP))
 238              		.loc 1 550 0
 239 0026 174B     		ldr	r3, .L23+12
 240 0028 1B68     		ldr	r3, [r3]
 241 002a DB06     		lsl	r3, r3, #27
 242 002c 06D4     		bmi	.L21
ARM GAS  C:\Users\username\AppData\Local\Temp\cc0FlDXj.s 			page 15


 551:.\Generated_Source\PSoC4/I2C_bus_I2C_MASTER.c ****         {
 552:.\Generated_Source\PSoC4/I2C_bus_I2C_MASTER.c ****             errStatus = I2C_bus_I2C_MSTR_NO_ERROR;
 553:.\Generated_Source\PSoC4/I2C_bus_I2C_MASTER.c ****         }
 554:.\Generated_Source\PSoC4/I2C_bus_I2C_MASTER.c ****         else if(I2C_bus_CHECK_INTR_MASTER(I2C_bus_INTR_MASTER_I2C_ARB_LOST))
 243              		.loc 1 554 0
 244 002e 154B     		ldr	r3, .L23+12
 245 0030 1B68     		ldr	r3, [r3]
 246 0032 DB07     		lsl	r3, r3, #31
 247 0034 05D5     		bpl	.L22
 555:.\Generated_Source\PSoC4/I2C_bus_I2C_MASTER.c ****         {
 556:.\Generated_Source\PSoC4/I2C_bus_I2C_MASTER.c ****             errStatus = I2C_bus_I2C_MSTR_ERR_ARB_LOST;
 248              		.loc 1 556 0
 249 0036 0120     		mov	r0, #1
 557:.\Generated_Source\PSoC4/I2C_bus_I2C_MASTER.c ****             resetIp   = I2C_bus_I2C_RESET_ERROR;
 250              		.loc 1 557 0
 251 0038 0121     		mov	r1, #1
 252 003a 05E0     		b	.L18
 253              	.L21:
 552:.\Generated_Source\PSoC4/I2C_bus_I2C_MASTER.c ****         }
 254              		.loc 1 552 0
 255 003c 0020     		mov	r0, #0
 530:.\Generated_Source\PSoC4/I2C_bus_I2C_MASTER.c ****     errStatus = I2C_bus_I2C_MSTR_NOT_READY;
 256              		.loc 1 530 0
 257 003e 0021     		mov	r1, #0
 258 0040 02E0     		b	.L18
 259              	.L22:
 558:.\Generated_Source\PSoC4/I2C_bus_I2C_MASTER.c ****         }
 559:.\Generated_Source\PSoC4/I2C_bus_I2C_MASTER.c ****         else /* I2C_bus_INTR_MASTER_I2C_BUS_ERROR is set */
 560:.\Generated_Source\PSoC4/I2C_bus_I2C_MASTER.c ****         {
 561:.\Generated_Source\PSoC4/I2C_bus_I2C_MASTER.c ****             errStatus = I2C_bus_I2C_MSTR_ERR_BUS_ERR;
 260              		.loc 1 561 0
 261 0042 8020     		mov	r0, #128
 262 0044 4000     		lsl	r0, r0, #1
 562:.\Generated_Source\PSoC4/I2C_bus_I2C_MASTER.c ****             resetIp   = I2C_bus_I2C_RESET_ERROR;
 263              		.loc 1 562 0
 264 0046 0121     		mov	r1, #1
 265              	.L18:
 266              	.LVL22:
 563:.\Generated_Source\PSoC4/I2C_bus_I2C_MASTER.c ****         }
 564:.\Generated_Source\PSoC4/I2C_bus_I2C_MASTER.c **** 
 565:.\Generated_Source\PSoC4/I2C_bus_I2C_MASTER.c ****         I2C_bus_ClearMasterInterruptSource(I2C_bus_INTR_MASTER_I2C_STOP     |
 267              		.loc 1 565 0
 268 0048 1222     		mov	r2, #18
 269 004a FF32     		add	r2, r2, #255
 270 004c 0D4B     		ldr	r3, .L23+12
 271 004e 1A60     		str	r2, [r3]
 566:.\Generated_Source\PSoC4/I2C_bus_I2C_MASTER.c ****                                                     I2C_bus_INTR_MASTER_I2C_ARB_LOST |
 567:.\Generated_Source\PSoC4/I2C_bus_I2C_MASTER.c ****                                                     I2C_bus_INTR_MASTER_I2C_BUS_ERROR);
 568:.\Generated_Source\PSoC4/I2C_bus_I2C_MASTER.c **** 
 569:.\Generated_Source\PSoC4/I2C_bus_I2C_MASTER.c ****         I2C_bus_state = I2C_bus_I2C_FSM_IDLE;
 272              		.loc 1 569 0
 273 0050 023A     		sub	r2, r2, #2
 274 0052 FF3A     		sub	r2, r2, #255
 275 0054 084B     		ldr	r3, .L23
 276 0056 1A70     		strb	r2, [r3]
 570:.\Generated_Source\PSoC4/I2C_bus_I2C_MASTER.c **** 
 571:.\Generated_Source\PSoC4/I2C_bus_I2C_MASTER.c ****         /* Reset block in case of: LOST_ARB or BUS_ERR */
ARM GAS  C:\Users\username\AppData\Local\Temp\cc0FlDXj.s 			page 16


 572:.\Generated_Source\PSoC4/I2C_bus_I2C_MASTER.c ****         if(0u != resetIp)
 277              		.loc 1 572 0
 278 0058 0029     		cmp	r1, #0
 279 005a 0BD0     		beq	.L15
 573:.\Generated_Source\PSoC4/I2C_bus_I2C_MASTER.c ****         {
 574:.\Generated_Source\PSoC4/I2C_bus_I2C_MASTER.c ****             I2C_bus_SCB_SW_RESET;
 280              		.loc 1 574 0
 281 005c 0A4A     		ldr	r2, .L23+16
 282 005e 1368     		ldr	r3, [r2]
 283 0060 5B00     		lsl	r3, r3, #1
 284 0062 5B08     		lsr	r3, r3, #1
 285 0064 1360     		str	r3, [r2]
 286 0066 1368     		ldr	r3, [r2]
 287 0068 8021     		mov	r1, #128
 288              	.LVL23:
 289 006a 0906     		lsl	r1, r1, #24
 290 006c 0B43     		orr	r3, r1
 291 006e 1360     		str	r3, [r2]
 292 0070 00E0     		b	.L15
 293              	.LVL24:
 294              	.L19:
 531:.\Generated_Source\PSoC4/I2C_bus_I2C_MASTER.c **** 
 295              		.loc 1 531 0
 296 0072 0420     		mov	r0, #4
 297              	.LVL25:
 298              	.L15:
 575:.\Generated_Source\PSoC4/I2C_bus_I2C_MASTER.c ****         }
 576:.\Generated_Source\PSoC4/I2C_bus_I2C_MASTER.c ****     }
 577:.\Generated_Source\PSoC4/I2C_bus_I2C_MASTER.c **** 
 578:.\Generated_Source\PSoC4/I2C_bus_I2C_MASTER.c ****     return(errStatus);
 579:.\Generated_Source\PSoC4/I2C_bus_I2C_MASTER.c **** }
 299              		.loc 1 579 0
 300              		@ sp needed
 301 0074 7047     		bx	lr
 302              	.L24:
 303 0076 C046     		.align	2
 304              	.L23:
 305 0078 00000000 		.word	I2C_bus_state
 306 007c 64002540 		.word	1076166756
 307 0080 68002540 		.word	1076166760
 308 0084 000F2540 		.word	1076170496
 309 0088 00002540 		.word	1076166656
 310              		.cfi_endproc
 311              	.LFE6:
 312              		.size	I2C_bus_I2CMasterSendStop, .-I2C_bus_I2CMasterSendStop
 313              		.section	.text.I2C_bus_I2CMasterWriteByte,"ax",%progbits
 314              		.align	2
 315              		.global	I2C_bus_I2CMasterWriteByte
 316              		.code	16
 317              		.thumb_func
 318              		.type	I2C_bus_I2CMasterWriteByte, %function
 319              	I2C_bus_I2CMasterWriteByte:
 320              	.LFB7:
 580:.\Generated_Source\PSoC4/I2C_bus_I2C_MASTER.c **** 
 581:.\Generated_Source\PSoC4/I2C_bus_I2C_MASTER.c **** 
 582:.\Generated_Source\PSoC4/I2C_bus_I2C_MASTER.c **** /*******************************************************************************
 583:.\Generated_Source\PSoC4/I2C_bus_I2C_MASTER.c **** * Function Name: I2C_bus_I2CMasterWriteByte
ARM GAS  C:\Users\username\AppData\Local\Temp\cc0FlDXj.s 			page 17


 584:.\Generated_Source\PSoC4/I2C_bus_I2C_MASTER.c **** ********************************************************************************
 585:.\Generated_Source\PSoC4/I2C_bus_I2C_MASTER.c **** *
 586:.\Generated_Source\PSoC4/I2C_bus_I2C_MASTER.c **** * Summary:
 587:.\Generated_Source\PSoC4/I2C_bus_I2C_MASTER.c **** *  Sends one byte to a slave.
 588:.\Generated_Source\PSoC4/I2C_bus_I2C_MASTER.c **** *  This function is blocking and does not return until byte is transmitted
 589:.\Generated_Source\PSoC4/I2C_bus_I2C_MASTER.c **** *  or error occurred.
 590:.\Generated_Source\PSoC4/I2C_bus_I2C_MASTER.c **** *
 591:.\Generated_Source\PSoC4/I2C_bus_I2C_MASTER.c **** * Parameters:
 592:.\Generated_Source\PSoC4/I2C_bus_I2C_MASTER.c **** *  data: The data byte to send to the slave.
 593:.\Generated_Source\PSoC4/I2C_bus_I2C_MASTER.c **** *
 594:.\Generated_Source\PSoC4/I2C_bus_I2C_MASTER.c **** * Return:
 595:.\Generated_Source\PSoC4/I2C_bus_I2C_MASTER.c **** *  Error status
 596:.\Generated_Source\PSoC4/I2C_bus_I2C_MASTER.c **** *
 597:.\Generated_Source\PSoC4/I2C_bus_I2C_MASTER.c **** * Side Effects:
 598:.\Generated_Source\PSoC4/I2C_bus_I2C_MASTER.c **** *  A valid Start or ReStart condition must be generated before calling
 599:.\Generated_Source\PSoC4/I2C_bus_I2C_MASTER.c **** *  this function. This function does nothing if Start or ReStart condition
 600:.\Generated_Source\PSoC4/I2C_bus_I2C_MASTER.c **** *  failed before this function was called.
 601:.\Generated_Source\PSoC4/I2C_bus_I2C_MASTER.c **** *
 602:.\Generated_Source\PSoC4/I2C_bus_I2C_MASTER.c **** * Global variables:
 603:.\Generated_Source\PSoC4/I2C_bus_I2C_MASTER.c **** *  I2C_bus_state - used to store current state of software FSM.
 604:.\Generated_Source\PSoC4/I2C_bus_I2C_MASTER.c **** *
 605:.\Generated_Source\PSoC4/I2C_bus_I2C_MASTER.c **** *******************************************************************************/
 606:.\Generated_Source\PSoC4/I2C_bus_I2C_MASTER.c **** uint32 I2C_bus_I2CMasterWriteByte(uint32 theByte)
 607:.\Generated_Source\PSoC4/I2C_bus_I2C_MASTER.c **** {
 321              		.loc 1 607 0
 322              		.cfi_startproc
 323              	.LVL26:
 608:.\Generated_Source\PSoC4/I2C_bus_I2C_MASTER.c ****     uint32 resetIp;
 609:.\Generated_Source\PSoC4/I2C_bus_I2C_MASTER.c ****     uint32 errStatus;
 610:.\Generated_Source\PSoC4/I2C_bus_I2C_MASTER.c **** 
 611:.\Generated_Source\PSoC4/I2C_bus_I2C_MASTER.c ****     resetIp   = 0u;
 612:.\Generated_Source\PSoC4/I2C_bus_I2C_MASTER.c ****     errStatus = I2C_bus_I2C_MSTR_NOT_READY;
 613:.\Generated_Source\PSoC4/I2C_bus_I2C_MASTER.c **** 
 614:.\Generated_Source\PSoC4/I2C_bus_I2C_MASTER.c ****     /* Check FSM state before write byte */
 615:.\Generated_Source\PSoC4/I2C_bus_I2C_MASTER.c ****     if(I2C_bus_CHECK_I2C_MASTER_ACTIVE)
 324              		.loc 1 615 0
 325 0000 214B     		ldr	r3, .L33
 326 0002 1B78     		ldrb	r3, [r3]
 327 0004 9B06     		lsl	r3, r3, #26
 328 0006 3CD5     		bpl	.L32
 616:.\Generated_Source\PSoC4/I2C_bus_I2C_MASTER.c ****     {
 617:.\Generated_Source\PSoC4/I2C_bus_I2C_MASTER.c ****         I2C_bus_TX_FIFO_WR_REG = theByte;
 329              		.loc 1 617 0
 330 0008 204B     		ldr	r3, .L33+4
 331 000a 1860     		str	r0, [r3]
 332              	.L27:
 618:.\Generated_Source\PSoC4/I2C_bus_I2C_MASTER.c **** 
 619:.\Generated_Source\PSoC4/I2C_bus_I2C_MASTER.c ****         while(!I2C_bus_CHECK_INTR_MASTER(I2C_bus_INTR_MASTER_I2C_ACK      |
 333              		.loc 1 619 0 discriminator 1
 334 000c 204B     		ldr	r3, .L33+8
 335 000e 1A68     		ldr	r2, [r3]
 336 0010 0823     		mov	r3, #8
 337 0012 FF33     		add	r3, r3, #255
 338 0014 1A42     		tst	r2, r3
 339 0016 F9D0     		beq	.L27
 620:.\Generated_Source\PSoC4/I2C_bus_I2C_MASTER.c ****                                                   I2C_bus_INTR_MASTER_I2C_NACK     |
 621:.\Generated_Source\PSoC4/I2C_bus_I2C_MASTER.c ****                                                   I2C_bus_INTR_MASTER_I2C_ARB_LOST |
ARM GAS  C:\Users\username\AppData\Local\Temp\cc0FlDXj.s 			page 18


 622:.\Generated_Source\PSoC4/I2C_bus_I2C_MASTER.c ****                                                   I2C_bus_INTR_MASTER_I2C_BUS_ERROR))
 623:.\Generated_Source\PSoC4/I2C_bus_I2C_MASTER.c ****         {
 624:.\Generated_Source\PSoC4/I2C_bus_I2C_MASTER.c ****             /* Wait until byte has been transferred */
 625:.\Generated_Source\PSoC4/I2C_bus_I2C_MASTER.c ****         }
 626:.\Generated_Source\PSoC4/I2C_bus_I2C_MASTER.c **** 
 627:.\Generated_Source\PSoC4/I2C_bus_I2C_MASTER.c ****         /* Check results after byte was sent */
 628:.\Generated_Source\PSoC4/I2C_bus_I2C_MASTER.c ****         if(I2C_bus_CHECK_INTR_MASTER(I2C_bus_INTR_MASTER_I2C_ACK))
 340              		.loc 1 628 0
 341 0018 1D4B     		ldr	r3, .L33+8
 342 001a 1B68     		ldr	r3, [r3]
 343 001c 5B07     		lsl	r3, r3, #29
 344 001e 05D5     		bpl	.L28
 629:.\Generated_Source\PSoC4/I2C_bus_I2C_MASTER.c ****         {
 630:.\Generated_Source\PSoC4/I2C_bus_I2C_MASTER.c ****             I2C_bus_state = I2C_bus_I2C_FSM_MSTR_HALT;
 345              		.loc 1 630 0
 346 0020 6022     		mov	r2, #96
 347 0022 194B     		ldr	r3, .L33
 348 0024 1A70     		strb	r2, [r3]
 349              	.LVL27:
 631:.\Generated_Source\PSoC4/I2C_bus_I2C_MASTER.c ****                          errStatus = I2C_bus_I2C_MSTR_NO_ERROR;
 350              		.loc 1 631 0
 351 0026 0020     		mov	r0, #0
 352              	.LVL28:
 611:.\Generated_Source\PSoC4/I2C_bus_I2C_MASTER.c ****     errStatus = I2C_bus_I2C_MSTR_NOT_READY;
 353              		.loc 1 611 0
 354 0028 0021     		mov	r1, #0
 355 002a 19E0     		b	.L29
 356              	.LVL29:
 357              	.L28:
 632:.\Generated_Source\PSoC4/I2C_bus_I2C_MASTER.c ****         }
 633:.\Generated_Source\PSoC4/I2C_bus_I2C_MASTER.c ****         else if(I2C_bus_CHECK_INTR_MASTER(I2C_bus_INTR_MASTER_I2C_NACK))
 358              		.loc 1 633 0
 359 002c 184B     		ldr	r3, .L33+8
 360 002e 1B68     		ldr	r3, [r3]
 361 0030 9B07     		lsl	r3, r3, #30
 362 0032 05D5     		bpl	.L30
 634:.\Generated_Source\PSoC4/I2C_bus_I2C_MASTER.c ****         {
 635:.\Generated_Source\PSoC4/I2C_bus_I2C_MASTER.c ****             I2C_bus_state = I2C_bus_I2C_FSM_MSTR_HALT;
 363              		.loc 1 635 0
 364 0034 6022     		mov	r2, #96
 365 0036 144B     		ldr	r3, .L33
 366 0038 1A70     		strb	r2, [r3]
 367              	.LVL30:
 636:.\Generated_Source\PSoC4/I2C_bus_I2C_MASTER.c ****                          errStatus = I2C_bus_I2C_MSTR_ERR_LB_NAK;
 368              		.loc 1 636 0
 369 003a 0220     		mov	r0, #2
 370              	.LVL31:
 611:.\Generated_Source\PSoC4/I2C_bus_I2C_MASTER.c ****     errStatus = I2C_bus_I2C_MSTR_NOT_READY;
 371              		.loc 1 611 0
 372 003c 0021     		mov	r1, #0
 373 003e 0FE0     		b	.L29
 374              	.LVL32:
 375              	.L30:
 637:.\Generated_Source\PSoC4/I2C_bus_I2C_MASTER.c ****         }
 638:.\Generated_Source\PSoC4/I2C_bus_I2C_MASTER.c ****         else if(I2C_bus_CHECK_INTR_MASTER(I2C_bus_INTR_MASTER_I2C_ARB_LOST))
 376              		.loc 1 638 0
 377 0040 134B     		ldr	r3, .L33+8
ARM GAS  C:\Users\username\AppData\Local\Temp\cc0FlDXj.s 			page 19


 378 0042 1B68     		ldr	r3, [r3]
 379 0044 DB07     		lsl	r3, r3, #31
 380 0046 05D5     		bpl	.L31
 639:.\Generated_Source\PSoC4/I2C_bus_I2C_MASTER.c ****         {
 640:.\Generated_Source\PSoC4/I2C_bus_I2C_MASTER.c ****             I2C_bus_state = I2C_bus_I2C_FSM_IDLE;
 381              		.loc 1 640 0
 382 0048 1022     		mov	r2, #16
 383 004a 0F4B     		ldr	r3, .L33
 384 004c 1A70     		strb	r2, [r3]
 385              	.LVL33:
 641:.\Generated_Source\PSoC4/I2C_bus_I2C_MASTER.c ****                          errStatus = I2C_bus_I2C_MSTR_ERR_ARB_LOST;
 386              		.loc 1 641 0
 387 004e 0120     		mov	r0, #1
 388              	.LVL34:
 642:.\Generated_Source\PSoC4/I2C_bus_I2C_MASTER.c ****                          resetIp   = I2C_bus_I2C_RESET_ERROR;
 389              		.loc 1 642 0
 390 0050 0121     		mov	r1, #1
 391 0052 05E0     		b	.L29
 392              	.LVL35:
 393              	.L31:
 643:.\Generated_Source\PSoC4/I2C_bus_I2C_MASTER.c ****         }
 644:.\Generated_Source\PSoC4/I2C_bus_I2C_MASTER.c ****         else /* I2C_bus_INTR_MASTER_I2C_BUS_ERROR set is */
 645:.\Generated_Source\PSoC4/I2C_bus_I2C_MASTER.c ****         {
 646:.\Generated_Source\PSoC4/I2C_bus_I2C_MASTER.c ****             I2C_bus_state = I2C_bus_I2C_FSM_IDLE;
 394              		.loc 1 646 0
 395 0054 1022     		mov	r2, #16
 396 0056 0C4B     		ldr	r3, .L33
 397 0058 1A70     		strb	r2, [r3]
 398              	.LVL36:
 647:.\Generated_Source\PSoC4/I2C_bus_I2C_MASTER.c ****                          errStatus = I2C_bus_I2C_MSTR_ERR_BUS_ERR;
 399              		.loc 1 647 0
 400 005a 8020     		mov	r0, #128
 401              	.LVL37:
 402 005c 4000     		lsl	r0, r0, #1
 648:.\Generated_Source\PSoC4/I2C_bus_I2C_MASTER.c ****                          resetIp   = I2C_bus_I2C_RESET_ERROR;
 403              		.loc 1 648 0
 404 005e 0121     		mov	r1, #1
 405              	.LVL38:
 406              	.L29:
 649:.\Generated_Source\PSoC4/I2C_bus_I2C_MASTER.c ****         }
 650:.\Generated_Source\PSoC4/I2C_bus_I2C_MASTER.c **** 
 651:.\Generated_Source\PSoC4/I2C_bus_I2C_MASTER.c ****         I2C_bus_ClearMasterInterruptSource(I2C_bus_INTR_MASTER_I2C_ACK      |
 407              		.loc 1 651 0
 408 0060 0822     		mov	r2, #8
 409 0062 FF32     		add	r2, r2, #255
 410 0064 0A4B     		ldr	r3, .L33+8
 411 0066 1A60     		str	r2, [r3]
 652:.\Generated_Source\PSoC4/I2C_bus_I2C_MASTER.c ****                                                     I2C_bus_INTR_MASTER_I2C_NACK     |
 653:.\Generated_Source\PSoC4/I2C_bus_I2C_MASTER.c ****                                                     I2C_bus_INTR_MASTER_I2C_ARB_LOST |
 654:.\Generated_Source\PSoC4/I2C_bus_I2C_MASTER.c ****                                                     I2C_bus_INTR_MASTER_I2C_BUS_ERROR);
 655:.\Generated_Source\PSoC4/I2C_bus_I2C_MASTER.c **** 
 656:.\Generated_Source\PSoC4/I2C_bus_I2C_MASTER.c ****         /* Reset block in case of: LOST_ARB or BUS_ERR */
 657:.\Generated_Source\PSoC4/I2C_bus_I2C_MASTER.c ****         if(0u != resetIp)
 412              		.loc 1 657 0
 413 0068 0029     		cmp	r1, #0
 414 006a 0BD0     		beq	.L26
 658:.\Generated_Source\PSoC4/I2C_bus_I2C_MASTER.c ****         {
ARM GAS  C:\Users\username\AppData\Local\Temp\cc0FlDXj.s 			page 20


 659:.\Generated_Source\PSoC4/I2C_bus_I2C_MASTER.c ****             I2C_bus_SCB_SW_RESET;
 415              		.loc 1 659 0
 416 006c 094A     		ldr	r2, .L33+12
 417 006e 1368     		ldr	r3, [r2]
 418 0070 5B00     		lsl	r3, r3, #1
 419 0072 5B08     		lsr	r3, r3, #1
 420 0074 1360     		str	r3, [r2]
 421 0076 1368     		ldr	r3, [r2]
 422 0078 8021     		mov	r1, #128
 423              	.LVL39:
 424 007a 0906     		lsl	r1, r1, #24
 425 007c 0B43     		orr	r3, r1
 426 007e 1360     		str	r3, [r2]
 427 0080 00E0     		b	.L26
 428              	.LVL40:
 429              	.L32:
 612:.\Generated_Source\PSoC4/I2C_bus_I2C_MASTER.c **** 
 430              		.loc 1 612 0
 431 0082 0420     		mov	r0, #4
 432              	.LVL41:
 433              	.L26:
 660:.\Generated_Source\PSoC4/I2C_bus_I2C_MASTER.c ****         }
 661:.\Generated_Source\PSoC4/I2C_bus_I2C_MASTER.c ****     }
 662:.\Generated_Source\PSoC4/I2C_bus_I2C_MASTER.c **** 
 663:.\Generated_Source\PSoC4/I2C_bus_I2C_MASTER.c ****     return(errStatus);
 664:.\Generated_Source\PSoC4/I2C_bus_I2C_MASTER.c **** }
 434              		.loc 1 664 0
 435              		@ sp needed
 436 0084 7047     		bx	lr
 437              	.L34:
 438 0086 C046     		.align	2
 439              	.L33:
 440 0088 00000000 		.word	I2C_bus_state
 441 008c 40022540 		.word	1076167232
 442 0090 000F2540 		.word	1076170496
 443 0094 00002540 		.word	1076166656
 444              		.cfi_endproc
 445              	.LFE7:
 446              		.size	I2C_bus_I2CMasterWriteByte, .-I2C_bus_I2CMasterWriteByte
 447              		.section	.text.I2C_bus_I2CMasterReadByte,"ax",%progbits
 448              		.align	2
 449              		.global	I2C_bus_I2CMasterReadByte
 450              		.code	16
 451              		.thumb_func
 452              		.type	I2C_bus_I2CMasterReadByte, %function
 453              	I2C_bus_I2CMasterReadByte:
 454              	.LFB8:
 665:.\Generated_Source\PSoC4/I2C_bus_I2C_MASTER.c **** 
 666:.\Generated_Source\PSoC4/I2C_bus_I2C_MASTER.c **** 
 667:.\Generated_Source\PSoC4/I2C_bus_I2C_MASTER.c **** /*******************************************************************************
 668:.\Generated_Source\PSoC4/I2C_bus_I2C_MASTER.c **** * Function Name: I2C_bus_I2CMasterReadByte
 669:.\Generated_Source\PSoC4/I2C_bus_I2C_MASTER.c **** ********************************************************************************
 670:.\Generated_Source\PSoC4/I2C_bus_I2C_MASTER.c **** *
 671:.\Generated_Source\PSoC4/I2C_bus_I2C_MASTER.c **** * Summary:
 672:.\Generated_Source\PSoC4/I2C_bus_I2C_MASTER.c **** *  Reads one byte from a slave and ACKs or NAKs received byte.
 673:.\Generated_Source\PSoC4/I2C_bus_I2C_MASTER.c **** *  This function does not generate NAK explicitly. The following call
 674:.\Generated_Source\PSoC4/I2C_bus_I2C_MASTER.c **** *  SCB_I2CMasterSendStop() or SCB_I2CMasterSendRestart() will generate NAK and
ARM GAS  C:\Users\username\AppData\Local\Temp\cc0FlDXj.s 			page 21


 675:.\Generated_Source\PSoC4/I2C_bus_I2C_MASTER.c **** *  Stop or ReStart condition appropriately.
 676:.\Generated_Source\PSoC4/I2C_bus_I2C_MASTER.c **** *  This function is blocking and does not return until byte is received
 677:.\Generated_Source\PSoC4/I2C_bus_I2C_MASTER.c **** *  or error occurred.
 678:.\Generated_Source\PSoC4/I2C_bus_I2C_MASTER.c **** *
 679:.\Generated_Source\PSoC4/I2C_bus_I2C_MASTER.c **** * Parameters:
 680:.\Generated_Source\PSoC4/I2C_bus_I2C_MASTER.c **** *  ackNack: Response to received byte.
 681:.\Generated_Source\PSoC4/I2C_bus_I2C_MASTER.c **** *
 682:.\Generated_Source\PSoC4/I2C_bus_I2C_MASTER.c **** * Return:
 683:.\Generated_Source\PSoC4/I2C_bus_I2C_MASTER.c **** *  Byte read from the slave. In case of error the MSB of returned data
 684:.\Generated_Source\PSoC4/I2C_bus_I2C_MASTER.c **** *  is set to 1.
 685:.\Generated_Source\PSoC4/I2C_bus_I2C_MASTER.c **** *
 686:.\Generated_Source\PSoC4/I2C_bus_I2C_MASTER.c **** * Side Effects:
 687:.\Generated_Source\PSoC4/I2C_bus_I2C_MASTER.c **** *  A valid Start or ReStart condition must be generated before calling this
 688:.\Generated_Source\PSoC4/I2C_bus_I2C_MASTER.c **** *  function. This function does nothing and returns invalid byte value
 689:.\Generated_Source\PSoC4/I2C_bus_I2C_MASTER.c **** *  if Start or ReStart conditions failed before this function was called.
 690:.\Generated_Source\PSoC4/I2C_bus_I2C_MASTER.c **** *
 691:.\Generated_Source\PSoC4/I2C_bus_I2C_MASTER.c **** * Global variables:
 692:.\Generated_Source\PSoC4/I2C_bus_I2C_MASTER.c **** *  I2C_bus_state - used to store current state of software FSM.
 693:.\Generated_Source\PSoC4/I2C_bus_I2C_MASTER.c **** *
 694:.\Generated_Source\PSoC4/I2C_bus_I2C_MASTER.c **** *******************************************************************************/
 695:.\Generated_Source\PSoC4/I2C_bus_I2C_MASTER.c **** uint32 I2C_bus_I2CMasterReadByte(uint32 ackNack)
 696:.\Generated_Source\PSoC4/I2C_bus_I2C_MASTER.c **** {
 455              		.loc 1 696 0
 456              		.cfi_startproc
 457              	.LVL42:
 458 0000 011C     		mov	r1, r0
 459              	.LVL43:
 697:.\Generated_Source\PSoC4/I2C_bus_I2C_MASTER.c ****     uint32 theByte;
 698:.\Generated_Source\PSoC4/I2C_bus_I2C_MASTER.c **** 
 699:.\Generated_Source\PSoC4/I2C_bus_I2C_MASTER.c ****     /* Return invalid byte in case BUS_ERR happen during receiving */
 700:.\Generated_Source\PSoC4/I2C_bus_I2C_MASTER.c ****     theByte = I2C_bus_I2C_INVALID_BYTE;
 701:.\Generated_Source\PSoC4/I2C_bus_I2C_MASTER.c **** 
 702:.\Generated_Source\PSoC4/I2C_bus_I2C_MASTER.c ****     /* Check FSM state before read byte */
 703:.\Generated_Source\PSoC4/I2C_bus_I2C_MASTER.c ****     if(I2C_bus_CHECK_I2C_MASTER_ACTIVE)
 460              		.loc 1 703 0
 461 0002 194B     		ldr	r3, .L42
 462 0004 1B78     		ldrb	r3, [r3]
 463 0006 9B06     		lsl	r3, r3, #26
 464 0008 2BD5     		bpl	.L41
 465              	.L38:
 704:.\Generated_Source\PSoC4/I2C_bus_I2C_MASTER.c ****     {
 705:.\Generated_Source\PSoC4/I2C_bus_I2C_MASTER.c ****         while((!I2C_bus_CHECK_INTR_RX(I2C_bus_INTR_RX_NOT_EMPTY)) &&
 466              		.loc 1 705 0 discriminator 2
 467 000a 184B     		ldr	r3, .L42+4
 468 000c 1B68     		ldr	r3, [r3]
 469 000e 5B07     		lsl	r3, r3, #29
 470 0010 05D4     		bmi	.L37
 706:.\Generated_Source\PSoC4/I2C_bus_I2C_MASTER.c ****               (!I2C_bus_CHECK_INTR_MASTER(I2C_bus_INTR_MASTER_I2C_ARB_LOST |
 471              		.loc 1 706 0 discriminator 1
 472 0012 174B     		ldr	r3, .L42+8
 473 0014 1A68     		ldr	r2, [r3]
 705:.\Generated_Source\PSoC4/I2C_bus_I2C_MASTER.c ****               (!I2C_bus_CHECK_INTR_MASTER(I2C_bus_INTR_MASTER_I2C_ARB_LOST |
 474              		.loc 1 705 0 discriminator 1
 475 0016 0223     		mov	r3, #2
 476 0018 FF33     		add	r3, r3, #255
 477 001a 1A42     		tst	r2, r3
 478 001c F5D0     		beq	.L38
ARM GAS  C:\Users\username\AppData\Local\Temp\cc0FlDXj.s 			page 22


 479              	.L37:
 707:.\Generated_Source\PSoC4/I2C_bus_I2C_MASTER.c ****                                                   I2C_bus_INTR_MASTER_I2C_BUS_ERROR)))
 708:.\Generated_Source\PSoC4/I2C_bus_I2C_MASTER.c ****         {
 709:.\Generated_Source\PSoC4/I2C_bus_I2C_MASTER.c ****             /* Wait until byte has been received */
 710:.\Generated_Source\PSoC4/I2C_bus_I2C_MASTER.c ****         }
 711:.\Generated_Source\PSoC4/I2C_bus_I2C_MASTER.c **** 
 712:.\Generated_Source\PSoC4/I2C_bus_I2C_MASTER.c ****         /* Check the results after the byte was sent */
 713:.\Generated_Source\PSoC4/I2C_bus_I2C_MASTER.c ****         if(I2C_bus_CHECK_INTR_RX(I2C_bus_INTR_RX_NOT_EMPTY))
 480              		.loc 1 713 0
 481 001e 134B     		ldr	r3, .L42+4
 482 0020 1B68     		ldr	r3, [r3]
 483 0022 5B07     		lsl	r3, r3, #29
 484 0024 0DD5     		bpl	.L39
 714:.\Generated_Source\PSoC4/I2C_bus_I2C_MASTER.c ****         {
 715:.\Generated_Source\PSoC4/I2C_bus_I2C_MASTER.c ****             theByte = I2C_bus_RX_FIFO_RD_REG;
 485              		.loc 1 715 0
 486 0026 134B     		ldr	r3, .L42+12
 487 0028 1868     		ldr	r0, [r3]
 488              	.LVL44:
 716:.\Generated_Source\PSoC4/I2C_bus_I2C_MASTER.c **** 
 717:.\Generated_Source\PSoC4/I2C_bus_I2C_MASTER.c ****             I2C_bus_ClearRxInterruptSource(I2C_bus_INTR_RX_NOT_EMPTY);
 489              		.loc 1 717 0
 490 002a 0422     		mov	r2, #4
 491 002c 0F4B     		ldr	r3, .L42+4
 492 002e 1A60     		str	r2, [r3]
 718:.\Generated_Source\PSoC4/I2C_bus_I2C_MASTER.c **** 
 719:.\Generated_Source\PSoC4/I2C_bus_I2C_MASTER.c ****             if(0u == ackNack)
 493              		.loc 1 719 0
 494 0030 0029     		cmp	r1, #0
 495 0032 02D1     		bne	.L40
 720:.\Generated_Source\PSoC4/I2C_bus_I2C_MASTER.c ****             {
 721:.\Generated_Source\PSoC4/I2C_bus_I2C_MASTER.c ****                 I2C_bus_I2C_MASTER_GENERATE_ACK;
 496              		.loc 1 721 0
 497 0034 104B     		ldr	r3, .L42+16
 498 0036 1A60     		str	r2, [r3]
 499 0038 15E0     		b	.L36
 500              	.L40:
 722:.\Generated_Source\PSoC4/I2C_bus_I2C_MASTER.c ****             }
 723:.\Generated_Source\PSoC4/I2C_bus_I2C_MASTER.c ****             else
 724:.\Generated_Source\PSoC4/I2C_bus_I2C_MASTER.c ****             {
 725:.\Generated_Source\PSoC4/I2C_bus_I2C_MASTER.c ****                 /* NACK is generated by Stop or ReStart command */
 726:.\Generated_Source\PSoC4/I2C_bus_I2C_MASTER.c ****                 I2C_bus_state = I2C_bus_I2C_FSM_MSTR_HALT;
 501              		.loc 1 726 0
 502 003a 6022     		mov	r2, #96
 503 003c 0A4B     		ldr	r3, .L42
 504 003e 1A70     		strb	r2, [r3]
 505 0040 11E0     		b	.L36
 506              	.LVL45:
 507              	.L39:
 727:.\Generated_Source\PSoC4/I2C_bus_I2C_MASTER.c ****             }
 728:.\Generated_Source\PSoC4/I2C_bus_I2C_MASTER.c ****         }
 729:.\Generated_Source\PSoC4/I2C_bus_I2C_MASTER.c ****         else
 730:.\Generated_Source\PSoC4/I2C_bus_I2C_MASTER.c ****         {
 731:.\Generated_Source\PSoC4/I2C_bus_I2C_MASTER.c ****             I2C_bus_ClearMasterInterruptSource(I2C_bus_INTR_MASTER_ALL);
 508              		.loc 1 731 0
 509 0042 0E4A     		ldr	r2, .L42+20
 510 0044 0A4B     		ldr	r3, .L42+8
ARM GAS  C:\Users\username\AppData\Local\Temp\cc0FlDXj.s 			page 23


 511 0046 1A60     		str	r2, [r3]
 732:.\Generated_Source\PSoC4/I2C_bus_I2C_MASTER.c **** 
 733:.\Generated_Source\PSoC4/I2C_bus_I2C_MASTER.c ****             /* Reset block in case of: LOST_ARB or BUS_ERR */
 734:.\Generated_Source\PSoC4/I2C_bus_I2C_MASTER.c ****             I2C_bus_SCB_SW_RESET;
 512              		.loc 1 734 0
 513 0048 0D4A     		ldr	r2, .L42+24
 514 004a 1368     		ldr	r3, [r2]
 515 004c 5B00     		lsl	r3, r3, #1
 516 004e 5B08     		lsr	r3, r3, #1
 517 0050 1360     		str	r3, [r2]
 518 0052 1368     		ldr	r3, [r2]
 519 0054 8021     		mov	r1, #128
 520 0056 0906     		lsl	r1, r1, #24
 521 0058 0B43     		orr	r3, r1
 522 005a 1360     		str	r3, [r2]
 700:.\Generated_Source\PSoC4/I2C_bus_I2C_MASTER.c **** 
 523              		.loc 1 700 0
 524 005c 0120     		mov	r0, #1
 525              	.LVL46:
 526 005e 4042     		neg	r0, r0
 527 0060 01E0     		b	.L36
 528              	.LVL47:
 529              	.L41:
 530 0062 0120     		mov	r0, #1
 531              	.LVL48:
 532 0064 4042     		neg	r0, r0
 533              	.LVL49:
 534              	.L36:
 735:.\Generated_Source\PSoC4/I2C_bus_I2C_MASTER.c ****         }
 736:.\Generated_Source\PSoC4/I2C_bus_I2C_MASTER.c ****     }
 737:.\Generated_Source\PSoC4/I2C_bus_I2C_MASTER.c **** 
 738:.\Generated_Source\PSoC4/I2C_bus_I2C_MASTER.c ****     return(theByte);
 739:.\Generated_Source\PSoC4/I2C_bus_I2C_MASTER.c **** }
 535              		.loc 1 739 0
 536              		@ sp needed
 537 0066 7047     		bx	lr
 538              	.L43:
 539              		.align	2
 540              	.L42:
 541 0068 00000000 		.word	I2C_bus_state
 542 006c C00F2540 		.word	1076170688
 543 0070 000F2540 		.word	1076170496
 544 0074 40032540 		.word	1076167488
 545 0078 68002540 		.word	1076166760
 546 007c 17030000 		.word	791
 547 0080 00002540 		.word	1076166656
 548              		.cfi_endproc
 549              	.LFE8:
 550              		.size	I2C_bus_I2CMasterReadByte, .-I2C_bus_I2CMasterReadByte
 551              		.section	.text.I2C_bus_I2CMasterGetReadBufSize,"ax",%progbits
 552              		.align	2
 553              		.global	I2C_bus_I2CMasterGetReadBufSize
 554              		.code	16
 555              		.thumb_func
 556              		.type	I2C_bus_I2CMasterGetReadBufSize, %function
 557              	I2C_bus_I2CMasterGetReadBufSize:
 558              	.LFB9:
ARM GAS  C:\Users\username\AppData\Local\Temp\cc0FlDXj.s 			page 24


 740:.\Generated_Source\PSoC4/I2C_bus_I2C_MASTER.c **** 
 741:.\Generated_Source\PSoC4/I2C_bus_I2C_MASTER.c **** 
 742:.\Generated_Source\PSoC4/I2C_bus_I2C_MASTER.c **** /*******************************************************************************
 743:.\Generated_Source\PSoC4/I2C_bus_I2C_MASTER.c **** * Function Name: I2C_bus_I2CMasterGetReadBufSize
 744:.\Generated_Source\PSoC4/I2C_bus_I2C_MASTER.c **** ********************************************************************************
 745:.\Generated_Source\PSoC4/I2C_bus_I2C_MASTER.c **** *
 746:.\Generated_Source\PSoC4/I2C_bus_I2C_MASTER.c **** * Summary:
 747:.\Generated_Source\PSoC4/I2C_bus_I2C_MASTER.c **** *  Returns the number of bytes that has been transferred with an
 748:.\Generated_Source\PSoC4/I2C_bus_I2C_MASTER.c **** *  SCB_I2CMasterReadBuf() function.
 749:.\Generated_Source\PSoC4/I2C_bus_I2C_MASTER.c **** *
 750:.\Generated_Source\PSoC4/I2C_bus_I2C_MASTER.c **** * Parameters:
 751:.\Generated_Source\PSoC4/I2C_bus_I2C_MASTER.c **** *  None
 752:.\Generated_Source\PSoC4/I2C_bus_I2C_MASTER.c **** *
 753:.\Generated_Source\PSoC4/I2C_bus_I2C_MASTER.c **** * Return:
 754:.\Generated_Source\PSoC4/I2C_bus_I2C_MASTER.c **** *  Byte count of transfer. If the transfer is not yet complete, it returns
 755:.\Generated_Source\PSoC4/I2C_bus_I2C_MASTER.c **** *  the byte count transferred so far.
 756:.\Generated_Source\PSoC4/I2C_bus_I2C_MASTER.c **** *
 757:.\Generated_Source\PSoC4/I2C_bus_I2C_MASTER.c **** * Side Effects:
 758:.\Generated_Source\PSoC4/I2C_bus_I2C_MASTER.c **** *  This function returns not valid value if SCB_I2C_MSTAT_ERR_ARB_LOST
 759:.\Generated_Source\PSoC4/I2C_bus_I2C_MASTER.c **** *  or SCB_I2C_MSTAT_ERR_BUS_ERROR occurred while read transfer.
 760:.\Generated_Source\PSoC4/I2C_bus_I2C_MASTER.c **** *
 761:.\Generated_Source\PSoC4/I2C_bus_I2C_MASTER.c **** * Global variables:
 762:.\Generated_Source\PSoC4/I2C_bus_I2C_MASTER.c **** *  I2C_bus_mstrRdBufIndex - used to current index within master read
 763:.\Generated_Source\PSoC4/I2C_bus_I2C_MASTER.c **** *  buffer.
 764:.\Generated_Source\PSoC4/I2C_bus_I2C_MASTER.c **** *
 765:.\Generated_Source\PSoC4/I2C_bus_I2C_MASTER.c **** *******************************************************************************/
 766:.\Generated_Source\PSoC4/I2C_bus_I2C_MASTER.c **** uint32 I2C_bus_I2CMasterGetReadBufSize(void)
 767:.\Generated_Source\PSoC4/I2C_bus_I2C_MASTER.c **** {
 559              		.loc 1 767 0
 560              		.cfi_startproc
 768:.\Generated_Source\PSoC4/I2C_bus_I2C_MASTER.c ****     return(I2C_bus_mstrRdBufIndex);
 561              		.loc 1 768 0
 562 0000 014B     		ldr	r3, .L45
 563 0002 1868     		ldr	r0, [r3]
 769:.\Generated_Source\PSoC4/I2C_bus_I2C_MASTER.c **** }
 564              		.loc 1 769 0
 565              		@ sp needed
 566 0004 7047     		bx	lr
 567              	.L46:
 568 0006 C046     		.align	2
 569              	.L45:
 570 0008 00000000 		.word	I2C_bus_mstrRdBufIndex
 571              		.cfi_endproc
 572              	.LFE9:
 573              		.size	I2C_bus_I2CMasterGetReadBufSize, .-I2C_bus_I2CMasterGetReadBufSize
 574              		.section	.text.I2C_bus_I2CMasterGetWriteBufSize,"ax",%progbits
 575              		.align	2
 576              		.global	I2C_bus_I2CMasterGetWriteBufSize
 577              		.code	16
 578              		.thumb_func
 579              		.type	I2C_bus_I2CMasterGetWriteBufSize, %function
 580              	I2C_bus_I2CMasterGetWriteBufSize:
 581              	.LFB10:
 770:.\Generated_Source\PSoC4/I2C_bus_I2C_MASTER.c **** 
 771:.\Generated_Source\PSoC4/I2C_bus_I2C_MASTER.c **** 
 772:.\Generated_Source\PSoC4/I2C_bus_I2C_MASTER.c **** /*******************************************************************************
 773:.\Generated_Source\PSoC4/I2C_bus_I2C_MASTER.c **** * Function Name: I2C_bus_I2CMasterGetWriteBufSize
ARM GAS  C:\Users\username\AppData\Local\Temp\cc0FlDXj.s 			page 25


 774:.\Generated_Source\PSoC4/I2C_bus_I2C_MASTER.c **** ********************************************************************************
 775:.\Generated_Source\PSoC4/I2C_bus_I2C_MASTER.c **** *
 776:.\Generated_Source\PSoC4/I2C_bus_I2C_MASTER.c **** * Summary:
 777:.\Generated_Source\PSoC4/I2C_bus_I2C_MASTER.c **** *  Returns the number of bytes that have been transferred with an
 778:.\Generated_Source\PSoC4/I2C_bus_I2C_MASTER.c **** *  SCB_I2CMasterWriteBuf() function.
 779:.\Generated_Source\PSoC4/I2C_bus_I2C_MASTER.c **** *
 780:.\Generated_Source\PSoC4/I2C_bus_I2C_MASTER.c **** * Parameters:
 781:.\Generated_Source\PSoC4/I2C_bus_I2C_MASTER.c **** *  None
 782:.\Generated_Source\PSoC4/I2C_bus_I2C_MASTER.c **** *
 783:.\Generated_Source\PSoC4/I2C_bus_I2C_MASTER.c **** * Return:
 784:.\Generated_Source\PSoC4/I2C_bus_I2C_MASTER.c **** *  Byte count of transfer. If the transfer is not yet complete, it returns
 785:.\Generated_Source\PSoC4/I2C_bus_I2C_MASTER.c **** *  zero unit transfer completion.
 786:.\Generated_Source\PSoC4/I2C_bus_I2C_MASTER.c **** *
 787:.\Generated_Source\PSoC4/I2C_bus_I2C_MASTER.c **** * Side Effects:
 788:.\Generated_Source\PSoC4/I2C_bus_I2C_MASTER.c **** *  This function returns not valid value if SCB_I2C_MSTAT_ERR_ARB_LOST
 789:.\Generated_Source\PSoC4/I2C_bus_I2C_MASTER.c **** *  or SCB_I2C_MSTAT_ERR_BUS_ERROR occurred while read transfer.
 790:.\Generated_Source\PSoC4/I2C_bus_I2C_MASTER.c **** *
 791:.\Generated_Source\PSoC4/I2C_bus_I2C_MASTER.c **** * Global variables:
 792:.\Generated_Source\PSoC4/I2C_bus_I2C_MASTER.c **** *  I2C_bus_mstrWrBufIndex - used to current index within master write
 793:.\Generated_Source\PSoC4/I2C_bus_I2C_MASTER.c **** *  buffer.
 794:.\Generated_Source\PSoC4/I2C_bus_I2C_MASTER.c **** *
 795:.\Generated_Source\PSoC4/I2C_bus_I2C_MASTER.c **** *******************************************************************************/
 796:.\Generated_Source\PSoC4/I2C_bus_I2C_MASTER.c **** uint32 I2C_bus_I2CMasterGetWriteBufSize(void)
 797:.\Generated_Source\PSoC4/I2C_bus_I2C_MASTER.c **** {
 582              		.loc 1 797 0
 583              		.cfi_startproc
 798:.\Generated_Source\PSoC4/I2C_bus_I2C_MASTER.c ****     return(I2C_bus_mstrWrBufIndex);
 584              		.loc 1 798 0
 585 0000 014B     		ldr	r3, .L48
 586 0002 1868     		ldr	r0, [r3]
 799:.\Generated_Source\PSoC4/I2C_bus_I2C_MASTER.c **** }
 587              		.loc 1 799 0
 588              		@ sp needed
 589 0004 7047     		bx	lr
 590              	.L49:
 591 0006 C046     		.align	2
 592              	.L48:
 593 0008 00000000 		.word	I2C_bus_mstrWrBufIndex
 594              		.cfi_endproc
 595              	.LFE10:
 596              		.size	I2C_bus_I2CMasterGetWriteBufSize, .-I2C_bus_I2CMasterGetWriteBufSize
 597              		.section	.text.I2C_bus_I2CMasterClearReadBuf,"ax",%progbits
 598              		.align	2
 599              		.global	I2C_bus_I2CMasterClearReadBuf
 600              		.code	16
 601              		.thumb_func
 602              		.type	I2C_bus_I2CMasterClearReadBuf, %function
 603              	I2C_bus_I2CMasterClearReadBuf:
 604              	.LFB11:
 800:.\Generated_Source\PSoC4/I2C_bus_I2C_MASTER.c **** 
 801:.\Generated_Source\PSoC4/I2C_bus_I2C_MASTER.c **** 
 802:.\Generated_Source\PSoC4/I2C_bus_I2C_MASTER.c **** /*******************************************************************************
 803:.\Generated_Source\PSoC4/I2C_bus_I2C_MASTER.c **** * Function Name: I2C_bus_I2CMasterClearReadBuf
 804:.\Generated_Source\PSoC4/I2C_bus_I2C_MASTER.c **** ********************************************************************************
 805:.\Generated_Source\PSoC4/I2C_bus_I2C_MASTER.c **** *
 806:.\Generated_Source\PSoC4/I2C_bus_I2C_MASTER.c **** * Summary:
 807:.\Generated_Source\PSoC4/I2C_bus_I2C_MASTER.c **** *  Resets the read buffer pointer back to the first byte in the buffer.
ARM GAS  C:\Users\username\AppData\Local\Temp\cc0FlDXj.s 			page 26


 808:.\Generated_Source\PSoC4/I2C_bus_I2C_MASTER.c **** *
 809:.\Generated_Source\PSoC4/I2C_bus_I2C_MASTER.c **** * Parameters:
 810:.\Generated_Source\PSoC4/I2C_bus_I2C_MASTER.c **** *  None
 811:.\Generated_Source\PSoC4/I2C_bus_I2C_MASTER.c **** *
 812:.\Generated_Source\PSoC4/I2C_bus_I2C_MASTER.c **** * Return:
 813:.\Generated_Source\PSoC4/I2C_bus_I2C_MASTER.c **** *  None
 814:.\Generated_Source\PSoC4/I2C_bus_I2C_MASTER.c **** *
 815:.\Generated_Source\PSoC4/I2C_bus_I2C_MASTER.c **** * Global variables:
 816:.\Generated_Source\PSoC4/I2C_bus_I2C_MASTER.c **** *  I2C_bus_mstrRdBufIndex - used to current index within master read
 817:.\Generated_Source\PSoC4/I2C_bus_I2C_MASTER.c **** *   buffer.
 818:.\Generated_Source\PSoC4/I2C_bus_I2C_MASTER.c **** *  I2C_bus_mstrStatus - used to store current status of I2C Master.
 819:.\Generated_Source\PSoC4/I2C_bus_I2C_MASTER.c **** *
 820:.\Generated_Source\PSoC4/I2C_bus_I2C_MASTER.c **** *******************************************************************************/
 821:.\Generated_Source\PSoC4/I2C_bus_I2C_MASTER.c **** void I2C_bus_I2CMasterClearReadBuf(void)
 822:.\Generated_Source\PSoC4/I2C_bus_I2C_MASTER.c **** {
 605              		.loc 1 822 0
 606              		.cfi_startproc
 607 0000 08B5     		push	{r3, lr}
 608              		.cfi_def_cfa_offset 8
 609              		.cfi_offset 3, -8
 610              		.cfi_offset 14, -4
 823:.\Generated_Source\PSoC4/I2C_bus_I2C_MASTER.c ****     I2C_bus_DisableInt();  /* Lock from interruption */
 611              		.loc 1 823 0
 612 0002 0A20     		mov	r0, #10
 613 0004 FFF7FEFF 		bl	CyIntDisable
 614              	.LVL50:
 824:.\Generated_Source\PSoC4/I2C_bus_I2C_MASTER.c **** 
 825:.\Generated_Source\PSoC4/I2C_bus_I2C_MASTER.c ****     I2C_bus_mstrRdBufIndex = 0u;
 615              		.loc 1 825 0
 616 0008 0022     		mov	r2, #0
 617 000a 054B     		ldr	r3, .L51
 618 000c 1A60     		str	r2, [r3]
 826:.\Generated_Source\PSoC4/I2C_bus_I2C_MASTER.c ****     I2C_bus_mstrStatus    &= (uint16) ~I2C_bus_I2C_MSTAT_RD_CMPLT;
 619              		.loc 1 826 0
 620 000e 054A     		ldr	r2, .L51+4
 621 0010 1388     		ldrh	r3, [r2]
 622 0012 0121     		mov	r1, #1
 623 0014 8B43     		bic	r3, r1
 624 0016 1380     		strh	r3, [r2]
 827:.\Generated_Source\PSoC4/I2C_bus_I2C_MASTER.c **** 
 828:.\Generated_Source\PSoC4/I2C_bus_I2C_MASTER.c ****     I2C_bus_EnableInt();   /* Release lock */
 625              		.loc 1 828 0
 626 0018 0A20     		mov	r0, #10
 627 001a FFF7FEFF 		bl	CyIntEnable
 628              	.LVL51:
 829:.\Generated_Source\PSoC4/I2C_bus_I2C_MASTER.c **** }
 629              		.loc 1 829 0
 630              		@ sp needed
 631 001e 08BD     		pop	{r3, pc}
 632              	.L52:
 633              		.align	2
 634              	.L51:
 635 0020 00000000 		.word	I2C_bus_mstrRdBufIndex
 636 0024 00000000 		.word	I2C_bus_mstrStatus
 637              		.cfi_endproc
 638              	.LFE11:
 639              		.size	I2C_bus_I2CMasterClearReadBuf, .-I2C_bus_I2CMasterClearReadBuf
ARM GAS  C:\Users\username\AppData\Local\Temp\cc0FlDXj.s 			page 27


 640              		.section	.text.I2C_bus_I2CMasterClearWriteBuf,"ax",%progbits
 641              		.align	2
 642              		.global	I2C_bus_I2CMasterClearWriteBuf
 643              		.code	16
 644              		.thumb_func
 645              		.type	I2C_bus_I2CMasterClearWriteBuf, %function
 646              	I2C_bus_I2CMasterClearWriteBuf:
 647              	.LFB12:
 830:.\Generated_Source\PSoC4/I2C_bus_I2C_MASTER.c **** 
 831:.\Generated_Source\PSoC4/I2C_bus_I2C_MASTER.c **** 
 832:.\Generated_Source\PSoC4/I2C_bus_I2C_MASTER.c **** /*******************************************************************************
 833:.\Generated_Source\PSoC4/I2C_bus_I2C_MASTER.c **** * Function Name: I2C_bus_I2CMasterClearWriteBuf
 834:.\Generated_Source\PSoC4/I2C_bus_I2C_MASTER.c **** ********************************************************************************
 835:.\Generated_Source\PSoC4/I2C_bus_I2C_MASTER.c **** *
 836:.\Generated_Source\PSoC4/I2C_bus_I2C_MASTER.c **** * Summary:
 837:.\Generated_Source\PSoC4/I2C_bus_I2C_MASTER.c **** *  Resets the write buffer pointer back to the first byte in the buffer.
 838:.\Generated_Source\PSoC4/I2C_bus_I2C_MASTER.c **** *
 839:.\Generated_Source\PSoC4/I2C_bus_I2C_MASTER.c **** * Parameters:
 840:.\Generated_Source\PSoC4/I2C_bus_I2C_MASTER.c **** *  None
 841:.\Generated_Source\PSoC4/I2C_bus_I2C_MASTER.c **** *
 842:.\Generated_Source\PSoC4/I2C_bus_I2C_MASTER.c **** * Return:
 843:.\Generated_Source\PSoC4/I2C_bus_I2C_MASTER.c **** *  None
 844:.\Generated_Source\PSoC4/I2C_bus_I2C_MASTER.c **** *
 845:.\Generated_Source\PSoC4/I2C_bus_I2C_MASTER.c **** * Global variables:
 846:.\Generated_Source\PSoC4/I2C_bus_I2C_MASTER.c **** *  I2C_bus_mstrRdBufIndex - used to current index within master read
 847:.\Generated_Source\PSoC4/I2C_bus_I2C_MASTER.c **** *   buffer.
 848:.\Generated_Source\PSoC4/I2C_bus_I2C_MASTER.c **** *  I2C_bus_mstrStatus - used to store current status of I2C Master.
 849:.\Generated_Source\PSoC4/I2C_bus_I2C_MASTER.c **** *
 850:.\Generated_Source\PSoC4/I2C_bus_I2C_MASTER.c **** *******************************************************************************/
 851:.\Generated_Source\PSoC4/I2C_bus_I2C_MASTER.c **** void I2C_bus_I2CMasterClearWriteBuf(void)
 852:.\Generated_Source\PSoC4/I2C_bus_I2C_MASTER.c **** {
 648              		.loc 1 852 0
 649              		.cfi_startproc
 650 0000 08B5     		push	{r3, lr}
 651              		.cfi_def_cfa_offset 8
 652              		.cfi_offset 3, -8
 653              		.cfi_offset 14, -4
 853:.\Generated_Source\PSoC4/I2C_bus_I2C_MASTER.c ****     I2C_bus_DisableInt();  /* Lock from interruption */
 654              		.loc 1 853 0
 655 0002 0A20     		mov	r0, #10
 656 0004 FFF7FEFF 		bl	CyIntDisable
 657              	.LVL52:
 854:.\Generated_Source\PSoC4/I2C_bus_I2C_MASTER.c **** 
 855:.\Generated_Source\PSoC4/I2C_bus_I2C_MASTER.c ****     I2C_bus_mstrWrBufIndex = 0u;
 658              		.loc 1 855 0
 659 0008 0022     		mov	r2, #0
 660 000a 054B     		ldr	r3, .L54
 661 000c 1A60     		str	r2, [r3]
 856:.\Generated_Source\PSoC4/I2C_bus_I2C_MASTER.c ****     I2C_bus_mstrStatus    &= (uint16) ~I2C_bus_I2C_MSTAT_WR_CMPLT;
 662              		.loc 1 856 0
 663 000e 054A     		ldr	r2, .L54+4
 664 0010 1388     		ldrh	r3, [r2]
 665 0012 0221     		mov	r1, #2
 666 0014 8B43     		bic	r3, r1
 667 0016 1380     		strh	r3, [r2]
 857:.\Generated_Source\PSoC4/I2C_bus_I2C_MASTER.c **** 
 858:.\Generated_Source\PSoC4/I2C_bus_I2C_MASTER.c ****     I2C_bus_EnableInt();   /* Release lock */
ARM GAS  C:\Users\username\AppData\Local\Temp\cc0FlDXj.s 			page 28


 668              		.loc 1 858 0
 669 0018 0A20     		mov	r0, #10
 670 001a FFF7FEFF 		bl	CyIntEnable
 671              	.LVL53:
 859:.\Generated_Source\PSoC4/I2C_bus_I2C_MASTER.c **** }
 672              		.loc 1 859 0
 673              		@ sp needed
 674 001e 08BD     		pop	{r3, pc}
 675              	.L55:
 676              		.align	2
 677              	.L54:
 678 0020 00000000 		.word	I2C_bus_mstrWrBufIndex
 679 0024 00000000 		.word	I2C_bus_mstrStatus
 680              		.cfi_endproc
 681              	.LFE12:
 682              		.size	I2C_bus_I2CMasterClearWriteBuf, .-I2C_bus_I2CMasterClearWriteBuf
 683              		.section	.text.I2C_bus_I2CMasterStatus,"ax",%progbits
 684              		.align	2
 685              		.global	I2C_bus_I2CMasterStatus
 686              		.code	16
 687              		.thumb_func
 688              		.type	I2C_bus_I2CMasterStatus, %function
 689              	I2C_bus_I2CMasterStatus:
 690              	.LFB13:
 860:.\Generated_Source\PSoC4/I2C_bus_I2C_MASTER.c **** 
 861:.\Generated_Source\PSoC4/I2C_bus_I2C_MASTER.c **** 
 862:.\Generated_Source\PSoC4/I2C_bus_I2C_MASTER.c **** /*******************************************************************************
 863:.\Generated_Source\PSoC4/I2C_bus_I2C_MASTER.c **** * Function Name: I2C_bus_I2CMasterStatus
 864:.\Generated_Source\PSoC4/I2C_bus_I2C_MASTER.c **** ********************************************************************************
 865:.\Generated_Source\PSoC4/I2C_bus_I2C_MASTER.c **** *
 866:.\Generated_Source\PSoC4/I2C_bus_I2C_MASTER.c **** * Summary:
 867:.\Generated_Source\PSoC4/I2C_bus_I2C_MASTER.c **** *  Returns the master's communication status.
 868:.\Generated_Source\PSoC4/I2C_bus_I2C_MASTER.c **** *
 869:.\Generated_Source\PSoC4/I2C_bus_I2C_MASTER.c **** * Parameters:
 870:.\Generated_Source\PSoC4/I2C_bus_I2C_MASTER.c **** *  None
 871:.\Generated_Source\PSoC4/I2C_bus_I2C_MASTER.c **** *
 872:.\Generated_Source\PSoC4/I2C_bus_I2C_MASTER.c **** * Return:
 873:.\Generated_Source\PSoC4/I2C_bus_I2C_MASTER.c **** *  Current status of I2C master.
 874:.\Generated_Source\PSoC4/I2C_bus_I2C_MASTER.c **** *
 875:.\Generated_Source\PSoC4/I2C_bus_I2C_MASTER.c **** * Global variables:
 876:.\Generated_Source\PSoC4/I2C_bus_I2C_MASTER.c **** *  I2C_bus_mstrStatus - used to store current status of I2C Master.
 877:.\Generated_Source\PSoC4/I2C_bus_I2C_MASTER.c **** *
 878:.\Generated_Source\PSoC4/I2C_bus_I2C_MASTER.c **** *******************************************************************************/
 879:.\Generated_Source\PSoC4/I2C_bus_I2C_MASTER.c **** uint32 I2C_bus_I2CMasterStatus(void)
 880:.\Generated_Source\PSoC4/I2C_bus_I2C_MASTER.c **** {
 691              		.loc 1 880 0
 692              		.cfi_startproc
 693 0000 10B5     		push	{r4, lr}
 694              		.cfi_def_cfa_offset 8
 695              		.cfi_offset 4, -8
 696              		.cfi_offset 14, -4
 881:.\Generated_Source\PSoC4/I2C_bus_I2C_MASTER.c ****     uint32 status;
 882:.\Generated_Source\PSoC4/I2C_bus_I2C_MASTER.c **** 
 883:.\Generated_Source\PSoC4/I2C_bus_I2C_MASTER.c ****     I2C_bus_DisableInt();  /* Lock from interruption */
 697              		.loc 1 883 0
 698 0002 0A20     		mov	r0, #10
 699 0004 FFF7FEFF 		bl	CyIntDisable
ARM GAS  C:\Users\username\AppData\Local\Temp\cc0FlDXj.s 			page 29


 700              	.LVL54:
 884:.\Generated_Source\PSoC4/I2C_bus_I2C_MASTER.c **** 
 885:.\Generated_Source\PSoC4/I2C_bus_I2C_MASTER.c ****     status = (uint32) I2C_bus_mstrStatus;
 701              		.loc 1 885 0
 702 0008 074B     		ldr	r3, .L58
 703 000a 1B88     		ldrh	r3, [r3]
 704 000c 9BB2     		uxth	r3, r3
 705 000e 1C1C     		mov	r4, r3
 706              	.LVL55:
 886:.\Generated_Source\PSoC4/I2C_bus_I2C_MASTER.c **** 
 887:.\Generated_Source\PSoC4/I2C_bus_I2C_MASTER.c ****     if (I2C_bus_CHECK_I2C_MASTER_ACTIVE)
 707              		.loc 1 887 0
 708 0010 064A     		ldr	r2, .L58+4
 709 0012 1278     		ldrb	r2, [r2]
 710 0014 9206     		lsl	r2, r2, #26
 711 0016 01D5     		bpl	.L57
 888:.\Generated_Source\PSoC4/I2C_bus_I2C_MASTER.c ****     {
 889:.\Generated_Source\PSoC4/I2C_bus_I2C_MASTER.c ****         /* Add status of master pending transaction: MSTAT_XFER_INP */
 890:.\Generated_Source\PSoC4/I2C_bus_I2C_MASTER.c ****         status |= (uint32) I2C_bus_I2C_MSTAT_XFER_INP;
 712              		.loc 1 890 0
 713 0018 0424     		mov	r4, #4
 714 001a 1C43     		orr	r4, r3
 715              	.LVL56:
 716              	.L57:
 891:.\Generated_Source\PSoC4/I2C_bus_I2C_MASTER.c ****     }
 892:.\Generated_Source\PSoC4/I2C_bus_I2C_MASTER.c **** 
 893:.\Generated_Source\PSoC4/I2C_bus_I2C_MASTER.c ****     I2C_bus_EnableInt();   /* Release lock */
 717              		.loc 1 893 0
 718 001c 0A20     		mov	r0, #10
 719 001e FFF7FEFF 		bl	CyIntEnable
 720              	.LVL57:
 894:.\Generated_Source\PSoC4/I2C_bus_I2C_MASTER.c **** 
 895:.\Generated_Source\PSoC4/I2C_bus_I2C_MASTER.c ****     return(status);
 896:.\Generated_Source\PSoC4/I2C_bus_I2C_MASTER.c **** }
 721              		.loc 1 896 0
 722 0022 201C     		mov	r0, r4
 723              		@ sp needed
 724              	.LVL58:
 725 0024 10BD     		pop	{r4, pc}
 726              	.L59:
 727 0026 C046     		.align	2
 728              	.L58:
 729 0028 00000000 		.word	I2C_bus_mstrStatus
 730 002c 00000000 		.word	I2C_bus_state
 731              		.cfi_endproc
 732              	.LFE13:
 733              		.size	I2C_bus_I2CMasterStatus, .-I2C_bus_I2CMasterStatus
 734              		.section	.text.I2C_bus_I2CMasterClearStatus,"ax",%progbits
 735              		.align	2
 736              		.global	I2C_bus_I2CMasterClearStatus
 737              		.code	16
 738              		.thumb_func
 739              		.type	I2C_bus_I2CMasterClearStatus, %function
 740              	I2C_bus_I2CMasterClearStatus:
 741              	.LFB14:
 897:.\Generated_Source\PSoC4/I2C_bus_I2C_MASTER.c **** 
 898:.\Generated_Source\PSoC4/I2C_bus_I2C_MASTER.c **** 
ARM GAS  C:\Users\username\AppData\Local\Temp\cc0FlDXj.s 			page 30


 899:.\Generated_Source\PSoC4/I2C_bus_I2C_MASTER.c **** /*******************************************************************************
 900:.\Generated_Source\PSoC4/I2C_bus_I2C_MASTER.c **** * Function Name: I2C_bus_I2CMasterClearStatus
 901:.\Generated_Source\PSoC4/I2C_bus_I2C_MASTER.c **** ********************************************************************************
 902:.\Generated_Source\PSoC4/I2C_bus_I2C_MASTER.c **** *
 903:.\Generated_Source\PSoC4/I2C_bus_I2C_MASTER.c **** * Summary:
 904:.\Generated_Source\PSoC4/I2C_bus_I2C_MASTER.c **** *  Clears all status flags and returns the master status.
 905:.\Generated_Source\PSoC4/I2C_bus_I2C_MASTER.c **** *
 906:.\Generated_Source\PSoC4/I2C_bus_I2C_MASTER.c **** * Parameters:
 907:.\Generated_Source\PSoC4/I2C_bus_I2C_MASTER.c **** *  None
 908:.\Generated_Source\PSoC4/I2C_bus_I2C_MASTER.c **** *
 909:.\Generated_Source\PSoC4/I2C_bus_I2C_MASTER.c **** * Return:
 910:.\Generated_Source\PSoC4/I2C_bus_I2C_MASTER.c **** *  Current status of I2C master.
 911:.\Generated_Source\PSoC4/I2C_bus_I2C_MASTER.c **** *
 912:.\Generated_Source\PSoC4/I2C_bus_I2C_MASTER.c **** * Global variables:
 913:.\Generated_Source\PSoC4/I2C_bus_I2C_MASTER.c **** *  I2C_bus_mstrStatus - used to store current status of I2C Master.
 914:.\Generated_Source\PSoC4/I2C_bus_I2C_MASTER.c **** *
 915:.\Generated_Source\PSoC4/I2C_bus_I2C_MASTER.c **** *******************************************************************************/
 916:.\Generated_Source\PSoC4/I2C_bus_I2C_MASTER.c **** uint32 I2C_bus_I2CMasterClearStatus(void)
 917:.\Generated_Source\PSoC4/I2C_bus_I2C_MASTER.c **** {
 742              		.loc 1 917 0
 743              		.cfi_startproc
 744 0000 10B5     		push	{r4, lr}
 745              		.cfi_def_cfa_offset 8
 746              		.cfi_offset 4, -8
 747              		.cfi_offset 14, -4
 918:.\Generated_Source\PSoC4/I2C_bus_I2C_MASTER.c ****     uint32 status;
 919:.\Generated_Source\PSoC4/I2C_bus_I2C_MASTER.c **** 
 920:.\Generated_Source\PSoC4/I2C_bus_I2C_MASTER.c ****     I2C_bus_DisableInt();  /* Lock from interruption */
 748              		.loc 1 920 0
 749 0002 0A20     		mov	r0, #10
 750 0004 FFF7FEFF 		bl	CyIntDisable
 751              	.LVL59:
 921:.\Generated_Source\PSoC4/I2C_bus_I2C_MASTER.c **** 
 922:.\Generated_Source\PSoC4/I2C_bus_I2C_MASTER.c ****     /* Read and clear master status */
 923:.\Generated_Source\PSoC4/I2C_bus_I2C_MASTER.c ****     status = (uint32) I2C_bus_mstrStatus;
 752              		.loc 1 923 0
 753 0008 044B     		ldr	r3, .L61
 754 000a 1C88     		ldrh	r4, [r3]
 755 000c A4B2     		uxth	r4, r4
 756              	.LVL60:
 924:.\Generated_Source\PSoC4/I2C_bus_I2C_MASTER.c ****     I2C_bus_mstrStatus = I2C_bus_I2C_MSTAT_CLEAR;
 757              		.loc 1 924 0
 758 000e 0022     		mov	r2, #0
 759 0010 1A80     		strh	r2, [r3]
 925:.\Generated_Source\PSoC4/I2C_bus_I2C_MASTER.c **** 
 926:.\Generated_Source\PSoC4/I2C_bus_I2C_MASTER.c ****     I2C_bus_EnableInt();   /* Release lock */
 760              		.loc 1 926 0
 761 0012 0A20     		mov	r0, #10
 762 0014 FFF7FEFF 		bl	CyIntEnable
 763              	.LVL61:
 927:.\Generated_Source\PSoC4/I2C_bus_I2C_MASTER.c **** 
 928:.\Generated_Source\PSoC4/I2C_bus_I2C_MASTER.c ****     return(status);
 929:.\Generated_Source\PSoC4/I2C_bus_I2C_MASTER.c **** }
 764              		.loc 1 929 0
 765 0018 201C     		mov	r0, r4
 766              		@ sp needed
 767              	.LVL62:
ARM GAS  C:\Users\username\AppData\Local\Temp\cc0FlDXj.s 			page 31


 768 001a 10BD     		pop	{r4, pc}
 769              	.L62:
 770              		.align	2
 771              	.L61:
 772 001c 00000000 		.word	I2C_bus_mstrStatus
 773              		.cfi_endproc
 774              	.LFE14:
 775              		.size	I2C_bus_I2CMasterClearStatus, .-I2C_bus_I2CMasterClearStatus
 776              		.section	.text.I2C_bus_I2CReStartGeneration,"ax",%progbits
 777              		.align	2
 778              		.global	I2C_bus_I2CReStartGeneration
 779              		.code	16
 780              		.thumb_func
 781              		.type	I2C_bus_I2CReStartGeneration, %function
 782              	I2C_bus_I2CReStartGeneration:
 783              	.LFB15:
 930:.\Generated_Source\PSoC4/I2C_bus_I2C_MASTER.c **** 
 931:.\Generated_Source\PSoC4/I2C_bus_I2C_MASTER.c **** 
 932:.\Generated_Source\PSoC4/I2C_bus_I2C_MASTER.c **** /*******************************************************************************
 933:.\Generated_Source\PSoC4/I2C_bus_I2C_MASTER.c **** * Function Name: I2C_bus_I2CReStartGeneration
 934:.\Generated_Source\PSoC4/I2C_bus_I2C_MASTER.c **** ********************************************************************************
 935:.\Generated_Source\PSoC4/I2C_bus_I2C_MASTER.c **** *
 936:.\Generated_Source\PSoC4/I2C_bus_I2C_MASTER.c **** * Summary:
 937:.\Generated_Source\PSoC4/I2C_bus_I2C_MASTER.c **** *  Generates a ReStart condition:
 938:.\Generated_Source\PSoC4/I2C_bus_I2C_MASTER.c **** *  SCB IP V1 and later: Generates ReStart using the scb IP functionality
 939:.\Generated_Source\PSoC4/I2C_bus_I2C_MASTER.c **** *    Sets the I2C_MASTER_CMD_M_START and I2C_MASTER_CMD_M_NACK (if the previous
 940:.\Generated_Source\PSoC4/I2C_bus_I2C_MASTER.c **** *    transaction was read) bits in the SCB.I2C_MASTER_CMD register.
 941:.\Generated_Source\PSoC4/I2C_bus_I2C_MASTER.c **** *    This combination forces the master to generate ReStart.
 942:.\Generated_Source\PSoC4/I2C_bus_I2C_MASTER.c **** *
 943:.\Generated_Source\PSoC4/I2C_bus_I2C_MASTER.c **** *  SCB IP V0: Generates Restart using the GPIO and scb IP functionality.
 944:.\Generated_Source\PSoC4/I2C_bus_I2C_MASTER.c **** *   After the master completes write or read, the SCL is stretched.
 945:.\Generated_Source\PSoC4/I2C_bus_I2C_MASTER.c **** *   The master waits until SDA line is released by the slave. Then the GPIO
 946:.\Generated_Source\PSoC4/I2C_bus_I2C_MASTER.c **** *   function is enabled and the scb IP disabled as it already does not drive
 947:.\Generated_Source\PSoC4/I2C_bus_I2C_MASTER.c **** *   the bus. In case of the previous transfer was read, the NACK is generated
 948:.\Generated_Source\PSoC4/I2C_bus_I2C_MASTER.c **** *   by the GPIO. The delay of tLOW is added to manage the hold time.
 949:.\Generated_Source\PSoC4/I2C_bus_I2C_MASTER.c **** *   Set I2C_M_CMD.START and enable the scb IP. The ReStart generation
 950:.\Generated_Source\PSoC4/I2C_bus_I2C_MASTER.c **** *   is started after the I2C function is enabled for the SCL.
 951:.\Generated_Source\PSoC4/I2C_bus_I2C_MASTER.c **** *   Note1: the scb IP due re-enable generates Start but on the I2C bus it
 952:.\Generated_Source\PSoC4/I2C_bus_I2C_MASTER.c **** *          appears as ReStart.
 953:.\Generated_Source\PSoC4/I2C_bus_I2C_MASTER.c **** *   Note2: the I2C_M_CMD.START is queued if scb IP is disabled.
 954:.\Generated_Source\PSoC4/I2C_bus_I2C_MASTER.c **** *   Note3: the I2C_STATUS_M_READ is cleared is address was NACKed before.
 955:.\Generated_Source\PSoC4/I2C_bus_I2C_MASTER.c **** *
 956:.\Generated_Source\PSoC4/I2C_bus_I2C_MASTER.c **** * Parameters:
 957:.\Generated_Source\PSoC4/I2C_bus_I2C_MASTER.c **** *  None
 958:.\Generated_Source\PSoC4/I2C_bus_I2C_MASTER.c **** *
 959:.\Generated_Source\PSoC4/I2C_bus_I2C_MASTER.c **** * Return:
 960:.\Generated_Source\PSoC4/I2C_bus_I2C_MASTER.c **** *  None
 961:.\Generated_Source\PSoC4/I2C_bus_I2C_MASTER.c **** *
 962:.\Generated_Source\PSoC4/I2C_bus_I2C_MASTER.c **** * Side Effects:
 963:.\Generated_Source\PSoC4/I2C_bus_I2C_MASTER.c **** *  SCB IP V0: The NACK generation by the GPIO may cause a greater SCL period
 964:.\Generated_Source\PSoC4/I2C_bus_I2C_MASTER.c **** *             than expected for the selected master data rate.
 965:.\Generated_Source\PSoC4/I2C_bus_I2C_MASTER.c **** *
 966:.\Generated_Source\PSoC4/I2C_bus_I2C_MASTER.c **** *******************************************************************************/
 967:.\Generated_Source\PSoC4/I2C_bus_I2C_MASTER.c **** void I2C_bus_I2CReStartGeneration(void)
 968:.\Generated_Source\PSoC4/I2C_bus_I2C_MASTER.c **** {
 784              		.loc 1 968 0
 785              		.cfi_startproc
ARM GAS  C:\Users\username\AppData\Local\Temp\cc0FlDXj.s 			page 32


 786              	.LVL63:
 969:.\Generated_Source\PSoC4/I2C_bus_I2C_MASTER.c **** #if(I2C_bus_CY_SCBIP_V0)
 970:.\Generated_Source\PSoC4/I2C_bus_I2C_MASTER.c ****     /* Generates Restart use GPIO and scb IP functionality. Ticket ID#143715,
 971:.\Generated_Source\PSoC4/I2C_bus_I2C_MASTER.c ****     ID#145238 and ID#173656 */
 972:.\Generated_Source\PSoC4/I2C_bus_I2C_MASTER.c ****     uint32 status = I2C_bus_I2C_STATUS_REG;
 973:.\Generated_Source\PSoC4/I2C_bus_I2C_MASTER.c **** 
 974:.\Generated_Source\PSoC4/I2C_bus_I2C_MASTER.c ****     while(I2C_bus_WAIT_SDA_SET_HIGH)
 975:.\Generated_Source\PSoC4/I2C_bus_I2C_MASTER.c ****     {
 976:.\Generated_Source\PSoC4/I2C_bus_I2C_MASTER.c ****         /* Wait when slave release SDA line: SCL tHIGH is complete */
 977:.\Generated_Source\PSoC4/I2C_bus_I2C_MASTER.c ****     }
 978:.\Generated_Source\PSoC4/I2C_bus_I2C_MASTER.c **** 
 979:.\Generated_Source\PSoC4/I2C_bus_I2C_MASTER.c ****     /* Prepare DR register to drive SCL line */
 980:.\Generated_Source\PSoC4/I2C_bus_I2C_MASTER.c ****     I2C_bus_SET_I2C_SCL_DR(I2C_bus_I2C_SCL_LOW);
 981:.\Generated_Source\PSoC4/I2C_bus_I2C_MASTER.c **** 
 982:.\Generated_Source\PSoC4/I2C_bus_I2C_MASTER.c ****     /* Switch HSIOM to GPIO: SCL goes low */
 983:.\Generated_Source\PSoC4/I2C_bus_I2C_MASTER.c ****     I2C_bus_SET_I2C_SCL_HSIOM_SEL(I2C_bus_HSIOM_GPIO_SEL);
 984:.\Generated_Source\PSoC4/I2C_bus_I2C_MASTER.c **** 
 985:.\Generated_Source\PSoC4/I2C_bus_I2C_MASTER.c ****     /* Disable SCB block */
 986:.\Generated_Source\PSoC4/I2C_bus_I2C_MASTER.c ****     I2C_bus_CTRL_REG &= (uint32) ~I2C_bus_CTRL_ENABLED;
 987:.\Generated_Source\PSoC4/I2C_bus_I2C_MASTER.c **** 
 988:.\Generated_Source\PSoC4/I2C_bus_I2C_MASTER.c ****     if(0u != (status & I2C_bus_I2C_STATUS_M_READ))
 989:.\Generated_Source\PSoC4/I2C_bus_I2C_MASTER.c ****     {
 990:.\Generated_Source\PSoC4/I2C_bus_I2C_MASTER.c ****         /* Generate NACK use GPIO functionality */
 991:.\Generated_Source\PSoC4/I2C_bus_I2C_MASTER.c ****         I2C_bus_SET_I2C_SCL_DR(I2C_bus_I2C_SCL_LOW);
 992:.\Generated_Source\PSoC4/I2C_bus_I2C_MASTER.c ****         CyDelayUs(I2C_bus_I2C_TLOW_TIME); /* Count tLOW */
 993:.\Generated_Source\PSoC4/I2C_bus_I2C_MASTER.c **** 
 994:.\Generated_Source\PSoC4/I2C_bus_I2C_MASTER.c ****         I2C_bus_SET_I2C_SCL_DR(I2C_bus_I2C_SCL_HIGH);
 995:.\Generated_Source\PSoC4/I2C_bus_I2C_MASTER.c ****         while(I2C_bus_WAIT_SCL_SET_HIGH)
 996:.\Generated_Source\PSoC4/I2C_bus_I2C_MASTER.c ****         {
 997:.\Generated_Source\PSoC4/I2C_bus_I2C_MASTER.c ****             /* Wait until slave releases SCL in case if it stretches */
 998:.\Generated_Source\PSoC4/I2C_bus_I2C_MASTER.c ****         }
 999:.\Generated_Source\PSoC4/I2C_bus_I2C_MASTER.c ****         CyDelayUs(I2C_bus_I2C_THIGH_TIME); /* Count tHIGH */
1000:.\Generated_Source\PSoC4/I2C_bus_I2C_MASTER.c ****     }
1001:.\Generated_Source\PSoC4/I2C_bus_I2C_MASTER.c **** 
1002:.\Generated_Source\PSoC4/I2C_bus_I2C_MASTER.c ****     /* Count tLOW as hold time for write and read */
1003:.\Generated_Source\PSoC4/I2C_bus_I2C_MASTER.c ****     I2C_bus_SET_I2C_SCL_DR(I2C_bus_I2C_SCL_LOW);
1004:.\Generated_Source\PSoC4/I2C_bus_I2C_MASTER.c ****     CyDelayUs(I2C_bus_I2C_TLOW_TIME); /* Count tLOW */
1005:.\Generated_Source\PSoC4/I2C_bus_I2C_MASTER.c **** 
1006:.\Generated_Source\PSoC4/I2C_bus_I2C_MASTER.c ****     /* Set command for Start generation: it will appear */
1007:.\Generated_Source\PSoC4/I2C_bus_I2C_MASTER.c ****     I2C_bus_I2C_MASTER_CMD_REG = I2C_bus_I2C_MASTER_CMD_M_START;
1008:.\Generated_Source\PSoC4/I2C_bus_I2C_MASTER.c **** 
1009:.\Generated_Source\PSoC4/I2C_bus_I2C_MASTER.c ****     /* Enable SCB block */
1010:.\Generated_Source\PSoC4/I2C_bus_I2C_MASTER.c ****     I2C_bus_CTRL_REG |= (uint32) I2C_bus_CTRL_ENABLED;
1011:.\Generated_Source\PSoC4/I2C_bus_I2C_MASTER.c **** 
1012:.\Generated_Source\PSoC4/I2C_bus_I2C_MASTER.c ****     /* Switch HSIOM to I2C: */
1013:.\Generated_Source\PSoC4/I2C_bus_I2C_MASTER.c ****     I2C_bus_SET_I2C_SCL_HSIOM_SEL(I2C_bus_HSIOM_I2C_SEL);
1014:.\Generated_Source\PSoC4/I2C_bus_I2C_MASTER.c **** 
1015:.\Generated_Source\PSoC4/I2C_bus_I2C_MASTER.c ****     /* Revert SCL DR register */
1016:.\Generated_Source\PSoC4/I2C_bus_I2C_MASTER.c ****     I2C_bus_SET_I2C_SCL_DR(I2C_bus_I2C_SCL_HIGH);
1017:.\Generated_Source\PSoC4/I2C_bus_I2C_MASTER.c **** #else
1018:.\Generated_Source\PSoC4/I2C_bus_I2C_MASTER.c ****     uint32 cmd;
1019:.\Generated_Source\PSoC4/I2C_bus_I2C_MASTER.c **** 
1020:.\Generated_Source\PSoC4/I2C_bus_I2C_MASTER.c ****     /* Generates ReStart use scb IP functionality */
1021:.\Generated_Source\PSoC4/I2C_bus_I2C_MASTER.c ****     cmd  = I2C_bus_I2C_MASTER_CMD_M_START;
1022:.\Generated_Source\PSoC4/I2C_bus_I2C_MASTER.c ****     cmd |= I2C_bus_CHECK_I2C_STATUS(I2C_bus_I2C_STATUS_M_READ) ?
 787              		.loc 1 1022 0
 788 0000 054B     		ldr	r3, .L65
ARM GAS  C:\Users\username\AppData\Local\Temp\cc0FlDXj.s 			page 33


 789 0002 1B68     		ldr	r3, [r3]
 790 0004 2022     		mov	r2, #32
 791 0006 1340     		and	r3, r2
1023:.\Generated_Source\PSoC4/I2C_bus_I2C_MASTER.c ****                 (I2C_bus_I2C_MASTER_CMD_M_NACK) : (0u);
 792              		.loc 1 1023 0
 793 0008 00D0     		beq	.L64
 794 000a 0823     		mov	r3, #8
 795              	.L64:
1022:.\Generated_Source\PSoC4/I2C_bus_I2C_MASTER.c ****                 (I2C_bus_I2C_MASTER_CMD_M_NACK) : (0u);
 796              		.loc 1 1022 0 discriminator 4
 797 000c 0122     		mov	r2, #1
 798 000e 1343     		orr	r3, r2
 799              	.LVL64:
1024:.\Generated_Source\PSoC4/I2C_bus_I2C_MASTER.c **** 
1025:.\Generated_Source\PSoC4/I2C_bus_I2C_MASTER.c ****     I2C_bus_I2C_MASTER_CMD_REG = cmd;
 800              		.loc 1 1025 0 discriminator 4
 801 0010 024A     		ldr	r2, .L65+4
 802 0012 1360     		str	r3, [r2]
1026:.\Generated_Source\PSoC4/I2C_bus_I2C_MASTER.c **** #endif /* (I2C_bus_CY_SCBIP_V1) */
1027:.\Generated_Source\PSoC4/I2C_bus_I2C_MASTER.c **** }
 803              		.loc 1 1027 0 discriminator 4
 804              		@ sp needed
 805 0014 7047     		bx	lr
 806              	.L66:
 807 0016 C046     		.align	2
 808              	.L65:
 809 0018 64002540 		.word	1076166756
 810 001c 68002540 		.word	1076166760
 811              		.cfi_endproc
 812              	.LFE15:
 813              		.size	I2C_bus_I2CReStartGeneration, .-I2C_bus_I2CReStartGeneration
 814              		.section	.text.I2C_bus_I2CMasterWriteBuf,"ax",%progbits
 815              		.align	2
 816              		.global	I2C_bus_I2CMasterWriteBuf
 817              		.code	16
 818              		.thumb_func
 819              		.type	I2C_bus_I2CMasterWriteBuf, %function
 820              	I2C_bus_I2CMasterWriteBuf:
 821              	.LFB2:
  81:.\Generated_Source\PSoC4/I2C_bus_I2C_MASTER.c ****     uint32 errStatus;
 822              		.loc 1 81 0
 823              		.cfi_startproc
 824              	.LVL65:
 825 0000 F0B5     		push	{r4, r5, r6, r7, lr}
 826              		.cfi_def_cfa_offset 20
 827              		.cfi_offset 4, -20
 828              		.cfi_offset 5, -16
 829              		.cfi_offset 6, -12
 830              		.cfi_offset 7, -8
 831              		.cfi_offset 14, -4
 832 0002 83B0     		sub	sp, sp, #12
 833              		.cfi_def_cfa_offset 32
 834 0004 0190     		str	r0, [sp, #4]
 835 0006 0C1C     		mov	r4, r1
 836 0008 171C     		mov	r7, r2
 837 000a 1D1C     		mov	r5, r3
 838              	.LVL66:
ARM GAS  C:\Users\username\AppData\Local\Temp\cc0FlDXj.s 			page 34


  86:.\Generated_Source\PSoC4/I2C_bus_I2C_MASTER.c ****     {
 839              		.loc 1 86 0
 840 000c 0029     		cmp	r1, #0
 841 000e 19D0     		beq	.L73
  89:.\Generated_Source\PSoC4/I2C_bus_I2C_MASTER.c ****         {
 842              		.loc 1 89 0
 843 0010 284B     		ldr	r3, .L76
 844              	.LVL67:
 845 0012 1B78     		ldrb	r3, [r3]
 846 0014 102B     		cmp	r3, #16
 847 0016 0AD1     		bne	.L69
  91:.\Generated_Source\PSoC4/I2C_bus_I2C_MASTER.c **** 
 848              		.loc 1 91 0
 849 0018 0A20     		mov	r0, #10
 850              	.LVL68:
 851 001a FFF7FEFF 		bl	CyIntDisable
 852              	.LVL69:
  94:.\Generated_Source\PSoC4/I2C_bus_I2C_MASTER.c ****                             I2C_bus_I2C_MSTR_BUS_BUSY : I2C_bus_I2C_MSTR_NO_ERROR;
 853              		.loc 1 94 0
 854 001e 264B     		ldr	r3, .L76+4
 855 0020 1B68     		ldr	r3, [r3]
 856 0022 DB07     		lsl	r3, r3, #31
 857 0024 01D5     		bpl	.L74
 858 0026 0826     		mov	r6, #8
 859 0028 0FE0     		b	.L68
 860              	.L74:
 861 002a 0026     		mov	r6, #0
 862              	.LVL70:
 863 002c 0DE0     		b	.L68
 864              	.LVL71:
 865              	.L69:
  97:.\Generated_Source\PSoC4/I2C_bus_I2C_MASTER.c ****         {
 866              		.loc 1 97 0
 867 002e 214B     		ldr	r3, .L76
 868 0030 1B78     		ldrb	r3, [r3]
 869 0032 602B     		cmp	r3, #96
 870 0034 08D1     		bne	.L75
  99:.\Generated_Source\PSoC4/I2C_bus_I2C_MASTER.c ****                               errStatus  = I2C_bus_I2C_MSTR_NO_ERROR;
 871              		.loc 1 99 0
 872 0036 214A     		ldr	r2, .L76+8
 873              	.LVL72:
 874 0038 1388     		ldrh	r3, [r2]
 875 003a 0821     		mov	r1, #8
 876              	.LVL73:
 877 003c 8B43     		bic	r3, r1
 878 003e 1380     		strh	r3, [r2]
 879              	.LVL74:
 100:.\Generated_Source\PSoC4/I2C_bus_I2C_MASTER.c ****         }
 880              		.loc 1 100 0
 881 0040 0026     		mov	r6, #0
 882 0042 02E0     		b	.L68
 883              	.LVL75:
 884              	.L73:
  84:.\Generated_Source\PSoC4/I2C_bus_I2C_MASTER.c **** 
 885              		.loc 1 84 0
 886 0044 0426     		mov	r6, #4
 887 0046 00E0     		b	.L68
ARM GAS  C:\Users\username\AppData\Local\Temp\cc0FlDXj.s 			page 35


 888              	.LVL76:
 889              	.L75:
 890 0048 0426     		mov	r6, #4
 891              	.LVL77:
 892              	.L68:
 109:.\Generated_Source\PSoC4/I2C_bus_I2C_MASTER.c ****     {
 893              		.loc 1 109 0
 894 004a 002E     		cmp	r6, #0
 895 004c 2BD1     		bne	.L71
 117:.\Generated_Source\PSoC4/I2C_bus_I2C_MASTER.c ****         I2C_bus_mstrWrBufIndexTmp = 0u;
 896              		.loc 1 117 0
 897 004e 2822     		mov	r2, #40
 898 0050 184B     		ldr	r3, .L76
 899 0052 1A70     		strb	r2, [r3]
 118:.\Generated_Source\PSoC4/I2C_bus_I2C_MASTER.c ****         I2C_bus_mstrWrBufIndex    = 0u;
 900              		.loc 1 118 0
 901 0054 0023     		mov	r3, #0
 902 0056 1A4A     		ldr	r2, .L76+12
 903 0058 1360     		str	r3, [r2]
 119:.\Generated_Source\PSoC4/I2C_bus_I2C_MASTER.c ****         I2C_bus_mstrWrBufSize     = cnt;
 904              		.loc 1 119 0
 905 005a 1A4A     		ldr	r2, .L76+16
 906 005c 1360     		str	r3, [r2]
 120:.\Generated_Source\PSoC4/I2C_bus_I2C_MASTER.c ****         I2C_bus_mstrWrBufPtr      = (volatile uint8 *) wrData;
 907              		.loc 1 120 0
 908 005e 1A4B     		ldr	r3, .L76+20
 909 0060 1F60     		str	r7, [r3]
 121:.\Generated_Source\PSoC4/I2C_bus_I2C_MASTER.c ****         I2C_bus_mstrControl       = (uint8) mode;
 910              		.loc 1 121 0
 911 0062 1A4B     		ldr	r3, .L76+24
 912 0064 1C60     		str	r4, [r3]
 122:.\Generated_Source\PSoC4/I2C_bus_I2C_MASTER.c **** 
 913              		.loc 1 122 0
 914 0066 EAB2     		uxtb	r2, r5
 915 0068 194B     		ldr	r3, .L76+28
 916 006a 1A70     		strb	r2, [r3]
 124:.\Generated_Source\PSoC4/I2C_bus_I2C_MASTER.c **** 
 917              		.loc 1 124 0
 918 006c 019B     		ldr	r3, [sp, #4]
 919 006e 5C00     		lsl	r4, r3, #1
 920              	.LVL78:
 921 0070 FF23     		mov	r3, #255
 922 0072 1C40     		and	r4, r3
 923              	.LVL79:
 126:.\Generated_Source\PSoC4/I2C_bus_I2C_MASTER.c **** 
 924              		.loc 1 126 0
 925 0074 114A     		ldr	r2, .L76+8
 926 0076 1388     		ldrh	r3, [r2]
 927 0078 0221     		mov	r1, #2
 928 007a 8B43     		bic	r3, r1
 929 007c 1380     		strh	r3, [r2]
 128:.\Generated_Source\PSoC4/I2C_bus_I2C_MASTER.c ****         I2C_bus_ClearTxInterruptSource(I2C_bus_INTR_TX_UNDERFLOW);
 930              		.loc 1 128 0
 931 007e 154A     		ldr	r2, .L76+32
 932 0080 154B     		ldr	r3, .L76+36
 933 0082 1A60     		str	r2, [r3]
 934              	.LVL80:
ARM GAS  C:\Users\username\AppData\Local\Temp\cc0FlDXj.s 			page 36


 129:.\Generated_Source\PSoC4/I2C_bus_I2C_MASTER.c **** 
 935              		.loc 1 129 0
 936 0084 4023     		mov	r3, #64
 937 0086 154A     		ldr	r2, .L76+40
 938 0088 1360     		str	r3, [r2]
 134:.\Generated_Source\PSoC4/I2C_bus_I2C_MASTER.c **** 
 939              		.loc 1 134 0
 940 008a 154A     		ldr	r2, .L76+44
 941 008c 1360     		str	r3, [r2]
 137:.\Generated_Source\PSoC4/I2C_bus_I2C_MASTER.c ****         {
 942              		.loc 1 137 0
 943 008e EB07     		lsl	r3, r5, #31
 944 0090 04D5     		bpl	.L72
 139:.\Generated_Source\PSoC4/I2C_bus_I2C_MASTER.c ****             I2C_bus_TX_FIFO_WR_REG = slaveAddress;
 945              		.loc 1 139 0
 946 0092 FFF7FEFF 		bl	I2C_bus_I2CReStartGeneration
 947              	.LVL81:
 140:.\Generated_Source\PSoC4/I2C_bus_I2C_MASTER.c ****         }
 948              		.loc 1 140 0
 949 0096 134B     		ldr	r3, .L76+48
 950 0098 1C60     		str	r4, [r3]
 951 009a 04E0     		b	.L71
 952              	.L72:
 144:.\Generated_Source\PSoC4/I2C_bus_I2C_MASTER.c ****             I2C_bus_I2C_MASTER_GENERATE_START;
 953              		.loc 1 144 0
 954 009c 114B     		ldr	r3, .L76+48
 955 009e 1C60     		str	r4, [r3]
 145:.\Generated_Source\PSoC4/I2C_bus_I2C_MASTER.c ****         }
 956              		.loc 1 145 0
 957 00a0 0222     		mov	r2, #2
 958 00a2 114B     		ldr	r3, .L76+52
 959 00a4 1A60     		str	r2, [r3]
 960              	.LVL82:
 961              	.L71:
 149:.\Generated_Source\PSoC4/I2C_bus_I2C_MASTER.c **** 
 962              		.loc 1 149 0
 963 00a6 0A20     		mov	r0, #10
 964 00a8 FFF7FEFF 		bl	CyIntEnable
 965              	.LVL83:
 152:.\Generated_Source\PSoC4/I2C_bus_I2C_MASTER.c **** 
 966              		.loc 1 152 0
 967 00ac 301C     		mov	r0, r6
 968 00ae 03B0     		add	sp, sp, #12
 969              		@ sp needed
 970              	.LVL84:
 971              	.LVL85:
 972              	.LVL86:
 973 00b0 F0BD     		pop	{r4, r5, r6, r7, pc}
 974              	.L77:
 975 00b2 C046     		.align	2
 976              	.L76:
 977 00b4 00000000 		.word	I2C_bus_state
 978 00b8 64002540 		.word	1076166756
 979 00bc 00000000 		.word	I2C_bus_mstrStatus
 980 00c0 00000000 		.word	I2C_bus_mstrWrBufIndexTmp
 981 00c4 00000000 		.word	I2C_bus_mstrWrBufIndex
 982 00c8 00000000 		.word	I2C_bus_mstrWrBufSize
ARM GAS  C:\Users\username\AppData\Local\Temp\cc0FlDXj.s 			page 37


 983 00cc 00000000 		.word	I2C_bus_mstrWrBufPtr
 984 00d0 00000000 		.word	I2C_bus_mstrControl
 985 00d4 17030000 		.word	791
 986 00d8 000F2540 		.word	1076170496
 987 00dc 800F2540 		.word	1076170624
 988 00e0 880F2540 		.word	1076170632
 989 00e4 40022540 		.word	1076167232
 990 00e8 68002540 		.word	1076166760
 991              		.cfi_endproc
 992              	.LFE2:
 993              		.size	I2C_bus_I2CMasterWriteBuf, .-I2C_bus_I2CMasterWriteBuf
 994              		.section	.text.I2C_bus_I2CMasterReadBuf,"ax",%progbits
 995              		.align	2
 996              		.global	I2C_bus_I2CMasterReadBuf
 997              		.code	16
 998              		.thumb_func
 999              		.type	I2C_bus_I2CMasterReadBuf, %function
 1000              	I2C_bus_I2CMasterReadBuf:
 1001              	.LFB3:
 188:.\Generated_Source\PSoC4/I2C_bus_I2C_MASTER.c ****     uint32 errStatus;
 1002              		.loc 1 188 0
 1003              		.cfi_startproc
 1004              	.LVL87:
 1005 0000 F0B5     		push	{r4, r5, r6, r7, lr}
 1006              		.cfi_def_cfa_offset 20
 1007              		.cfi_offset 4, -20
 1008              		.cfi_offset 5, -16
 1009              		.cfi_offset 6, -12
 1010              		.cfi_offset 7, -8
 1011              		.cfi_offset 14, -4
 1012 0002 83B0     		sub	sp, sp, #12
 1013              		.cfi_def_cfa_offset 32
 1014 0004 0190     		str	r0, [sp, #4]
 1015 0006 0C1C     		mov	r4, r1
 1016 0008 171C     		mov	r7, r2
 1017 000a 1D1C     		mov	r5, r3
 1018              	.LVL88:
 193:.\Generated_Source\PSoC4/I2C_bus_I2C_MASTER.c ****     {
 1019              		.loc 1 193 0
 1020 000c 0029     		cmp	r1, #0
 1021 000e 19D0     		beq	.L86
 196:.\Generated_Source\PSoC4/I2C_bus_I2C_MASTER.c ****         {
 1022              		.loc 1 196 0
 1023 0010 2D4B     		ldr	r3, .L89
 1024              	.LVL89:
 1025 0012 1B78     		ldrb	r3, [r3]
 1026 0014 102B     		cmp	r3, #16
 1027 0016 0AD1     		bne	.L80
 198:.\Generated_Source\PSoC4/I2C_bus_I2C_MASTER.c **** 
 1028              		.loc 1 198 0
 1029 0018 0A20     		mov	r0, #10
 1030              	.LVL90:
 1031 001a FFF7FEFF 		bl	CyIntDisable
 1032              	.LVL91:
 201:.\Generated_Source\PSoC4/I2C_bus_I2C_MASTER.c ****                             I2C_bus_I2C_MSTR_BUS_BUSY : I2C_bus_I2C_MSTR_NO_ERROR;
 1033              		.loc 1 201 0
 1034 001e 2B4B     		ldr	r3, .L89+4
ARM GAS  C:\Users\username\AppData\Local\Temp\cc0FlDXj.s 			page 38


 1035 0020 1B68     		ldr	r3, [r3]
 1036 0022 DB07     		lsl	r3, r3, #31
 1037 0024 01D5     		bpl	.L87
 1038 0026 0826     		mov	r6, #8
 1039 0028 0FE0     		b	.L79
 1040              	.L87:
 1041 002a 0026     		mov	r6, #0
 1042              	.LVL92:
 1043 002c 0DE0     		b	.L79
 1044              	.LVL93:
 1045              	.L80:
 204:.\Generated_Source\PSoC4/I2C_bus_I2C_MASTER.c ****         {
 1046              		.loc 1 204 0
 1047 002e 264B     		ldr	r3, .L89
 1048 0030 1B78     		ldrb	r3, [r3]
 1049 0032 602B     		cmp	r3, #96
 1050 0034 08D1     		bne	.L88
 206:.\Generated_Source\PSoC4/I2C_bus_I2C_MASTER.c ****                               errStatus  =  I2C_bus_I2C_MSTR_NO_ERROR;
 1051              		.loc 1 206 0
 1052 0036 264A     		ldr	r2, .L89+8
 1053              	.LVL94:
 1054 0038 1388     		ldrh	r3, [r2]
 1055 003a 0821     		mov	r1, #8
 1056              	.LVL95:
 1057 003c 8B43     		bic	r3, r1
 1058 003e 1380     		strh	r3, [r2]
 1059              	.LVL96:
 207:.\Generated_Source\PSoC4/I2C_bus_I2C_MASTER.c ****         }
 1060              		.loc 1 207 0
 1061 0040 0026     		mov	r6, #0
 1062 0042 02E0     		b	.L79
 1063              	.LVL97:
 1064              	.L86:
 191:.\Generated_Source\PSoC4/I2C_bus_I2C_MASTER.c **** 
 1065              		.loc 1 191 0
 1066 0044 0426     		mov	r6, #4
 1067 0046 00E0     		b	.L79
 1068              	.LVL98:
 1069              	.L88:
 1070 0048 0426     		mov	r6, #4
 1071              	.LVL99:
 1072              	.L79:
 216:.\Generated_Source\PSoC4/I2C_bus_I2C_MASTER.c ****     {
 1073              		.loc 1 216 0
 1074 004a 002E     		cmp	r6, #0
 1075 004c 35D1     		bne	.L82
 224:.\Generated_Source\PSoC4/I2C_bus_I2C_MASTER.c ****         I2C_bus_mstrRdBufIndex = 0u;
 1076              		.loc 1 224 0
 1077 004e 2922     		mov	r2, #41
 1078 0050 1D4B     		ldr	r3, .L89
 1079 0052 1A70     		strb	r2, [r3]
 225:.\Generated_Source\PSoC4/I2C_bus_I2C_MASTER.c ****         I2C_bus_mstrRdBufSize  = cnt;
 1080              		.loc 1 225 0
 1081 0054 0022     		mov	r2, #0
 1082 0056 1F4B     		ldr	r3, .L89+12
 1083 0058 1A60     		str	r2, [r3]
 226:.\Generated_Source\PSoC4/I2C_bus_I2C_MASTER.c ****         I2C_bus_mstrRdBufPtr   = (volatile uint8 *) rdData;
ARM GAS  C:\Users\username\AppData\Local\Temp\cc0FlDXj.s 			page 39


 1084              		.loc 1 226 0
 1085 005a 1F4A     		ldr	r2, .L89+16
 1086 005c 1760     		str	r7, [r2]
 227:.\Generated_Source\PSoC4/I2C_bus_I2C_MASTER.c ****         I2C_bus_mstrControl    = (uint8) mode;
 1087              		.loc 1 227 0
 1088 005e 1F4B     		ldr	r3, .L89+20
 1089 0060 1C60     		str	r4, [r3]
 228:.\Generated_Source\PSoC4/I2C_bus_I2C_MASTER.c **** 
 1090              		.loc 1 228 0
 1091 0062 EBB2     		uxtb	r3, r5
 1092 0064 1E49     		ldr	r1, .L89+24
 1093 0066 0B70     		strb	r3, [r1]
 230:.\Generated_Source\PSoC4/I2C_bus_I2C_MASTER.c **** 
 1094              		.loc 1 230 0
 1095 0068 019B     		ldr	r3, [sp, #4]
 1096 006a 5C00     		lsl	r4, r3, #1
 1097              	.LVL100:
 1098 006c FF23     		mov	r3, #255
 1099 006e 1C40     		and	r4, r3
 1100 0070 0120     		mov	r0, #1
 1101 0072 0443     		orr	r4, r0
 1102              	.LVL101:
 232:.\Generated_Source\PSoC4/I2C_bus_I2C_MASTER.c **** 
 1103              		.loc 1 232 0
 1104 0074 1649     		ldr	r1, .L89+8
 1105 0076 0B88     		ldrh	r3, [r1]
 1106 0078 8343     		bic	r3, r0
 1107 007a 0B80     		strh	r3, [r1]
 234:.\Generated_Source\PSoC4/I2C_bus_I2C_MASTER.c **** 
 1108              		.loc 1 234 0
 1109 007c 1949     		ldr	r1, .L89+28
 1110 007e 1A4B     		ldr	r3, .L89+32
 1111 0080 1960     		str	r1, [r3]
 1112              	.LVL102:
 239:.\Generated_Source\PSoC4/I2C_bus_I2C_MASTER.c ****         {
 1113              		.loc 1 239 0
 1114 0082 1368     		ldr	r3, [r2]
 1115 0084 072B     		cmp	r3, #7
 1116 0086 03D8     		bhi	.L83
 242:.\Generated_Source\PSoC4/I2C_bus_I2C_MASTER.c ****         }
 1117              		.loc 1 242 0
 1118 0088 0422     		mov	r2, #4
 1119 008a 184B     		ldr	r3, .L89+36
 1120 008c 1A60     		str	r2, [r3]
 1121 008e 08E0     		b	.L84
 1122              	.L83:
 247:.\Generated_Source\PSoC4/I2C_bus_I2C_MASTER.c ****             I2C_bus_SetRxInterruptMode(I2C_bus_INTR_RX_FULL);
 1123              		.loc 1 247 0
 1124 0090 174A     		ldr	r2, .L89+40
 1125 0092 1368     		ldr	r3, [r2]
 1126 0094 8021     		mov	r1, #128
 1127 0096 4900     		lsl	r1, r1, #1
 1128 0098 0B43     		orr	r3, r1
 1129 009a 1360     		str	r3, [r2]
 248:.\Generated_Source\PSoC4/I2C_bus_I2C_MASTER.c ****         }
 1130              		.loc 1 248 0
 1131 009c 0822     		mov	r2, #8
ARM GAS  C:\Users\username\AppData\Local\Temp\cc0FlDXj.s 			page 40


 1132 009e 134B     		ldr	r3, .L89+36
 1133 00a0 1A60     		str	r2, [r3]
 1134              	.L84:
 252:.\Generated_Source\PSoC4/I2C_bus_I2C_MASTER.c ****         {
 1135              		.loc 1 252 0
 1136 00a2 EB07     		lsl	r3, r5, #31
 1137 00a4 04D5     		bpl	.L85
 254:.\Generated_Source\PSoC4/I2C_bus_I2C_MASTER.c ****             I2C_bus_TX_FIFO_WR_REG = (slaveAddress);
 1138              		.loc 1 254 0
 1139 00a6 FFF7FEFF 		bl	I2C_bus_I2CReStartGeneration
 1140              	.LVL103:
 255:.\Generated_Source\PSoC4/I2C_bus_I2C_MASTER.c ****         }
 1141              		.loc 1 255 0
 1142 00aa 124B     		ldr	r3, .L89+44
 1143 00ac 1C60     		str	r4, [r3]
 1144 00ae 04E0     		b	.L82
 1145              	.L85:
 259:.\Generated_Source\PSoC4/I2C_bus_I2C_MASTER.c ****             I2C_bus_I2C_MASTER_GENERATE_START;
 1146              		.loc 1 259 0
 1147 00b0 104B     		ldr	r3, .L89+44
 1148 00b2 1C60     		str	r4, [r3]
 260:.\Generated_Source\PSoC4/I2C_bus_I2C_MASTER.c ****         }
 1149              		.loc 1 260 0
 1150 00b4 0222     		mov	r2, #2
 1151 00b6 104B     		ldr	r3, .L89+48
 1152 00b8 1A60     		str	r2, [r3]
 1153              	.LVL104:
 1154              	.L82:
 264:.\Generated_Source\PSoC4/I2C_bus_I2C_MASTER.c **** 
 1155              		.loc 1 264 0
 1156 00ba 0A20     		mov	r0, #10
 1157 00bc FFF7FEFF 		bl	CyIntEnable
 1158              	.LVL105:
 267:.\Generated_Source\PSoC4/I2C_bus_I2C_MASTER.c **** 
 1159              		.loc 1 267 0
 1160 00c0 301C     		mov	r0, r6
 1161 00c2 03B0     		add	sp, sp, #12
 1162              		@ sp needed
 1163              	.LVL106:
 1164              	.LVL107:
 1165              	.LVL108:
 1166 00c4 F0BD     		pop	{r4, r5, r6, r7, pc}
 1167              	.L90:
 1168 00c6 C046     		.align	2
 1169              	.L89:
 1170 00c8 00000000 		.word	I2C_bus_state
 1171 00cc 64002540 		.word	1076166756
 1172 00d0 00000000 		.word	I2C_bus_mstrStatus
 1173 00d4 00000000 		.word	I2C_bus_mstrRdBufIndex
 1174 00d8 00000000 		.word	I2C_bus_mstrRdBufSize
 1175 00dc 00000000 		.word	I2C_bus_mstrRdBufPtr
 1176 00e0 00000000 		.word	I2C_bus_mstrControl
 1177 00e4 17030000 		.word	791
 1178 00e8 000F2540 		.word	1076170496
 1179 00ec C80F2540 		.word	1076170696
 1180 00f0 60002540 		.word	1076166752
 1181 00f4 40022540 		.word	1076167232
ARM GAS  C:\Users\username\AppData\Local\Temp\cc0FlDXj.s 			page 41


 1182 00f8 68002540 		.word	1076166760
 1183              		.cfi_endproc
 1184              	.LFE3:
 1185              		.size	I2C_bus_I2CMasterReadBuf, .-I2C_bus_I2CMasterReadBuf
 1186              		.section	.text.I2C_bus_I2CMasterSendRestart,"ax",%progbits
 1187              		.align	2
 1188              		.global	I2C_bus_I2CMasterSendRestart
 1189              		.code	16
 1190              		.thumb_func
 1191              		.type	I2C_bus_I2CMasterSendRestart, %function
 1192              	I2C_bus_I2CMasterSendRestart:
 1193              	.LFB5:
 410:.\Generated_Source\PSoC4/I2C_bus_I2C_MASTER.c ****     uint32 resetIp;
 1194              		.loc 1 410 0
 1195              		.cfi_startproc
 1196              	.LVL109:
 1197 0000 10B5     		push	{r4, lr}
 1198              		.cfi_def_cfa_offset 8
 1199              		.cfi_offset 4, -8
 1200              		.cfi_offset 14, -4
 1201              	.LVL110:
 418:.\Generated_Source\PSoC4/I2C_bus_I2C_MASTER.c ****     {
 1202              		.loc 1 418 0
 1203 0002 2A4B     		ldr	r3, .L102
 1204 0004 1B78     		ldrb	r3, [r3]
 1205 0006 9B06     		lsl	r3, r3, #26
 1206 0008 4DD5     		bpl	.L99
 420:.\Generated_Source\PSoC4/I2C_bus_I2C_MASTER.c **** 
 1207              		.loc 1 420 0
 1208 000a 4000     		lsl	r0, r0, #1
 1209              	.LVL111:
 1210 000c FF24     		mov	r4, #255
 1211 000e 0440     		and	r4, r0
 1212              	.LVL112:
 422:.\Generated_Source\PSoC4/I2C_bus_I2C_MASTER.c ****         {
 1213              		.loc 1 422 0
 1214 0010 0029     		cmp	r1, #0
 1215 0012 03D1     		bne	.L93
 424:.\Generated_Source\PSoC4/I2C_bus_I2C_MASTER.c ****         }
 1216              		.loc 1 424 0
 1217 0014 2422     		mov	r2, #36
 1218 0016 254B     		ldr	r3, .L102
 1219 0018 1A70     		strb	r2, [r3]
 1220 001a 04E0     		b	.L94
 1221              	.L93:
 428:.\Generated_Source\PSoC4/I2C_bus_I2C_MASTER.c ****                       slaveAddress |= I2C_bus_I2C_READ_FLAG;
 1222              		.loc 1 428 0
 1223 001c 2522     		mov	r2, #37
 1224 001e 234B     		ldr	r3, .L102
 1225 0020 1A70     		strb	r2, [r3]
 429:.\Generated_Source\PSoC4/I2C_bus_I2C_MASTER.c ****         }
 1226              		.loc 1 429 0
 1227 0022 0123     		mov	r3, #1
 1228 0024 1C43     		orr	r4, r3
 1229              	.LVL113:
 1230              	.L94:
 435:.\Generated_Source\PSoC4/I2C_bus_I2C_MASTER.c **** 
ARM GAS  C:\Users\username\AppData\Local\Temp\cc0FlDXj.s 			page 42


 1231              		.loc 1 435 0
 1232 0026 224A     		ldr	r2, .L102+4
 1233 0028 224B     		ldr	r3, .L102+8
 1234 002a 1A60     		str	r2, [r3]
 441:.\Generated_Source\PSoC4/I2C_bus_I2C_MASTER.c **** 
 1235              		.loc 1 441 0
 1236 002c FFF7FEFF 		bl	I2C_bus_I2CReStartGeneration
 1237              	.LVL114:
 1238              	.L95:
 443:.\Generated_Source\PSoC4/I2C_bus_I2C_MASTER.c ****         {
 1239              		.loc 1 443 0 discriminator 1
 1240 0030 214B     		ldr	r3, .L102+12
 1241 0032 1B68     		ldr	r3, [r3]
 1242 0034 DB07     		lsl	r3, r3, #31
 1243 0036 FBD4     		bmi	.L95
 449:.\Generated_Source\PSoC4/I2C_bus_I2C_MASTER.c **** 
 1244              		.loc 1 449 0
 1245 0038 204B     		ldr	r3, .L102+16
 1246 003a 1C60     		str	r4, [r3]
 1247              	.L96:
 452:.\Generated_Source\PSoC4/I2C_bus_I2C_MASTER.c ****                                                   I2C_bus_INTR_MASTER_I2C_NACK     |
 1248              		.loc 1 452 0 discriminator 1
 1249 003c 1D4B     		ldr	r3, .L102+8
 1250 003e 1A68     		ldr	r2, [r3]
 1251 0040 0823     		mov	r3, #8
 1252 0042 FF33     		add	r3, r3, #255
 1253 0044 1A42     		tst	r2, r3
 1254 0046 F9D0     		beq	.L96
 461:.\Generated_Source\PSoC4/I2C_bus_I2C_MASTER.c ****         {
 1255              		.loc 1 461 0
 1256 0048 1A4B     		ldr	r3, .L102+8
 1257 004a 1B68     		ldr	r3, [r3]
 1258 004c 5B07     		lsl	r3, r3, #29
 1259 004e 14D4     		bmi	.L100
 465:.\Generated_Source\PSoC4/I2C_bus_I2C_MASTER.c ****         {
 1260              		.loc 1 465 0
 1261 0050 184B     		ldr	r3, .L102+8
 1262 0052 1B68     		ldr	r3, [r3]
 1263 0054 9B07     		lsl	r3, r3, #30
 1264 0056 13D4     		bmi	.L101
 469:.\Generated_Source\PSoC4/I2C_bus_I2C_MASTER.c ****         {
 1265              		.loc 1 469 0
 1266 0058 164B     		ldr	r3, .L102+8
 1267 005a 1B68     		ldr	r3, [r3]
 1268 005c DB07     		lsl	r3, r3, #31
 1269 005e 05D5     		bpl	.L98
 471:.\Generated_Source\PSoC4/I2C_bus_I2C_MASTER.c ****                          errStatus = I2C_bus_I2C_MSTR_ERR_ARB_LOST;
 1270              		.loc 1 471 0
 1271 0060 1022     		mov	r2, #16
 1272 0062 124B     		ldr	r3, .L102
 1273 0064 1A70     		strb	r2, [r3]
 1274              	.LVL115:
 472:.\Generated_Source\PSoC4/I2C_bus_I2C_MASTER.c ****                          resetIp   = I2C_bus_I2C_RESET_ERROR;
 1275              		.loc 1 472 0
 1276 0066 0120     		mov	r0, #1
 473:.\Generated_Source\PSoC4/I2C_bus_I2C_MASTER.c ****         }
 1277              		.loc 1 473 0
ARM GAS  C:\Users\username\AppData\Local\Temp\cc0FlDXj.s 			page 43


 1278 0068 0121     		mov	r1, #1
 1279 006a 0BE0     		b	.L97
 1280              	.LVL116:
 1281              	.L98:
 477:.\Generated_Source\PSoC4/I2C_bus_I2C_MASTER.c ****                          errStatus = I2C_bus_I2C_MSTR_ERR_BUS_ERR;
 1282              		.loc 1 477 0
 1283 006c 1022     		mov	r2, #16
 1284 006e 0F4B     		ldr	r3, .L102
 1285 0070 1A70     		strb	r2, [r3]
 1286              	.LVL117:
 478:.\Generated_Source\PSoC4/I2C_bus_I2C_MASTER.c ****                          resetIp   = I2C_bus_I2C_RESET_ERROR;
 1287              		.loc 1 478 0
 1288 0072 8020     		mov	r0, #128
 1289 0074 4000     		lsl	r0, r0, #1
 479:.\Generated_Source\PSoC4/I2C_bus_I2C_MASTER.c ****         }
 1290              		.loc 1 479 0
 1291 0076 0121     		mov	r1, #1
 1292 0078 04E0     		b	.L97
 1293              	.LVL118:
 1294              	.L100:
 463:.\Generated_Source\PSoC4/I2C_bus_I2C_MASTER.c ****         }
 1295              		.loc 1 463 0
 1296 007a 0020     		mov	r0, #0
 414:.\Generated_Source\PSoC4/I2C_bus_I2C_MASTER.c ****     errStatus = I2C_bus_I2C_MSTR_NOT_READY;
 1297              		.loc 1 414 0
 1298 007c 0021     		mov	r1, #0
 1299 007e 01E0     		b	.L97
 1300              	.L101:
 467:.\Generated_Source\PSoC4/I2C_bus_I2C_MASTER.c ****         }
 1301              		.loc 1 467 0
 1302 0080 0220     		mov	r0, #2
 414:.\Generated_Source\PSoC4/I2C_bus_I2C_MASTER.c ****     errStatus = I2C_bus_I2C_MSTR_NOT_READY;
 1303              		.loc 1 414 0
 1304 0082 0021     		mov	r1, #0
 1305              	.LVL119:
 1306              	.L97:
 482:.\Generated_Source\PSoC4/I2C_bus_I2C_MASTER.c ****                                                     I2C_bus_INTR_MASTER_I2C_NACK     |
 1307              		.loc 1 482 0
 1308 0084 0822     		mov	r2, #8
 1309 0086 FF32     		add	r2, r2, #255
 1310 0088 0A4B     		ldr	r3, .L102+8
 1311 008a 1A60     		str	r2, [r3]
 488:.\Generated_Source\PSoC4/I2C_bus_I2C_MASTER.c ****         {
 1312              		.loc 1 488 0
 1313 008c 0029     		cmp	r1, #0
 1314 008e 0BD0     		beq	.L92
 490:.\Generated_Source\PSoC4/I2C_bus_I2C_MASTER.c ****         }
 1315              		.loc 1 490 0
 1316 0090 0B4A     		ldr	r2, .L102+20
 1317 0092 1368     		ldr	r3, [r2]
 1318 0094 5B00     		lsl	r3, r3, #1
 1319 0096 5B08     		lsr	r3, r3, #1
 1320 0098 1360     		str	r3, [r2]
 1321 009a 1368     		ldr	r3, [r2]
 1322 009c 8021     		mov	r1, #128
 1323              	.LVL120:
 1324 009e 0906     		lsl	r1, r1, #24
ARM GAS  C:\Users\username\AppData\Local\Temp\cc0FlDXj.s 			page 44


 1325 00a0 0B43     		orr	r3, r1
 1326 00a2 1360     		str	r3, [r2]
 1327 00a4 00E0     		b	.L92
 1328              	.LVL121:
 1329              	.L99:
 415:.\Generated_Source\PSoC4/I2C_bus_I2C_MASTER.c **** 
 1330              		.loc 1 415 0
 1331 00a6 0420     		mov	r0, #4
 1332              	.LVL122:
 1333              	.L92:
 495:.\Generated_Source\PSoC4/I2C_bus_I2C_MASTER.c **** 
 1334              		.loc 1 495 0
 1335              		@ sp needed
 1336 00a8 10BD     		pop	{r4, pc}
 1337              	.L103:
 1338 00aa C046     		.align	2
 1339              	.L102:
 1340 00ac 00000000 		.word	I2C_bus_state
 1341 00b0 17030000 		.word	791
 1342 00b4 000F2540 		.word	1076170496
 1343 00b8 68002540 		.word	1076166760
 1344 00bc 40022540 		.word	1076167232
 1345 00c0 00002540 		.word	1076166656
 1346              		.cfi_endproc
 1347              	.LFE5:
 1348              		.size	I2C_bus_I2CMasterSendRestart, .-I2C_bus_I2CMasterSendRestart
 1349              		.comm	I2C_bus_mstrWrBufIndexTmp,4,4
 1350              		.comm	I2C_bus_mstrWrBufIndex,4,4
 1351              		.comm	I2C_bus_mstrWrBufSize,4,4
 1352              		.comm	I2C_bus_mstrWrBufPtr,4,4
 1353              		.comm	I2C_bus_mstrRdBufIndex,4,4
 1354              		.comm	I2C_bus_mstrRdBufSize,4,4
 1355              		.comm	I2C_bus_mstrRdBufPtr,4,4
 1356              		.comm	I2C_bus_mstrControl,1,1
 1357              		.comm	I2C_bus_mstrStatus,2,2
 1358              		.text
 1359              	.Letext0:
 1360              		.file 2 "Generated_Source\\PSoC4/cytypes.h"
 1361              		.file 3 ".\\Generated_Source\\PSoC4\\I2C_bus_I2C_PVT.h"
 1362              		.file 4 "Generated_Source\\PSoC4/CyLib.h"