ARM GAS  C:\Users\username\AppData\Local\Temp\cc0FlDXj.s 			page 1


   1              		.cpu cortex-m0
   2              		.fpu softvfp
   3              		.eabi_attribute 20, 1
   4              		.eabi_attribute 21, 1
   5              		.eabi_attribute 23, 3
   6              		.eabi_attribute 24, 1
   7              		.eabi_attribute 25, 1
   8              		.eabi_attribute 26, 1
   9              		.eabi_attribute 30, 1
  10              		.eabi_attribute 34, 0
  11              		.eabi_attribute 18, 4
  12              		.code	16
  13              		.file	"I2C_bus_I2C_MASTER.c"
  14              		.text
  15              	.Ltext0:
  16              		.cfi_sections	.debug_frame
  17              		.section	.text.I2C_bus_I2CMasterSendStart,"ax",%progbits
  18              		.align	2
  19              		.global	I2C_bus_I2CMasterSendStart
  20              		.code	16
  21              		.thumb_func
  22              		.type	I2C_bus_I2CMasterSendStart, %function
  23              	I2C_bus_I2CMasterSendStart:
  24              	.LFB4:
  25              		.file 1 ".\\Generated_Source\\PSoC4\\I2C_bus_I2C_MASTER.c"
   1:.\Generated_Source\PSoC4/I2C_bus_I2C_MASTER.c **** /*******************************************************************************
   2:.\Generated_Source\PSoC4/I2C_bus_I2C_MASTER.c **** * File Name: I2C_bus_I2C_MASTER.c
   3:.\Generated_Source\PSoC4/I2C_bus_I2C_MASTER.c **** * Version 3.0
   4:.\Generated_Source\PSoC4/I2C_bus_I2C_MASTER.c **** *
   5:.\Generated_Source\PSoC4/I2C_bus_I2C_MASTER.c **** * Description:
   6:.\Generated_Source\PSoC4/I2C_bus_I2C_MASTER.c **** *  This file provides the source code to the API for the SCB Component in
   7:.\Generated_Source\PSoC4/I2C_bus_I2C_MASTER.c **** *  I2C Master mode.
   8:.\Generated_Source\PSoC4/I2C_bus_I2C_MASTER.c **** *
   9:.\Generated_Source\PSoC4/I2C_bus_I2C_MASTER.c **** * Note:
  10:.\Generated_Source\PSoC4/I2C_bus_I2C_MASTER.c **** *
  11:.\Generated_Source\PSoC4/I2C_bus_I2C_MASTER.c **** *******************************************************************************
  12:.\Generated_Source\PSoC4/I2C_bus_I2C_MASTER.c **** * Copyright 2013-2015, Cypress Semiconductor Corporation.  All rights reserved.
  13:.\Generated_Source\PSoC4/I2C_bus_I2C_MASTER.c **** * You may use this file only in accordance with the license, terms, conditions,
  14:.\Generated_Source\PSoC4/I2C_bus_I2C_MASTER.c **** * disclaimers, and limitations in the end user license agreement accompanying
  15:.\Generated_Source\PSoC4/I2C_bus_I2C_MASTER.c **** * the software package with which this file was provided.
  16:.\Generated_Source\PSoC4/I2C_bus_I2C_MASTER.c **** *******************************************************************************/
  17:.\Generated_Source\PSoC4/I2C_bus_I2C_MASTER.c **** 
  18:.\Generated_Source\PSoC4/I2C_bus_I2C_MASTER.c **** #include "I2C_bus_PVT.h"
  19:.\Generated_Source\PSoC4/I2C_bus_I2C_MASTER.c **** #include "I2C_bus_I2C_PVT.h"
  20:.\Generated_Source\PSoC4/I2C_bus_I2C_MASTER.c **** 
  21:.\Generated_Source\PSoC4/I2C_bus_I2C_MASTER.c **** #if(I2C_bus_I2C_MASTER_CONST)
  22:.\Generated_Source\PSoC4/I2C_bus_I2C_MASTER.c **** 
  23:.\Generated_Source\PSoC4/I2C_bus_I2C_MASTER.c **** /***************************************
  24:.\Generated_Source\PSoC4/I2C_bus_I2C_MASTER.c **** *      I2C Master Private Vars
  25:.\Generated_Source\PSoC4/I2C_bus_I2C_MASTER.c **** ***************************************/
  26:.\Generated_Source\PSoC4/I2C_bus_I2C_MASTER.c **** 
  27:.\Generated_Source\PSoC4/I2C_bus_I2C_MASTER.c **** /* Master variables */
  28:.\Generated_Source\PSoC4/I2C_bus_I2C_MASTER.c **** volatile uint16 I2C_bus_mstrStatus;      /* Master Status byte  */
  29:.\Generated_Source\PSoC4/I2C_bus_I2C_MASTER.c **** volatile uint8  I2C_bus_mstrControl;     /* Master Control byte */
  30:.\Generated_Source\PSoC4/I2C_bus_I2C_MASTER.c **** 
  31:.\Generated_Source\PSoC4/I2C_bus_I2C_MASTER.c **** /* Receive buffer variables */
  32:.\Generated_Source\PSoC4/I2C_bus_I2C_MASTER.c **** volatile uint8 * I2C_bus_mstrRdBufPtr;   /* Pointer to Master Read buffer */
ARM GAS  C:\Users\username\AppData\Local\Temp\cc0FlDXj.s 			page 2


  33:.\Generated_Source\PSoC4/I2C_bus_I2C_MASTER.c **** volatile uint32  I2C_bus_mstrRdBufSize;  /* Master Read buffer size       */
  34:.\Generated_Source\PSoC4/I2C_bus_I2C_MASTER.c **** volatile uint32  I2C_bus_mstrRdBufIndex; /* Master Read buffer Index      */
  35:.\Generated_Source\PSoC4/I2C_bus_I2C_MASTER.c **** 
  36:.\Generated_Source\PSoC4/I2C_bus_I2C_MASTER.c **** /* Transmit buffer variables */
  37:.\Generated_Source\PSoC4/I2C_bus_I2C_MASTER.c **** volatile uint8 * I2C_bus_mstrWrBufPtr;   /* Pointer to Master Write buffer */
  38:.\Generated_Source\PSoC4/I2C_bus_I2C_MASTER.c **** volatile uint32  I2C_bus_mstrWrBufSize;  /* Master Write buffer size       */
  39:.\Generated_Source\PSoC4/I2C_bus_I2C_MASTER.c **** volatile uint32  I2C_bus_mstrWrBufIndex; /* Master Write buffer Index      */
  40:.\Generated_Source\PSoC4/I2C_bus_I2C_MASTER.c **** volatile uint32  I2C_bus_mstrWrBufIndexTmp; /* Master Write buffer Index Tmp */
  41:.\Generated_Source\PSoC4/I2C_bus_I2C_MASTER.c **** 
  42:.\Generated_Source\PSoC4/I2C_bus_I2C_MASTER.c **** #if (!I2C_bus_CY_SCBIP_V0 && \
  43:.\Generated_Source\PSoC4/I2C_bus_I2C_MASTER.c ****     I2C_bus_I2C_MULTI_MASTER_SLAVE_CONST && I2C_bus_I2C_WAKE_ENABLE_CONST)
  44:.\Generated_Source\PSoC4/I2C_bus_I2C_MASTER.c ****     static void I2C_bus_I2CMasterDisableEcAm(void);
  45:.\Generated_Source\PSoC4/I2C_bus_I2C_MASTER.c **** #endif /* (!I2C_bus_CY_SCBIP_V0) */
  46:.\Generated_Source\PSoC4/I2C_bus_I2C_MASTER.c **** 
  47:.\Generated_Source\PSoC4/I2C_bus_I2C_MASTER.c **** 
  48:.\Generated_Source\PSoC4/I2C_bus_I2C_MASTER.c **** /*******************************************************************************
  49:.\Generated_Source\PSoC4/I2C_bus_I2C_MASTER.c **** * Function Name: I2C_bus_I2CMasterWriteBuf
  50:.\Generated_Source\PSoC4/I2C_bus_I2C_MASTER.c **** ********************************************************************************
  51:.\Generated_Source\PSoC4/I2C_bus_I2C_MASTER.c **** *
  52:.\Generated_Source\PSoC4/I2C_bus_I2C_MASTER.c **** * Summary:
  53:.\Generated_Source\PSoC4/I2C_bus_I2C_MASTER.c **** * Automatically writes an entire buffer of data to a slave device.
  54:.\Generated_Source\PSoC4/I2C_bus_I2C_MASTER.c **** * Once the data transfer is initiated by this function, further data transfer
  55:.\Generated_Source\PSoC4/I2C_bus_I2C_MASTER.c **** * is handled by the included ISR.
  56:.\Generated_Source\PSoC4/I2C_bus_I2C_MASTER.c **** * Enables the I2C interrupt and clears SCB_ I2C_MSTAT_WR_CMPLT status.
  57:.\Generated_Source\PSoC4/I2C_bus_I2C_MASTER.c **** *
  58:.\Generated_Source\PSoC4/I2C_bus_I2C_MASTER.c **** * Parameters:
  59:.\Generated_Source\PSoC4/I2C_bus_I2C_MASTER.c **** *  slaveAddr: 7-bit slave address.
  60:.\Generated_Source\PSoC4/I2C_bus_I2C_MASTER.c **** *  xferData:  Pointer to buffer of data to be sent.
  61:.\Generated_Source\PSoC4/I2C_bus_I2C_MASTER.c **** *  cnt:       Size of buffer to send.
  62:.\Generated_Source\PSoC4/I2C_bus_I2C_MASTER.c **** *  mode:      Transfer mode defines: start or restart condition generation at
  63:.\Generated_Source\PSoC4/I2C_bus_I2C_MASTER.c **** *             begin of the transfer and complete the transfer or halt before
  64:.\Generated_Source\PSoC4/I2C_bus_I2C_MASTER.c **** *             generating a stop.
  65:.\Generated_Source\PSoC4/I2C_bus_I2C_MASTER.c **** *
  66:.\Generated_Source\PSoC4/I2C_bus_I2C_MASTER.c **** * Return:
  67:.\Generated_Source\PSoC4/I2C_bus_I2C_MASTER.c **** *  Error status.
  68:.\Generated_Source\PSoC4/I2C_bus_I2C_MASTER.c **** *
  69:.\Generated_Source\PSoC4/I2C_bus_I2C_MASTER.c **** * Global variables:
  70:.\Generated_Source\PSoC4/I2C_bus_I2C_MASTER.c **** *  I2C_bus_mstrStatus  - used to store current status of I2C Master.
  71:.\Generated_Source\PSoC4/I2C_bus_I2C_MASTER.c **** *  I2C_bus_state       - used to store current state of software FSM.
  72:.\Generated_Source\PSoC4/I2C_bus_I2C_MASTER.c **** *  I2C_bus_mstrControl - used to control master end of transaction with
  73:.\Generated_Source\PSoC4/I2C_bus_I2C_MASTER.c **** *  or without the Stop generation.
  74:.\Generated_Source\PSoC4/I2C_bus_I2C_MASTER.c **** *  I2C_bus_mstrWrBufPtr - used to store pointer to master write buffer.
  75:.\Generated_Source\PSoC4/I2C_bus_I2C_MASTER.c **** *  I2C_bus_mstrWrBufIndex - used to current index within master write
  76:.\Generated_Source\PSoC4/I2C_bus_I2C_MASTER.c **** *  buffer.
  77:.\Generated_Source\PSoC4/I2C_bus_I2C_MASTER.c **** *  I2C_bus_mstrWrBufSize - used to store master write buffer size.
  78:.\Generated_Source\PSoC4/I2C_bus_I2C_MASTER.c **** *
  79:.\Generated_Source\PSoC4/I2C_bus_I2C_MASTER.c **** *******************************************************************************/
  80:.\Generated_Source\PSoC4/I2C_bus_I2C_MASTER.c **** uint32 I2C_bus_I2CMasterWriteBuf(uint32 slaveAddress, uint8 * wrData, uint32 cnt, uint32 mode)
  81:.\Generated_Source\PSoC4/I2C_bus_I2C_MASTER.c **** {
  82:.\Generated_Source\PSoC4/I2C_bus_I2C_MASTER.c ****     uint32 errStatus;
  83:.\Generated_Source\PSoC4/I2C_bus_I2C_MASTER.c **** 
  84:.\Generated_Source\PSoC4/I2C_bus_I2C_MASTER.c ****     errStatus = I2C_bus_I2C_MSTR_NOT_READY;
  85:.\Generated_Source\PSoC4/I2C_bus_I2C_MASTER.c **** 
  86:.\Generated_Source\PSoC4/I2C_bus_I2C_MASTER.c ****     if(NULL != wrData)  /* Check buffer pointer */
  87:.\Generated_Source\PSoC4/I2C_bus_I2C_MASTER.c ****     {
  88:.\Generated_Source\PSoC4/I2C_bus_I2C_MASTER.c ****         /* Check FSM state and bus before generating Start/ReStart condition */
  89:.\Generated_Source\PSoC4/I2C_bus_I2C_MASTER.c ****         if(I2C_bus_CHECK_I2C_FSM_IDLE)
ARM GAS  C:\Users\username\AppData\Local\Temp\cc0FlDXj.s 			page 3


  90:.\Generated_Source\PSoC4/I2C_bus_I2C_MASTER.c ****         {
  91:.\Generated_Source\PSoC4/I2C_bus_I2C_MASTER.c ****             I2C_bus_DisableInt();  /* Lock from interruption */
  92:.\Generated_Source\PSoC4/I2C_bus_I2C_MASTER.c **** 
  93:.\Generated_Source\PSoC4/I2C_bus_I2C_MASTER.c ****             /* Check bus state */
  94:.\Generated_Source\PSoC4/I2C_bus_I2C_MASTER.c ****             errStatus = I2C_bus_CHECK_I2C_STATUS(I2C_bus_I2C_STATUS_BUS_BUSY) ?
  95:.\Generated_Source\PSoC4/I2C_bus_I2C_MASTER.c ****                             I2C_bus_I2C_MSTR_BUS_BUSY : I2C_bus_I2C_MSTR_NO_ERROR;
  96:.\Generated_Source\PSoC4/I2C_bus_I2C_MASTER.c ****         }
  97:.\Generated_Source\PSoC4/I2C_bus_I2C_MASTER.c ****         else if(I2C_bus_CHECK_I2C_FSM_HALT)
  98:.\Generated_Source\PSoC4/I2C_bus_I2C_MASTER.c ****         {
  99:.\Generated_Source\PSoC4/I2C_bus_I2C_MASTER.c ****             I2C_bus_mstrStatus &= (uint16) ~I2C_bus_I2C_MSTAT_XFER_HALT;
 100:.\Generated_Source\PSoC4/I2C_bus_I2C_MASTER.c ****                               errStatus  = I2C_bus_I2C_MSTR_NO_ERROR;
 101:.\Generated_Source\PSoC4/I2C_bus_I2C_MASTER.c ****         }
 102:.\Generated_Source\PSoC4/I2C_bus_I2C_MASTER.c ****         else
 103:.\Generated_Source\PSoC4/I2C_bus_I2C_MASTER.c ****         {
 104:.\Generated_Source\PSoC4/I2C_bus_I2C_MASTER.c ****             /* Unexpected FSM state: exit */
 105:.\Generated_Source\PSoC4/I2C_bus_I2C_MASTER.c ****         }
 106:.\Generated_Source\PSoC4/I2C_bus_I2C_MASTER.c ****     }
 107:.\Generated_Source\PSoC4/I2C_bus_I2C_MASTER.c **** 
 108:.\Generated_Source\PSoC4/I2C_bus_I2C_MASTER.c ****     /* Check if master is ready to start  */
 109:.\Generated_Source\PSoC4/I2C_bus_I2C_MASTER.c ****     if(I2C_bus_I2C_MSTR_NO_ERROR == errStatus) /* No error proceed */
 110:.\Generated_Source\PSoC4/I2C_bus_I2C_MASTER.c ****     {
 111:.\Generated_Source\PSoC4/I2C_bus_I2C_MASTER.c ****     #if (!I2C_bus_CY_SCBIP_V0 && \
 112:.\Generated_Source\PSoC4/I2C_bus_I2C_MASTER.c ****         I2C_bus_I2C_MULTI_MASTER_SLAVE_CONST && I2C_bus_I2C_WAKE_ENABLE_CONST)
 113:.\Generated_Source\PSoC4/I2C_bus_I2C_MASTER.c ****             I2C_bus_I2CMasterDisableEcAm();
 114:.\Generated_Source\PSoC4/I2C_bus_I2C_MASTER.c ****     #endif /* (!I2C_bus_CY_SCBIP_V0) */
 115:.\Generated_Source\PSoC4/I2C_bus_I2C_MASTER.c **** 
 116:.\Generated_Source\PSoC4/I2C_bus_I2C_MASTER.c ****         /* Set up write transaction */
 117:.\Generated_Source\PSoC4/I2C_bus_I2C_MASTER.c ****         I2C_bus_state = I2C_bus_I2C_FSM_MSTR_WR_ADDR;
 118:.\Generated_Source\PSoC4/I2C_bus_I2C_MASTER.c ****         I2C_bus_mstrWrBufIndexTmp = 0u;
 119:.\Generated_Source\PSoC4/I2C_bus_I2C_MASTER.c ****         I2C_bus_mstrWrBufIndex    = 0u;
 120:.\Generated_Source\PSoC4/I2C_bus_I2C_MASTER.c ****         I2C_bus_mstrWrBufSize     = cnt;
 121:.\Generated_Source\PSoC4/I2C_bus_I2C_MASTER.c ****         I2C_bus_mstrWrBufPtr      = (volatile uint8 *) wrData;
 122:.\Generated_Source\PSoC4/I2C_bus_I2C_MASTER.c ****         I2C_bus_mstrControl       = (uint8) mode;
 123:.\Generated_Source\PSoC4/I2C_bus_I2C_MASTER.c **** 
 124:.\Generated_Source\PSoC4/I2C_bus_I2C_MASTER.c ****         slaveAddress = I2C_bus_GET_I2C_8BIT_ADDRESS(slaveAddress);
 125:.\Generated_Source\PSoC4/I2C_bus_I2C_MASTER.c **** 
 126:.\Generated_Source\PSoC4/I2C_bus_I2C_MASTER.c ****         I2C_bus_mstrStatus &= (uint16) ~I2C_bus_I2C_MSTAT_WR_CMPLT;
 127:.\Generated_Source\PSoC4/I2C_bus_I2C_MASTER.c **** 
 128:.\Generated_Source\PSoC4/I2C_bus_I2C_MASTER.c ****         I2C_bus_ClearMasterInterruptSource(I2C_bus_INTR_MASTER_ALL);
 129:.\Generated_Source\PSoC4/I2C_bus_I2C_MASTER.c ****         I2C_bus_ClearTxInterruptSource(I2C_bus_INTR_TX_UNDERFLOW);
 130:.\Generated_Source\PSoC4/I2C_bus_I2C_MASTER.c **** 
 131:.\Generated_Source\PSoC4/I2C_bus_I2C_MASTER.c ****         /* The TX and RX FIFO have to be EMPTY */
 132:.\Generated_Source\PSoC4/I2C_bus_I2C_MASTER.c **** 
 133:.\Generated_Source\PSoC4/I2C_bus_I2C_MASTER.c ****         /* Enable interrupt source to catch when address is sent */
 134:.\Generated_Source\PSoC4/I2C_bus_I2C_MASTER.c ****         I2C_bus_SetTxInterruptMode(I2C_bus_INTR_TX_UNDERFLOW);
 135:.\Generated_Source\PSoC4/I2C_bus_I2C_MASTER.c **** 
 136:.\Generated_Source\PSoC4/I2C_bus_I2C_MASTER.c ****         /* Generate Start or ReStart */
 137:.\Generated_Source\PSoC4/I2C_bus_I2C_MASTER.c ****         if(I2C_bus_CHECK_I2C_MODE_RESTART(mode))
 138:.\Generated_Source\PSoC4/I2C_bus_I2C_MASTER.c ****         {
 139:.\Generated_Source\PSoC4/I2C_bus_I2C_MASTER.c ****             I2C_bus_I2C_MASTER_GENERATE_RESTART;
 140:.\Generated_Source\PSoC4/I2C_bus_I2C_MASTER.c ****             I2C_bus_TX_FIFO_WR_REG = slaveAddress;
 141:.\Generated_Source\PSoC4/I2C_bus_I2C_MASTER.c ****         }
 142:.\Generated_Source\PSoC4/I2C_bus_I2C_MASTER.c ****         else
 143:.\Generated_Source\PSoC4/I2C_bus_I2C_MASTER.c ****         {
 144:.\Generated_Source\PSoC4/I2C_bus_I2C_MASTER.c ****             I2C_bus_TX_FIFO_WR_REG = slaveAddress;
 145:.\Generated_Source\PSoC4/I2C_bus_I2C_MASTER.c ****             I2C_bus_I2C_MASTER_GENERATE_START;
 146:.\Generated_Source\PSoC4/I2C_bus_I2C_MASTER.c ****         }
ARM GAS  C:\Users\username\AppData\Local\Temp\cc0FlDXj.s 			page 4


 147:.\Generated_Source\PSoC4/I2C_bus_I2C_MASTER.c ****     }
 148:.\Generated_Source\PSoC4/I2C_bus_I2C_MASTER.c **** 
 149:.\Generated_Source\PSoC4/I2C_bus_I2C_MASTER.c ****     I2C_bus_EnableInt();   /* Release lock */
 150:.\Generated_Source\PSoC4/I2C_bus_I2C_MASTER.c **** 
 151:.\Generated_Source\PSoC4/I2C_bus_I2C_MASTER.c ****     return(errStatus);
 152:.\Generated_Source\PSoC4/I2C_bus_I2C_MASTER.c **** }
 153:.\Generated_Source\PSoC4/I2C_bus_I2C_MASTER.c **** 
 154:.\Generated_Source\PSoC4/I2C_bus_I2C_MASTER.c **** 
 155:.\Generated_Source\PSoC4/I2C_bus_I2C_MASTER.c **** /*******************************************************************************
 156:.\Generated_Source\PSoC4/I2C_bus_I2C_MASTER.c **** * Function Name: I2C_bus_I2CMasterReadBuf
 157:.\Generated_Source\PSoC4/I2C_bus_I2C_MASTER.c **** ********************************************************************************
 158:.\Generated_Source\PSoC4/I2C_bus_I2C_MASTER.c **** *
 159:.\Generated_Source\PSoC4/I2C_bus_I2C_MASTER.c **** * Summary:
 160:.\Generated_Source\PSoC4/I2C_bus_I2C_MASTER.c **** *  Automatically reads an entire buffer of data from a slave device.
 161:.\Generated_Source\PSoC4/I2C_bus_I2C_MASTER.c **** *  Once the data transfer is initiated by this function, further data transfer
 162:.\Generated_Source\PSoC4/I2C_bus_I2C_MASTER.c **** *  is handled by the included ISR.
 163:.\Generated_Source\PSoC4/I2C_bus_I2C_MASTER.c **** * Enables the I2C interrupt and clears SCB_ I2C_MSTAT_RD_CMPLT status.
 164:.\Generated_Source\PSoC4/I2C_bus_I2C_MASTER.c **** *
 165:.\Generated_Source\PSoC4/I2C_bus_I2C_MASTER.c **** * Parameters:
 166:.\Generated_Source\PSoC4/I2C_bus_I2C_MASTER.c **** *  slaveAddr: 7-bit slave address.
 167:.\Generated_Source\PSoC4/I2C_bus_I2C_MASTER.c **** *  xferData:  Pointer to buffer where to put data from slave.
 168:.\Generated_Source\PSoC4/I2C_bus_I2C_MASTER.c **** *  cnt:       Size of buffer to read.
 169:.\Generated_Source\PSoC4/I2C_bus_I2C_MASTER.c **** *  mode:      Transfer mode defines: start or restart condition generation at
 170:.\Generated_Source\PSoC4/I2C_bus_I2C_MASTER.c **** *             begin of the transfer and complete the transfer or halt before
 171:.\Generated_Source\PSoC4/I2C_bus_I2C_MASTER.c **** *             generating a stop.
 172:.\Generated_Source\PSoC4/I2C_bus_I2C_MASTER.c **** *
 173:.\Generated_Source\PSoC4/I2C_bus_I2C_MASTER.c **** * Return:
 174:.\Generated_Source\PSoC4/I2C_bus_I2C_MASTER.c **** *  Error status.
 175:.\Generated_Source\PSoC4/I2C_bus_I2C_MASTER.c **** *
 176:.\Generated_Source\PSoC4/I2C_bus_I2C_MASTER.c **** * Global variables:
 177:.\Generated_Source\PSoC4/I2C_bus_I2C_MASTER.c **** *  I2C_bus_mstrStatus  - used to store current status of I2C Master.
 178:.\Generated_Source\PSoC4/I2C_bus_I2C_MASTER.c **** *  I2C_bus_state       - used to store current state of software FSM.
 179:.\Generated_Source\PSoC4/I2C_bus_I2C_MASTER.c **** *  I2C_bus_mstrControl - used to control master end of transaction with
 180:.\Generated_Source\PSoC4/I2C_bus_I2C_MASTER.c **** *  or without the Stop generation.
 181:.\Generated_Source\PSoC4/I2C_bus_I2C_MASTER.c **** *  I2C_bus_mstrRdBufPtr - used to store pointer to master write buffer.
 182:.\Generated_Source\PSoC4/I2C_bus_I2C_MASTER.c **** *  I2C_bus_mstrRdBufIndex - used to current index within master write
 183:.\Generated_Source\PSoC4/I2C_bus_I2C_MASTER.c **** *  buffer.
 184:.\Generated_Source\PSoC4/I2C_bus_I2C_MASTER.c **** *  I2C_bus_mstrRdBufSize - used to store master write buffer size.
 185:.\Generated_Source\PSoC4/I2C_bus_I2C_MASTER.c **** *
 186:.\Generated_Source\PSoC4/I2C_bus_I2C_MASTER.c **** *******************************************************************************/
 187:.\Generated_Source\PSoC4/I2C_bus_I2C_MASTER.c **** uint32 I2C_bus_I2CMasterReadBuf(uint32 slaveAddress, uint8 * rdData, uint32 cnt, uint32 mode)
 188:.\Generated_Source\PSoC4/I2C_bus_I2C_MASTER.c **** {
 189:.\Generated_Source\PSoC4/I2C_bus_I2C_MASTER.c ****     uint32 errStatus;
 190:.\Generated_Source\PSoC4/I2C_bus_I2C_MASTER.c **** 
 191:.\Generated_Source\PSoC4/I2C_bus_I2C_MASTER.c ****     errStatus = I2C_bus_I2C_MSTR_NOT_READY;
 192:.\Generated_Source\PSoC4/I2C_bus_I2C_MASTER.c **** 
 193:.\Generated_Source\PSoC4/I2C_bus_I2C_MASTER.c ****     if(NULL != rdData)
 194:.\Generated_Source\PSoC4/I2C_bus_I2C_MASTER.c ****     {
 195:.\Generated_Source\PSoC4/I2C_bus_I2C_MASTER.c ****         /* Check FSM state and bus before generating Start/ReStart condition */
 196:.\Generated_Source\PSoC4/I2C_bus_I2C_MASTER.c ****         if(I2C_bus_CHECK_I2C_FSM_IDLE)
 197:.\Generated_Source\PSoC4/I2C_bus_I2C_MASTER.c ****         {
 198:.\Generated_Source\PSoC4/I2C_bus_I2C_MASTER.c ****             I2C_bus_DisableInt();  /* Lock from interruption */
 199:.\Generated_Source\PSoC4/I2C_bus_I2C_MASTER.c **** 
 200:.\Generated_Source\PSoC4/I2C_bus_I2C_MASTER.c ****             /* Check bus state */
 201:.\Generated_Source\PSoC4/I2C_bus_I2C_MASTER.c ****             errStatus = I2C_bus_CHECK_I2C_STATUS(I2C_bus_I2C_STATUS_BUS_BUSY) ?
 202:.\Generated_Source\PSoC4/I2C_bus_I2C_MASTER.c ****                             I2C_bus_I2C_MSTR_BUS_BUSY : I2C_bus_I2C_MSTR_NO_ERROR;
 203:.\Generated_Source\PSoC4/I2C_bus_I2C_MASTER.c ****         }
ARM GAS  C:\Users\username\AppData\Local\Temp\cc0FlDXj.s 			page 5


 204:.\Generated_Source\PSoC4/I2C_bus_I2C_MASTER.c ****         else if(I2C_bus_CHECK_I2C_FSM_HALT)
 205:.\Generated_Source\PSoC4/I2C_bus_I2C_MASTER.c ****         {
 206:.\Generated_Source\PSoC4/I2C_bus_I2C_MASTER.c ****             I2C_bus_mstrStatus &= (uint16) ~I2C_bus_I2C_MSTAT_XFER_HALT;
 207:.\Generated_Source\PSoC4/I2C_bus_I2C_MASTER.c ****                               errStatus  =  I2C_bus_I2C_MSTR_NO_ERROR;
 208:.\Generated_Source\PSoC4/I2C_bus_I2C_MASTER.c ****         }
 209:.\Generated_Source\PSoC4/I2C_bus_I2C_MASTER.c ****         else
 210:.\Generated_Source\PSoC4/I2C_bus_I2C_MASTER.c ****         {
 211:.\Generated_Source\PSoC4/I2C_bus_I2C_MASTER.c ****             /* Unexpected FSM state: exit */
 212:.\Generated_Source\PSoC4/I2C_bus_I2C_MASTER.c ****         }
 213:.\Generated_Source\PSoC4/I2C_bus_I2C_MASTER.c ****     }
 214:.\Generated_Source\PSoC4/I2C_bus_I2C_MASTER.c **** 
 215:.\Generated_Source\PSoC4/I2C_bus_I2C_MASTER.c ****     /* Check master ready to proceed */
 216:.\Generated_Source\PSoC4/I2C_bus_I2C_MASTER.c ****     if(I2C_bus_I2C_MSTR_NO_ERROR == errStatus) /* No error proceed */
 217:.\Generated_Source\PSoC4/I2C_bus_I2C_MASTER.c ****     {
 218:.\Generated_Source\PSoC4/I2C_bus_I2C_MASTER.c ****         #if (!I2C_bus_CY_SCBIP_V0 && \
 219:.\Generated_Source\PSoC4/I2C_bus_I2C_MASTER.c ****         I2C_bus_I2C_MULTI_MASTER_SLAVE_CONST && I2C_bus_I2C_WAKE_ENABLE_CONST)
 220:.\Generated_Source\PSoC4/I2C_bus_I2C_MASTER.c ****             I2C_bus_I2CMasterDisableEcAm();
 221:.\Generated_Source\PSoC4/I2C_bus_I2C_MASTER.c ****         #endif /* (!I2C_bus_CY_SCBIP_V0) */
 222:.\Generated_Source\PSoC4/I2C_bus_I2C_MASTER.c **** 
 223:.\Generated_Source\PSoC4/I2C_bus_I2C_MASTER.c ****         /* Set up read transaction */
 224:.\Generated_Source\PSoC4/I2C_bus_I2C_MASTER.c ****         I2C_bus_state = I2C_bus_I2C_FSM_MSTR_RD_ADDR;
 225:.\Generated_Source\PSoC4/I2C_bus_I2C_MASTER.c ****         I2C_bus_mstrRdBufIndex = 0u;
 226:.\Generated_Source\PSoC4/I2C_bus_I2C_MASTER.c ****         I2C_bus_mstrRdBufSize  = cnt;
 227:.\Generated_Source\PSoC4/I2C_bus_I2C_MASTER.c ****         I2C_bus_mstrRdBufPtr   = (volatile uint8 *) rdData;
 228:.\Generated_Source\PSoC4/I2C_bus_I2C_MASTER.c ****         I2C_bus_mstrControl    = (uint8) mode;
 229:.\Generated_Source\PSoC4/I2C_bus_I2C_MASTER.c **** 
 230:.\Generated_Source\PSoC4/I2C_bus_I2C_MASTER.c ****         slaveAddress = (I2C_bus_GET_I2C_8BIT_ADDRESS(slaveAddress) | I2C_bus_I2C_READ_FLAG);
 231:.\Generated_Source\PSoC4/I2C_bus_I2C_MASTER.c **** 
 232:.\Generated_Source\PSoC4/I2C_bus_I2C_MASTER.c ****         I2C_bus_mstrStatus &= (uint16) ~I2C_bus_I2C_MSTAT_RD_CMPLT;
 233:.\Generated_Source\PSoC4/I2C_bus_I2C_MASTER.c **** 
 234:.\Generated_Source\PSoC4/I2C_bus_I2C_MASTER.c ****         I2C_bus_ClearMasterInterruptSource(I2C_bus_INTR_MASTER_ALL);
 235:.\Generated_Source\PSoC4/I2C_bus_I2C_MASTER.c **** 
 236:.\Generated_Source\PSoC4/I2C_bus_I2C_MASTER.c ****         /* TX and RX FIFO have to be EMPTY */
 237:.\Generated_Source\PSoC4/I2C_bus_I2C_MASTER.c **** 
 238:.\Generated_Source\PSoC4/I2C_bus_I2C_MASTER.c ****         /* Prepare reading */
 239:.\Generated_Source\PSoC4/I2C_bus_I2C_MASTER.c ****         if(I2C_bus_mstrRdBufSize < I2C_bus_I2C_FIFO_SIZE)
 240:.\Generated_Source\PSoC4/I2C_bus_I2C_MASTER.c ****         {
 241:.\Generated_Source\PSoC4/I2C_bus_I2C_MASTER.c ****             /* Reading byte-by-byte */
 242:.\Generated_Source\PSoC4/I2C_bus_I2C_MASTER.c ****             I2C_bus_SetRxInterruptMode(I2C_bus_INTR_RX_NOT_EMPTY);
 243:.\Generated_Source\PSoC4/I2C_bus_I2C_MASTER.c ****         }
 244:.\Generated_Source\PSoC4/I2C_bus_I2C_MASTER.c ****         else
 245:.\Generated_Source\PSoC4/I2C_bus_I2C_MASTER.c ****         {
 246:.\Generated_Source\PSoC4/I2C_bus_I2C_MASTER.c ****             /* Receive RX FIFO chunks */
 247:.\Generated_Source\PSoC4/I2C_bus_I2C_MASTER.c ****             I2C_bus_ENABLE_MASTER_AUTO_DATA_ACK;
 248:.\Generated_Source\PSoC4/I2C_bus_I2C_MASTER.c ****             I2C_bus_SetRxInterruptMode(I2C_bus_INTR_RX_FULL);
 249:.\Generated_Source\PSoC4/I2C_bus_I2C_MASTER.c ****         }
 250:.\Generated_Source\PSoC4/I2C_bus_I2C_MASTER.c **** 
 251:.\Generated_Source\PSoC4/I2C_bus_I2C_MASTER.c ****         /* Generate Start or ReStart */
 252:.\Generated_Source\PSoC4/I2C_bus_I2C_MASTER.c ****         if(I2C_bus_CHECK_I2C_MODE_RESTART(mode))
 253:.\Generated_Source\PSoC4/I2C_bus_I2C_MASTER.c ****         {
 254:.\Generated_Source\PSoC4/I2C_bus_I2C_MASTER.c ****             I2C_bus_I2C_MASTER_GENERATE_RESTART;
 255:.\Generated_Source\PSoC4/I2C_bus_I2C_MASTER.c ****             I2C_bus_TX_FIFO_WR_REG = (slaveAddress);
 256:.\Generated_Source\PSoC4/I2C_bus_I2C_MASTER.c ****         }
 257:.\Generated_Source\PSoC4/I2C_bus_I2C_MASTER.c ****         else
 258:.\Generated_Source\PSoC4/I2C_bus_I2C_MASTER.c ****         {
 259:.\Generated_Source\PSoC4/I2C_bus_I2C_MASTER.c ****             I2C_bus_TX_FIFO_WR_REG = (slaveAddress);
 260:.\Generated_Source\PSoC4/I2C_bus_I2C_MASTER.c ****             I2C_bus_I2C_MASTER_GENERATE_START;
ARM GAS  C:\Users\username\AppData\Local\Temp\cc0FlDXj.s 			page 6


 261:.\Generated_Source\PSoC4/I2C_bus_I2C_MASTER.c ****         }
 262:.\Generated_Source\PSoC4/I2C_bus_I2C_MASTER.c ****     }
 263:.\Generated_Source\PSoC4/I2C_bus_I2C_MASTER.c **** 
 264:.\Generated_Source\PSoC4/I2C_bus_I2C_MASTER.c ****     I2C_bus_EnableInt();   /* Release lock */
 265:.\Generated_Source\PSoC4/I2C_bus_I2C_MASTER.c **** 
 266:.\Generated_Source\PSoC4/I2C_bus_I2C_MASTER.c ****     return(errStatus);
 267:.\Generated_Source\PSoC4/I2C_bus_I2C_MASTER.c **** }
 268:.\Generated_Source\PSoC4/I2C_bus_I2C_MASTER.c **** 
 269:.\Generated_Source\PSoC4/I2C_bus_I2C_MASTER.c **** 
 270:.\Generated_Source\PSoC4/I2C_bus_I2C_MASTER.c **** /*******************************************************************************
 271:.\Generated_Source\PSoC4/I2C_bus_I2C_MASTER.c **** * Function Name: I2C_bus_I2CMasterSendStart
 272:.\Generated_Source\PSoC4/I2C_bus_I2C_MASTER.c **** ********************************************************************************
 273:.\Generated_Source\PSoC4/I2C_bus_I2C_MASTER.c **** *
 274:.\Generated_Source\PSoC4/I2C_bus_I2C_MASTER.c **** * Summary:
 275:.\Generated_Source\PSoC4/I2C_bus_I2C_MASTER.c **** *  Generates Start condition and sends slave address with read/write bit.
 276:.\Generated_Source\PSoC4/I2C_bus_I2C_MASTER.c **** *  Disables the I2C interrupt.
 277:.\Generated_Source\PSoC4/I2C_bus_I2C_MASTER.c **** *  This function is blocking and does not return until start condition and
 278:.\Generated_Source\PSoC4/I2C_bus_I2C_MASTER.c **** *  address byte are sent and ACK/NACK response is received or errors occurred.
 279:.\Generated_Source\PSoC4/I2C_bus_I2C_MASTER.c **** *
 280:.\Generated_Source\PSoC4/I2C_bus_I2C_MASTER.c **** * Parameters:
 281:.\Generated_Source\PSoC4/I2C_bus_I2C_MASTER.c **** *  slaveAddress: Right justified 7-bit Slave address (valid range 8 to 120).
 282:.\Generated_Source\PSoC4/I2C_bus_I2C_MASTER.c **** *  bitRnW:       Direction of the following transfer. It is defined by
 283:.\Generated_Source\PSoC4/I2C_bus_I2C_MASTER.c **** *                read/write bit within address byte.
 284:.\Generated_Source\PSoC4/I2C_bus_I2C_MASTER.c **** *
 285:.\Generated_Source\PSoC4/I2C_bus_I2C_MASTER.c **** * Return:
 286:.\Generated_Source\PSoC4/I2C_bus_I2C_MASTER.c **** *  Error status.
 287:.\Generated_Source\PSoC4/I2C_bus_I2C_MASTER.c **** *
 288:.\Generated_Source\PSoC4/I2C_bus_I2C_MASTER.c **** * Global variables:
 289:.\Generated_Source\PSoC4/I2C_bus_I2C_MASTER.c **** *  I2C_bus_state - used to store current state of software FSM.
 290:.\Generated_Source\PSoC4/I2C_bus_I2C_MASTER.c **** *
 291:.\Generated_Source\PSoC4/I2C_bus_I2C_MASTER.c **** *******************************************************************************/
 292:.\Generated_Source\PSoC4/I2C_bus_I2C_MASTER.c **** uint32 I2C_bus_I2CMasterSendStart(uint32 slaveAddress, uint32 bitRnW)
 293:.\Generated_Source\PSoC4/I2C_bus_I2C_MASTER.c **** {
  26              		.loc 1 293 0
  27              		.cfi_startproc
  28              	.LVL0:
  29 0000 38B5     		push	{r3, r4, r5, lr}
  30              		.cfi_def_cfa_offset 16
  31              		.cfi_offset 3, -16
  32              		.cfi_offset 4, -12
  33              		.cfi_offset 5, -8
  34              		.cfi_offset 14, -4
  35              	.LVL1:
 294:.\Generated_Source\PSoC4/I2C_bus_I2C_MASTER.c ****     uint32  resetIp;
 295:.\Generated_Source\PSoC4/I2C_bus_I2C_MASTER.c ****     uint32 errStatus;
 296:.\Generated_Source\PSoC4/I2C_bus_I2C_MASTER.c **** 
 297:.\Generated_Source\PSoC4/I2C_bus_I2C_MASTER.c ****     resetIp   = 0u;
 298:.\Generated_Source\PSoC4/I2C_bus_I2C_MASTER.c ****     errStatus = I2C_bus_I2C_MSTR_NOT_READY;
 299:.\Generated_Source\PSoC4/I2C_bus_I2C_MASTER.c **** 
 300:.\Generated_Source\PSoC4/I2C_bus_I2C_MASTER.c ****     /* Check FSM state before generating Start condition */
 301:.\Generated_Source\PSoC4/I2C_bus_I2C_MASTER.c ****     if(I2C_bus_CHECK_I2C_FSM_IDLE)
  36              		.loc 1 301 0
  37 0002 2E4B     		ldr	r3, .L12
  38 0004 1B78     		ldrb	r3, [r3]
  39 0006 102B     		cmp	r3, #16
  40 0008 53D1     		bne	.L8
 302:.\Generated_Source\PSoC4/I2C_bus_I2C_MASTER.c ****     {
ARM GAS  C:\Users\username\AppData\Local\Temp\cc0FlDXj.s 			page 7


 303:.\Generated_Source\PSoC4/I2C_bus_I2C_MASTER.c ****         /* If bus is free, generate Start condition */
 304:.\Generated_Source\PSoC4/I2C_bus_I2C_MASTER.c ****         if(I2C_bus_CHECK_I2C_STATUS(I2C_bus_I2C_STATUS_BUS_BUSY))
  41              		.loc 1 304 0
  42 000a 2D4B     		ldr	r3, .L12+4
  43 000c 1B68     		ldr	r3, [r3]
  44 000e DB07     		lsl	r3, r3, #31
  45 0010 51D4     		bmi	.L9
  46 0012 0D1C     		mov	r5, r1
  47 0014 041C     		mov	r4, r0
 305:.\Generated_Source\PSoC4/I2C_bus_I2C_MASTER.c ****         {
 306:.\Generated_Source\PSoC4/I2C_bus_I2C_MASTER.c ****             errStatus = I2C_bus_I2C_MSTR_BUS_BUSY;
 307:.\Generated_Source\PSoC4/I2C_bus_I2C_MASTER.c ****         }
 308:.\Generated_Source\PSoC4/I2C_bus_I2C_MASTER.c ****         else
 309:.\Generated_Source\PSoC4/I2C_bus_I2C_MASTER.c ****         {
 310:.\Generated_Source\PSoC4/I2C_bus_I2C_MASTER.c ****             I2C_bus_DisableInt();  /* Lock from interruption */
  48              		.loc 1 310 0
  49 0016 0A20     		mov	r0, #10
  50              	.LVL2:
  51 0018 FFF7FEFF 		bl	CyIntDisable
  52              	.LVL3:
 311:.\Generated_Source\PSoC4/I2C_bus_I2C_MASTER.c **** 
 312:.\Generated_Source\PSoC4/I2C_bus_I2C_MASTER.c ****         #if (!I2C_bus_CY_SCBIP_V0 && \
 313:.\Generated_Source\PSoC4/I2C_bus_I2C_MASTER.c ****             I2C_bus_I2C_MULTI_MASTER_SLAVE_CONST && I2C_bus_I2C_WAKE_ENABLE_CONST)
 314:.\Generated_Source\PSoC4/I2C_bus_I2C_MASTER.c ****             I2C_bus_I2CMasterDisableEcAm();
 315:.\Generated_Source\PSoC4/I2C_bus_I2C_MASTER.c ****         #endif /* (!I2C_bus_CY_SCBIP_V0) */
 316:.\Generated_Source\PSoC4/I2C_bus_I2C_MASTER.c **** 
 317:.\Generated_Source\PSoC4/I2C_bus_I2C_MASTER.c ****             slaveAddress = I2C_bus_GET_I2C_8BIT_ADDRESS(slaveAddress);
  53              		.loc 1 317 0
  54 001c 6000     		lsl	r0, r4, #1
  55 001e FF23     		mov	r3, #255
  56 0020 1840     		and	r0, r3
  57              	.LVL4:
 318:.\Generated_Source\PSoC4/I2C_bus_I2C_MASTER.c **** 
 319:.\Generated_Source\PSoC4/I2C_bus_I2C_MASTER.c ****             if(0u == bitRnW) /* Write direction */
  58              		.loc 1 319 0
  59 0022 002D     		cmp	r5, #0
  60 0024 03D1     		bne	.L3
 320:.\Generated_Source\PSoC4/I2C_bus_I2C_MASTER.c ****             {
 321:.\Generated_Source\PSoC4/I2C_bus_I2C_MASTER.c ****                 I2C_bus_state = I2C_bus_I2C_FSM_MSTR_WR_DATA;
  61              		.loc 1 321 0
  62 0026 2422     		mov	r2, #36
  63 0028 244B     		ldr	r3, .L12
  64 002a 1A70     		strb	r2, [r3]
  65 002c 04E0     		b	.L4
  66              	.L3:
 322:.\Generated_Source\PSoC4/I2C_bus_I2C_MASTER.c ****             }
 323:.\Generated_Source\PSoC4/I2C_bus_I2C_MASTER.c ****             else /* Read direction */
 324:.\Generated_Source\PSoC4/I2C_bus_I2C_MASTER.c ****             {
 325:.\Generated_Source\PSoC4/I2C_bus_I2C_MASTER.c ****                 I2C_bus_state = I2C_bus_I2C_FSM_MSTR_RD_DATA;
  67              		.loc 1 325 0
  68 002e 2522     		mov	r2, #37
  69 0030 224B     		ldr	r3, .L12
  70 0032 1A70     		strb	r2, [r3]
 326:.\Generated_Source\PSoC4/I2C_bus_I2C_MASTER.c ****                          slaveAddress |= I2C_bus_I2C_READ_FLAG;
  71              		.loc 1 326 0
  72 0034 0123     		mov	r3, #1
  73 0036 1843     		orr	r0, r3
ARM GAS  C:\Users\username\AppData\Local\Temp\cc0FlDXj.s 			page 8


  74              	.LVL5:
  75              	.L4:
 327:.\Generated_Source\PSoC4/I2C_bus_I2C_MASTER.c ****             }
 328:.\Generated_Source\PSoC4/I2C_bus_I2C_MASTER.c **** 
 329:.\Generated_Source\PSoC4/I2C_bus_I2C_MASTER.c ****             /* TX and RX FIFO have to be EMPTY */
 330:.\Generated_Source\PSoC4/I2C_bus_I2C_MASTER.c **** 
 331:.\Generated_Source\PSoC4/I2C_bus_I2C_MASTER.c ****             I2C_bus_TX_FIFO_WR_REG = slaveAddress; /* Put address in TX FIFO */
  76              		.loc 1 331 0
  77 0038 224B     		ldr	r3, .L12+8
  78 003a 1860     		str	r0, [r3]
 332:.\Generated_Source\PSoC4/I2C_bus_I2C_MASTER.c ****             I2C_bus_ClearMasterInterruptSource(I2C_bus_INTR_MASTER_ALL);
  79              		.loc 1 332 0
  80 003c 224A     		ldr	r2, .L12+12
  81 003e 234B     		ldr	r3, .L12+16
  82 0040 1A60     		str	r2, [r3]
 333:.\Generated_Source\PSoC4/I2C_bus_I2C_MASTER.c **** 
 334:.\Generated_Source\PSoC4/I2C_bus_I2C_MASTER.c ****             I2C_bus_I2C_MASTER_GENERATE_START;
  83              		.loc 1 334 0
  84 0042 0222     		mov	r2, #2
  85 0044 224B     		ldr	r3, .L12+20
  86 0046 1A60     		str	r2, [r3]
  87              	.L5:
 335:.\Generated_Source\PSoC4/I2C_bus_I2C_MASTER.c **** 
 336:.\Generated_Source\PSoC4/I2C_bus_I2C_MASTER.c **** 
 337:.\Generated_Source\PSoC4/I2C_bus_I2C_MASTER.c ****             while(!I2C_bus_CHECK_INTR_MASTER(I2C_bus_INTR_MASTER_I2C_ACK      |
  88              		.loc 1 337 0 discriminator 1
  89 0048 204B     		ldr	r3, .L12+16
  90 004a 1A68     		ldr	r2, [r3]
  91 004c 0823     		mov	r3, #8
  92 004e FF33     		add	r3, r3, #255
  93 0050 1A42     		tst	r2, r3
  94 0052 F9D0     		beq	.L5
 338:.\Generated_Source\PSoC4/I2C_bus_I2C_MASTER.c ****                                                       I2C_bus_INTR_MASTER_I2C_NACK     |
 339:.\Generated_Source\PSoC4/I2C_bus_I2C_MASTER.c ****                                                       I2C_bus_INTR_MASTER_I2C_ARB_LOST |
 340:.\Generated_Source\PSoC4/I2C_bus_I2C_MASTER.c ****                                                       I2C_bus_INTR_MASTER_I2C_BUS_ERROR))
 341:.\Generated_Source\PSoC4/I2C_bus_I2C_MASTER.c ****             {
 342:.\Generated_Source\PSoC4/I2C_bus_I2C_MASTER.c ****                 /*
 343:.\Generated_Source\PSoC4/I2C_bus_I2C_MASTER.c ****                 * Write: wait until address has been transferred
 344:.\Generated_Source\PSoC4/I2C_bus_I2C_MASTER.c ****                 * Read : wait until address has been transferred, data byte is going to RX FIFO as 
 345:.\Generated_Source\PSoC4/I2C_bus_I2C_MASTER.c ****                 */
 346:.\Generated_Source\PSoC4/I2C_bus_I2C_MASTER.c ****             }
 347:.\Generated_Source\PSoC4/I2C_bus_I2C_MASTER.c **** 
 348:.\Generated_Source\PSoC4/I2C_bus_I2C_MASTER.c ****             /* Check the results of the address phase */
 349:.\Generated_Source\PSoC4/I2C_bus_I2C_MASTER.c ****             if(I2C_bus_CHECK_INTR_MASTER(I2C_bus_INTR_MASTER_I2C_ACK))
  95              		.loc 1 349 0
  96 0054 1D4B     		ldr	r3, .L12+16
  97 0056 1B68     		ldr	r3, [r3]
  98 0058 5B07     		lsl	r3, r3, #29
  99 005a 14D4     		bmi	.L10
 350:.\Generated_Source\PSoC4/I2C_bus_I2C_MASTER.c ****             {
 351:.\Generated_Source\PSoC4/I2C_bus_I2C_MASTER.c ****                 errStatus = I2C_bus_I2C_MSTR_NO_ERROR;
 352:.\Generated_Source\PSoC4/I2C_bus_I2C_MASTER.c ****             }
 353:.\Generated_Source\PSoC4/I2C_bus_I2C_MASTER.c ****             else if(I2C_bus_CHECK_INTR_MASTER(I2C_bus_INTR_MASTER_I2C_NACK))
 100              		.loc 1 353 0
 101 005c 1B4B     		ldr	r3, .L12+16
 102 005e 1B68     		ldr	r3, [r3]
 103 0060 9B07     		lsl	r3, r3, #30
ARM GAS  C:\Users\username\AppData\Local\Temp\cc0FlDXj.s 			page 9


 104 0062 13D4     		bmi	.L11
 354:.\Generated_Source\PSoC4/I2C_bus_I2C_MASTER.c ****             {
 355:.\Generated_Source\PSoC4/I2C_bus_I2C_MASTER.c ****                 errStatus = I2C_bus_I2C_MSTR_ERR_LB_NAK;
 356:.\Generated_Source\PSoC4/I2C_bus_I2C_MASTER.c ****             }
 357:.\Generated_Source\PSoC4/I2C_bus_I2C_MASTER.c ****             else if(I2C_bus_CHECK_INTR_MASTER(I2C_bus_INTR_MASTER_I2C_ARB_LOST))
 105              		.loc 1 357 0
 106 0064 194B     		ldr	r3, .L12+16
 107 0066 1B68     		ldr	r3, [r3]
 108 0068 DB07     		lsl	r3, r3, #31
 109 006a 05D5     		bpl	.L7
 358:.\Generated_Source\PSoC4/I2C_bus_I2C_MASTER.c ****             {
 359:.\Generated_Source\PSoC4/I2C_bus_I2C_MASTER.c ****                 I2C_bus_state = I2C_bus_I2C_FSM_IDLE;
 110              		.loc 1 359 0
 111 006c 1022     		mov	r2, #16
 112 006e 134B     		ldr	r3, .L12
 113 0070 1A70     		strb	r2, [r3]
 114              	.LVL6:
 360:.\Generated_Source\PSoC4/I2C_bus_I2C_MASTER.c ****                              errStatus = I2C_bus_I2C_MSTR_ERR_ARB_LOST;
 115              		.loc 1 360 0
 116 0072 0120     		mov	r0, #1
 117              	.LVL7:
 361:.\Generated_Source\PSoC4/I2C_bus_I2C_MASTER.c ****                              resetIp   = I2C_bus_I2C_RESET_ERROR;
 118              		.loc 1 361 0
 119 0074 0121     		mov	r1, #1
 120 0076 0BE0     		b	.L6
 121              	.LVL8:
 122              	.L7:
 362:.\Generated_Source\PSoC4/I2C_bus_I2C_MASTER.c ****             }
 363:.\Generated_Source\PSoC4/I2C_bus_I2C_MASTER.c ****             else /* I2C_bus_INTR_MASTER_I2C_BUS_ERROR set is else condition */
 364:.\Generated_Source\PSoC4/I2C_bus_I2C_MASTER.c ****             {
 365:.\Generated_Source\PSoC4/I2C_bus_I2C_MASTER.c ****                 I2C_bus_state = I2C_bus_I2C_FSM_IDLE;
 123              		.loc 1 365 0
 124 0078 1022     		mov	r2, #16
 125 007a 104B     		ldr	r3, .L12
 126 007c 1A70     		strb	r2, [r3]
 127              	.LVL9:
 366:.\Generated_Source\PSoC4/I2C_bus_I2C_MASTER.c ****                              errStatus = I2C_bus_I2C_MSTR_ERR_BUS_ERR;
 128              		.loc 1 366 0
 129 007e 8020     		mov	r0, #128
 130              	.LVL10:
 131 0080 4000     		lsl	r0, r0, #1
 367:.\Generated_Source\PSoC4/I2C_bus_I2C_MASTER.c ****                              resetIp   = I2C_bus_I2C_RESET_ERROR;
 132              		.loc 1 367 0
 133 0082 0121     		mov	r1, #1
 134 0084 04E0     		b	.L6
 135              	.LVL11:
 136              	.L10:
 351:.\Generated_Source\PSoC4/I2C_bus_I2C_MASTER.c ****             }
 137              		.loc 1 351 0
 138 0086 0020     		mov	r0, #0
 139              	.LVL12:
 297:.\Generated_Source\PSoC4/I2C_bus_I2C_MASTER.c ****     errStatus = I2C_bus_I2C_MSTR_NOT_READY;
 140              		.loc 1 297 0
 141 0088 0021     		mov	r1, #0
 142 008a 01E0     		b	.L6
 143              	.LVL13:
 144              	.L11:
ARM GAS  C:\Users\username\AppData\Local\Temp\cc0FlDXj.s 			page 10


 355:.\Generated_Source\PSoC4/I2C_bus_I2C_MASTER.c ****             }
 145              		.loc 1 355 0
 146 008c 0220     		mov	r0, #2
 147              	.LVL14:
 297:.\Generated_Source\PSoC4/I2C_bus_I2C_MASTER.c ****     errStatus = I2C_bus_I2C_MSTR_NOT_READY;
 148              		.loc 1 297 0
 149 008e 0021     		mov	r1, #0
 150              	.LVL15:
 151              	.L6:
 368:.\Generated_Source\PSoC4/I2C_bus_I2C_MASTER.c ****             }
 369:.\Generated_Source\PSoC4/I2C_bus_I2C_MASTER.c **** 
 370:.\Generated_Source\PSoC4/I2C_bus_I2C_MASTER.c ****             I2C_bus_ClearMasterInterruptSource(I2C_bus_INTR_MASTER_I2C_ACK      |
 152              		.loc 1 370 0
 153 0090 0822     		mov	r2, #8
 154 0092 FF32     		add	r2, r2, #255
 155 0094 0D4B     		ldr	r3, .L12+16
 156 0096 1A60     		str	r2, [r3]
 371:.\Generated_Source\PSoC4/I2C_bus_I2C_MASTER.c ****                                                         I2C_bus_INTR_MASTER_I2C_NACK     |
 372:.\Generated_Source\PSoC4/I2C_bus_I2C_MASTER.c ****                                                         I2C_bus_INTR_MASTER_I2C_ARB_LOST |
 373:.\Generated_Source\PSoC4/I2C_bus_I2C_MASTER.c ****                                                         I2C_bus_INTR_MASTER_I2C_BUS_ERROR);
 374:.\Generated_Source\PSoC4/I2C_bus_I2C_MASTER.c **** 
 375:.\Generated_Source\PSoC4/I2C_bus_I2C_MASTER.c ****             /* Reset block in case of: LOST_ARB or BUS_ERR */
 376:.\Generated_Source\PSoC4/I2C_bus_I2C_MASTER.c ****             if(0u != resetIp)
 157              		.loc 1 376 0
 158 0098 0029     		cmp	r1, #0
 159 009a 0DD0     		beq	.L2
 377:.\Generated_Source\PSoC4/I2C_bus_I2C_MASTER.c ****             {
 378:.\Generated_Source\PSoC4/I2C_bus_I2C_MASTER.c ****                 I2C_bus_SCB_SW_RESET;
 160              		.loc 1 378 0
 161 009c 0D4A     		ldr	r2, .L12+24
 162 009e 1368     		ldr	r3, [r2]
 163 00a0 5B00     		lsl	r3, r3, #1
 164 00a2 5B08     		lsr	r3, r3, #1
 165 00a4 1360     		str	r3, [r2]
 166 00a6 1368     		ldr	r3, [r2]
 167 00a8 8021     		mov	r1, #128
 168              	.LVL16:
 169 00aa 0906     		lsl	r1, r1, #24
 170 00ac 0B43     		orr	r3, r1
 171 00ae 1360     		str	r3, [r2]
 172 00b0 02E0     		b	.L2
 173              	.LVL17:
 174              	.L8:
 298:.\Generated_Source\PSoC4/I2C_bus_I2C_MASTER.c **** 
 175              		.loc 1 298 0
 176 00b2 0420     		mov	r0, #4
 177              	.LVL18:
 178 00b4 00E0     		b	.L2
 179              	.LVL19:
 180              	.L9:
 306:.\Generated_Source\PSoC4/I2C_bus_I2C_MASTER.c ****         }
 181              		.loc 1 306 0
 182 00b6 0820     		mov	r0, #8
 183              	.LVL20:
 184              	.L2:
 379:.\Generated_Source\PSoC4/I2C_bus_I2C_MASTER.c ****             }
 380:.\Generated_Source\PSoC4/I2C_bus_I2C_MASTER.c ****         }
ARM GAS  C:\Users\username\AppData\Local\Temp\cc0FlDXj.s 			page 11


 381:.\Generated_Source\PSoC4/I2C_bus_I2C_MASTER.c ****     }
 382:.\Generated_Source\PSoC4/I2C_bus_I2C_MASTER.c **** 
 383:.\Generated_Source\PSoC4/I2C_bus_I2C_MASTER.c ****     return(errStatus);
 384:.\Generated_Source\PSoC4/I2C_bus_I2C_MASTER.c **** }
 185              		.loc 1 384 0
 186              		@ sp needed
 187 00b8 38BD     		pop	{r3, r4, r5, pc}
 188              	.L13:
 189 00ba C046     		.align	2
 190              	.L12:
 191 00bc 00000000 		.word	I2C_bus_state
 192 00c0 64002540 		.word	1076166756
 193 00c4 40022540 		.word	1076167232
 194 00c8 17030000 		.word	791
 195 00cc 000F2540 		.word	1076170496
 196 00d0 68002540 		.word	1076166760
 197 00d4 00002540 		.word	1076166656
 198              		.cfi_endproc
 199              	.LFE4:
 200              		.size	I2C_bus_I2CMasterSendStart, .-I2C_bus_I2CMasterSendStart
 201              		.section	.text.I2C_bus_I2CMasterSendStop,"ax",%progbits
 202              		.align	2
 203              		.global	I2C_bus_I2CMasterSendStop
 204              		.code	16
 205              		.thumb_func
 206              		.type	I2C_bus_I2CMasterSendStop, %function
 207              	I2C_bus_I2CMasterSendStop:
 208              	.LFB6:
 385:.\Generated_Source\PSoC4/I2C_bus_I2C_MASTER.c **** 
 386:.\Generated_Source\PSoC4/I2C_bus_I2C_MASTER.c **** 
 387:.\Generated_Source\PSoC4/I2C_bus_I2C_MASTER.c **** /*******************************************************************************
 388:.\Generated_Source\PSoC4/I2C_bus_I2C_MASTER.c **** * Function Name: I2C_bus_I2CMasterSendRestart
 389:.\Generated_Source\PSoC4/I2C_bus_I2C_MASTER.c **** ********************************************************************************
 390:.\Generated_Source\PSoC4/I2C_bus_I2C_MASTER.c **** *
 391:.\Generated_Source\PSoC4/I2C_bus_I2C_MASTER.c **** * Summary:
 392:.\Generated_Source\PSoC4/I2C_bus_I2C_MASTER.c **** *  Generates Restart condition and sends slave address with read/write bit.
 393:.\Generated_Source\PSoC4/I2C_bus_I2C_MASTER.c **** *  This function is blocking and does not return until start condition and
 394:.\Generated_Source\PSoC4/I2C_bus_I2C_MASTER.c **** *  address are sent and ACK/NACK response is received or errors occurred.
 395:.\Generated_Source\PSoC4/I2C_bus_I2C_MASTER.c **** *
 396:.\Generated_Source\PSoC4/I2C_bus_I2C_MASTER.c **** * Parameters:
 397:.\Generated_Source\PSoC4/I2C_bus_I2C_MASTER.c **** *  slaveAddress: Right justified 7-bit Slave address (valid range 8 to 120).
 398:.\Generated_Source\PSoC4/I2C_bus_I2C_MASTER.c **** *  bitRnW:       Direction of the following transfer. It is defined by
 399:.\Generated_Source\PSoC4/I2C_bus_I2C_MASTER.c **** *                read/write bit within address byte.
 400:.\Generated_Source\PSoC4/I2C_bus_I2C_MASTER.c **** *
 401:.\Generated_Source\PSoC4/I2C_bus_I2C_MASTER.c **** * Return:
 402:.\Generated_Source\PSoC4/I2C_bus_I2C_MASTER.c **** *  Error status
 403:.\Generated_Source\PSoC4/I2C_bus_I2C_MASTER.c **** *
 404:.\Generated_Source\PSoC4/I2C_bus_I2C_MASTER.c **** *
 405:.\Generated_Source\PSoC4/I2C_bus_I2C_MASTER.c **** * Global variables:
 406:.\Generated_Source\PSoC4/I2C_bus_I2C_MASTER.c **** *  I2C_bus_state - used to store current state of software FSM.
 407:.\Generated_Source\PSoC4/I2C_bus_I2C_MASTER.c **** *
 408:.\Generated_Source\PSoC4/I2C_bus_I2C_MASTER.c **** *******************************************************************************/
 409:.\Generated_Source\PSoC4/I2C_bus_I2C_MASTER.c **** uint32 I2C_bus_I2CMasterSendRestart(uint32 slaveAddress, uint32 bitRnW)
 410:.\Generated_Source\PSoC4/I2C_bus_I2C_MASTER.c **** {
 411:.\Generated_Source\PSoC4/I2C_bus_I2C_MASTER.c ****     uint32 resetIp;
 412:.\Generated_Source\PSoC4/I2C_bus_I2C_MASTER.c ****     uint32 errStatus;
 413:.\Generated_Source\PSoC4/I2C_bus_I2C_MASTER.c **** 
ARM GAS  C:\Users\username\AppData\Local\Temp\cc0FlDXj.s 			page 12


 414:.\Generated_Source\PSoC4/I2C_bus_I2C_MASTER.c ****     resetIp   = 0u;
 415:.\Generated_Source\PSoC4/I2C_bus_I2C_MASTER.c ****     errStatus = I2C_bus_I2C_MSTR_NOT_READY;
 416:.\Generated_Source\PSoC4/I2C_bus_I2C_MASTER.c **** 
 417:.\Generated_Source\PSoC4/I2C_bus_I2C_MASTER.c ****     /* Check FSM state before generating ReStart condition */
 418:.\Generated_Source\PSoC4/I2C_bus_I2C_MASTER.c ****     if(I2C_bus_CHECK_I2C_MASTER_ACTIVE)
 419:.\Generated_Source\PSoC4/I2C_bus_I2C_MASTER.c ****     {
 420:.\Generated_Source\PSoC4/I2C_bus_I2C_MASTER.c ****         slaveAddress = I2C_bus_GET_I2C_8BIT_ADDRESS(slaveAddress);
 421:.\Generated_Source\PSoC4/I2C_bus_I2C_MASTER.c **** 
 422:.\Generated_Source\PSoC4/I2C_bus_I2C_MASTER.c ****         if(0u == bitRnW) /* Write direction */
 423:.\Generated_Source\PSoC4/I2C_bus_I2C_MASTER.c ****         {
 424:.\Generated_Source\PSoC4/I2C_bus_I2C_MASTER.c ****             I2C_bus_state = I2C_bus_I2C_FSM_MSTR_WR_DATA;
 425:.\Generated_Source\PSoC4/I2C_bus_I2C_MASTER.c ****         }
 426:.\Generated_Source\PSoC4/I2C_bus_I2C_MASTER.c ****         else  /* Read direction */
 427:.\Generated_Source\PSoC4/I2C_bus_I2C_MASTER.c ****         {
 428:.\Generated_Source\PSoC4/I2C_bus_I2C_MASTER.c ****             I2C_bus_state  = I2C_bus_I2C_FSM_MSTR_RD_DATA;
 429:.\Generated_Source\PSoC4/I2C_bus_I2C_MASTER.c ****                       slaveAddress |= I2C_bus_I2C_READ_FLAG;
 430:.\Generated_Source\PSoC4/I2C_bus_I2C_MASTER.c ****         }
 431:.\Generated_Source\PSoC4/I2C_bus_I2C_MASTER.c **** 
 432:.\Generated_Source\PSoC4/I2C_bus_I2C_MASTER.c ****         /* TX and RX FIFO have to be EMPTY */
 433:.\Generated_Source\PSoC4/I2C_bus_I2C_MASTER.c **** 
 434:.\Generated_Source\PSoC4/I2C_bus_I2C_MASTER.c ****         /* Clean-up interrupt status */
 435:.\Generated_Source\PSoC4/I2C_bus_I2C_MASTER.c ****         I2C_bus_ClearMasterInterruptSource(I2C_bus_INTR_MASTER_ALL);
 436:.\Generated_Source\PSoC4/I2C_bus_I2C_MASTER.c **** 
 437:.\Generated_Source\PSoC4/I2C_bus_I2C_MASTER.c ****         /* A proper ReStart sequence is: generate ReStart, then put an address byte in the TX FIFO.
 438:.\Generated_Source\PSoC4/I2C_bus_I2C_MASTER.c ****         * Otherwise the master treats the address in the TX FIFO as a data byte if a previous trans
 439:.\Generated_Source\PSoC4/I2C_bus_I2C_MASTER.c ****         * The write transfer continues instead of ReStart.
 440:.\Generated_Source\PSoC4/I2C_bus_I2C_MASTER.c ****         */
 441:.\Generated_Source\PSoC4/I2C_bus_I2C_MASTER.c ****         I2C_bus_I2C_MASTER_GENERATE_RESTART;
 442:.\Generated_Source\PSoC4/I2C_bus_I2C_MASTER.c **** 
 443:.\Generated_Source\PSoC4/I2C_bus_I2C_MASTER.c ****         while(I2C_bus_CHECK_I2C_MASTER_CMD(I2C_bus_I2C_MASTER_CMD_M_START))
 444:.\Generated_Source\PSoC4/I2C_bus_I2C_MASTER.c ****         {
 445:.\Generated_Source\PSoC4/I2C_bus_I2C_MASTER.c ****             /* Wait until ReStart has been generated */
 446:.\Generated_Source\PSoC4/I2C_bus_I2C_MASTER.c ****         }
 447:.\Generated_Source\PSoC4/I2C_bus_I2C_MASTER.c **** 
 448:.\Generated_Source\PSoC4/I2C_bus_I2C_MASTER.c ****         /* Put address into TX FIFO */
 449:.\Generated_Source\PSoC4/I2C_bus_I2C_MASTER.c ****         I2C_bus_TX_FIFO_WR_REG = slaveAddress;
 450:.\Generated_Source\PSoC4/I2C_bus_I2C_MASTER.c **** 
 451:.\Generated_Source\PSoC4/I2C_bus_I2C_MASTER.c ****         /* Wait for address to be transferred */
 452:.\Generated_Source\PSoC4/I2C_bus_I2C_MASTER.c ****         while(!I2C_bus_CHECK_INTR_MASTER(I2C_bus_INTR_MASTER_I2C_ACK      |
 453:.\Generated_Source\PSoC4/I2C_bus_I2C_MASTER.c ****                                                   I2C_bus_INTR_MASTER_I2C_NACK     |
 454:.\Generated_Source\PSoC4/I2C_bus_I2C_MASTER.c ****                                                   I2C_bus_INTR_MASTER_I2C_ARB_LOST |
 455:.\Generated_Source\PSoC4/I2C_bus_I2C_MASTER.c ****                                                   I2C_bus_INTR_MASTER_I2C_BUS_ERROR))
 456:.\Generated_Source\PSoC4/I2C_bus_I2C_MASTER.c ****         {
 457:.\Generated_Source\PSoC4/I2C_bus_I2C_MASTER.c ****             /* Wait until address has been transferred */
 458:.\Generated_Source\PSoC4/I2C_bus_I2C_MASTER.c ****         }
 459:.\Generated_Source\PSoC4/I2C_bus_I2C_MASTER.c **** 
 460:.\Generated_Source\PSoC4/I2C_bus_I2C_MASTER.c ****         /* Check results of address phase */
 461:.\Generated_Source\PSoC4/I2C_bus_I2C_MASTER.c ****         if(I2C_bus_CHECK_INTR_MASTER(I2C_bus_INTR_MASTER_I2C_ACK))
 462:.\Generated_Source\PSoC4/I2C_bus_I2C_MASTER.c ****         {
 463:.\Generated_Source\PSoC4/I2C_bus_I2C_MASTER.c ****             errStatus = I2C_bus_I2C_MSTR_NO_ERROR;
 464:.\Generated_Source\PSoC4/I2C_bus_I2C_MASTER.c ****         }
 465:.\Generated_Source\PSoC4/I2C_bus_I2C_MASTER.c ****         else if(I2C_bus_CHECK_INTR_MASTER(I2C_bus_INTR_MASTER_I2C_NACK))
 466:.\Generated_Source\PSoC4/I2C_bus_I2C_MASTER.c ****         {
 467:.\Generated_Source\PSoC4/I2C_bus_I2C_MASTER.c ****              errStatus = I2C_bus_I2C_MSTR_ERR_LB_NAK;
 468:.\Generated_Source\PSoC4/I2C_bus_I2C_MASTER.c ****         }
 469:.\Generated_Source\PSoC4/I2C_bus_I2C_MASTER.c ****         else if(I2C_bus_CHECK_INTR_MASTER(I2C_bus_INTR_MASTER_I2C_ARB_LOST))
 470:.\Generated_Source\PSoC4/I2C_bus_I2C_MASTER.c ****         {
ARM GAS  C:\Users\username\AppData\Local\Temp\cc0FlDXj.s 			page 13


 471:.\Generated_Source\PSoC4/I2C_bus_I2C_MASTER.c ****             I2C_bus_state = I2C_bus_I2C_FSM_IDLE;
 472:.\Generated_Source\PSoC4/I2C_bus_I2C_MASTER.c ****                          errStatus = I2C_bus_I2C_MSTR_ERR_ARB_LOST;
 473:.\Generated_Source\PSoC4/I2C_bus_I2C_MASTER.c ****                          resetIp   = I2C_bus_I2C_RESET_ERROR;
 474:.\Generated_Source\PSoC4/I2C_bus_I2C_MASTER.c ****         }
 475:.\Generated_Source\PSoC4/I2C_bus_I2C_MASTER.c ****         else /* I2C_bus_INTR_MASTER_I2C_BUS_ERROR set is else condition */
 476:.\Generated_Source\PSoC4/I2C_bus_I2C_MASTER.c ****         {
 477:.\Generated_Source\PSoC4/I2C_bus_I2C_MASTER.c ****             I2C_bus_state = I2C_bus_I2C_FSM_IDLE;
 478:.\Generated_Source\PSoC4/I2C_bus_I2C_MASTER.c ****                          errStatus = I2C_bus_I2C_MSTR_ERR_BUS_ERR;
 479:.\Generated_Source\PSoC4/I2C_bus_I2C_MASTER.c ****                          resetIp   = I2C_bus_I2C_RESET_ERROR;
 480:.\Generated_Source\PSoC4/I2C_bus_I2C_MASTER.c ****         }
 481:.\Generated_Source\PSoC4/I2C_bus_I2C_MASTER.c **** 
 482:.\Generated_Source\PSoC4/I2C_bus_I2C_MASTER.c ****         I2C_bus_ClearMasterInterruptSource(I2C_bus_INTR_MASTER_I2C_ACK      |
 483:.\Generated_Source\PSoC4/I2C_bus_I2C_MASTER.c ****                                                     I2C_bus_INTR_MASTER_I2C_NACK     |
 484:.\Generated_Source\PSoC4/I2C_bus_I2C_MASTER.c ****                                                     I2C_bus_INTR_MASTER_I2C_ARB_LOST |
 485:.\Generated_Source\PSoC4/I2C_bus_I2C_MASTER.c ****                                                     I2C_bus_INTR_MASTER_I2C_BUS_ERROR);
 486:.\Generated_Source\PSoC4/I2C_bus_I2C_MASTER.c **** 
 487:.\Generated_Source\PSoC4/I2C_bus_I2C_MASTER.c ****         /* Reset block in case of: LOST_ARB or BUS_ERR */
 488:.\Generated_Source\PSoC4/I2C_bus_I2C_MASTER.c ****         if(0u != resetIp)
 489:.\Generated_Source\PSoC4/I2C_bus_I2C_MASTER.c ****         {
 490:.\Generated_Source\PSoC4/I2C_bus_I2C_MASTER.c ****             I2C_bus_SCB_SW_RESET;
 491:.\Generated_Source\PSoC4/I2C_bus_I2C_MASTER.c ****         }
 492:.\Generated_Source\PSoC4/I2C_bus_I2C_MASTER.c ****     }
 493:.\Generated_Source\PSoC4/I2C_bus_I2C_MASTER.c **** 
 494:.\Generated_Source\PSoC4/I2C_bus_I2C_MASTER.c ****     return(errStatus);
 495:.\Generated_Source\PSoC4/I2C_bus_I2C_MASTER.c **** }
 496:.\Generated_Source\PSoC4/I2C_bus_I2C_MASTER.c **** 
 497:.\Generated_Source\PSoC4/I2C_bus_I2C_MASTER.c **** 
 498:.\Generated_Source\PSoC4/I2C_bus_I2C_MASTER.c **** /*******************************************************************************
 499:.\Generated_Source\PSoC4/I2C_bus_I2C_MASTER.c **** * Function Name: I2C_bus_I2CMasterSendStop
 500:.\Generated_Source\PSoC4/I2C_bus_I2C_MASTER.c **** ********************************************************************************
 501:.\Generated_Source\PSoC4/I2C_bus_I2C_MASTER.c **** *
 502:.\Generated_Source\PSoC4/I2C_bus_I2C_MASTER.c **** * Summary:
 503:.\Generated_Source\PSoC4/I2C_bus_I2C_MASTER.c **** *  Generates Stop condition on the bus.
 504:.\Generated_Source\PSoC4/I2C_bus_I2C_MASTER.c **** *  At least one byte has to be read if start or restart condition with read
 505:.\Generated_Source\PSoC4/I2C_bus_I2C_MASTER.c **** *  direction was generated before.
 506:.\Generated_Source\PSoC4/I2C_bus_I2C_MASTER.c **** *  This function is blocking and does not return until a stop condition
 507:.\Generated_Source\PSoC4/I2C_bus_I2C_MASTER.c **** *  is generated or error occurred.
 508:.\Generated_Source\PSoC4/I2C_bus_I2C_MASTER.c **** *
 509:.\Generated_Source\PSoC4/I2C_bus_I2C_MASTER.c **** * Parameters:
 510:.\Generated_Source\PSoC4/I2C_bus_I2C_MASTER.c **** *  None
 511:.\Generated_Source\PSoC4/I2C_bus_I2C_MASTER.c **** *
 512:.\Generated_Source\PSoC4/I2C_bus_I2C_MASTER.c **** * Return:
 513:.\Generated_Source\PSoC4/I2C_bus_I2C_MASTER.c **** *  Error status
 514:.\Generated_Source\PSoC4/I2C_bus_I2C_MASTER.c **** *
 515:.\Generated_Source\PSoC4/I2C_bus_I2C_MASTER.c **** * Side Effects:
 516:.\Generated_Source\PSoC4/I2C_bus_I2C_MASTER.c **** *  A valid Start or ReStart condition must be generated before calling
 517:.\Generated_Source\PSoC4/I2C_bus_I2C_MASTER.c **** *  this function. This function does nothing if Start or ReStart condition
 518:.\Generated_Source\PSoC4/I2C_bus_I2C_MASTER.c **** *  failed before this function was called.
 519:.\Generated_Source\PSoC4/I2C_bus_I2C_MASTER.c **** *  For read transfer, at least one byte has to be read before Stop generation.
 520:.\Generated_Source\PSoC4/I2C_bus_I2C_MASTER.c **** *
 521:.\Generated_Source\PSoC4/I2C_bus_I2C_MASTER.c **** * Global variables:
 522:.\Generated_Source\PSoC4/I2C_bus_I2C_MASTER.c **** *  I2C_bus_state - used to store current state of software FSM.
 523:.\Generated_Source\PSoC4/I2C_bus_I2C_MASTER.c **** *
 524:.\Generated_Source\PSoC4/I2C_bus_I2C_MASTER.c **** *******************************************************************************/
 525:.\Generated_Source\PSoC4/I2C_bus_I2C_MASTER.c **** uint32 I2C_bus_I2CMasterSendStop(void)
 526:.\Generated_Source\PSoC4/I2C_bus_I2C_MASTER.c **** {
 209              		.loc 1 526 0
ARM GAS  C:\Users\username\AppData\Local\Temp\cc0FlDXj.s 			page 14


 210              		.cfi_startproc
 211              	.LVL21:
 527:.\Generated_Source\PSoC4/I2C_bus_I2C_MASTER.c ****     uint32 resetIp;
 528:.\Generated_Source\PSoC4/I2C_bus_I2C_MASTER.c ****     uint32 errStatus;
 529:.\Generated_Source\PSoC4/I2C_bus_I2C_MASTER.c **** 
 530:.\Generated_Source\PSoC4/I2C_bus_I2C_MASTER.c ****     resetIp   = 0u;
 531:.\Generated_Source\PSoC4/I2C_bus_I2C_MASTER.c ****     errStatus = I2C_bus_I2C_MSTR_NOT_READY;
 532:.\Generated_Source\PSoC4/I2C_bus_I2C_MASTER.c **** 
 533:.\Generated_Source\PSoC4/I2C_bus_I2C_MASTER.c ****     /* Check FSM state before generating Stop condition */
 534:.\Generated_Source\PSoC4/I2C_bus_I2C_MASTER.c ****     if(I2C_bus_CHECK_I2C_MASTER_ACTIVE)
 212              		.loc 1 534 0
 213 0000 1D4B     		ldr	r3, .L23
 214 0002 1B78     		ldrb	r3, [r3]
 215 0004 9B06     		lsl	r3, r3, #26
 216 0006 34D5     		bpl	.L19
 535:.\Generated_Source\PSoC4/I2C_bus_I2C_MASTER.c ****     {
 536:.\Generated_Source\PSoC4/I2C_bus_I2C_MASTER.c ****         /*
 537:.\Generated_Source\PSoC4/I2C_bus_I2C_MASTER.c ****         * Write direction: generates Stop
 538:.\Generated_Source\PSoC4/I2C_bus_I2C_MASTER.c ****         * Read  direction: generates NACK and Stop
 539:.\Generated_Source\PSoC4/I2C_bus_I2C_MASTER.c ****         */
 540:.\Generated_Source\PSoC4/I2C_bus_I2C_MASTER.c ****         I2C_bus_I2C_MASTER_GENERATE_STOP;
 217              		.loc 1 540 0
 218 0008 1C4B     		ldr	r3, .L23+4
 219 000a 1B68     		ldr	r3, [r3]
 220 000c 9B06     		lsl	r3, r3, #26
 221 000e 01D5     		bpl	.L20
 222 0010 1822     		mov	r2, #24
 223 0012 00E0     		b	.L16
 224              	.L20:
 225 0014 1022     		mov	r2, #16
 226              	.L16:
 227              		.loc 1 540 0 is_stmt 0 discriminator 4
 228 0016 1A4B     		ldr	r3, .L23+8
 229 0018 1A60     		str	r2, [r3]
 230              	.L17:
 541:.\Generated_Source\PSoC4/I2C_bus_I2C_MASTER.c **** 
 542:.\Generated_Source\PSoC4/I2C_bus_I2C_MASTER.c ****         while(!I2C_bus_CHECK_INTR_MASTER(I2C_bus_INTR_MASTER_I2C_STOP     |
 231              		.loc 1 542 0 is_stmt 1 discriminator 1
 232 001a 1A4B     		ldr	r3, .L23+12
 233 001c 1A68     		ldr	r2, [r3]
 234 001e 1223     		mov	r3, #18
 235 0020 FF33     		add	r3, r3, #255
 236 0022 1A42     		tst	r2, r3
 237 0024 F9D0     		beq	.L17
 543:.\Generated_Source\PSoC4/I2C_bus_I2C_MASTER.c ****                                                   I2C_bus_INTR_MASTER_I2C_ARB_LOST |
 544:.\Generated_Source\PSoC4/I2C_bus_I2C_MASTER.c ****                                                   I2C_bus_INTR_MASTER_I2C_BUS_ERROR))
 545:.\Generated_Source\PSoC4/I2C_bus_I2C_MASTER.c ****         {
 546:.\Generated_Source\PSoC4/I2C_bus_I2C_MASTER.c ****             /* Wait until Stop has been generated */
 547:.\Generated_Source\PSoC4/I2C_bus_I2C_MASTER.c ****         }
 548:.\Generated_Source\PSoC4/I2C_bus_I2C_MASTER.c **** 
 549:.\Generated_Source\PSoC4/I2C_bus_I2C_MASTER.c ****         /* Check Stop generation */
 550:.\Generated_Source\PSoC4/I2C_bus_I2C_MASTER.c ****         if(I2C_bus_CHECK_INTR_MASTER(I2C_bus_INTR_MASTER_I2C_STOP))
 238              		.loc 1 550 0
 239 0026 174B     		ldr	r3, .L23+12
 240 0028 1B68     		ldr	r3, [r3]
 241 002a DB06     		lsl	r3, r3, #27
 242 002c 06D4     		bmi	.L21
ARM GAS  C:\Users\username\AppData\Local\Temp\cc0FlDXj.s 			page 15


 551:.\Generated_Source\PSoC4/I2C_bus_I2C_MASTER.c ****         {
 552:.\Generated_Source\PSoC4/I2C_bus_I2C_MASTER.c ****             errStatus = I2C_bus_I2C_MSTR_NO_ERROR;
 553:.\Generated_Source\PSoC4/I2C_bus_I2C_MASTER.c ****         }
 554:.\Generated_Source\PSoC4/I2C_bus_I2C_MASTER.c ****         else if(I2C_bus_CHECK_INTR_MASTER(I2C_bus_INTR_MASTER_I2C_ARB_LOST))
 243              		.loc 1 554 0
 244 002e 154B     		ldr	r3, .L23+12
 245 0030 1B68     		ldr	r3, [r3]
 246 0032 DB07     		lsl	r3, r3, #31
 247 0034 05D5     		bpl	.L22
 555:.\Generated_Source\PSoC4/I2C_bus_I2C_MASTER.c ****         {
 556:.\Generated_Source\PSoC4/I2C_bus_I2C_MASTER.c ****             errStatus = I2C_bus_I2C_MSTR_ERR_ARB_LOST;
 248              		.loc 1 556 0
 249 0036 0120     		mov	r0, #1
 557:.\Generated_Source\PSoC4/I2C_bus_I2C_MASTER.c ****             resetIp   = I2C_bus_I2C_RESET_ERROR;
 250              		.loc 1 557 0
 251 0038 0121     		mov	r1, #1
 252 003a 05E0     		b	.L18
 253              	.L21:
 552:.\Generated_Source\PSoC4/I2C_bus_I2C_MASTER.c ****         }
 254              		.loc 1 552 0
 255 003c 0020     		mov	r0, #0
 530:.\Generated_Source\PSoC4/I2C_bus_I2C_MASTER.c ****     errStatus = I2C_bus_I2C_MSTR_NOT_READY;
 256              		.loc 1 530 0
 257 003e 0021     		mov	r1, #0
 258 0040 02E0     		b	.L18
 259              	.L22:
 558:.\Generated_Source\PSoC4/I2C_bus_I2C_MASTER.c ****         }
 559:.\Generated_Source\PSoC4/I2C_bus_I2C_MASTER.c ****         else /* I2C_bus_INTR_MASTER_I2C_BUS_ERROR is set */
 560:.\Generated_Source\PSoC4/I2C_bus_I2C_MASTER.c ****         {
 561:.\Generated_Source\PSoC4/I2C_bus_I2C_MASTER.c ****             errStatus = I2C_bus_I2C_MSTR_ERR_BUS_ERR;
 260              		.loc 1 561 0
 261 0042 8020     		mov	r0, #128
 262 0044 4000     		lsl	r0, r0, #1
 562:.\Generated_Source\PSoC4/I2C_bus_I2C_MASTER.c ****             resetIp   = I2C_bus_I2C_RESET_ERROR;
 263              		.loc 1 562 0
 264 0046 0121     		mov	r1, #1
 265              	.L18:
 266              	.LVL22:
 563:.\Generated_Source\PSoC4/I2C_bus_I2C_MASTER.c ****         }
 564:.\Generated_Source\PSoC4/I2C_bus_I2C_MASTER.c **** 
 565:.\Generated_Source\PSoC4/I2C_bus_I2C_MASTER.c ****         I2C_bus_ClearMasterInterruptSource(I2C_bus_INTR_MASTER_I2C_STOP     |
 267              		.loc 1 565 0
 268 0048 1222     		mov	r2, #18
 269 004a FF32     		add	r2, r2, #255
 270 004c 0D4B     		ldr	r3, .L23+12
 271 004e 1A60     		str	r2, [r3]
 566:.\Generated_Source\PSoC4/I2C_bus_I2C_MASTER.c ****                                                     I2C_bus_INTR_MASTER_I2C_ARB_LOST |
 567:.\Generated_Source\PSoC4/I2C_bus_I2C_MASTER.c ****                                                     I2C_bus_INTR_MASTER_I2C_BUS_ERROR);
 568:.\Generated_Source\PSoC4/I2C_bus_I2C_MASTER.c **** 
 569:.\Generated_Source\PSoC4/I2C_bus_I2C_MASTER.c ****         I2C_bus_state = I2C_bus_I2C_FSM_IDLE;
 272              		.loc 1 569 0
 273 0050 023A     		sub	r2, r2, #2
 274 0052 FF3A     		sub	r2, r2, #255
 275 0054 084B     		ldr	r3, .L23
 276 0056 1A70     		strb	r2, [r3]
 570:.\Generated_Source\PSoC4/I2C_bus_I2C_MASTER.c **** 
 571:.\Generated_Source\PSoC4/I2C_bus_I2C_MASTER.c ****         /* Reset block in case of: LOST_ARB or BUS_ERR */
ARM GAS  C:\Users\username\AppData\Local\Temp\cc0FlDXj.s 			page 16


 572:.\Generated_Source\PSoC4/I2C_bus_I2C_MASTER.c ****         if(0u != resetIp)
 277              		.loc 1 572 0
 278 0058 0029     		cmp	r1, #0
 279 005a 0BD0     		beq	.L15
 573:.\Generated_Source\PSoC4/I2C_bus_I2C_MASTER.c ****         {
 574:.\Generated_Source\PSoC4/I2C_bus_I2C_MASTER.c ****             I2C_bus_SCB_SW_RESET;
 280              		.loc 1 574 0
 281 005c 0A4A     		ldr	r2, .L23+16
 282 005e 1368     		ldr	r3, [r2]
 283 0060 5B00     		lsl	r3, r3, #1
 284 0062 5B08     		lsr	r3, r3, #1
 285 0064 1360     		str	r3, [r2]
 286 0066 1368     		ldr	r3, [r2]
 287 0068 8021     		mov	r1, #128
 288              	.LVL23:
 289 006a 0906     		lsl	r1, r1, #24
 290 006c 0B43     		orr	r3, r1
 291 006e 1360     		str	r3, [r2]
 292 0070 00E0     		b	.L15
 293              	.LVL24:
 294              	.L19:
 531:.\Generated_Source\PSoC4/I2C_bus_I2C_MASTER.c **** 
 295              		.loc 1 531 0
 296 0072 0420     		mov	r0, #4
 297              	.LVL25:
 298              	.L15:
 575:.\Generated_Source\PSoC4/I2C_bus_I2C_MASTER.c ****         }
 576:.\Generated_Source\PSoC4/I2C_bus_I2C_MASTER.c ****     }
 577:.\Generated_Source\PSoC4/I2C_bus_I2C_MASTER.c **** 
 578:.\Generated_Source\PSoC4/I2C_bus_I2C_MASTER.c ****     return(errStatus);
 579:.\Generated_Source\PSoC4/I2C_bus_I2C_MASTER.c **** }
 299              		.loc 1 579 0
 300              		@ sp needed
 301 0074 7047     		bx	lr
 302              	.L24:
 303 0076 C046     		.align	2
 304              	.L23:
 305 0078 00000000 		.word	I2C_bus_state
 306 007c 64002540 		.word	1076166756
 307 0080 68002540 		.word	1076166760
 308 0084 000F2540 		.word	1076170496
 309 0088 00002540 		.word	1076166656
 310              		.cfi_endproc
 311              	.LFE6:
 312              		.size	I2C_bus_I2CMasterSendStop, .-I2C_bus_I2CMasterSendStop
 313              		.section	.text.I2C_bus_I2CMasterWriteByte,"ax",%progbits
 314              		.align	2
 315              		.global	I2C_bus_I2CMasterWriteByte
 316              		.code	16
 317              		.thumb_func
 318              		.type	I2C_bus_I2CMasterWriteByte, %function
 319              	I2C_bus_I2CMasterWriteByte:
 320              	.LFB7:
 580:.\Generated_Source\PSoC4/I2C_bus_I2C_MASTER.c **** 
 581:.\Generated_Source\PSoC4/I2C_bus_I2C_MASTER.c **** 
 582:.\Generated_Source\PSoC4/I2C_bus_I2C_MASTER.c **** /*******************************************************************************
 583:.\Generated_Source\PSoC4/I2C_bus_I2C_MASTER.c **** * Function Name: I2C_bus_I2CMasterWriteByte
ARM GAS  C:\Users\username\AppData\Local\Temp\cc0FlDXj.s 			page 17


 584:.\Generated_Source\PSoC4/I2C_bus_I2C_MASTER.c **** ********************************************************************************
 585:.\Generated_Source\PSoC4/I2C_bus_I2C_MASTER.c **** *
 586:.\Generated_Source\PSoC4/I2C_bus_I2C_MASTER.c **** * Summary:
 587:.\Generated_Source\PSoC4/I2C_bus_I2C_MASTER.c **** *  Sends one byte to a slave.
 588:.\Generated_Source\PSoC4/I2C_bus_I2C_MASTER.c **** *  This function is blocking and does not return until byte is transmitted
 589:.\Generated_Source\PSoC4/I2C_bus_I2C_MASTER.c **** *  or error occurred.
 590:.\Generated_Source\PSoC4/I2C_bus_I2C_MASTER.c **** *
 591:.\Generated_Source\PSoC4/I2C_bus_I2C_MASTER.c **** * Parameters:
 592:.\Generated_Source\PSoC4/I2C_bus_I2C_MASTER.c **** *  data: The data byte to send to the slave.
 593:.\Generated_Source\PSoC4/I2C_bus_I2C_MASTER.c **** *
 594:.\Generated_Source\PSoC4/I2C_bus_I2C_MASTER.c **** * Return:
 595:.\Generated_Source\PSoC4/I2C_bus_I2C_MASTER.c **** *  Error status
 596:.\Generated_Source\PSoC4/I2C_bus_I2C_MASTER.c **** *
 597:.\Generated_Source\PSoC4/I2C_bus_I2C_MASTER.c **** * Side Effects:
 598:.\Generated_Source\PSoC4/I2C_bus_I2C_MASTER.c **** *  A valid Start or ReStart condition must be generated before calling
 599:.\Generated_Source\PSoC4/I2C_bus_I2C_MASTER.c **** *  this function. This function does nothing if Start or ReStart condition
 600:.\Generated_Source\PSoC4/I2C_bus_I2C_MASTER.c **** *  failed before this function was called.
 601:.\Generated_Source\PSoC4/I2C_bus_I2C_MASTER.c **** *
 602:.\Generated_Source\PSoC4/I2C_bus_I2C_MASTER.c **** * Global variables:
 603:.\Generated_Source\PSoC4/I2C_bus_I2C_MASTER.c **** *  I2C_bus_state - used to store current state of software FSM.
 604:.\Generated_Source\PSoC4/I2C_bus_I2C_MASTER.c **** *
 605:.\Generated_Source\PSoC4/I2C_bus_I2C_MASTER.c **** *******************************************************************************/
 606:.\Generated_Source\PSoC4/I2C_bus_I2C_MASTER.c **** uint32 I2C_bus_I2CMasterWriteByte(uint32 theByte)
 607:.\Generated_Source\PSoC4/I2C_bus_I2C_MASTER.c **** {
 321              		.loc 1 607 0
 322              		.cfi_startproc
 323              	.LVL26:
 608:.\Generated_Source\PSoC4/I2C_bus_I2C_MASTER.c ****     uint32 resetIp;
 609:.\Generated_Source\PSoC4/I2C_bus_I2C_MASTER.c ****     uint32 errStatus;
 610:.\Generated_Source\PSoC4/I2C_bus_I2C_MASTER.c **** 
 611:.\Generated_Source\PSoC4/I2C_bus_I2C_MASTER.c ****     resetIp   = 0u;
 612:.\Generated_Source\PSoC4/I2C_bus_I2C_MASTER.c ****     errStatus = I2C_bus_I2C_MSTR_NOT_READY;
 613:.\Generated_Source\PSoC4/I2C_bus_I2C_MASTER.c **** 
 614:.\Generated_Source\PSoC4/I2C_bus_I2C_MASTER.c ****     /* Check FSM state before write byte */
 615:.\Generated_Source\PSoC4/I2C_bus_I2C_MASTER.c ****     if(I2C_bus_CHECK_I2C_MASTER_ACTIVE)
 324              		.loc 1 615 0
 325 0000 214B     		ldr	r3, .L33
 326 0002 1B78     		ldrb	r3, [r3]
 327 0004 9B06     		lsl	r3, r3, #26
 328 0006 3CD5     		bpl	.L32
 616:.\Generated_Source\PSoC4/I2C_bus_I2C_MASTER.c ****     {
 617:.\Generated_Source\PSoC4/I2C_bus_I2C_MASTER.c ****         I2C_bus_TX_FIFO_WR_REG = theByte;
 329              		.loc 1 617 0
 330 0008 204B     		ldr	r3, .L33+4
 331 000a 1860     		str	r0, [r3]
 332              	.L27:
 618:.\Generated_Source\PSoC4/I2C_bus_I2C_MASTER.c **** 
 619:.\Generated_Source\PSoC4/I2C_bus_I2C_MASTER.c ****         while(!I2C_bus_CHECK_INTR_MASTER(I2C_bus_INTR_MASTER_I2C_ACK      |
 333              		.loc 1 619 0 discriminator 1
 334 000c 204B     		ldr	r3, .L33+8
 335 000e 1A68     		ldr	r2, [r3]
 336 0010 0823     		mov	r3, #8
 337 0012 FF33     		add	r3, r3, #255
 338 0014 1A42     		tst	r2, r3
 339 0016 F9D0     		beq	.L27
 620:.\Generated_Source\PSoC4/I2C_bus_I2C_MASTER.c ****                                                   I2C_bus_INTR_MASTER_I2C_NACK     |
 621:.\Generated_Source\PSoC4/I2C_bus_I2C_MASTER.c ****                                                   I2C_bus_INTR_MASTER_I2C_ARB_LOST |
ARM GAS  C:\Users\username\AppData\Local\Temp\cc0FlDXj.s 			page 18


 622:.\Generated_Source\PSoC4/I2C_bus_I2C_MASTER.c ****                                                   I2C_bus_INTR_MASTER_I2C_BUS_ERROR))
 623:.\Generated_Source\PSoC4/I2C_bus_I2C_MASTER.c ****         {
 624:.\Generated_Source\PSoC4/I2C_bus_I2C_MASTER.c ****             /* Wait until byte has been transferred */
 625:.\Generated_Source\PSoC4/I2C_bus_I2C_MASTER.c ****         }
 626:.\Generated_Source\PSoC4/I2C_bus_I2C_MASTER.c **** 
 627:.\Generated_Source\PSoC4/I2C_bus_I2C_MASTER.c ****         /* Check results after byte was sent */
 628:.\Generated_Source\PSoC4/I2C_bus_I2C_MASTER.c ****         if(I2C_bus_CHECK_INTR_MASTER(I2C_bus_INTR_MASTER_I2C_ACK))
 340              		.loc 1 628 0
 341 0018 1D4B     		ldr	r3, .L33+8
 342 001a 1B68     		ldr	r3, [r3]
 343 001c 5B07     		lsl	r3, r3, #29
 344 001e 05D5     		bpl	.L28
 629:.\Generated_Source\PSoC4/I2C_bus_I2C_MASTER.c ****         {
 630:.\Generated_Source\PSoC4/I2C_bus_I2C_MASTER.c ****             I2C_bus_state = I2C_bus_I2C_FSM_MSTR_HALT;
 345              		.loc 1 630 0
 346 0020 6022     		mov	r2, #96
 347 0022 194B     		ldr	r3, .L33
 348 0024 1A70     		strb	r2, [r3]
 349              	.LVL27:
 631:.\Generated_Source\PSoC4/I2C_bus_I2C_MASTER.c ****                          errStatus = I2C_bus_I2C_MSTR_NO_ERROR;
 350              		.loc 1 631 0
 351 0026 0020     		mov	r0, #0
 352              	.LVL28:
 611:.\Generated_Source\PSoC4/I2C_bus_I2C_MASTER.c ****     errStatus = I2C_bus_I2C_MSTR_NOT_READY;
 353              		.loc 1 611 0
 354 0028 0021     		mov	r1, #0
 355 002a 19E0     		b	.L29
 356              	.LVL29:
 357              	.L28:
 632:.\Generated_Source\PSoC4/I2C_bus_I2C_MASTER.c ****         }
 633:.\Generated_Source\PSoC4/I2C_bus_I2C_MASTER.c ****         else if(I2C_bus_CHECK_INTR_MASTER(I2C_bus_INTR_MASTER_I2C_NACK))
 358              		.loc 1 633 0
 359 002c 184B     		ldr	r3, .L33+8
 360 002e 1B68     		ldr	r3, [r3]
 361 0030 9B07     		lsl	r3, r3, #30
 362 0032 05D5     		bpl	.L30
 634:.\Generated_Source\PSoC4/I2C_bus_I2C_MASTER.c ****         {
 635:.\Generated_Source\PSoC4/I2C_bus_I2C_MASTER.c ****             I2C_bus_state = I2C_bus_I2C_FSM_MSTR_HALT;
 363              		.loc 1 635 0
 364 0034 6022     		mov	r2, #96
 365 0036 144B     		ldr	r3, .L33
 366 0038 1A70     		strb	r2, [r3]
 367              	.LVL30:
 636:.\Generated_Source\PSoC4/I2C_bus_I2C_MASTER.c ****                          errStatus = I2C_bus_I2C_MSTR_ERR_LB_NAK;
 368              		.loc 1 636 0
 369 003a 0220     		mov	r0, #2
 370              	.LVL31:
 611:.\Generated_Source\PSoC4/I2C_bus_I2C_MASTER.c ****     errStatus = I2C_bus_I2C_MSTR_NOT_READY;
 371              		.loc 1 611 0
 372 003c 0021     		mov	r1, #0
 373 003e 0FE0     		b	.L29
 374              	.LVL32:
 375              	.L30:
 637:.\Generated_Source\PSoC4/I2C_bus_I2C_MASTER.c ****         }
 638:.\Generated_Source\PSoC4/I2C_bus_I2C_MASTER.c ****         else if(I2C_bus_CHECK_INTR_MASTER(I2C_bus_INTR_MASTER_I2C_ARB_LOST))
 376              		.loc 1 638 0
 377 0040 134B     		ldr	r3, .L33+8
ARM GAS  C:\Users\username\AppData\Local\Temp\cc0FlDXj.s 			page 19


 378 0042 1B68     		ldr	r3, [r3]
 379 0044 DB07     		lsl	r3, r3, #31
 380 0046 05D5     		bpl	.L31
 639:.\Generated_Source\PSoC4/I2C_bus_I2C_MASTER.c ****         {
 640:.\Generated_Source\PSoC4/I2C_bus_I2C_MASTER.c ****             I2C_bus_state = I2C_bus_I2C_FSM_IDLE;
 381              		.loc 1 640 0
 382 0048 1022     		mov	r2, #16
 383 004a 0F4B     		ldr	r3, .L33
 384 004c 1A70     		strb	r2, [r3]
 385              	.LVL33:
 641:.\Generated_Source\PSoC4/I2C_bus_I2C_MASTER.c ****                          errStatus = I2C_bus_I2C_MSTR_ERR_ARB_LOST;
 386              		.loc 1 641 0
 387 004e 0120     		mov	r0, #1
 388              	.LVL34:
 642:.\Generated_Source\PSoC4/I2C_bus_I2C_MASTER.c ****                          resetIp   = I2C_bus_I2C_RESET_ERROR;
 389              		.loc 1 642 0
 390 0050 0121     		mov	r1, #1
 391 0052 05E0     		b	.L29
 392              	.LVL35:
 393              	.L31:
 643:.\Generated_Source\PSoC4/I2C_bus_I2C_MASTER.c ****         }
 644:.\Generated_Source\PSoC4/I2C_bus_I2C_MASTER.c ****         else /* I2C_bus_INTR_MASTER_I2C_BUS_ERROR set is */
 645:.\Generated_Source\PSoC4/I2C_bus_I2C_MASTER.c ****         {
 646:.\Generated_Source\PSoC4/I2C_bus_I2C_MASTER.c ****             I2C_bus_state = I2C_bus_I2C_FSM_IDLE;
 394              		.loc 1 646 0
 395 0054 1022     		mov	r2, #16
 396 0056 0C4B     		ldr	r3, .L33
 397 0058 1A70     		strb	r2, [r3]
 398              	.LVL36:
 647:.\Generated_Source\PSoC4/I2C_bus_I2C_MASTER.c ****                          errStatus = I2C_bus_I2C_MSTR_ERR_BUS_ERR;
 399              		.loc 1 647 0
 400 005a 8020     		mov	r0, #128
 401              	.LVL37:
 402 005c 4000     		lsl	r0, r0, #1
 648:.\Generated_Source\PSoC4/I2C_bus_I2C_MASTER.c ****                          resetIp   = I2C_bus_I2C_RESET_ERROR;
 403              		.loc 1 648 0
 404 005e 0121     		mov	r1, #1
 405              	.LVL38:
 406              	.L29:
 649:.\Generated_Source\PSoC4/I2C_bus_I2C_MASTER.c ****         }
 650:.\Generated_Source\PSoC4/I2C_bus_I2C_MASTER.c **** 
 651:.\Generated_Source\PSoC4/I2C_bus_I2C_MASTER.c ****         I2C_bus_ClearMasterInterruptSource(I2C_bus_INTR_MASTER_I2C_ACK      |
 407              		.loc 1 651 0
 408 0060 0822     		mov	r2, #8
 409 0062 FF32     		add	r2, r2, #255
 410 0064 0A4B     		ldr	r3, .L33+8
 411 0066 1A60     		str	r2, [r3]
 652:.\Generated_Source\PSoC4/I2C_bus_I2C_MASTER.c ****                                                     I2C_bus_INTR_MASTER_I2C_NACK     |
 653:.\Generated_Source\PSoC4/I2C_bus_I2C_MASTER.c ****                                                     I2C_bus_INTR_MASTER_I2C_ARB_LOST |
 654:.\Generated_Source\PSoC4/I2C_bus_I2C_MASTER.c ****                                                     I2C_bus_INTR_MASTER_I2C_BUS_ERROR);
 655:.\Generated_Source\PSoC4/I2C_bus_I2C_MASTER.c **** 
 656:.\Generated_Source\PSoC4/I2C_bus_I2C_MASTER.c ****         /* Reset block in case of: LOST_ARB or BUS_ERR */
 657:.\Generated_Source\PSoC4/I2C_bus_I2C_MASTER.c ****         if(0u != resetIp)
 412              		.loc 1 657 0
 413 0068 0029     		cmp	r1, #0
 414 006a 0BD0     		beq	.L26
 658:.\Generated_Source\PSoC4/I2C_bus_I2C_MASTER.c ****         {
ARM GAS  C:\Users\username\AppData\Local\Temp\cc0FlDXj.s 			page 20


 659:.\Generated_Source\PSoC4/I2C_bus_I2C_MASTER.c ****             I2C_bus_SCB_SW_RESET;
 415              		.loc 1 659 0
 416 006c 094A     		ldr	r2, .L33+12
 417 006e 1368     		ldr	r3, [r2]
 418 0070 5B00     		lsl	r3, r3, #1
 419 0072 5B08     		lsr	r3, r3, #1
 420 0074 1360     		str	r3, [r2]
 421 0076 1368     		ldr	r3, [r2]
 422 0078 8021     		mov	r1, #128
 423              	.LVL39:
 424 007a 0906     		lsl	r1, r1, #24
 425 007c 0B43     		orr	r3, r1
 426 007e 1360     		str	r3, [r2]
 427 0080 00E0     		b	.L26
 428              	.LVL40:
 429              	.L32:
 612:.\Generated_Source\PSoC4/I2C_bus_I2C_MASTER.c **** 
 430              		.loc 1 612 0
 431 0082 0420     		mov	r0, #4
 432              	.LVL41:
 433              	.L26:
 660:.\Generated_Source\PSoC4/I2C_bus_I2C_MASTER.c ****         }
 661:.\Generated_Source\PSoC4/I2C_bus_I2C_MASTER.c ****     }
 662:.\Generated_Source\PSoC4/I2C_bus_I2C_MASTER.c **** 
 663:.\Generated_Source\PSoC4/I2C_bus_I2C_MASTER.c ****     return(errStatus);
 664:.\Generated_Source\PSoC4/I2C_bus_I2C_MASTER.c **** }
 434              		.loc 1 664 0
 435              		@ sp needed
 436 0084 7047     		bx	lr
 437              	.L34:
 438 0086 C046     		.align	2
 439              	.L33:
 440 0088 00000000 		.word	I2C_bus_state
 441 008c 40022540 		.word	1076167232
 442 0090 000F2540 		.word	1076170496
 443 0094 00002540 		.word	1076166656
 444              		.cfi_endproc
 445              	.LFE7:
 446              		.size	I2C_bus_I2CMasterWriteByte, .-I2C_bus_I2CMasterWriteByte
 447              		.section	.text.I2C_bus_I2CMasterReadByte,"ax",%progbits
 448              		.align	2
 449              		.global	I2C_bus_I2CMasterReadByte
 450              		.code	16
 451              		.thumb_func
 452              		.type	I2C_bus_I2CMasterReadByte, %function
 453              	I2C_bus_I2CMasterReadByte:
 454              	.LFB8:
 665:.\Generated_Source\PSoC4/I2C_bus_I2C_MASTER.c **** 
 666:.\Generated_Source\PSoC4/I2C_bus_I2C_MASTER.c **** 
 667:.\Generated_Source\PSoC4/I2C_bus_I2C_MASTER.c **** /*******************************************************************************
 668:.\Generated_Source\PSoC4/I2C_bus_I2C_MASTER.c **** * Function Name: I2C_bus_I2CMasterReadByte
 669:.\Generated_Source\PSoC4/I2C_bus_I2C_MASTER.c **** ********************************************************************************
 670:.\Generated_Source\PSoC4/I2C_bus_I2C_MASTER.c **** *
 671:.\Generated_Source\PSoC4/I2C_bus_I2C_MASTER.c **** * Summary:
 672:.\Generated_Source\PSoC4/I2C_bus_I2C_MASTER.c **** *  Reads one byte from a slave and ACKs or NAKs received byte.
 673:.\Generated_Source\PSoC4/I2C_bus_I2C_MASTER.c **** *  This function does not generate NAK explicitly. The following call
 674:.\Generated_Source\PSoC4/I2C_bus_I2C_MASTER.c **** *  SCB_I2CMasterSendStop() or SCB_I2CMasterSendRestart() will generate NAK and
ARM GAS  C:\Users\username\AppData\Local\Temp\cc0FlDXj.s 			page 21


 675:.\Generated_Source\PSoC4/I2C_bus_I2C_MASTER.c **** *  Stop or ReStart condition appropriately.
 676:.\Generated_Source\PSoC4/I2C_bus_I2C_MASTER.c **** *  This function is blocking and does not return until byte is received
 677:.\Generated_Source\PSoC4/I2C_bus_I2C_MASTER.c **** *  or error occurred.
 678:.\Generated_Source\PSoC4/I2C_bus_I2C_MASTER.c **** *
 679:.\Generated_Source\PSoC4/I2C_bus_I2C_MASTER.c **** * Parameters:
 680:.\Generated_Source\PSoC4/I2C_bus_I2C_MASTER.c **** *  ackNack: Response to received byte.
 681:.\Generated_Source\PSoC4/I2C_bus_I2C_MASTER.c **** *
 682:.\Generated_Source\PSoC4/I2C_bus_I2C_MASTER.c **** * Return:
 683:.\Generated_Source\PSoC4/I2C_bus_I2C_MASTER.c **** *  Byte read from the slave. In case of error the MSB of returned data
 684:.\Generated_Source\PSoC4/I2C_bus_I2C_MASTER.c **** *  is set to 1.
 685:.\Generated_Source\PSoC4/I2C_bus_I2C_MASTER.c **** *
 686:.\Generated_Source\PSoC4/I2C_bus_I2C_MASTER.c **** * Side Effects:
 687:.\Generated_Source\PSoC4/I2C_bus_I2C_MASTER.c **** *  A valid Start or ReStart condition must be generated before calling this
 688:.\Generated_Source\PSoC4/I2C_bus_I2C_MASTER.c **** *  function. This function does nothing and returns invalid byte value
 689:.\Generated_Source\PSoC4/I2C_bus_I2C_MASTER.c **** *  if Start or ReStart conditions failed before this function was called.
 690:.\Generated_Source\PSoC4/I2C_bus_I2C_MASTER.c **** *
 691:.\Generated_Source\PSoC4/I2C_bus_I2C_MASTER.c **** * Global variables:
 692:.\Generated_Source\PSoC4/I2C_bus_I2C_MASTER.c **** *  I2C_bus_state - used to store current state of software FSM.
 693:.\Generated_Source\PSoC4/I2C_bus_I2C_MASTER.c **** *
 694:.\Generated_Source\PSoC4/I2C_bus_I2C_MASTER.c **** *******************************************************************************/
 695:.\Generated_Source\PSoC4/I2C_bus_I2C_MASTER.c **** uint32 I2C_bus_I2CMasterReadByte(uint32 ackNack)
 696:.\Generated_Source\PSoC4/I2C_bus_I2C_MASTER.c **** {
 455              		.loc 1 696 0
 456              		.cfi_startproc
 457              	.LVL42:
 458 0000 011C     		mov	r1, r0
 459              	.LVL43:
 697:.\Generated_Source\PSoC4/I2C_bus_I2C_MASTER.c ****     uint32 theByte;
 698:.\Generated_Source\PSoC4/I2C_bus_I2C_MASTER.c **** 
 699:.\Generated_Source\PSoC4/I2C_bus_I2C_MASTER.c ****     /* Return invalid byte in case BUS_ERR happen during receiving */
 700:.\Generated_Source\PSoC4/I2C_bus_I2C_MASTER.c ****     theByte = I2C_bus_I2C_INVALID_BYTE;
 701:.\Generated_Source\PSoC4/I2C_bus_I2C_MASTER.c **** 
 702:.\Generated_Source\PSoC4/I2C_bus_I2C_MASTER.c ****     /* Check FSM state before read byte */
 703:.\Generated_Source\PSoC4/I2C_bus_I2C_MASTER.c ****     if(I2C_bus_CHECK_I2C_MASTER_ACTIVE)
 460              		.loc 1 703 0
 461 0002 194B     		ldr	r3, .L42
 462 0004 1B78     		ldrb	r3, [r3]
 463 0006 9B06     		lsl	r3, r3, #26
 464 0008 2BD5     		bpl	.L41
 465              	.L38:
 704:.\Generated_Source\PSoC4/I2C_bus_I2C_MASTER.c ****     {
 705:.\Generated_Source\PSoC4/I2C_bus_I2C_MASTER.c ****         while((!I2C_bus_CHECK_INTR_RX(I2C_bus_INTR_RX_NOT_EMPTY)) &&
 466              		.loc 1 705 0 discriminator 2
 467 000a 184B     		ldr	r3, .L42+4
 468 000c 1B68     		ldr	r3, [r3]
 469 000e 5B07     		lsl	r3, r3, #29
 470 0010 05D4     		bmi	.L37
 706:.\Generated_Source\PSoC4/I2C_bus_I2C_MASTER.c ****               (!I2C_bus_CHECK_INTR_MASTER(I2C_bus_INTR_MASTER_I2C_ARB_LOST |
 471              		.loc 1 706 0 discriminator 1
 472 0012 174B     		ldr	r3, .L42+8
 473 0014 1A68     		ldr	r2, [r3]
 705:.\Generated_Source\PSoC4/I2C_bus_I2C_MASTER.c ****               (!I2C_bus_CHECK_INTR_MASTER(I2C_bus_INTR_MASTER_I2C_ARB_LOST |
 474              		.loc 1 705 0 discriminator 1
 475 0016 0223     		mov	r3, #2
 476 0018 FF33     		add	r3, r3, #255
 477 001a 1A42     		tst	r2, r3
 478 001c F5D0     		beq	.L38
ARM GAS  C:\Users\username\AppData\Local\Temp\cc0FlDXj.s 			page 22


 479              	.L37:
 707:.\Generated_Source\PSoC4/I2C_bus_I2C_MASTER.c ****                                                   I2C_bus_INTR_MASTER_I2C_BUS_ERROR)))
 708:.\Generated_Source\PSoC4/I2C_bus_I2C_MASTER.c ****         {
 709:.\Generated_Source\PSoC4/I2C_bus_I2C_MASTER.c ****             /* Wait until byte has been received */
 710:.\Generated_Source\PSoC4/I2C_bus_I2C_MASTER.c ****         }
 711:.\Generated_Source\PSoC4/I2C_bus_I2C_MASTER.c **** 
 712:.\Generated_Source\PSoC4/I2C_bus_I2C_MASTER.c ****         /* Check the results after the byte was sent */
 713:.\Generated_Source\PSoC4/I2C_bus_I2C_MASTER.c ****         if(I2C_bus_CHECK_INTR_RX(I2C_bus_INTR_RX_NOT_EMPTY))
 480              		.loc 1 713 0
 481 001e 134B     		ldr	r3, .L42+4
 482 0020 1B68     		ldr	r3, [r3]
 483 0022 5B07     		lsl	r3, r3, #29
 484 0024 0DD5     		bpl	.L39
 714:.\Generated_Source\PSoC4/I2C_bus_I2C_MASTER.c ****         {
 715:.\Generated_Source\PSoC4/I2C_bus_I2C_MASTER.c ****             theByte = I2C_bus_RX_FIFO_RD_REG;
 485              		.loc 1 715 0
 486 0026 134B     		ldr	r3, .L42+12
 487 0028 1868     		ldr	r0, [r3]
 488              	.LVL44:
 716:.\Generated_Source\PSoC4/I2C_bus_I2C_MASTER.c **** 
 717:.\Generated_Source\PSoC4/I2C_bus_I2C_MASTER.c ****             I2C_bus_ClearRxInterruptSource(I2C_bus_INTR_RX_NOT_EMPTY);
 489              		.loc 1 717 0
 490 002a 0422     		mov	r2, #4
 491 002c 0F4B     		ldr	r3, .L42+4
 492 002e 1A60     		str	r2, [r3]
 718:.\Generated_Source\PSoC4/I2C_bus_I2C_MASTER.c **** 
 719:.\Generated_Source\PSoC4/I2C_bus_I2C_MASTER.c ****             if(0u == ackNack)
 493              		.loc 1 719 0
 494 0030 0029     		cmp	r1, #0
 495 0032 02D1     		bne	.L40
 720:.\Generated_Source\PSoC4/I2C_bus_I2C_MASTER.c ****             {
 721:.\Generated_Source\PSoC4/I2C_bus_I2C_MASTER.c ****                 I2C_bus_I2C_MASTER_GENERATE_ACK;
 496              		.loc 1 721 0
 497 0034 104B     		ldr	r3, .L42+16
 498 0036 1A60     		str	r2, [r3]
 499 0038 15E0     		b	.L36
 500              	.L40:
 722:.\Generated_Source\PSoC4/I2C_bus_I2C_MASTER.c ****             }
 723:.\Generated_Source\PSoC4/I2C_bus_I2C_MASTER.c ****             else
 724:.\Generated_Source\PSoC4/I2C_bus_I2C_MASTER.c ****             {
 725:.\Generated_Source\PSoC4/I2C_bus_I2C_MASTER.c ****                 /* NACK is generated by Stop or ReStart command */
 726:.\Generated_Source\PSoC4/I2C_bus_I2C_MASTER.c ****                 I2C_bus_state = I2C_bus_I2C_FSM_MSTR_HALT;
 501              		.loc 1 726 0
 502 003a 6022     		mov	r2, #96
 503 003c 0A4B     		ldr	r3, .L42
 504 003e 1A70     		strb	r2, [r3]
 505 0040 11E0     		b	.L36
 506              	.LVL45:
 507              	.L39:
 727:.\Generated_Source\PSoC4/I2C_bus_I2C_MASTER.c ****             }
 728:.\Generated_Source\PSoC4/I2C_bus_I2C_MASTER.c ****         }
 729:.\Generated_Source\PSoC4/I2C_bus_I2C_MASTER.c ****         else
 730:.\Generated_Source\PSoC4/I2C_bus_I2C_MASTER.c ****         {
 731:.\Generated_Source\PSoC4/I2C_bus_I2C_MASTER.c ****             I2C_bus_ClearMasterInterruptSource(I2C_bus_INTR_MASTER_ALL);
 508              		.loc 1 731 0
 509 0042 0E4A     		ldr	r2, .L42+20
 510 0044 0A4B     		ldr	r3, .L42+8
ARM GAS  C:\Users\username\AppData\Local\Temp\cc0FlDXj.s 			page 23


 511 0046 1A60     		str	r2, [r3]
 732:.\Generated_Source\PSoC4/I2C_bus_I2C_MASTER.c **** 
 733:.\Generated_Source\PSoC4/I2C_bus_I2C_MASTER.c ****             /* Reset block in case of: LOST_ARB or BUS_ERR */
 734:.\Generated_Source\PSoC4/I2C_bus_I2C_MASTER.c ****             I2C_bus_SCB_SW_RESET;
 512              		.loc 1 734 0
 513 0048 0D4A     		ldr	r2, .L42+24
 514 004a 1368     		ldr	r3, [r2]
 515 004c 5B00     		lsl	r3, r3, #1
 516 004e 5B08     		lsr	r3, r3, #1
 517 0050 1360     		str	r3, [r2]
 518 0052 1368     		ldr	r3, [r2]
 519 0054 8021     		mov	r1, #128
 520 0056 0906     		lsl	r1, r1, #24
 521 0058 0B43     		orr	r3, r1
 522 005a 1360     		str	r3, [r2]
 700:.\Generated_Source\PSoC4/I2C_bus_I2C_MASTER.c **** 
 523              		.loc 1 700 0
 524 005c 0120     		mov	r0, #1
 525              	.LVL46:
 526 005e 4042     		neg	r0, r0
 527 0060 01E0     		b	.L36
 528              	.LVL47:
 529              	.L41:
 530 0062 0120     		mov	r0, #1
 531              	.LVL48:
 532 0064 4042     		neg	r0, r0
 533              	.LVL49:
 534              	.L36:
 735:.\Generated_Source\PSoC4/I2C_bus_I2C_MASTER.c ****         }
 736:.\Generated_Source\PSoC4/I2C_bus_I2C_MASTER.c ****     }
 737:.\Generated_Source\PSoC4/I2C_bus_I2C_MASTER.c **** 
 738:.\Generated_Source\PSoC4/I2C_bus_I2C_MASTER.c ****     return(theByte);
 739:.\Generated_Source\PSoC4/I2C_bus_I2C_MASTER.c **** }
 535              		.loc 1 739 0
 536              		@ sp needed
 537 0066 7047     		bx	lr
 538              	.L43:
 539              		.align	2
 540              	.L42:
 541 0068 00000000 		.word	I2C_bus_state
 542 006c C00F2540 		.word	1076170688
 543 0070 000F2540 		.word	1076170496
 544 0074 40032540 		.word	1076167488
 545 0078 68002540 		.word	1076166760
 546 007c 17030000 		.word	791
 547 0080 00002540 		.word	1076166656
 548              		.cfi_endproc
 549              	.LFE8:
 550              		.size	I2C_bus_I2CMasterReadByte, .-I2C_bus_I2CMasterReadByte
 551              		.section	.text.I2C_bus_I2CMasterGetReadBufSize,"ax",%progbits
 552              		.align	2
 553              		.global	I2C_bus_I2CMasterGetReadBufSize
 554              		.code	16
 555              		.thumb_func
 556              		.type	I2C_bus_I2CMasterGetReadBufSize, %function
 557              	I2C_bus_I2CMasterGetReadBufSize:
 558              	.LFB9:
ARM GAS  C:\Users\username\AppData\Local\Temp\cc0FlDXj.s 			page 24


 740:.\Generated_Source\PSoC4/I2C_bus_I2C_MASTER.c **** 
 741:.\Generated_Source\PSoC4/I2C_bus_I2C_MASTER.c **** 
 742:.\Generated_Source\PSoC4/I2C_bus_I2C_MASTER.c **** /*******************************************************************************
 743:.\Generated_Source\PSoC4/I2C_bus_I2C_MASTER.c **** * Function Name: I2C_bus_I2CMasterGetReadBufSize
 744:.\Generated_Source\PSoC4/I2C_bus_I2C_MASTER.c **** ********************************************************************************
 745:.\Generated_Source\PSoC4/I2C_bus_I2C_MASTER.c **** *
 746:.\Generated_Source\PSoC4/I2C_bus_I2C_MASTER.c **** * Summary:
 747:.\Generated_Source\PSoC4/I2C_bus_I2C_MASTER.c **** *  Returns the number of bytes that has been transferred with an
 748:.\Generated_Source\PSoC4/I2C_bus_I2C_MASTER.c **** *  SCB_I2CMasterReadBuf() function.
 749:.\Generated_Source\PSoC4/I2C_bus_I2C_MASTER.c **** *
 750:.\Generated_Source\PSoC4/I2C_bus_I2C_MASTER.c **** * Parameters:
 751:.\Generated_Source\PSoC4/I2C_bus_I2C_MASTER.c **** *  None
 752:.\Generated_Source\PSoC4/I2C_bus_I2C_MASTER.c **** *
 753:.\Generated_Source\PSoC4/I2C_bus_I2C_MASTER.c **** * Return:
 754:.\Generated_Source\PSoC4/I2C_bus_I2C_MASTER.c **** *  Byte count of transfer. If the transfer is not yet complete, it returns
 755:.\Generated_Source\PSoC4/I2C_bus_I2C_MASTER.c **** *  the byte count transferred so far.
 756:.\Generated_Source\PSoC4/I2C_bus_I2C_MASTER.c **** *
 757:.\Generated_Source\PSoC4/I2C_bus_I2C_MASTER.c **** * Side Effects:
 758:.\Generated_Source\PSoC4/I2C_bus_I2C_MASTER.c **** *  This function returns not valid value if SCB_I2C_MSTAT_ERR_ARB_LOST
 759:.\Generated_Source\PSoC4/I2C_bus_I2C_MASTER.c **** *  or SCB_I2C_MSTAT_ERR_BUS_ERROR occurred while read transfer.
 760:.\Generated_Source\PSoC4/I2C_bus_I2C_MASTER.c **** *
 761:.\Generated_Source\PSoC4/I2C_bus_I2C_MASTER.c **** * Global variables:
 762:.\Generated_Source\PSoC4/I2C_bus_I2C_MASTER.c **** *  I2C_bus_mstrRdBufIndex - used to current index within master read
 763:.\Generated_Source\PSoC4/I2C_bus_I2C_MASTER.c **** *  buffer.
 764:.\Generated_Source\PSoC4/I2C_bus_I2C_MASTER.c **** *
 765:.\Generated_Source\PSoC4/I2C_bus_I2C_MASTER.c **** *******************************************************************************/
 766:.\Generated_Source\PSoC4/I2C_bus_I2C_MASTER.c **** uint32 I2C_bus_I2CMasterGetReadBufSize(void)
 767:.\Generated_Source\PSoC4/I2C_bus_I2C_MASTER.c **** {
 559              		.loc 1 767 0
 560              		.cfi_startproc
 768:.\Generated_Source\PSoC4/I2C_bus_I2C_MASTER.c ****     return(I2C_bus_mstrRdBufIndex);
 561              		.loc 1 768 0
 562 0000 014B     		ldr	r3, .L45
 563 0002 1868     		ldr	r0, [r3]
 769:.\Generated_Source\PSoC4/I2C_bus_I2C_MASTER.c **** }
 564              		.loc 1 769 0
 565              		@ sp needed
 566 0004 7047     		bx	lr
 567              	.L46:
 568 0006 C046     		.align	2
 569              	.L45:
 570 0008 00000000 		.word	I2C_bus_mstrRdBufIndex
 571              		.cfi_endproc
 572              	.LFE9:
 573              		.size	I2C_bus_I2CMasterGetReadBufSize, .-I2C_bus_I2CMasterGetReadBufSize
 574              		.section	.text.I2C_bus_I2CMasterGetWriteBufSize,"ax",%progbits
 575              		.align	2
 576              		.global	I2C_bus_I2CMasterGetWriteBufSize
 577              		.code	16
 578              		.thumb_func
 579              		.type	I2C_bus_I2CMasterGetWriteBufSize, %function
 580              	I2C_bus_I2CMasterGetWriteBufSize:
 581              	.LFB10:
 770:.\Generated_Source\PSoC4/I2C_bus_I2C_MASTER.c **** 
 771:.\Generated_Source\PSoC4/I2C_bus_I2C_MASTER.c **** 
 772:.\Generated_Source\PSoC4/I2C_bus_I2C_MASTER.c **** /*******************************************************************************
 773:.\Generated_Source\PSoC4/I2C_bus_I2C_MASTER.c **** * Function Name: I2C_bus_I2CMasterGetWriteBufSize
ARM GAS  C:\Users\username\AppData\Local\Temp\cc0FlDXj.s 			page 25


 774:.\Generated_Source\PSoC4/I2C_bus_I2C_MASTER.c **** ********************************************************************************
 775:.\Generated_Source\PSoC4/I2C_bus_I2C_MASTER.c **** *
 776:.\Generated_Source\PSoC4/I2C_bus_I2C_MASTER.c **** * Summary:
 777:.\Generated_Source\PSoC4/I2C_bus_I2C_MASTER.c **** *  Returns the number of bytes that have been transferred with an
 778:.\Generated_Source\PSoC4/I2C_bus_I2C_MASTER.c **** *  SCB_I2CMasterWriteBuf() function.
 779:.\Generated_Source\PSoC4/I2C_bus_I2C_MASTER.c **** *
 780:.\Generated_Source\PSoC4/I2C_bus_I2C_MASTER.c **** * Parameters:
 781:.\Generated_Source\PSoC4/I2C_bus_I2C_MASTER.c **** *  None
 782:.\Generated_Source\PSoC4/I2C_bus_I2C_MASTER.c **** *
 783:.\Generated_Source\PSoC4/I2C_bus_I2C_MASTER.c **** * Return:
 784:.\Generated_Source\PSoC4/I2C_bus_I2C_MASTER.c **** *  Byte count of transfer. If the transfer is not yet complete, it returns
 785:.\Generated_Source\PSoC4/I2C_bus_I2C_MASTER.c **** *  zero unit transfer completion.
 786:.\Generated_Source\PSoC4/I2C_bus_I2C_MASTER.c **** *
 787:.\Generated_Source\PSoC4/I2C_bus_I2C_MASTER.c **** * Side Effects:
 788:.\Generated_Source\PSoC4/I2C_bus_I2C_MASTER.c **** *  This function returns not valid value if SCB_I2C_MSTAT_ERR_ARB_LOST
 789:.\Generated_Source\PSoC4/I2C_bus_I2C_MASTER.c **** *  or SCB_I2C_MSTAT_ERR_BUS_ERROR occurred while read transfer.
 790:.\Generated_Source\PSoC4/I2C_bus_I2C_MASTER.c **** *
 791:.\Generated_Source\PSoC4/I2C_bus_I2C_MASTER.c **** * Global variables:
 792:.\Generated_Source\PSoC4/I2C_bus_I2C_MASTER.c **** *  I2C_bus_mstrWrBufIndex - used to current index within master write
 793:.\Generated_Source\PSoC4/I2C_bus_I2C_MASTER.c **** *  buffer.
 794:.\Generated_Source\PSoC4/I2C_bus_I2C_MASTER.c **** *
 795:.\Generated_Source\PSoC4/I2C_bus_I2C_MASTER.c **** *******************************************************************************/
 796:.\Generated_Source\PSoC4/I2C_bus_I2C_MASTER.c **** uint32 I2C_bus_I2CMasterGetWriteBufSize(void)
 797:.\Generated_Source\PSoC4/I2C_bus_I2C_MASTER.c **** {
 582              		.loc 1 797 0
 583              		.cfi_startproc
 798:.\Generated_Source\PSoC4/I2C_bus_I2C_MASTER.c ****     return(I2C_bus_mstrWrBufIndex);
 584              		.loc 1 798 0
 585 0000 014B     		ldr	r3, .L48
 586 0002 1868     		ldr	r0, [r3]
 799:.\Generated_Source\PSoC4/I2C_bus_I2C_MASTER.c **** }
 587              		.loc 1 799 0
 588              		@ sp needed
 589 0004 7047     		bx	lr
 590              	.L49:
 591 0006 C046     		.align	2
 592              	.L48:
 593 0008 00000000 		.word	I2C_bus_mstrWrBufIndex
 594              		.cfi_endproc
 595              	.LFE10:
 596              		.size	I2C_bus_I2CMasterGetWriteBufSize, .-I2C_bus_I2CMasterGetWriteBufSize
 597              		.section	.text.I2C_bus_I2CMasterClearReadBuf,"ax",%progbits
 598              		.align	2
 599              		.global	I2C_bus_I2CMasterClearReadBuf
 600              		.code	16
 601              		.thumb_func
 602              		.type	I2C_bus_I2CMasterClearReadBuf, %function
 603              	I2C_bus_I2CMasterClearReadBuf:
 604              	.LFB11:
 800:.\Generated_Source\PSoC4/I2C_bus_I2C_MASTER.c **** 
 801:.\Generated_Source\PSoC4/I2C_bus_I2C_MASTER.c **** 
 802:.\Generated_Source\PSoC4/I2C_bus_I2C_MASTER.c **** /*******************************************************************************
 803:.\Generated_Source\PSoC4/I2C_bus_I2C_MASTER.c **** * Function Name: I2C_bus_I2CMasterClearReadBuf
 804:.\Generated_Source\PSoC4/I2C_bus_I2C_MASTER.c **** ********************************************************************************
 805:.\Generated_Source\PSoC4/I2C_bus_I2C_MASTER.c **** *
 806:.\Generated_Source\PSoC4/I2C_bus_I2C_MASTER.c **** * Summary:
 807:.\Generated_Source\PSoC4/I2C_bus_I2C_MASTER.c **** *  Resets the read buffer pointer back to the first byte in the buffer.
ARM GAS  C:\Users\username\AppData\Local\Temp\cc0FlDXj.s 			page 26


 808:.\Generated_Source\PSoC4/I2C_bus_I2C_MASTER.c **** *
 809:.\Generated_Source\PSoC4/I2C_bus_I2C_MASTER.c **** * Parameters:
 810:.\Generated_Source\PSoC4/I2C_bus_I2C_MASTER.c **** *  None
 811:.\Generated_Source\PSoC4/I2C_bus_I2C_MASTER.c **** *
 812:.\Generated_Source\PSoC4/I2C_bus_I2C_MASTER.c **** * Return:
 813:.\Generated_Source\PSoC4/I2C_bus_I2C_MASTER.c **** *  None
 814:.\Generated_Source\PSoC4/I2C_bus_I2C_MASTER.c **** *
 815:.\Generated_Source\PSoC4/I2C_bus_I2C_MASTER.c **** * Global variables:
 816:.\Generated_Source\PSoC4/I2C_bus_I2C_MASTER.c **** *  I2C_bus_mstrRdBufIndex - used to current index within master read
 817:.\Generated_Source\PSoC4/I2C_bus_I2C_MASTER.c **** *   buffer.
 818:.\Generated_Source\PSoC4/I2C_bus_I2C_MASTER.c **** *  I2C_bus_mstrStatus - used to store current status of I2C Master.
 819:.\Generated_Source\PSoC4/I2C_bus_I2C_MASTER.c **** *
 820:.\Generated_Source\PSoC4/I2C_bus_I2C_MASTER.c **** *******************************************************************************/
 821:.\Generated_Source\PSoC4/I2C_bus_I2C_MASTER.c **** void I2C_bus_I2CMasterClearReadBuf(void)
 822:.\Generated_Source\PSoC4/I2C_bus_I2C_MASTER.c **** {
 605              		.loc 1 822 0
 606              		.cfi_startproc
 607 0000 08B5     		push	{r3, lr}
 608              		.cfi_def_cfa_offset 8
 609              		.cfi_offset 3, -8
 610              		.cfi_offset 14, -4
 823:.\Generated_Source\PSoC4/I2C_bus_I2C_MASTER.c ****     I2C_bus_DisableInt();  /* Lock from interruption */
 611              		.loc 1 823 0
 612 0002 0A20     		mov	r0, #10
 613 0004 FFF7FEFF 		bl	CyIntDisable
 614              	.LVL50:
 824:.\Generated_Source\PSoC4/I2C_bus_I2C_MASTER.c **** 
 825:.\Generated_Source\PSoC4/I2C_bus_I2C_MASTER.c ****     I2C_bus_mstrRdBufIndex = 0u;
 615              		.loc 1 825 0
 616 0008 0022     		mov	r2, #0
 617 000a 054B     		ldr	r3, .L51
 618 000c 1A60     		str	r2, [r3]
 826:.\Generated_Source\PSoC4/I2C_bus_I2C_MASTER.c ****     I2C_bus_mstrStatus    &= (uint16) ~I2C_bus_I2C_MSTAT_RD_CMPLT;
 619              		.loc 1 826 0
 620 000e 054A     		ldr	r2, .L51+4
 621 0010 1388     		ldrh	r3, [r2]
 622 0012 0121     		mov	r1, #1
 623 0014 8B43     		bic	r3, r1
 624 0016 1380     		strh	r3, [r2]
 827:.\Generated_Source\PSoC4/I2C_bus_I2C_MASTER.c **** 
 828:.\Generated_Source\PSoC4/I2C_bus_I2C_MASTER.c ****     I2C_bus_EnableInt();   /* Release lock */
 625              		.loc 1 828 0
 626 0018 0A20     		mov	r0, #10
 627 001a FFF7FEFF 		bl	CyIntEnable
 628              	.LVL51:
 829:.\Generated_Source\PSoC4/I2C_bus_I2C_MASTER.c **** }
 629              		.loc 1 829 0
 630              		@ sp needed
 631 001e 08BD     		pop	{r3, pc}
 632              	.L52:
 633              		.align	2
 634              	.L51:
 635 0020 00000000 		.word	I2C_bus_mstrRdBufIndex
 636 0024 00000000 		.word	I2C_bus_mstrStatus
 637              		.cfi_endproc
 638              	.LFE11:
 639              		.size	I2C_bus_I2CMasterClearReadBuf, .-I2C_bus_I2CMasterClearReadBuf
ARM GAS  C:\Users\username\AppData\Local\Temp\cc0FlDXj.s 			page 27


 640              		.section	.text.I2C_bus_I2CMasterClearWriteBuf,"ax",%progbits
 641              		.align	2
 642              		.global	I2C_bus_I2CMasterClearWriteBuf
 643              		.code	16
 644              		.thumb_func
 645              		.type	I2C_bus_I2CMasterClearWriteBuf, %function
 646              	I2C_bus_I2CMasterClearWriteBuf:
 647              	.LFB12:
 830:.\Generated_Source\PSoC4/I2C_bus_I2C_MASTER.c **** 
 831:.\Generated_Source\PSoC4/I2C_bus_I2C_MASTER.c **** 
 832:.\Generated_Source\PSoC4/I2C_bus_I2C_MASTER.c **** /*******************************************************************************
 833:.\Generated_Source\PSoC4/I2C_bus_I2C_MASTER.c **** * Function Name: I2C_bus_I2CMasterClearWriteBuf
 834:.\Generated_Source\PSoC4/I2C_bus_I2C_MASTER.c **** ********************************************************************************
 835:.\Generated_Source\PSoC4/I2C_bus_I2C_MASTER.c **** *
 836:.\Generated_Source\PSoC4/I2C_bus_I2C_MASTER.c **** * Summary:
 837:.\Generated_Source\PSoC4/I2C_bus_I2C_MASTER.c **** *  Resets the write buffer pointer back to the first byte in the buffer.
 838:.\Generated_Source\PSoC4/I2C_bus_I2C_MASTER.c **** *
 839:.\Generated_Source\PSoC4/I2C_bus_I2C_MASTER.c **** * Parameters:
 840:.\Generated_Source\PSoC4/I2C_bus_I2C_MASTER.c **** *  None
 841:.\Generated_Source\PSoC4/I2C_bus_I2C_MASTER.c **** *
 842:.\Generated_Source\PSoC4/I2C_bus_I2C_MASTER.c **** * Return:
 843:.\Generated_Source\PSoC4/I2C_bus_I2C_MASTER.c **** *  None
 844:.\Generated_Source\PSoC4/I2C_bus_I2C_MASTER.c **** *
 845:.\Generated_Source\PSoC4/I2C_bus_I2C_MASTER.c **** * Global variables:
 846:.\Generated_Source\PSoC4/I2C_bus_I2C_MASTER.c **** *  I2C_bus_mstrRdBufIndex - used to current index within master read
 847:.\Generated_Source\PSoC4/I2C_bus_I2C_MASTER.c **** *   buffer.
 848:.\Generated_Source\PSoC4/I2C_bus_I2C_MASTER.c **** *  I2C_bus_mstrStatus - used to store current status of I2C Master.
 849:.\Generated_Source\PSoC4/I2C_bus_I2C_MASTER.c **** *
 850:.\Generated_Source\PSoC4/I2C_bus_I2C_MASTER.c **** *******************************************************************************/
 851:.\Generated_Source\PSoC4/I2C_bus_I2C_MASTER.c **** void I2C_bus_I2CMasterClearWriteBuf(void)
 852:.\Generated_Source\PSoC4/I2C_bus_I2C_MASTER.c **** {
 648              		.loc 1 852 0
 649              		.cfi_startproc
 650 0000 08B5     		push	{r3, lr}
 651              		.cfi_def_cfa_offset 8
 652              		.cfi_offset 3, -8
 653              		.cfi_offset 14, -4
 853:.\Generated_Source\PSoC4/I2C_bus_I2C_MASTER.c ****     I2C_bus_DisableInt();  /* Lock from interruption */
 654              		.loc 1 853 0
 655 0002 0A20     		mov	r0, #10
 656 0004 FFF7FEFF 		bl	CyIntDisable
 657              	.LVL52:
 854:.\Generated_Source\PSoC4/I2C_bus_I2C_MASTER.c **** 
 855:.\Generated_Source\PSoC4/I2C_bus_I2C_MASTER.c ****     I2C_bus_mstrWrBufIndex = 0u;
 658              		.loc 1 855 0
 659 0008 0022     		mov	r2, #0
 660 000a 054B     		ldr	r3, .L54
 661 000c 1A60     		str	r2, [r3]
 856:.\Generated_Source\PSoC4/I2C_bus_I2C_MASTER.c ****     I2C_bus_mstrStatus    &= (uint16) ~I2C_bus_I2C_MSTAT_WR_CMPLT;
 662              		.loc 1 856 0
 663 000e 054A     		ldr	r2, .L54+4
 664 0010 1388     		ldrh	r3, [r2]
 665 0012 0221     		mov	r1, #2
 666 0014 8B43     		bic	r3, r1
 667 0016 1380     		strh	r3, [r2]
 857:.\Generated_Source\PSoC4/I2C_bus_I2C_MASTER.c **** 
 858:.\Generated_Source\PSoC4/I2C_bus_I2C_MASTER.c ****     I2C_bus_EnableInt();   /* Release lock */
ARM GAS  C:\Users\username\AppData\Local\Temp\cc0FlDXj.s 			page 28


 668              		.loc 1 858 0
 669 0018 0A20     		mov	r0, #10
 670 001a FFF7FEFF 		bl	CyIntEnable
 671              	.LVL53:
 859:.\Generated_Source\PSoC4/I2C_bus_I2C_MASTER.c **** }
 672              		.loc 1 859 0
 673              		@ sp needed
 674 001e 08BD     		pop	{r3, pc}
 675              	.L55:
 676              		.align	2
 677              	.L54:
 678 0020 00000000 		.word	I2C_bus_mstrWrBufIndex
 679 0024 00000000 		.word	I2C_bus_mstrStatus
 680              		.cfi_endproc
 681              	.LFE12:
 682              		.size	I2C_bus_I2CMasterClearWriteBuf, .-I2C_bus_I2CMasterClearWriteBuf
 683              		.section	.text.I2C_bus_I2CMasterStatus,"ax",%progbits
 684              		.align	2
 685              		.global	I2C_bus_I2CMasterStatus
 686              		.code	16
 687              		.thumb_func
 688              		.type	I2C_bus_I2CMasterStatus, %function
 689              	I2C_bus_I2CMasterStatus:
 690              	.LFB13:
 860:.\Generated_Source\PSoC4/I2C_bus_I2C_MASTER.c **** 
 861:.\Generated_Source\PSoC4/I2C_bus_I2C_MASTER.c **** 
 862:.\Generated_Source\PSoC4/I2C_bus_I2C_MASTER.c **** /*******************************************************************************
 863:.\Generated_Source\PSoC4/I2C_bus_I2C_MASTER.c **** * Function Name: I2C_bus_I2CMasterStatus
 864:.\Generated_Source\PSoC4/I2C_bus_I2C_MASTER.c **** ********************************************************************************
 865:.\Generated_Source\PSoC4/I2C_bus_I2C_MASTER.c **** *
 866:.\Generated_Source\PSoC4/I2C_bus_I2C_MASTER.c **** * Summary:
 867:.\Generated_Source\PSoC4/I2C_bus_I2C_MASTER.c **** *  Returns the master's communication status.
 868:.\Generated_Source\PSoC4/I2C_bus_I2C_MASTER.c **** *
 869:.\Generated_Source\PSoC4/I2C_bus_I2C_MASTER.c **** * Parameters:
 870:.\Generated_Source\PSoC4/I2C_bus_I2C_MASTER.c **** *  None
 871:.\Generated_Source\PSoC4/I2C_bus_I2C_MASTER.c **** *
 872:.\Generated_Source\PSoC4/I2C_bus_I2C_MASTER.c **** * Return:
 873:.\Generated_Source\PSoC4/I2C_bus_I2C_MASTER.c **** *  Current status of I2C master.
 874:.\Generated_Source\PSoC4/I2C_bus_I2C_MASTER.c **** *
 875:.\Generated_Source\PSoC4/I2C_bus_I2C_MASTER.c **** * Global variables:
 876:.\Generated_Source\PSoC4/I2C_bus_I2C_MASTER.c **** *  I2C_bus_mstrStatus - used to store current status of I2C Master.
 877:.\Generated_Source\PSoC4/I2C_bus_I2C_MASTER.c **** *
 878:.\Generated_Source\PSoC4/I2C_bus_I2C_MASTER.c **** *******************************************************************************/
 879:.\Generated_Source\PSoC4/I2C_bus_I2C_MASTER.c **** uint32 I2C_bus_I2CMasterStatus(void)
 880:.\Generated_Source\PSoC4/I2C_bus_I2C_MASTER.c **** {
 691              		.loc 1 880 0
 692              		.cfi_startproc
 693 0000 10B5     		push	{r4, lr}
 694              		.cfi_def_cfa_offset 8
 695              		.cfi_offset 4, -8
 696              		.cfi_offset 14, -4
 881:.\Generated_Source\PSoC4/I2C_bus_I2C_MASTER.c ****     uint32 status;
 882:.\Generated_Source\PSoC4/I2C_bus_I2C_MASTER.c **** 
 883:.\Generated_Source\PSoC4/I2C_bus_I2C_MASTER.c ****     I2C_bus_DisableInt();  /* Lock from interruption */
 697              		.loc 1 883 0
 698 0002 0A20     		mov	r0, #10
 699 0004 FFF7FEFF 		bl	CyIntDisable
ARM GAS  C:\Users\username\AppData\Local\Temp\cc0FlDXj.s 			page 29


 700              	.LVL54:
 884:.\Generated_Source\PSoC4/I2C_bus_I2C_MASTER.c **** 
 885:.\Generated_Source\PSoC4/I2C_bus_I2C_MASTER.c ****     status = (uint32) I2C_bus_mstrStatus;
 701              		.loc 1 885 0
 702 0008 074B     		ldr	r3, .L58
 703 000a 1B88     		ldrh	r3, [r3]
 704 000c 9BB2     		uxth	r3, r3
 705 000e 1C1C     		mov	r4, r3
 706              	.LVL55:
 886:.\Generated_Source\PSoC4/I2C_bus_I2C_MASTER.c **** 
 887:.\Generated_Source\PSoC4/I2C_bus_I2C_MASTER.c ****     if (I2C_bus_CHECK_I2C_MASTER_ACTIVE)
 707              		.loc 1 887 0
 708 0010 064A     		ldr	r2, .L58+4
 709 0012 1278     		ldrb	r2, [r2]
 710 0014 9206     		lsl	r2, r2, #26
 711 0016 01D5     		bpl	.L57
 888:.\Generated_Source\PSoC4/I2C_bus_I2C_MASTER.c ****     {
 889:.\Generated_Source\PSoC4/I2C_bus_I2C_MASTER.c ****         /* Add status of master pending transaction: MSTAT_XFER_INP */
 890:.\Generated_Source\PSoC4/I2C_bus_I2C_MASTER.c ****         status |= (uint32) I2C_bus_I2C_MSTAT_XFER_INP;
 712              		.loc 1 890 0
 713 0018 0424     		mov	r4, #4
 714 001a 1C43     		orr	r4, r3
 715              	.LVL56:
 716              	.L57:
 891:.\Generated_Source\PSoC4/I2C_bus_I2C_MASTER.c ****     }
 892:.\Generated_Source\PSoC4/I2C_bus_I2C_MASTER.c **** 
 893:.\Generated_Source\PSoC4/I2C_bus_I2C_MASTER.c ****     I2C_bus_EnableInt();   /* Release lock */
 717              		.loc 1 893 0
 718 001c 0A20     		mov	r0, #10
 719 001e FFF7FEFF 		bl	CyIntEnable
 720              	.LVL57:
 894:.\Generated_Source\PSoC4/I2C_bus_I2C_MASTER.c **** 
 895:.\Generated_Source\PSoC4/I2C_bus_I2C_MASTER.c ****     return(status);
 896:.\Generated_Source\PSoC4/I2C_bus_I2C_MASTER.c **** }
 721              		.loc 1 896 0
 722 0022 201C     		mov	r0, r4
 723              		@ sp needed
 724              	.LVL58:
 725 0024 10BD     		pop	{r4, pc}
 726              	.L59:
 727 0026 C046     		.align	2
 728              	.L58:
 729 0028 00000000 		.word	I2C_bus_mstrStatus
 730 002c 00000000 		.word	I2C_bus_state
 731              		.cfi_endproc
 732              	.LFE13:
 733              		.size	I2C_bus_I2CMasterStatus, .-I2C_bus_I2CMasterStatus
 734              		.section	.text.I2C_bus_I2CMasterClearStatus,"ax",%progbits
 735              		.align	2
 736              		.global	I2C_bus_I2CMasterClearStatus
 737              		.code	16
 738              		.thumb_func
 739              		.type	I2C_bus_I2CMasterClearStatus, %function
 740              	I2C_bus_I2CMasterClearStatus:
 741              	.LFB14:
 897:.\Generated_Source\PSoC4/I2C_bus_I2C_MASTER.c **** 
 898:.\Generated_Source\PSoC4/I2C_bus_I2C_MASTER.c **** 
ARM GAS  C:\Users\username\AppData\Local\Temp\cc0FlDXj.s 			page 30


 899:.\Generated_Source\PSoC4/I2C_bus_I2C_MASTER.c **** /*******************************************************************************
 900:.\Generated_Source\PSoC4/I2C_bus_I2C_MASTER.c **** * Function Name: I2C_bus_I2CMasterClearStatus
 901:.\Generated_Source\PSoC4/I2C_bus_I2C_MASTER.c **** ********************************************************************************
 902:.\Generated_Source\PSoC4/I2C_bus_I2C_MASTER.c **** *
 903:.\Generated_Source\PSoC4/I2C_bus_I2C_MASTER.c **** * Summary:
 904:.\Generated_Source\PSoC4/I2C_bus_I2C_MASTER.c **** *  Clears all status flags and returns the master status.
 905:.\Generated_Source\PSoC4/I2C_bus_I2C_MASTER.c **** *
 906:.\Generated_Source\PSoC4/I2C_bus_I2C_MASTER.c **** * Parameters:
 907:.\Generated_Source\PSoC4/I2C_bus_I2C_MASTER.c **** *  None
 908:.\Generated_Source\PSoC4/I2C_bus_I2C_MASTER.c **** *
 909:.\Generated_Source\PSoC4/I2C_bus_I2C_MASTER.c **** * Return:
 910:.\Generated_Source\PSoC4/I2C_bus_I2C_MASTER.c **** *  Current status of I2C master.
 911:.\Generated_Source\PSoC4/I2C_bus_I2C_MASTER.c **** *
 912:.\Generated_Source\PSoC4/I2C_bus_I2C_MASTER.c **** * Global variables:
 913:.\Generated_Source\PSoC4/I2C_bus_I2C_MASTER.c **** *  I2C_bus_mstrStatus - used to store current status of I2C Master.
 914:.\Generated_Source\PSoC4/I2C_bus_I2C_MASTER.c **** *
 915:.\Generated_Source\PSoC4/I2C_bus_I2C_MASTER.c **** *******************************************************************************/
 916:.\Generated_Source\PSoC4/I2C_bus_I2C_MASTER.c **** uint32 I2C_bus_I2CMasterClearStatus(void)
 917:.\Generated_Source\PSoC4/I2C_bus_I2C_MASTER.c **** {
 742              		.loc 1 917 0
 743              		.cfi_startproc
 744 0000 10B5     		push	{r4, lr}
 745              		.cfi_def_cfa_offset 8
 746              		.cfi_offset 4, -8
 747              		.cfi_offset 14, -4
 918:.\Generated_Source\PSoC4/I2C_bus_I2C_MASTER.c ****     uint32 status;
 919:.\Generated_Source\PSoC4/I2C_bus_I2C_MASTER.c **** 
 920:.\Generated_Source\PSoC4/I2C_bus_I2C_MASTER.c ****     I2C_bus_DisableInt();  /* Lock from interruption */
 748              		.loc 1 920 0
 749 0002 0A20     		mov	r0, #10
 750 0004 FFF7FEFF 		bl	CyIntDisable
 751              	.LVL59:
 921:.\Generated_Source\PSoC4/I2C_bus_I2C_MASTER.c **** 
 922:.\Generated_Source\PSoC4/I2C_bus_I2C_MASTER.c ****     /* Read and clear master status */
 923:.\Generated_Source\PSoC4/I2C_bus_I2C_MASTER.c ****     status = (uint32) I2C_bus_mstrStatus;
 752              		.loc 1 923 0
 753 0008 044B     		ldr	r3, .L61
 754 000a 1C88     		ldrh	r4, [r3]
 755 000c A4B2     		uxth	r4, r4
 756              	.LVL60:
 924:.\Generated_Source\PSoC4/I2C_bus_I2C_MASTER.c ****     I2C_bus_mstrStatus = I2C_bus_I2C_MSTAT_CLEAR;
 757              		.loc 1 924 0
 758 000e 0022     		mov	r2, #0
 759 0010 1A80     		strh	r2, [r3]
 925:.\Generated_Source\PSoC4/I2C_bus_I2C_MASTER.c **** 
 926:.\Generated_Source\PSoC4/I2C_bus_I2C_MASTER.c ****     I2C_bus_EnableInt();   /* Release lock */
 760              		.loc 1 926 0
 761 0012 0A20     		mov	r0, #10
 762 0014 FFF7FEFF 		bl	CyIntEnable
 763              	.LVL61:
 927:.\Generated_Source\PSoC4/I2C_bus_I2C_MASTER.c **** 
 928:.\Generated_Source\PSoC4/I2C_bus_I2C_MASTER.c ****     return(status);
 929:.\Generated_Source\PSoC4/I2C_bus_I2C_MASTER.c **** }
 764              		.loc 1 929 0
 765 0018 201C     		mov	r0, r4
 766              		@ sp needed
 767              	.LVL62:
ARM GAS  C:\Users\username\AppData\Local\Temp\cc0FlDXj.s 			page 31


 768 001a 10BD     		pop	{r4, pc}
 769              	.L62:
 770              		.align	2
 771              	.L61:
 772 001c 00000000 		.word	I2C_bus_mstrStatus
 773              		.cfi_endproc
 774              	.LFE14:
 775              		.size	I2C_bus_I2CMasterClearStatus, .-I2C_bus_I2CMasterClearStatus
 776              		.section	.text.I2C_bus_I2CReStartGeneration,"ax",%progbits
 777              		.align	2
 778              		.global	I2C_bus_I2CReStartGeneration
 779              		.code	16
 780              		.thumb_func
 781              		.type	I2C_bus_I2CReStartGeneration, %function
 782              	I2C_bus_I2CReStartGeneration:
 783              	.LFB15:
 930:.\Generated_Source\PSoC4/I2C_bus_I2C_MASTER.c **** 
 931:.\Generated_Source\PSoC4/I2C_bus_I2C_MASTER.c **** 
 932:.\Generated_Source\PSoC4/I2C_bus_I2C_MASTER.c **** /*******************************************************************************
 933:.\Generated_Source\PSoC4/I2C_bus_I2C_MASTER.c **** * Function Name: I2C_bus_I2CReStartGeneration
 934:.\Generated_Source\PSoC4/I2C_bus_I2C_MASTER.c **** ********************************************************************************
 935:.\Generated_Source\PSoC4/I2C_bus_I2C_MASTER.c **** *
 936:.\Generated_Source\PSoC4/I2C_bus_I2C_MASTER.c **** * Summary:
 937:.\Generated_Source\PSoC4/I2C_bus_I2C_MASTER.c **** *  Generates a ReStart condition:
 938:.\Generated_Source\PSoC4/I2C_bus_I2C_MASTER.c **** *  SCB IP V1 and later: Generates ReStart using the scb IP functionality
 939:.\Generated_Source\PSoC4/I2C_bus_I2C_MASTER.c **** *    Sets the I2C_MASTER_CMD_M_START and I2C_MASTER_CMD_M_NACK (if the previous
 940:.\Generated_Source\PSoC4/I2C_bus_I2C_MASTER.c **** *    transaction was read) bits in the SCB.I2C_MASTER_CMD register.
 941:.\Generated_Source\PSoC4/I2C_bus_I2C_MASTER.c **** *    This combination forces the master to generate ReStart.
 942:.\Generated_Source\PSoC4/I2C_bus_I2C_MASTER.c **** *
 943:.\Generated_Source\PSoC4/I2C_bus_I2C_MASTER.c **** *  SCB IP V0: Generates Restart using the GPIO and scb IP functionality.
 944:.\Generated_Source\PSoC4/I2C_bus_I2C_MASTER.c **** *   After the master completes write or read, the SCL is stretched.
 945:.\Generated_Source\PSoC4/I2C_bus_I2C_MASTER.c **** *   The master waits until SDA line is released by the slave. Then the GPIO
 946:.\Generated_Source\PSoC4/I2C_bus_I2C_MASTER.c **** *   function is enabled and the scb IP disabled as it already does not drive
 947:.\Generated_Source\PSoC4/I2C_bus_I2C_MASTER.c **** *   the bus. In case of the previous transfer was read, the NACK is generated
 948:.\Generated_Source\PSoC4/I2C_bus_I2C_MASTER.c **** *   by the GPIO. The delay of tLOW is added to manage the hold time.
 949:.\Generated_Source\PSoC4/I2C_bus_I2C_MASTER.c **** *   Set I2C_M_CMD.START and enable the scb IP. The ReStart generation
 950:.\Generated_Source\PSoC4/I2C_bus_I2C_MASTER.c **** *   is started after the I2C function is enabled for the SCL.
 951:.\Generated_Source\PSoC4/I2C_bus_I2C_MASTER.c **** *   Note1: the scb IP due re-enable generates Start but on the I2C bus it
 952:.\Generated_Source\PSoC4/I2C_bus_I2C_MASTER.c **** *          appears as ReStart.
 953:.\Generated_Source\PSoC4/I2C_bus_I2C_MASTER.c **** *   Note2: the I2C_M_CMD.START is queued if scb IP is disabled.
 954:.\Generated_Source\PSoC4/I2C_bus_I2C_MASTER.c **** *   Note3: the I2C_STATUS_M_READ is cleared is address was NACKed before.
 955:.\Generated_Source\PSoC4/I2C_bus_I2C_MASTER.c **** *
 956:.\Generated_Source\PSoC4/I2C_bus_I2C_MASTER.c **** * Parameters:
 957:.\Generated_Source\PSoC4/I2C_bus_I2C_MASTER.c **** *  None
 958:.\Generated_Source\PSoC4/I2C_bus_I2C_MASTER.c **** *
 959:.\Generated_Source\PSoC4/I2C_bus_I2C_MASTER.c **** * Return:
 960:.\Generated_Source\PSoC4/I2C_bus_I2C_MASTER.c **** *  None
 961:.\Generated_Source\PSoC4/I2C_bus_I2C_MASTER.c **** *
 962:.\Generated_Source\PSoC4/I2C_bus_I2C_MASTER.c **** * Side Effects:
 963:.\Generated_Source\PSoC4/I2C_bus_I2C_MASTER.c **** *  SCB IP V0: The NACK generation by the GPIO may cause a greater SCL period
 964:.\Generated_Source\PSoC4/I2C_bus_I2C_MASTER.c **** *             than expected for the selected master data rate.
 965:.\Generated_Source\PSoC4/I2C_bus_I2C_MASTER.c **** *
 966:.\Generated_Source\PSoC4/I2C_bus_I2C_MASTER.c **** *******************************************************************************/
 967:.\Generated_Source\PSoC4/I2C_bus_I2C_MASTER.c **** void I2C_bus_I2CReStartGeneration(void)
 968:.\Generated_Source\PSoC4/I2C_bus_I2C_MASTER.c **** {
 784              		.loc 1 968 0
 785              		.cfi_startproc
ARM GAS  C:\Users\username\AppData\Local\Temp\cc0FlDXj.s 			page 32


 786              	.LVL63:
 969:.\Generated_Source\PSoC4/I2C_bus_I2C_MASTER.c **** #if(I2C_bus_CY_SCBIP_V0)
 970:.\Generated_Source\PSoC4/I2C_bus_I2C_MASTER.c ****     /* Generates Restart use GPIO and scb IP functionality. Ticket ID#143715,
 971:.\Generated_Source\PSoC4/I2C_bus_I2C_MASTER.c ****     ID#145238 and ID#173656 */
 972:.\Generated_Source\PSoC4/I2C_bus_I2C_MASTER.c ****     uint32 status = I2C_bus_I2C_STATUS_REG;
 973:.\Generated_Source\PSoC4/I2C_bus_I2C_MASTER.c **** 
 974:.\Generated_Source\PSoC4/I2C_bus_I2C_MASTER.c ****     while(I2C_bus_WAIT_SDA_SET_HIGH)
 975:.\Generated_Source\PSoC4/I2C_bus_I2C_MASTER.c ****     {
 976:.\Generated_Source\PSoC4/I2C_bus_I2C_MASTER.c ****         /* Wait when slave release SDA line: SCL tHIGH is complete */
 977:.\Generated_Source\PSoC4/I2C_bus_I2C_MASTER.c ****     }
 978:.\Generated_Source\PSoC4/I2C_bus_I2C_MASTER.c **** 
 979:.\Generated_Source\PSoC4/I2C_bus_I2C_MASTER.c ****     /* Prepare DR register to drive SCL line */
 980:.\Generated_Source\PSoC4/I2C_bus_I2C_MASTER.c ****     I2C_bus_SET_I2C_SCL_DR(I2C_bus_I2C_SCL_LOW);
 981:.\Generated_Source\PSoC4/I2C_bus_I2C_MASTER.c **** 
 982:.\Generated_Source\PSoC4/I2C_bus_I2C_MASTER.c ****     /* Switch HSIOM to GPIO: SCL goes low */
 983:.\Generated_Source\PSoC4/I2C_bus_I2C_MASTER.c ****     I2C_bus_SET_I2C_SCL_HSIOM_SEL(I2C_bus_HSIOM_GPIO_SEL);
 984:.\Generated_Source\PSoC4/I2C_bus_I2C_MASTER.c **** 
 985:.\Generated_Source\PSoC4/I2C_bus_I2C_MASTER.c ****     /* Disable SCB block */
 986:.\Generated_Source\PSoC4/I2C_bus_I2C_MASTER.c ****     I2C_bus_CTRL_REG &= (uint32) ~I2C_bus_CTRL_ENABLED;
 987:.\Generated_Source\PSoC4/I2C_bus_I2C_MASTER.c **** 
 988:.\Generated_Source\PSoC4/I2C_bus_I2C_MASTER.c ****     if(0u != (status & I2C_bus_I2C_STATUS_M_READ))
 989:.\Generated_Source\PSoC4/I2C_bus_I2C_MASTER.c ****     {
 990:.\Generated_Source\PSoC4/I2C_bus_I2C_MASTER.c ****         /* Generate NACK use GPIO functionality */
 991:.\Generated_Source\PSoC4/I2C_bus_I2C_MASTER.c ****         I2C_bus_SET_I2C_SCL_DR(I2C_bus_I2C_SCL_LOW);
 992:.\Generated_Source\PSoC4/I2C_bus_I2C_MASTER.c ****         CyDelayUs(I2C_bus_I2C_TLOW_TIME); /* Count tLOW */
 993:.\Generated_Source\PSoC4/I2C_bus_I2C_MASTER.c **** 
 994:.\Generated_Source\PSoC4/I2C_bus_I2C_MASTER.c ****         I2C_bus_SET_I2C_SCL_DR(I2C_bus_I2C_SCL_HIGH);
 995:.\Generated_Source\PSoC4/I2C_bus_I2C_MASTER.c ****         while(I2C_bus_WAIT_SCL_SET_HIGH)
 996:.\Generated_Source\PSoC4/I2C_bus_I2C_MASTER.c ****         {
 997:.\Generated_Source\PSoC4/I2C_bus_I2C_MASTER.c ****             /* Wait until slave releases SCL in case if it stretches */
 998:.\Generated_Source\PSoC4/I2C_bus_I2C_MASTER.c ****         }
 999:.\Generated_Source\PSoC4/I2C_bus_I2C_MASTER.c ****         CyDelayUs(I2C_bus_I2C_THIGH_TIME); /* Count tHIGH */
1000:.\Generated_Source\PSoC4/I2C_bus_I2C_MASTER.c ****     }
1001:.\Generated_Source\PSoC4/I2C_bus_I2C_MASTER.c **** 
1002:.\Generated_Source\PSoC4/I2C_bus_I2C_MASTER.c ****     /* Count tLOW as hold time for write and read */
1003:.\Generated_Source\PSoC4/I2C_bus_I2C_MASTER.c ****     I2C_bus_SET_I2C_SCL_DR(I2C_bus_I2C_SCL_LOW);
1004:.\Generated_Source\PSoC4/I2C_bus_I2C_MASTER.c ****     CyDelayUs(I2C_bus_I2C_TLOW_TIME); /* Count tLOW */
1005:.\Generated_Source\PSoC4/I2C_bus_I2C_MASTER.c **** 
1006:.\Generated_Source\PSoC4/I2C_bus_I2C_MASTER.c ****     /* Set command for Start generation: it will appear */
1007:.\Generated_Source\PSoC4/I2C_bus_I2C_MASTER.c ****     I2C_bus_I2C_MASTER_CMD_REG = I2C_bus_I2C_MASTER_CMD_M_START;
1008:.\Generated_Source\PSoC4/I2C_bus_I2C_MASTER.c **** 
1009:.\Generated_Source\PSoC4/I2C_bus_I2C_MASTER.c ****     /* Enable SCB block */
1010:.\Generated_Source\PSoC4/I2C_bus_I2C_MASTER.c ****     I2C_bus_CTRL_REG |= (uint32) I2C_bus_CTRL_ENABLED;
1011:.\Generated_Source\PSoC4/I2C_bus_I2C_MASTER.c **** 
1012:.\Generated_Source\PSoC4/I2C_bus_I2C_MASTER.c ****     /* Switch HSIOM to I2C: */
1013:.\Generated_Source\PSoC4/I2C_bus_I2C_MASTER.c ****     I2C_bus_SET_I2C_SCL_HSIOM_SEL(I2C_bus_HSIOM_I2C_SEL);
1014:.\Generated_Source\PSoC4/I2C_bus_I2C_MASTER.c **** 
1015:.\Generated_Source\PSoC4/I2C_bus_I2C_MASTER.c ****     /* Revert SCL DR register */
1016:.\Generated_Source\PSoC4/I2C_bus_I2C_MASTER.c ****     I2C_bus_SET_I2C_SCL_DR(I2C_bus_I2C_SCL_HIGH);
1017:.\Generated_Source\PSoC4/I2C_bus_I2C_MASTER.c **** #else
1018:.\Generated_Source\PSoC4/I2C_bus_I2C_MASTER.c ****     uint32 cmd;
1019:.\Generated_Source\PSoC4/I2C_bus_I2C_MASTER.c **** 
1020:.\Generated_Source\PSoC4/I2C_bus_I2C_MASTER.c ****     /* Generates ReStart use scb IP functionality */
1021:.\Generated_Source\PSoC4/I2C_bus_I2C_MASTER.c ****     cmd  = I2C_bus_I2C_MASTER_CMD_M_START;
1022:.\Generated_Source\PSoC4/I2C_bus_I2C_MASTER.c ****     cmd |= I2C_bus_CHECK_I2C_STATUS(I2C_bus_I2C_STATUS_M_READ) ?
 787              		.loc 1 1022 0
 788 0000 054B     		ldr	r3, .L65
ARM GAS  C:\Users\username\AppData\Local\Temp\cc0FlDXj.s 			page 33


 789 0002 1B68     		ldr	r3, [r3]
 790 0004 2022     		mov	r2, #32
 791 0006 1340     		and	r3, r2
1023:.\Generated_Source\PSoC4/I2C_bus_I2C_MASTER.c ****                 (I2C_bus_I2C_MASTER_CMD_M_NACK) : (0u);
 792              		.loc 1 1023 0
 793 0008 00D0     		beq	.L64
 794 000a 0823     		mov	r3, #8
 795              	.L64:
1022:.\Generated_Source\PSoC4/I2C_bus_I2C_MASTER.c ****                 (I2C_bus_I2C_MASTER_CMD_M_NACK) : (0u);
 796              		.loc 1 1022 0 discriminator 4
 797 000c 0122     		mov	r2, #1
 798 000e 1343     		orr	r3, r2
 799              	.LVL64:
1024:.\Generated_Source\PSoC4/I2C_bus_I2C_MASTER.c **** 
1025:.\Generated_Source\PSoC4/I2C_bus_I2C_MASTER.c ****     I2C_bus_I2C_MASTER_CMD_REG = cmd;
 800              		.loc 1 1025 0 discriminator 4
 801 0010 024A     		ldr	r2, .L65+4
 802 0012 1360     		str	r3, [r2]
1026:.\Generated_Source\PSoC4/I2C_bus_I2C_MASTER.c **** #endif /* (I2C_bus_CY_SCBIP_V1) */
1027:.\Generated_Source\PSoC4/I2C_bus_I2C_MASTER.c **** }
 803              		.loc 1 1027 0 discriminator 4
 804              		@ sp needed
 805 0014 7047     		bx	lr
 806              	.L66:
 807 0016 C046     		.align	2
 808              	.L65:
 809 0018 64002540 		.word	1076166756
 810 001c 68002540 		.word	1076166760
 811              		.cfi_endproc
 812              	.LFE15:
 813              		.size	I2C_bus_I2CReStartGeneration, .-I2C_bus_I2CReStartGeneration
 814              		.section	.text.I2C_bus_I2CMasterWriteBuf,"ax",%progbits
 815              		.align	2
 816              		.global	I2C_bus_I2CMasterWriteBuf
 817              		.code	16
 818              		.thumb_func
 819              		.type	I2C_bus_I2CMasterWriteBuf, %function
 820              	I2C_bus_I2CMasterWriteBuf:
 821              	.LFB2:
  81:.\Generated_Source\PSoC4/I2C_bus_I2C_MASTER.c ****     uint32 errStatus;
 822              		.loc 1 81 0
 823              		.cfi_startproc
 824              	.LVL65:
 825 0000 F0B5     		push	{r4, r5, r6, r7, lr}
 826              		.cfi_def_cfa_offset 20
 827              		.cfi_offset 4, -20
 828              		.cfi_offset 5, -16
 829              		.cfi_offset 6, -12
 830              		.cfi_offset 7, -8
 831              		.cfi_offset 14, -4
 832 0002 83B0     		sub	sp, sp, #12
 833              		.cfi_def_cfa_offset 32
 834 0004 0190     		str	r0, [sp, #4]
 835 0006 0C1C     		mov	r4, r1
 836 0008 171C     		mov	r7, r2
 837 000a 1D1C     		mov	r5, r3
 838              	.LVL66:
ARM GAS  C:\Users\username\AppData\Local\Temp\cc0FlDXj.s 			page 34


  86:.\Generated_Source\PSoC4/I2C_bus_I2C_MASTER.c ****     {
 839              		.loc 1 86 0
 840 000c 0029     		cmp	r1, #0
 841 000e 19D0     		beq	.L73
  89:.\Generated_Source\PSoC4/I2C_bus_I2C_MASTER.c ****         {
 842              		.loc 1 89 0
 843 0010 284B     		ldr	r3, .L76
 844              	.LVL67:
 845 0012 1B78     		ldrb	r3, [r3]
 846 0014 102B     		cmp	r3, #16
 847 0016 0AD1     		bne	.L69
  91:.\Generated_Source\PSoC4/I2C_bus_I2C_MASTER.c **** 
 848              		.loc 1 91 0
 849 0018 0A20     		mov	r0, #10
 850              	.LVL68:
 851 001a FFF7FEFF 		bl	CyIntDisable
 852              	.LVL69:
  94:.\Generated_Source\PSoC4/I2C_bus_I2C_MASTER.c ****                             I2C_bus_I2C_MSTR_BUS_BUSY : I2C_bus_I2C_MSTR_NO_ERROR;
 853              		.loc 1 94 0
 854 001e 264B     		ldr	r3, .L76+4
 855 0020 1B68     		ldr	r3, [r3]
 856 0022 DB07     		lsl	r3, r3, #31
 857 0024 01D5     		bpl	.L74
 858 0026 0826     		mov	r6, #8
 859 0028 0FE0     		b	.L68
 860              	.L74:
 861 002a 0026     		mov	r6, #0
 862              	.LVL70:
 863 002c 0DE0     		b	.L68
 864              	.LVL71:
 865              	.L69:
  97:.\Generated_Source\PSoC4/I2C_bus_I2C_MASTER.c ****         {
 866              		.loc 1 97 0
 867 002e 214B     		ldr	r3, .L76
 868 0030 1B78     		ldrb	r3, [r3]
 869 0032 602B     		cmp	r3, #96
 870 0034 08D1     		bne	.L75
  99:.\Generated_Source\PSoC4/I2C_bus_I2C_MASTER.c ****                               errStatus  = I2C_bus_I2C_MSTR_NO_ERROR;
 871              		.loc 1 99 0
 872 0036 214A     		ldr	r2, .L76+8
 873              	.LVL72:
 874 0038 1388     		ldrh	r3, [r2]
 875 003a 0821     		mov	r1, #8
 876              	.LVL73:
 877 003c 8B43     		bic	r3, r1
 878 003e 1380     		strh	r3, [r2]
 879              	.LVL74:
 100:.\Generated_Source\PSoC4/I2C_bus_I2C_MASTER.c ****         }
 880              		.loc 1 100 0
 881 0040 0026     		mov	r6, #0
 882 0042 02E0     		b	.L68
 883              	.LVL75:
 884              	.L73:
  84:.\Generated_Source\PSoC4/I2C_bus_I2C_MASTER.c **** 
 885              		.loc 1 84 0
 886 0044 0426     		mov	r6, #4
 887 0046 00E0     		b	.L68
ARM GAS  C:\Users\username\AppData\Local\Temp\cc0FlDXj.s 			page 35


 888              	.LVL76:
 889              	.L75:
 890 0048 0426     		mov	r6, #4
 891              	.LVL77:
 892              	.L68:
 109:.\Generated_Source\PSoC4/I2C_bus_I2C_MASTER.c ****     {
 893              		.loc 1 109 0
 894 004a 002E     		cmp	r6, #0
 895 004c 2BD1     		bne	.L71
 117:.\Generated_Source\PSoC4/I2C_bus_I2C_MASTER.c ****         I2C_bus_mstrWrBufIndexTmp = 0u;
 896              		.loc 1 117 0
 897 004e 2822     		mov	r2, #40
 898 0050 184B     		ldr	r3, .L76
 899 0052 1A70     		strb	r2, [r3]
 118:.\Generated_Source\PSoC4/I2C_bus_I2C_MASTER.c ****         I2C_bus_mstrWrBufIndex    = 0u;
 900              		.loc 1 118 0
 901 0054 0023     		mov	r3, #0
 902 0056 1A4A     		ldr	r2, .L76+12
 903 0058 1360     		str	r3, [r2]
 119:.\Generated_Source\PSoC4/I2C_bus_I2C_MASTER.c ****         I2C_bus_mstrWrBufSize     = cnt;
 904              		.loc 1 119 0
 905 005a 1A4A     		ldr	r2, .L76+16
 906 005c 1360     		str	r3, [r2]
 120:.\Generated_Source\PSoC4/I2C_bus_I2C_MASTER.c ****         I2C_bus_mstrWrBufPtr      = (volatile uint8 *) wrData;
 907              		.loc 1 120 0
 908 005e 1A4B     		ldr	r3, .L76+20
 909 0060 1F60     		str	r7, [r3]
 121:.\Generated_Source\PSoC4/I2C_bus_I2C_MASTER.c ****         I2C_bus_mstrControl       = (uint8) mode;
 910              		.loc 1 121 0
 911 0062 1A4B     		ldr	r3, .L76+24
 912 0064 1C60     		str	r4, [r3]
 122:.\Generated_Source\PSoC4/I2C_bus_I2C_MASTER.c **** 
 913              		.loc 1 122 0
 914 0066 EAB2     		uxtb	r2, r5
 915 0068 194B     		ldr	r3, .L76+28
 916 006a 1A70     		strb	r2, [r3]
 124:.\Generated_Source\PSoC4/I2C_bus_I2C_MASTER.c **** 
 917              		.loc 1 124 0
 918 006c 019B     		ldr	r3, [sp, #4]
 919 006e 5C00     		lsl	r4, r3, #1
 920              	.LVL78:
 921 0070 FF23     		mov	r3, #255
 922 0072 1C40     		and	r4, r3
 923              	.LVL79:
 126:.\Generated_Source\PSoC4/I2C_bus_I2C_MASTER.c **** 
 924              		.loc 1 126 0
 925 0074 114A     		ldr	r2, .L76+8
 926 0076 1388     		ldrh	r3, [r2]
 927 0078 0221     		mov	r1, #2
 928 007a 8B43     		bic	r3, r1
 929 007c 1380     		strh	r3, [r2]
 128:.\Generated_Source\PSoC4/I2C_bus_I2C_MASTER.c ****         I2C_bus_ClearTxInterruptSource(I2C_bus_INTR_TX_UNDERFLOW);
 930              		.loc 1 128 0
 931 007e 154A     		ldr	r2, .L76+32
 932 0080 154B     		ldr	r3, .L76+36
 933 0082 1A60     		str	r2, [r3]
 934              	.LVL80:
ARM GAS  C:\Users\username\AppData\Local\Temp\cc0FlDXj.s 			page 36


 129:.\Generated_Source\PSoC4/I2C_bus_I2C_MASTER.c **** 
 935              		.loc 1 129 0
 936 0084 4023     		mov	r3, #64
 937 0086 154A     		ldr	r2, .L76+40
 938 0088 1360     		str	r3, [r2]
 134:.\Generated_Source\PSoC4/I2C_bus_I2C_MASTER.c **** 
 939              		.loc 1 134 0
 940 008a 154A     		ldr	r2, .L76+44
 941 008c 1360     		str	r3, [r2]
 137:.\Generated_Source\PSoC4/I2C_bus_I2C_MASTER.c ****         {
 942              		.loc 1 137 0
 943 008e EB07     		lsl	r3, r5, #31
 944 0090 04D5     		bpl	.L72
 139:.\Generated_Source\PSoC4/I2C_bus_I2C_MASTER.c ****             I2C_bus_TX_FIFO_WR_REG = slaveAddress;
 945              		.loc 1 139 0
 946 0092 FFF7FEFF 		bl	I2C_bus_I2CReStartGeneration
 947              	.LVL81:
 140:.\Generated_Source\PSoC4/I2C_bus_I2C_MASTER.c ****         }
 948              		.loc 1 140 0
 949 0096 134B     		ldr	r3, .L76+48
 950 0098 1C60     		str	r4, [r3]
 951 009a 04E0     		b	.L71
 952              	.L72:
 144:.\Generated_Source\PSoC4/I2C_bus_I2C_MASTER.c ****             I2C_bus_I2C_MASTER_GENERATE_START;
 953              		.loc 1 144 0
 954 009c 114B     		ldr	r3, .L76+48
 955 009e 1C60     		str	r4, [r3]
 145:.\Generated_Source\PSoC4/I2C_bus_I2C_MASTER.c ****         }
 956              		.loc 1 145 0
 957 00a0 0222     		mov	r2, #2
 958 00a2 114B     		ldr	r3, .L76+52
 959 00a4 1A60     		str	r2, [r3]
 960              	.LVL82:
 961              	.L71:
 149:.\Generated_Source\PSoC4/I2C_bus_I2C_MASTER.c **** 
 962              		.loc 1 149 0
 963 00a6 0A20     		mov	r0, #10
 964 00a8 FFF7FEFF 		bl	CyIntEnable
 965              	.LVL83:
 152:.\Generated_Source\PSoC4/I2C_bus_I2C_MASTER.c **** 
 966              		.loc 1 152 0
 967 00ac 301C     		mov	r0, r6
 968 00ae 03B0     		add	sp, sp, #12
 969              		@ sp needed
 970              	.LVL84:
 971              	.LVL85:
 972              	.LVL86:
 973 00b0 F0BD     		pop	{r4, r5, r6, r7, pc}
 974              	.L77:
 975 00b2 C046     		.align	2
 976              	.L76:
 977 00b4 00000000 		.word	I2C_bus_state
 978 00b8 64002540 		.word	1076166756
 979 00bc 00000000 		.word	I2C_bus_mstrStatus
 980 00c0 00000000 		.word	I2C_bus_mstrWrBufIndexTmp
 981 00c4 00000000 		.word	I2C_bus_mstrWrBufIndex
 982 00c8 00000000 		.word	I2C_bus_mstrWrBufSize
ARM GAS  C:\Users\username\AppData\Local\Temp\cc0FlDXj.s 			page 37


 983 00cc 00000000 		.word	I2C_bus_mstrWrBufPtr
 984 00d0 00000000 		.word	I2C_bus_mstrControl
 985 00d4 17030000 		.word	791
 986 00d8 000F2540 		.word	1076170496
 987 00dc 800F2540 		.word	1076170624
 988 00e0 880F2540 		.word	1076170632
 989 00e4 40022540 		.word	1076167232
 990 00e8 68002540 		.word	1076166760
 991              		.cfi_endproc
 992              	.LFE2:
 993              		.size	I2C_bus_I2CMasterWriteBuf, .-I2C_bus_I2CMasterWriteBuf
 994              		.section	.text.I2C_bus_I2CMasterReadBuf,"ax",%progbits
 995              		.align	2
 996              		.global	I2C_bus_I2CMasterReadBuf
 997              		.code	16
 998              		.thumb_func
 999              		.type	I2C_bus_I2CMasterReadBuf, %function
 1000              	I2C_bus_I2CMasterReadBuf:
 1001              	.LFB3:
 188:.\Generated_Source\PSoC4/I2C_bus_I2C_MASTER.c ****     uint32 errStatus;
 1002              		.loc 1 188 0
 1003              		.cfi_startproc
 1004              	.LVL87:
 1005 0000 F0B5     		push	{r4, r5, r6, r7, lr}
 1006              		.cfi_def_cfa_offset 20
 1007              		.cfi_offset 4, -20
 1008              		.cfi_offset 5, -16
 1009              		.cfi_offset 6, -12
 1010              		.cfi_offset 7, -8
 1011              		.cfi_offset 14, -4
 1012 0002 83B0     		sub	sp, sp, #12
 1013              		.cfi_def_cfa_offset 32
 1014 0004 0190     		str	r0, [sp, #4]
 1015 0006 0C1C     		mov	r4, r1
 1016 0008 171C     		mov	r7, r2
 1017 000a 1D1C     		mov	r5, r3
 1018              	.LVL88:
 193:.\Generated_Source\PSoC4/I2C_bus_I2C_MASTER.c ****     {
 1019              		.loc 1 193 0
 1020 000c 0029     		cmp	r1, #0
 1021 000e 19D0     		beq	.L86
 196:.\Generated_Source\PSoC4/I2C_bus_I2C_MASTER.c ****         {
 1022              		.loc 1 196 0
 1023 0010 2D4B     		ldr	r3, .L89
 1024              	.LVL89:
 1025 0012 1B78     		ldrb	r3, [r3]
 1026 0014 102B     		cmp	r3, #16
 1027 0016 0AD1     		bne	.L80
 198:.\Generated_Source\PSoC4/I2C_bus_I2C_MASTER.c **** 
 1028              		.loc 1 198 0
 1029 0018 0A20     		mov	r0, #10
 1030              	.LVL90:
 1031 001a FFF7FEFF 		bl	CyIntDisable
 1032              	.LVL91:
 201:.\Generated_Source\PSoC4/I2C_bus_I2C_MASTER.c ****                             I2C_bus_I2C_MSTR_BUS_BUSY : I2C_bus_I2C_MSTR_NO_ERROR;
 1033              		.loc 1 201 0
 1034 001e 2B4B     		ldr	r3, .L89+4
ARM GAS  C:\Users\username\AppData\Local\Temp\cc0FlDXj.s 			page 38


 1035 0020 1B68     		ldr	r3, [r3]
 1036 0022 DB07     		lsl	r3, r3, #31
 1037 0024 01D5     		bpl	.L87
 1038 0026 0826     		mov	r6, #8
 1039 0028 0FE0     		b	.L79
 1040              	.L87:
 1041 002a 0026     		mov	r6, #0
 1042              	.LVL92:
 1043 002c 0DE0     		b	.L79
 1044              	.LVL93:
 1045              	.L80:
 204:.\Generated_Source\PSoC4/I2C_bus_I2C_MASTER.c ****         {
 1046              		.loc 1 204 0
 1047 002e 264B     		ldr	r3, .L89
 1048 0030 1B78     		ldrb	r3, [r3]
 1049 0032 602B     		cmp	r3, #96
 1050 0034 08D1     		bne	.L88
 206:.\Generated_Source\PSoC4/I2C_bus_I2C_MASTER.c ****                               errStatus  =  I2C_bus_I2C_MSTR_NO_ERROR;
 1051              		.loc 1 206 0
 1052 0036 264A     		ldr	r2, .L89+8
 1053              	.LVL94:
 1054 0038 1388     		ldrh	r3, [r2]
 1055 003a 0821     		mov	r1, #8
 1056              	.LVL95:
 1057 003c 8B43     		bic	r3, r1
 1058 003e 1380     		strh	r3, [r2]
 1059              	.LVL96:
 207:.\Generated_Source\PSoC4/I2C_bus_I2C_MASTER.c ****         }
 1060              		.loc 1 207 0
 1061 0040 0026     		mov	r6, #0
 1062 0042 02E0     		b	.L79
 1063              	.LVL97:
 1064              	.L86:
 191:.\Generated_Source\PSoC4/I2C_bus_I2C_MASTER.c **** 
 1065              		.loc 1 191 0
 1066 0044 0426     		mov	r6, #4
 1067 0046 00E0     		b	.L79
 1068              	.LVL98:
 1069              	.L88:
 1070 0048 0426     		mov	r6, #4
 1071              	.LVL99:
 1072              	.L79:
 216:.\Generated_Source\PSoC4/I2C_bus_I2C_MASTER.c ****     {
 1073              		.loc 1 216 0
 1074 004a 002E     		cmp	r6, #0
 1075 004c 35D1     		bne	.L82
 224:.\Generated_Source\PSoC4/I2C_bus_I2C_MASTER.c ****         I2C_bus_mstrRdBufIndex = 0u;
 1076              		.loc 1 224 0
 1077 004e 2922     		mov	r2, #41
 1078 0050 1D4B     		ldr	r3, .L89
 1079 0052 1A70     		strb	r2, [r3]
 225:.\Generated_Source\PSoC4/I2C_bus_I2C_MASTER.c ****         I2C_bus_mstrRdBufSize  = cnt;
 1080              		.loc 1 225 0
 1081 0054 0022     		mov	r2, #0
 1082 0056 1F4B     		ldr	r3, .L89+12
 1083 0058 1A60     		str	r2, [r3]
 226:.\Generated_Source\PSoC4/I2C_bus_I2C_MASTER.c ****         I2C_bus_mstrRdBufPtr   = (volatile uint8 *) rdData;
ARM GAS  C:\Users\username\AppData\Local\Temp\cc0FlDXj.s 			page 39


 1084              		.loc 1 226 0
 1085 005a 1F4A     		ldr	r2, .L89+16
 1086 005c 1760     		str	r7, [r2]
 227:.\Generated_Source\PSoC4/I2C_bus_I2C_MASTER.c ****         I2C_bus_mstrControl    = (uint8) mode;
 1087              		.loc 1 227 0
 1088 005e 1F4B     		ldr	r3, .L89+20
 1089 0060 1C60     		str	r4, [r3]
 228:.\Generated_Source\PSoC4/I2C_bus_I2C_MASTER.c **** 
 1090              		.loc 1 228 0
 1091 0062 EBB2     		uxtb	r3, r5
 1092 0064 1E49     		ldr	r1, .L89+24
 1093 0066 0B70     		strb	r3, [r1]
 230:.\Generated_Source\PSoC4/I2C_bus_I2C_MASTER.c **** 
 1094              		.loc 1 230 0
 1095 0068 019B     		ldr	r3, [sp, #4]
 1096 006a 5C00     		lsl	r4, r3, #1
 1097              	.LVL100:
 1098 006c FF23     		mov	r3, #255
 1099 006e 1C40     		and	r4, r3
 1100 0070 0120     		mov	r0, #1
 1101 0072 0443     		orr	r4, r0
 1102              	.LVL101:
 232:.\Generated_Source\PSoC4/I2C_bus_I2C_MASTER.c **** 
 1103              		.loc 1 232 0
 1104 0074 1649     		ldr	r1, .L89+8
 1105 0076 0B88     		ldrh	r3, [r1]
 1106 0078 8343     		bic	r3, r0
 1107 007a 0B80     		strh	r3, [r1]
 234:.\Generated_Source\PSoC4/I2C_bus_I2C_MASTER.c **** 
 1108              		.loc 1 234 0
 1109 007c 1949     		ldr	r1, .L89+28
 1110 007e 1A4B     		ldr	r3, .L89+32
 1111 0080 1960     		str	r1, [r3]
 1112              	.LVL102:
 239:.\Generated_Source\PSoC4/I2C_bus_I2C_MASTER.c ****         {
 1113              		.loc 1 239 0
 1114 0082 1368     		ldr	r3, [r2]
 1115 0084 072B     		cmp	r3, #7
 1116 0086 03D8     		bhi	.L83
 242:.\Generated_Source\PSoC4/I2C_bus_I2C_MASTER.c ****         }
 1117              		.loc 1 242 0
 1118 0088 0422     		mov	r2, #4
 1119 008a 184B     		ldr	r3, .L89+36
 1120 008c 1A60     		str	r2, [r3]
 1121 008e 08E0     		b	.L84
 1122              	.L83:
 247:.\Generated_Source\PSoC4/I2C_bus_I2C_MASTER.c ****             I2C_bus_SetRxInterruptMode(I2C_bus_INTR_RX_FULL);
 1123              		.loc 1 247 0
 1124 0090 174A     		ldr	r2, .L89+40
 1125 0092 1368     		ldr	r3, [r2]
 1126 0094 8021     		mov	r1, #128
 1127 0096 4900     		lsl	r1, r1, #1
 1128 0098 0B43     		orr	r3, r1
 1129 009a 1360     		str	r3, [r2]
 248:.\Generated_Source\PSoC4/I2C_bus_I2C_MASTER.c ****         }
 1130              		.loc 1 248 0
 1131 009c 0822     		mov	r2, #8
ARM GAS  C:\Users\username\AppData\Local\Temp\cc0FlDXj.s 			page 40


 1132 009e 134B     		ldr	r3, .L89+36
 1133 00a0 1A60     		str	r2, [r3]
 1134              	.L84:
 252:.\Generated_Source\PSoC4/I2C_bus_I2C_MASTER.c ****         {
 1135              		.loc 1 252 0
 1136 00a2 EB07     		lsl	r3, r5, #31
 1137 00a4 04D5     		bpl	.L85
 254:.\Generated_Source\PSoC4/I2C_bus_I2C_MASTER.c ****             I2C_bus_TX_FIFO_WR_REG = (slaveAddress);
 1138              		.loc 1 254 0
 1139 00a6 FFF7FEFF 		bl	I2C_bus_I2CReStartGeneration
 1140              	.LVL103:
 255:.\Generated_Source\PSoC4/I2C_bus_I2C_MASTER.c ****         }
 1141              		.loc 1 255 0
 1142 00aa 124B     		ldr	r3, .L89+44
 1143 00ac 1C60     		str	r4, [r3]
 1144 00ae 04E0     		b	.L82
 1145              	.L85:
 259:.\Generated_Source\PSoC4/I2C_bus_I2C_MASTER.c ****             I2C_bus_I2C_MASTER_GENERATE_START;
 1146              		.loc 1 259 0
 1147 00b0 104B     		ldr	r3, .L89+44
 1148 00b2 1C60     		str	r4, [r3]
 260:.\Generated_Source\PSoC4/I2C_bus_I2C_MASTER.c ****         }
 1149              		.loc 1 260 0
 1150 00b4 0222     		mov	r2, #2
 1151 00b6 104B     		ldr	r3, .L89+48
 1152 00b8 1A60     		str	r2, [r3]
 1153              	.LVL104:
 1154              	.L82:
 264:.\Generated_Source\PSoC4/I2C_bus_I2C_MASTER.c **** 
 1155              		.loc 1 264 0
 1156 00ba 0A20     		mov	r0, #10
 1157 00bc FFF7FEFF 		bl	CyIntEnable
 1158              	.LVL105:
 267:.\Generated_Source\PSoC4/I2C_bus_I2C_MASTER.c **** 
 1159              		.loc 1 267 0
 1160 00c0 301C     		mov	r0, r6
 1161 00c2 03B0     		add	sp, sp, #12
 1162              		@ sp needed
 1163              	.LVL106:
 1164              	.LVL107:
 1165              	.LVL108:
 1166 00c4 F0BD     		pop	{r4, r5, r6, r7, pc}
 1167              	.L90:
 1168 00c6 C046     		.align	2
 1169              	.L89:
 1170 00c8 00000000 		.word	I2C_bus_state
 1171 00cc 64002540 		.word	1076166756
 1172 00d0 00000000 		.word	I2C_bus_mstrStatus
 1173 00d4 00000000 		.word	I2C_bus_mstrRdBufIndex
 1174 00d8 00000000 		.word	I2C_bus_mstrRdBufSize
 1175 00dc 00000000 		.word	I2C_bus_mstrRdBufPtr
 1176 00e0 00000000 		.word	I2C_bus_mstrControl
 1177 00e4 17030000 		.word	791
 1178 00e8 000F2540 		.word	1076170496
 1179 00ec C80F2540 		.word	1076170696
 1180 00f0 60002540 		.word	1076166752
 1181 00f4 40022540 		.word	1076167232
ARM GAS  C:\Users\username\AppData\Local\Temp\cc0FlDXj.s 			page 41


 1182 00f8 68002540 		.word	1076166760
 1183              		.cfi_endproc
 1184              	.LFE3:
 1185              		.size	I2C_bus_I2CMasterReadBuf, .-I2C_bus_I2CMasterReadBuf
 1186              		.section	.text.I2C_bus_I2CMasterSendRestart,"ax",%progbits
 1187              		.align	2
 1188              		.global	I2C_bus_I2CMasterSendRestart
 1189              		.code	16
 1190              		.thumb_func
 1191              		.type	I2C_bus_I2CMasterSendRestart, %function
 1192              	I2C_bus_I2CMasterSendRestart:
 1193              	.LFB5:
 410:.\Generated_Source\PSoC4/I2C_bus_I2C_MASTER.c ****     uint32 resetIp;
 1194              		.loc 1 410 0
 1195              		.cfi_startproc
 1196              	.LVL109:
 1197 0000 10B5     		push	{r4, lr}
 1198              		.cfi_def_cfa_offset 8
 1199              		.cfi_offset 4, -8
 1200              		.cfi_offset 14, -4
 1201              	.LVL110:
 418:.\Generated_Source\PSoC4/I2C_bus_I2C_MASTER.c ****     {
 1202              		.loc 1 418 0
 1203 0002 2A4B     		ldr	r3, .L102
 1204 0004 1B78     		ldrb	r3, [r3]
 1205 0006 9B06     		lsl	r3, r3, #26
 1206 0008 4DD5     		bpl	.L99
 420:.\Generated_Source\PSoC4/I2C_bus_I2C_MASTER.c **** 
 1207              		.loc 1 420 0
 1208 000a 4000     		lsl	r0, r0, #1
 1209              	.LVL111:
 1210 000c FF24     		mov	r4, #255
 1211 000e 0440     		and	r4, r0
 1212              	.LVL112:
 422:.\Generated_Source\PSoC4/I2C_bus_I2C_MASTER.c ****         {
 1213              		.loc 1 422 0
 1214 0010 0029     		cmp	r1, #0
 1215 0012 03D1     		bne	.L93
 424:.\Generated_Source\PSoC4/I2C_bus_I2C_MASTER.c ****         }
 1216              		.loc 1 424 0
 1217 0014 2422     		mov	r2, #36
 1218 0016 254B     		ldr	r3, .L102
 1219 0018 1A70     		strb	r2, [r3]
 1220 001a 04E0     		b	.L94
 1221              	.L93:
 428:.\Generated_Source\PSoC4/I2C_bus_I2C_MASTER.c ****                       slaveAddress |= I2C_bus_I2C_READ_FLAG;
 1222              		.loc 1 428 0
 1223 001c 2522     		mov	r2, #37
 1224 001e 234B     		ldr	r3, .L102
 1225 0020 1A70     		strb	r2, [r3]
 429:.\Generated_Source\PSoC4/I2C_bus_I2C_MASTER.c ****         }
 1226              		.loc 1 429 0
 1227 0022 0123     		mov	r3, #1
 1228 0024 1C43     		orr	r4, r3
 1229              	.LVL113:
 1230              	.L94:
 435:.\Generated_Source\PSoC4/I2C_bus_I2C_MASTER.c **** 
ARM GAS  C:\Users\username\AppData\Local\Temp\cc0FlDXj.s 			page 42


 1231              		.loc 1 435 0
 1232 0026 224A     		ldr	r2, .L102+4
 1233 0028 224B     		ldr	r3, .L102+8
 1234 002a 1A60     		str	r2, [r3]
 441:.\Generated_Source\PSoC4/I2C_bus_I2C_MASTER.c **** 
 1235              		.loc 1 441 0
 1236 002c FFF7FEFF 		bl	I2C_bus_I2CReStartGeneration
 1237              	.LVL114:
 1238              	.L95:
 443:.\Generated_Source\PSoC4/I2C_bus_I2C_MASTER.c ****         {
 1239              		.loc 1 443 0 discriminator 1
 1240 0030 214B     		ldr	r3, .L102+12
 1241 0032 1B68     		ldr	r3, [r3]
 1242 0034 DB07     		lsl	r3, r3, #31
 1243 0036 FBD4     		bmi	.L95
 449:.\Generated_Source\PSoC4/I2C_bus_I2C_MASTER.c **** 
 1244              		.loc 1 449 0
 1245 0038 204B     		ldr	r3, .L102+16
 1246 003a 1C60     		str	r4, [r3]
 1247              	.L96:
 452:.\Generated_Source\PSoC4/I2C_bus_I2C_MASTER.c ****                                                   I2C_bus_INTR_MASTER_I2C_NACK     |
 1248              		.loc 1 452 0 discriminator 1
 1249 003c 1D4B     		ldr	r3, .L102+8
 1250 003e 1A68     		ldr	r2, [r3]
 1251 0040 0823     		mov	r3, #8
 1252 0042 FF33     		add	r3, r3, #255
 1253 0044 1A42     		tst	r2, r3
 1254 0046 F9D0     		beq	.L96
 461:.\Generated_Source\PSoC4/I2C_bus_I2C_MASTER.c ****         {
 1255              		.loc 1 461 0
 1256 0048 1A4B     		ldr	r3, .L102+8
 1257 004a 1B68     		ldr	r3, [r3]
 1258 004c 5B07     		lsl	r3, r3, #29
 1259 004e 14D4     		bmi	.L100
 465:.\Generated_Source\PSoC4/I2C_bus_I2C_MASTER.c ****         {
 1260              		.loc 1 465 0
 1261 0050 184B     		ldr	r3, .L102+8
 1262 0052 1B68     		ldr	r3, [r3]
 1263 0054 9B07     		lsl	r3, r3, #30
 1264 0056 13D4     		bmi	.L101
 469:.\Generated_Source\PSoC4/I2C_bus_I2C_MASTER.c ****         {
 1265              		.loc 1 469 0
 1266 0058 164B     		ldr	r3, .L102+8
 1267 005a 1B68     		ldr	r3, [r3]
 1268 005c DB07     		lsl	r3, r3, #31
 1269 005e 05D5     		bpl	.L98
 471:.\Generated_Source\PSoC4/I2C_bus_I2C_MASTER.c ****                          errStatus = I2C_bus_I2C_MSTR_ERR_ARB_LOST;
 1270              		.loc 1 471 0
 1271 0060 1022     		mov	r2, #16
 1272 0062 124B     		ldr	r3, .L102
 1273 0064 1A70     		strb	r2, [r3]
 1274              	.LVL115:
 472:.\Generated_Source\PSoC4/I2C_bus_I2C_MASTER.c ****                          resetIp   = I2C_bus_I2C_RESET_ERROR;
 1275              		.loc 1 472 0
 1276 0066 0120     		mov	r0, #1
 473:.\Generated_Source\PSoC4/I2C_bus_I2C_MASTER.c ****         }
 1277              		.loc 1 473 0
ARM GAS  C:\Users\username\AppData\Local\Temp\cc0FlDXj.s 			page 43


 1278 0068 0121     		mov	r1, #1
 1279 006a 0BE0     		b	.L97
 1280              	.LVL116:
 1281              	.L98:
 477:.\Generated_Source\PSoC4/I2C_bus_I2C_MASTER.c ****                          errStatus = I2C_bus_I2C_MSTR_ERR_BUS_ERR;
 1282              		.loc 1 477 0
 1283 006c 1022     		mov	r2, #16
 1284 006e 0F4B     		ldr	r3, .L102
 1285 0070 1A70     		strb	r2, [r3]
 1286              	.LVL117:
 478:.\Generated_Source\PSoC4/I2C_bus_I2C_MASTER.c ****                          resetIp   = I2C_bus_I2C_RESET_ERROR;
 1287              		.loc 1 478 0
 1288 0072 8020     		mov	r0, #128
 1289 0074 4000     		lsl	r0, r0, #1
 479:.\Generated_Source\PSoC4/I2C_bus_I2C_MASTER.c ****         }
 1290              		.loc 1 479 0
 1291 0076 0121     		mov	r1, #1
 1292 0078 04E0     		b	.L97
 1293              	.LVL118:
 1294              	.L100:
 463:.\Generated_Source\PSoC4/I2C_bus_I2C_MASTER.c ****         }
 1295              		.loc 1 463 0
 1296 007a 0020     		mov	r0, #0
 414:.\Generated_Source\PSoC4/I2C_bus_I2C_MASTER.c ****     errStatus = I2C_bus_I2C_MSTR_NOT_READY;
 1297              		.loc 1 414 0
 1298 007c 0021     		mov	r1, #0
 1299 007e 01E0     		b	.L97
 1300              	.L101:
 467:.\Generated_Source\PSoC4/I2C_bus_I2C_MASTER.c ****         }
 1301              		.loc 1 467 0
 1302 0080 0220     		mov	r0, #2
 414:.\Generated_Source\PSoC4/I2C_bus_I2C_MASTER.c ****     errStatus = I2C_bus_I2C_MSTR_NOT_READY;
 1303              		.loc 1 414 0
 1304 0082 0021     		mov	r1, #0
 1305              	.LVL119:
 1306              	.L97:
 482:.\Generated_Source\PSoC4/I2C_bus_I2C_MASTER.c ****                                                     I2C_bus_INTR_MASTER_I2C_NACK     |
 1307              		.loc 1 482 0
 1308 0084 0822     		mov	r2, #8
 1309 0086 FF32     		add	r2, r2, #255
 1310 0088 0A4B     		ldr	r3, .L102+8
 1311 008a 1A60     		str	r2, [r3]
 488:.\Generated_Source\PSoC4/I2C_bus_I2C_MASTER.c ****         {
 1312              		.loc 1 488 0
 1313 008c 0029     		cmp	r1, #0
 1314 008e 0BD0     		beq	.L92
 490:.\Generated_Source\PSoC4/I2C_bus_I2C_MASTER.c ****         }
 1315              		.loc 1 490 0
 1316 0090 0B4A     		ldr	r2, .L102+20
 1317 0092 1368     		ldr	r3, [r2]
 1318 0094 5B00     		lsl	r3, r3, #1
 1319 0096 5B08     		lsr	r3, r3, #1
 1320 0098 1360     		str	r3, [r2]
 1321 009a 1368     		ldr	r3, [r2]
 1322 009c 8021     		mov	r1, #128
 1323              	.LVL120:
 1324 009e 0906     		lsl	r1, r1, #24
ARM GAS  C:\Users\username\AppData\Local\Temp\cc0FlDXj.s 			page 44


 1325 00a0 0B43     		orr	r3, r1
 1326 00a2 1360     		str	r3, [r2]
 1327 00a4 00E0     		b	.L92
 1328              	.LVL121:
 1329              	.L99:
 415:.\Generated_Source\PSoC4/I2C_bus_I2C_MASTER.c **** 
 1330              		.loc 1 415 0
 1331 00a6 0420     		mov	r0, #4
 1332              	.LVL122:
 1333              	.L92:
 495:.\Generated_Source\PSoC4/I2C_bus_I2C_MASTER.c **** 
 1334              		.loc 1 495 0
 1335              		@ sp needed
 1336 00a8 10BD     		pop	{r4, pc}
 1337              	.L103:
 1338 00aa C046     		.align	2
 1339              	.L102:
 1340 00ac 00000000 		.word	I2C_bus_state
 1341 00b0 17030000 		.word	791
 1342 00b4 000F2540 		.word	1076170496
 1343 00b8 68002540 		.word	1076166760
 1344 00bc 40022540 		.word	1076167232
 1345 00c0 00002540 		.word	1076166656
 1346              		.cfi_endproc
 1347              	.LFE5:
 1348              		.size	I2C_bus_I2CMasterSendRestart, .-I2C_bus_I2CMasterSendRestart
 1349              		.comm	I2C_bus_mstrWrBufIndexTmp,4,4
 1350              		.comm	I2C_bus_mstrWrBufIndex,4,4
 1351              		.comm	I2C_bus_mstrWrBufSize,4,4
 1352              		.comm	I2C_bus_mstrWrBufPtr,4,4
 1353              		.comm	I2C_bus_mstrRdBufIndex,4,4
 1354              		.comm	I2C_bus_mstrRdBufSize,4,4
 1355              		.comm	I2C_bus_mstrRdBufPtr,4,4
 1356              		.comm	I2C_bus_mstrControl,1,1
 1357              		.comm	I2C_bus_mstrStatus,2,2
 1358              		.text
 1359              	.Letext0:
 1360              		.file 2 "Generated_Source\\PSoC4/cytypes.h"
 1361              		.file 3 ".\\Generated_Source\\PSoC4\\I2C_bus_I2C_PVT.h"
 1362              		.file 4 "Generated_Source\\PSoC4/CyLib.h"
 1363              		.section	.debug_info,"",%progbits
 1364              	.Ldebug_info0:
 1365 0000 9C050000 		.4byte	0x59c
 1366 0004 0400     		.2byte	0x4
 1367 0006 00000000 		.4byte	.Ldebug_abbrev0
 1368 000a 04       		.byte	0x4
 1369 000b 01       		.uleb128 0x1
 1370 000c 1F030000 		.4byte	.LASF51
 1371 0010 01       		.byte	0x1
 1372 0011 F0000000 		.4byte	.LASF52
 1373 0015 8C010000 		.4byte	.LASF53
 1374 0019 00000000 		.4byte	.Ldebug_ranges0+0
 1375 001d 00000000 		.4byte	0
 1376 0021 00000000 		.4byte	.Ldebug_line0
 1377 0025 02       		.uleb128 0x2
 1378 0026 01       		.byte	0x1
 1379 0027 06       		.byte	0x6
ARM GAS  C:\Users\username\AppData\Local\Temp\cc0FlDXj.s 			page 45


 1380 0028 11040000 		.4byte	.LASF0
 1381 002c 02       		.uleb128 0x2
 1382 002d 01       		.byte	0x1
 1383 002e 08       		.byte	0x8
 1384 002f 44010000 		.4byte	.LASF1
 1385 0033 02       		.uleb128 0x2
 1386 0034 02       		.byte	0x2
 1387 0035 05       		.byte	0x5
 1388 0036 BA030000 		.4byte	.LASF2
 1389 003a 02       		.uleb128 0x2
 1390 003b 02       		.byte	0x2
 1391 003c 07       		.byte	0x7
 1392 003d BF000000 		.4byte	.LASF3
 1393 0041 02       		.uleb128 0x2
 1394 0042 04       		.byte	0x4
 1395 0043 05       		.byte	0x5
 1396 0044 E7030000 		.4byte	.LASF4
 1397 0048 02       		.uleb128 0x2
 1398 0049 04       		.byte	0x4
 1399 004a 07       		.byte	0x7
 1400 004b 52010000 		.4byte	.LASF5
 1401 004f 02       		.uleb128 0x2
 1402 0050 08       		.byte	0x8
 1403 0051 05       		.byte	0x5
 1404 0052 F7020000 		.4byte	.LASF6
 1405 0056 02       		.uleb128 0x2
 1406 0057 08       		.byte	0x8
 1407 0058 07       		.byte	0x7
 1408 0059 AD020000 		.4byte	.LASF7
 1409 005d 03       		.uleb128 0x3
 1410 005e 04       		.byte	0x4
 1411 005f 05       		.byte	0x5
 1412 0060 696E7400 		.ascii	"int\000"
 1413 0064 02       		.uleb128 0x2
 1414 0065 04       		.byte	0x4
 1415 0066 07       		.byte	0x7
 1416 0067 99020000 		.4byte	.LASF8
 1417 006b 04       		.uleb128 0x4
 1418 006c 64010000 		.4byte	.LASF9
 1419 0070 02       		.byte	0x2
 1420 0071 C2       		.byte	0xc2
 1421 0072 2C000000 		.4byte	0x2c
 1422 0076 04       		.uleb128 0x4
 1423 0077 6C020000 		.4byte	.LASF10
 1424 007b 02       		.byte	0x2
 1425 007c C3       		.byte	0xc3
 1426 007d 3A000000 		.4byte	0x3a
 1427 0081 04       		.uleb128 0x4
 1428 0082 92020000 		.4byte	.LASF11
 1429 0086 02       		.byte	0x2
 1430 0087 C4       		.byte	0xc4
 1431 0088 48000000 		.4byte	0x48
 1432 008c 02       		.uleb128 0x2
 1433 008d 04       		.byte	0x4
 1434 008e 04       		.byte	0x4
 1435 008f 1E010000 		.4byte	.LASF12
 1436 0093 02       		.uleb128 0x2
ARM GAS  C:\Users\username\AppData\Local\Temp\cc0FlDXj.s 			page 46


 1437 0094 08       		.byte	0x8
 1438 0095 04       		.byte	0x4
 1439 0096 35020000 		.4byte	.LASF13
 1440 009a 02       		.uleb128 0x2
 1441 009b 01       		.byte	0x1
 1442 009c 08       		.byte	0x8
 1443 009d 1A030000 		.4byte	.LASF14
 1444 00a1 05       		.uleb128 0x5
 1445 00a2 6B000000 		.4byte	0x6b
 1446 00a6 05       		.uleb128 0x5
 1447 00a7 76000000 		.4byte	0x76
 1448 00ab 06       		.uleb128 0x6
 1449 00ac 21000000 		.4byte	.LASF15
 1450 00b0 02       		.byte	0x2
 1451 00b1 6E01     		.2byte	0x16e
 1452 00b3 B7000000 		.4byte	0xb7
 1453 00b7 05       		.uleb128 0x5
 1454 00b8 81000000 		.4byte	0x81
 1455 00bc 02       		.uleb128 0x2
 1456 00bd 04       		.byte	0x4
 1457 00be 07       		.byte	0x7
 1458 00bf E4020000 		.4byte	.LASF16
 1459 00c3 07       		.uleb128 0x7
 1460 00c4 5E000000 		.4byte	.LASF21
 1461 00c8 01       		.byte	0x1
 1462 00c9 2401     		.2byte	0x124
 1463 00cb 81000000 		.4byte	0x81
 1464 00cf 00000000 		.4byte	.LFB4
 1465 00d3 D8000000 		.4byte	.LFE4-.LFB4
 1466 00d7 01       		.uleb128 0x1
 1467 00d8 9C       		.byte	0x9c
 1468 00d9 2D010000 		.4byte	0x12d
 1469 00dd 08       		.uleb128 0x8
 1470 00de C9020000 		.4byte	.LASF17
 1471 00e2 01       		.byte	0x1
 1472 00e3 2401     		.2byte	0x124
 1473 00e5 81000000 		.4byte	0x81
 1474 00e9 00000000 		.4byte	.LLST0
 1475 00ed 08       		.uleb128 0x8
 1476 00ee 3C020000 		.4byte	.LASF18
 1477 00f2 01       		.byte	0x1
 1478 00f3 2401     		.2byte	0x124
 1479 00f5 81000000 		.4byte	0x81
 1480 00f9 6E000000 		.4byte	.LLST1
 1481 00fd 09       		.uleb128 0x9
 1482 00fe 00000000 		.4byte	.LASF19
 1483 0102 01       		.byte	0x1
 1484 0103 2601     		.2byte	0x126
 1485 0105 81000000 		.4byte	0x81
 1486 0109 A5000000 		.4byte	.LLST2
 1487 010d 09       		.uleb128 0x9
 1488 010e ED020000 		.4byte	.LASF20
 1489 0112 01       		.byte	0x1
 1490 0113 2701     		.2byte	0x127
 1491 0115 81000000 		.4byte	0x81
 1492 0119 00010000 		.4byte	.LLST3
 1493 011d 0A       		.uleb128 0xa
ARM GAS  C:\Users\username\AppData\Local\Temp\cc0FlDXj.s 			page 47


 1494 011e 1C000000 		.4byte	.LVL3
 1495 0122 81050000 		.4byte	0x581
 1496 0126 0B       		.uleb128 0xb
 1497 0127 01       		.uleb128 0x1
 1498 0128 50       		.byte	0x50
 1499 0129 01       		.uleb128 0x1
 1500 012a 3A       		.byte	0x3a
 1501 012b 00       		.byte	0
 1502 012c 00       		.byte	0
 1503 012d 07       		.uleb128 0x7
 1504 012e 44000000 		.4byte	.LASF22
 1505 0132 01       		.byte	0x1
 1506 0133 0D02     		.2byte	0x20d
 1507 0135 81000000 		.4byte	0x81
 1508 0139 00000000 		.4byte	.LFB6
 1509 013d 8C000000 		.4byte	.LFE6-.LFB6
 1510 0141 01       		.uleb128 0x1
 1511 0142 9C       		.byte	0x9c
 1512 0143 68010000 		.4byte	0x168
 1513 0147 09       		.uleb128 0x9
 1514 0148 00000000 		.4byte	.LASF19
 1515 014c 01       		.byte	0x1
 1516 014d 0F02     		.2byte	0x20f
 1517 014f 81000000 		.4byte	0x81
 1518 0153 68010000 		.4byte	.LLST4
 1519 0157 09       		.uleb128 0x9
 1520 0158 ED020000 		.4byte	.LASF20
 1521 015c 01       		.byte	0x1
 1522 015d 1002     		.2byte	0x210
 1523 015f 81000000 		.4byte	0x81
 1524 0163 93010000 		.4byte	.LLST5
 1525 0167 00       		.byte	0
 1526 0168 07       		.uleb128 0x7
 1527 0169 CC030000 		.4byte	.LASF23
 1528 016d 01       		.byte	0x1
 1529 016e 5E02     		.2byte	0x25e
 1530 0170 81000000 		.4byte	0x81
 1531 0174 00000000 		.4byte	.LFB7
 1532 0178 98000000 		.4byte	.LFE7-.LFB7
 1533 017c 01       		.uleb128 0x1
 1534 017d 9C       		.byte	0x9c
 1535 017e B3010000 		.4byte	0x1b3
 1536 0182 08       		.uleb128 0x8
 1537 0183 C4030000 		.4byte	.LASF24
 1538 0187 01       		.byte	0x1
 1539 0188 5E02     		.2byte	0x25e
 1540 018a 81000000 		.4byte	0x81
 1541 018e C9010000 		.4byte	.LLST6
 1542 0192 09       		.uleb128 0x9
 1543 0193 00000000 		.4byte	.LASF19
 1544 0197 01       		.byte	0x1
 1545 0198 6002     		.2byte	0x260
 1546 019a 81000000 		.4byte	0x81
 1547 019e 4E020000 		.4byte	.LLST7
 1548 01a2 09       		.uleb128 0x9
 1549 01a3 ED020000 		.4byte	.LASF20
 1550 01a7 01       		.byte	0x1
ARM GAS  C:\Users\username\AppData\Local\Temp\cc0FlDXj.s 			page 48


 1551 01a8 6102     		.2byte	0x261
 1552 01aa 81000000 		.4byte	0x81
 1553 01ae 9D020000 		.4byte	.LLST8
 1554 01b2 00       		.byte	0
 1555 01b3 07       		.uleb128 0x7
 1556 01b4 32040000 		.4byte	.LASF25
 1557 01b8 01       		.byte	0x1
 1558 01b9 B702     		.2byte	0x2b7
 1559 01bb 81000000 		.4byte	0x81
 1560 01bf 00000000 		.4byte	.LFB8
 1561 01c3 84000000 		.4byte	.LFE8-.LFB8
 1562 01c7 01       		.uleb128 0x1
 1563 01c8 9C       		.byte	0x9c
 1564 01c9 EE010000 		.4byte	0x1ee
 1565 01cd 08       		.uleb128 0x8
 1566 01ce 84010000 		.4byte	.LASF26
 1567 01d2 01       		.byte	0x1
 1568 01d3 B702     		.2byte	0x2b7
 1569 01d5 81000000 		.4byte	0x81
 1570 01d9 29030000 		.4byte	.LLST9
 1571 01dd 09       		.uleb128 0x9
 1572 01de C4030000 		.4byte	.LASF24
 1573 01e2 01       		.byte	0x1
 1574 01e3 B902     		.2byte	0x2b9
 1575 01e5 81000000 		.4byte	0x81
 1576 01e9 84030000 		.4byte	.LLST10
 1577 01ed 00       		.byte	0
 1578 01ee 0C       		.uleb128 0xc
 1579 01ef 24010000 		.4byte	.LASF27
 1580 01f3 01       		.byte	0x1
 1581 01f4 FE02     		.2byte	0x2fe
 1582 01f6 81000000 		.4byte	0x81
 1583 01fa 00000000 		.4byte	.LFB9
 1584 01fe 0C000000 		.4byte	.LFE9-.LFB9
 1585 0202 01       		.uleb128 0x1
 1586 0203 9C       		.byte	0x9c
 1587 0204 0C       		.uleb128 0xc
 1588 0205 F0030000 		.4byte	.LASF28
 1589 0209 01       		.byte	0x1
 1590 020a 1C03     		.2byte	0x31c
 1591 020c 81000000 		.4byte	0x81
 1592 0210 00000000 		.4byte	.LFB10
 1593 0214 0C000000 		.4byte	.LFE10-.LFB10
 1594 0218 01       		.uleb128 0x1
 1595 0219 9C       		.byte	0x9c
 1596 021a 0D       		.uleb128 0xd
 1597 021b EA010000 		.4byte	.LASF29
 1598 021f 01       		.byte	0x1
 1599 0220 3503     		.2byte	0x335
 1600 0222 00000000 		.4byte	.LFB11
 1601 0226 28000000 		.4byte	.LFE11-.LFB11
 1602 022a 01       		.uleb128 0x1
 1603 022b 9C       		.byte	0x9c
 1604 022c 53020000 		.4byte	0x253
 1605 0230 0E       		.uleb128 0xe
 1606 0231 08000000 		.4byte	.LVL50
 1607 0235 81050000 		.4byte	0x581
ARM GAS  C:\Users\username\AppData\Local\Temp\cc0FlDXj.s 			page 49


 1608 0239 43020000 		.4byte	0x243
 1609 023d 0B       		.uleb128 0xb
 1610 023e 01       		.uleb128 0x1
 1611 023f 50       		.byte	0x50
 1612 0240 01       		.uleb128 0x1
 1613 0241 3A       		.byte	0x3a
 1614 0242 00       		.byte	0
 1615 0243 0A       		.uleb128 0xa
 1616 0244 1E000000 		.4byte	.LVL51
 1617 0248 92050000 		.4byte	0x592
 1618 024c 0B       		.uleb128 0xb
 1619 024d 01       		.uleb128 0x1
 1620 024e 50       		.byte	0x50
 1621 024f 01       		.uleb128 0x1
 1622 0250 3A       		.byte	0x3a
 1623 0251 00       		.byte	0
 1624 0252 00       		.byte	0
 1625 0253 0D       		.uleb128 0xd
 1626 0254 79000000 		.4byte	.LASF30
 1627 0258 01       		.byte	0x1
 1628 0259 5303     		.2byte	0x353
 1629 025b 00000000 		.4byte	.LFB12
 1630 025f 28000000 		.4byte	.LFE12-.LFB12
 1631 0263 01       		.uleb128 0x1
 1632 0264 9C       		.byte	0x9c
 1633 0265 8C020000 		.4byte	0x28c
 1634 0269 0E       		.uleb128 0xe
 1635 026a 08000000 		.4byte	.LVL52
 1636 026e 81050000 		.4byte	0x581
 1637 0272 7C020000 		.4byte	0x27c
 1638 0276 0B       		.uleb128 0xb
 1639 0277 01       		.uleb128 0x1
 1640 0278 50       		.byte	0x50
 1641 0279 01       		.uleb128 0x1
 1642 027a 3A       		.byte	0x3a
 1643 027b 00       		.byte	0
 1644 027c 0A       		.uleb128 0xa
 1645 027d 1E000000 		.4byte	.LVL53
 1646 0281 92050000 		.4byte	0x592
 1647 0285 0B       		.uleb128 0xb
 1648 0286 01       		.uleb128 0x1
 1649 0287 50       		.byte	0x50
 1650 0288 01       		.uleb128 0x1
 1651 0289 3A       		.byte	0x3a
 1652 028a 00       		.byte	0
 1653 028b 00       		.byte	0
 1654 028c 07       		.uleb128 0x7
 1655 028d 73020000 		.4byte	.LASF31
 1656 0291 01       		.byte	0x1
 1657 0292 6F03     		.2byte	0x36f
 1658 0294 81000000 		.4byte	0x81
 1659 0298 00000000 		.4byte	.LFB13
 1660 029c 30000000 		.4byte	.LFE13-.LFB13
 1661 02a0 01       		.uleb128 0x1
 1662 02a1 9C       		.byte	0x9c
 1663 02a2 D9020000 		.4byte	0x2d9
 1664 02a6 09       		.uleb128 0x9
ARM GAS  C:\Users\username\AppData\Local\Temp\cc0FlDXj.s 			page 50


 1665 02a7 D2000000 		.4byte	.LASF32
 1666 02ab 01       		.byte	0x1
 1667 02ac 7103     		.2byte	0x371
 1668 02ae 81000000 		.4byte	0x81
 1669 02b2 BC030000 		.4byte	.LLST11
 1670 02b6 0E       		.uleb128 0xe
 1671 02b7 08000000 		.4byte	.LVL54
 1672 02bb 81050000 		.4byte	0x581
 1673 02bf C9020000 		.4byte	0x2c9
 1674 02c3 0B       		.uleb128 0xb
 1675 02c4 01       		.uleb128 0x1
 1676 02c5 50       		.byte	0x50
 1677 02c6 01       		.uleb128 0x1
 1678 02c7 3A       		.byte	0x3a
 1679 02c8 00       		.byte	0
 1680 02c9 0A       		.uleb128 0xa
 1681 02ca 22000000 		.4byte	.LVL57
 1682 02ce 92050000 		.4byte	0x592
 1683 02d2 0B       		.uleb128 0xb
 1684 02d3 01       		.uleb128 0x1
 1685 02d4 50       		.byte	0x50
 1686 02d5 01       		.uleb128 0x1
 1687 02d6 3A       		.byte	0x3a
 1688 02d7 00       		.byte	0
 1689 02d8 00       		.byte	0
 1690 02d9 07       		.uleb128 0x7
 1691 02da 4F020000 		.4byte	.LASF33
 1692 02de 01       		.byte	0x1
 1693 02df 9403     		.2byte	0x394
 1694 02e1 81000000 		.4byte	0x81
 1695 02e5 00000000 		.4byte	.LFB14
 1696 02e9 20000000 		.4byte	.LFE14-.LFB14
 1697 02ed 01       		.uleb128 0x1
 1698 02ee 9C       		.byte	0x9c
 1699 02ef 26030000 		.4byte	0x326
 1700 02f3 09       		.uleb128 0x9
 1701 02f4 D2000000 		.4byte	.LASF32
 1702 02f8 01       		.byte	0x1
 1703 02f9 9603     		.2byte	0x396
 1704 02fb 81000000 		.4byte	0x81
 1705 02ff E5030000 		.4byte	.LLST12
 1706 0303 0E       		.uleb128 0xe
 1707 0304 08000000 		.4byte	.LVL59
 1708 0308 81050000 		.4byte	0x581
 1709 030c 16030000 		.4byte	0x316
 1710 0310 0B       		.uleb128 0xb
 1711 0311 01       		.uleb128 0x1
 1712 0312 50       		.byte	0x50
 1713 0313 01       		.uleb128 0x1
 1714 0314 3A       		.byte	0x3a
 1715 0315 00       		.byte	0
 1716 0316 0A       		.uleb128 0xa
 1717 0317 18000000 		.4byte	.LVL61
 1718 031b 92050000 		.4byte	0x592
 1719 031f 0B       		.uleb128 0xb
 1720 0320 01       		.uleb128 0x1
 1721 0321 50       		.byte	0x50
ARM GAS  C:\Users\username\AppData\Local\Temp\cc0FlDXj.s 			page 51


 1722 0322 01       		.uleb128 0x1
 1723 0323 3A       		.byte	0x3a
 1724 0324 00       		.byte	0
 1725 0325 00       		.byte	0
 1726 0326 0D       		.uleb128 0xd
 1727 0327 27000000 		.4byte	.LASF34
 1728 032b 01       		.byte	0x1
 1729 032c C703     		.2byte	0x3c7
 1730 032e 00000000 		.4byte	.LFB15
 1731 0332 20000000 		.4byte	.LFE15-.LFB15
 1732 0336 01       		.uleb128 0x1
 1733 0337 9C       		.byte	0x9c
 1734 0338 4D030000 		.4byte	0x34d
 1735 033c 0F       		.uleb128 0xf
 1736 033d 636D6400 		.ascii	"cmd\000"
 1737 0341 01       		.byte	0x1
 1738 0342 FA03     		.2byte	0x3fa
 1739 0344 81000000 		.4byte	0x81
 1740 0348 03040000 		.4byte	.LLST13
 1741 034c 00       		.byte	0
 1742 034d 10       		.uleb128 0x10
 1743 034e 6A010000 		.4byte	.LASF35
 1744 0352 01       		.byte	0x1
 1745 0353 50       		.byte	0x50
 1746 0354 81000000 		.4byte	0x81
 1747 0358 00000000 		.4byte	.LFB2
 1748 035c EC000000 		.4byte	.LFE2-.LFB2
 1749 0360 01       		.uleb128 0x1
 1750 0361 9C       		.byte	0x9c
 1751 0362 DD030000 		.4byte	0x3dd
 1752 0366 11       		.uleb128 0x11
 1753 0367 C9020000 		.4byte	.LASF17
 1754 036b 01       		.byte	0x1
 1755 036c 50       		.byte	0x50
 1756 036d 81000000 		.4byte	0x81
 1757 0371 22040000 		.4byte	.LLST14
 1758 0375 11       		.uleb128 0x11
 1759 0376 A6020000 		.4byte	.LASF36
 1760 037a 01       		.byte	0x1
 1761 037b 50       		.byte	0x50
 1762 037c DD030000 		.4byte	0x3dd
 1763 0380 63040000 		.4byte	.LLST15
 1764 0384 12       		.uleb128 0x12
 1765 0385 636E7400 		.ascii	"cnt\000"
 1766 0389 01       		.byte	0x1
 1767 038a 50       		.byte	0x50
 1768 038b 81000000 		.4byte	0x81
 1769 038f CA040000 		.4byte	.LLST16
 1770 0393 11       		.uleb128 0x11
 1771 0394 C4020000 		.4byte	.LASF37
 1772 0398 01       		.byte	0x1
 1773 0399 50       		.byte	0x50
 1774 039a 81000000 		.4byte	0x81
 1775 039e 22050000 		.4byte	.LLST17
 1776 03a2 13       		.uleb128 0x13
 1777 03a3 ED020000 		.4byte	.LASF20
 1778 03a7 01       		.byte	0x1
ARM GAS  C:\Users\username\AppData\Local\Temp\cc0FlDXj.s 			page 52


 1779 03a8 52       		.byte	0x52
 1780 03a9 81000000 		.4byte	0x81
 1781 03ad 64050000 		.4byte	.LLST18
 1782 03b1 0E       		.uleb128 0xe
 1783 03b2 1E000000 		.4byte	.LVL69
 1784 03b6 81050000 		.4byte	0x581
 1785 03ba C4030000 		.4byte	0x3c4
 1786 03be 0B       		.uleb128 0xb
 1787 03bf 01       		.uleb128 0x1
 1788 03c0 50       		.byte	0x50
 1789 03c1 01       		.uleb128 0x1
 1790 03c2 3A       		.byte	0x3a
 1791 03c3 00       		.byte	0
 1792 03c4 14       		.uleb128 0x14
 1793 03c5 96000000 		.4byte	.LVL81
 1794 03c9 26030000 		.4byte	0x326
 1795 03cd 0A       		.uleb128 0xa
 1796 03ce AC000000 		.4byte	.LVL83
 1797 03d2 92050000 		.4byte	0x592
 1798 03d6 0B       		.uleb128 0xb
 1799 03d7 01       		.uleb128 0x1
 1800 03d8 50       		.byte	0x50
 1801 03d9 01       		.uleb128 0x1
 1802 03da 3A       		.byte	0x3a
 1803 03db 00       		.byte	0
 1804 03dc 00       		.byte	0
 1805 03dd 15       		.uleb128 0x15
 1806 03de 04       		.byte	0x4
 1807 03df 6B000000 		.4byte	0x6b
 1808 03e3 10       		.uleb128 0x10
 1809 03e4 08000000 		.4byte	.LASF38
 1810 03e8 01       		.byte	0x1
 1811 03e9 BB       		.byte	0xbb
 1812 03ea 81000000 		.4byte	0x81
 1813 03ee 00000000 		.4byte	.LFB3
 1814 03f2 FC000000 		.4byte	.LFE3-.LFB3
 1815 03f6 01       		.uleb128 0x1
 1816 03f7 9C       		.byte	0x9c
 1817 03f8 73040000 		.4byte	0x473
 1818 03fc 11       		.uleb128 0x11
 1819 03fd C9020000 		.4byte	.LASF17
 1820 0401 01       		.byte	0x1
 1821 0402 BB       		.byte	0xbb
 1822 0403 81000000 		.4byte	0x81
 1823 0407 BE050000 		.4byte	.LLST19
 1824 040b 11       		.uleb128 0x11
 1825 040c 8B020000 		.4byte	.LASF39
 1826 0410 01       		.byte	0x1
 1827 0411 BB       		.byte	0xbb
 1828 0412 DD030000 		.4byte	0x3dd
 1829 0416 FF050000 		.4byte	.LLST20
 1830 041a 12       		.uleb128 0x12
 1831 041b 636E7400 		.ascii	"cnt\000"
 1832 041f 01       		.byte	0x1
 1833 0420 BB       		.byte	0xbb
 1834 0421 81000000 		.4byte	0x81
 1835 0425 66060000 		.4byte	.LLST21
ARM GAS  C:\Users\username\AppData\Local\Temp\cc0FlDXj.s 			page 53


 1836 0429 11       		.uleb128 0x11
 1837 042a C4020000 		.4byte	.LASF37
 1838 042e 01       		.byte	0x1
 1839 042f BB       		.byte	0xbb
 1840 0430 81000000 		.4byte	0x81
 1841 0434 BE060000 		.4byte	.LLST22
 1842 0438 13       		.uleb128 0x13
 1843 0439 ED020000 		.4byte	.LASF20
 1844 043d 01       		.byte	0x1
 1845 043e BD       		.byte	0xbd
 1846 043f 81000000 		.4byte	0x81
 1847 0443 00070000 		.4byte	.LLST23
 1848 0447 0E       		.uleb128 0xe
 1849 0448 1E000000 		.4byte	.LVL91
 1850 044c 81050000 		.4byte	0x581
 1851 0450 5A040000 		.4byte	0x45a
 1852 0454 0B       		.uleb128 0xb
 1853 0455 01       		.uleb128 0x1
 1854 0456 50       		.byte	0x50
 1855 0457 01       		.uleb128 0x1
 1856 0458 3A       		.byte	0x3a
 1857 0459 00       		.byte	0
 1858 045a 14       		.uleb128 0x14
 1859 045b AA000000 		.4byte	.LVL103
 1860 045f 26030000 		.4byte	0x326
 1861 0463 0A       		.uleb128 0xa
 1862 0464 C0000000 		.4byte	.LVL105
 1863 0468 92050000 		.4byte	0x592
 1864 046c 0B       		.uleb128 0xb
 1865 046d 01       		.uleb128 0x1
 1866 046e 50       		.byte	0x50
 1867 046f 01       		.uleb128 0x1
 1868 0470 3A       		.byte	0x3a
 1869 0471 00       		.byte	0
 1870 0472 00       		.byte	0
 1871 0473 07       		.uleb128 0x7
 1872 0474 4C040000 		.4byte	.LASF40
 1873 0478 01       		.byte	0x1
 1874 0479 9901     		.2byte	0x199
 1875 047b 81000000 		.4byte	0x81
 1876 047f 00000000 		.4byte	.LFB5
 1877 0483 C4000000 		.4byte	.LFE5-.LFB5
 1878 0487 01       		.uleb128 0x1
 1879 0488 9C       		.byte	0x9c
 1880 0489 D7040000 		.4byte	0x4d7
 1881 048d 08       		.uleb128 0x8
 1882 048e C9020000 		.4byte	.LASF17
 1883 0492 01       		.byte	0x1
 1884 0493 9901     		.2byte	0x199
 1885 0495 81000000 		.4byte	0x81
 1886 0499 5A070000 		.4byte	.LLST24
 1887 049d 08       		.uleb128 0x8
 1888 049e 3C020000 		.4byte	.LASF18
 1889 04a2 01       		.byte	0x1
 1890 04a3 9901     		.2byte	0x199
 1891 04a5 81000000 		.4byte	0x81
 1892 04a9 91070000 		.4byte	.LLST25
ARM GAS  C:\Users\username\AppData\Local\Temp\cc0FlDXj.s 			page 54


 1893 04ad 09       		.uleb128 0x9
 1894 04ae 00000000 		.4byte	.LASF19
 1895 04b2 01       		.byte	0x1
 1896 04b3 9B01     		.2byte	0x19b
 1897 04b5 81000000 		.4byte	0x81
 1898 04b9 CB070000 		.4byte	.LLST26
 1899 04bd 09       		.uleb128 0x9
 1900 04be ED020000 		.4byte	.LASF20
 1901 04c2 01       		.byte	0x1
 1902 04c3 9C01     		.2byte	0x19c
 1903 04c5 81000000 		.4byte	0x81
 1904 04c9 26080000 		.4byte	.LLST27
 1905 04cd 14       		.uleb128 0x14
 1906 04ce 30000000 		.4byte	.LVL114
 1907 04d2 26030000 		.4byte	0x326
 1908 04d6 00       		.byte	0
 1909 04d7 16       		.uleb128 0x16
 1910 04d8 D6020000 		.4byte	.LASF41
 1911 04dc 03       		.byte	0x3
 1912 04dd 1D       		.byte	0x1d
 1913 04de A1000000 		.4byte	0xa1
 1914 04e2 17       		.uleb128 0x17
 1915 04e3 AC000000 		.4byte	.LASF42
 1916 04e7 01       		.byte	0x1
 1917 04e8 1C       		.byte	0x1c
 1918 04e9 A6000000 		.4byte	0xa6
 1919 04ed 05       		.uleb128 0x5
 1920 04ee 03       		.byte	0x3
 1921 04ef 00000000 		.4byte	I2C_bus_mstrStatus
 1922 04f3 17       		.uleb128 0x17
 1923 04f4 98000000 		.4byte	.LASF43
 1924 04f8 01       		.byte	0x1
 1925 04f9 1D       		.byte	0x1d
 1926 04fa A1000000 		.4byte	0xa1
 1927 04fe 05       		.uleb128 0x5
 1928 04ff 03       		.byte	0x3
 1929 0500 00000000 		.4byte	I2C_bus_mstrControl
 1930 0504 17       		.uleb128 0x17
 1931 0505 05030000 		.4byte	.LASF44
 1932 0509 01       		.byte	0x1
 1933 050a 20       		.byte	0x20
 1934 050b 15050000 		.4byte	0x515
 1935 050f 05       		.uleb128 0x5
 1936 0510 03       		.byte	0x3
 1937 0511 00000000 		.4byte	I2C_bus_mstrRdBufPtr
 1938 0515 15       		.uleb128 0x15
 1939 0516 04       		.byte	0x4
 1940 0517 A1000000 		.4byte	0xa1
 1941 051b 17       		.uleb128 0x17
 1942 051c 1F020000 		.4byte	.LASF45
 1943 0520 01       		.byte	0x1
 1944 0521 21       		.byte	0x21
 1945 0522 B7000000 		.4byte	0xb7
 1946 0526 05       		.uleb128 0x5
 1947 0527 03       		.byte	0x3
 1948 0528 00000000 		.4byte	I2C_bus_mstrRdBufSize
 1949 052c 17       		.uleb128 0x17
ARM GAS  C:\Users\username\AppData\Local\Temp\cc0FlDXj.s 			page 55


 1950 052d 08020000 		.4byte	.LASF46
 1951 0531 01       		.byte	0x1
 1952 0532 22       		.byte	0x22
 1953 0533 B7000000 		.4byte	0xb7
 1954 0537 05       		.uleb128 0x5
 1955 0538 03       		.byte	0x3
 1956 0539 00000000 		.4byte	I2C_bus_mstrRdBufIndex
 1957 053d 17       		.uleb128 0x17
 1958 053e 1D040000 		.4byte	.LASF47
 1959 0542 01       		.byte	0x1
 1960 0543 25       		.byte	0x25
 1961 0544 15050000 		.4byte	0x515
 1962 0548 05       		.uleb128 0x5
 1963 0549 03       		.byte	0x3
 1964 054a 00000000 		.4byte	I2C_bus_mstrWrBufPtr
 1965 054e 17       		.uleb128 0x17
 1966 054f 83040000 		.4byte	.LASF48
 1967 0553 01       		.byte	0x1
 1968 0554 26       		.byte	0x26
 1969 0555 B7000000 		.4byte	0xb7
 1970 0559 05       		.uleb128 0x5
 1971 055a 03       		.byte	0x3
 1972 055b 00000000 		.4byte	I2C_bus_mstrWrBufSize
 1973 055f 17       		.uleb128 0x17
 1974 0560 D9000000 		.4byte	.LASF49
 1975 0564 01       		.byte	0x1
 1976 0565 27       		.byte	0x27
 1977 0566 B7000000 		.4byte	0xb7
 1978 056a 05       		.uleb128 0x5
 1979 056b 03       		.byte	0x3
 1980 056c 00000000 		.4byte	I2C_bus_mstrWrBufIndex
 1981 0570 17       		.uleb128 0x17
 1982 0571 69040000 		.4byte	.LASF50
 1983 0575 01       		.byte	0x1
 1984 0576 28       		.byte	0x28
 1985 0577 B7000000 		.4byte	0xb7
 1986 057b 05       		.uleb128 0x5
 1987 057c 03       		.byte	0x3
 1988 057d 00000000 		.4byte	I2C_bus_mstrWrBufIndexTmp
 1989 0581 18       		.uleb128 0x18
 1990 0582 AD030000 		.4byte	.LASF54
 1991 0586 04       		.byte	0x4
 1992 0587 4E       		.byte	0x4e
 1993 0588 92050000 		.4byte	0x592
 1994 058c 19       		.uleb128 0x19
 1995 058d 6B000000 		.4byte	0x6b
 1996 0591 00       		.byte	0
 1997 0592 1A       		.uleb128 0x1a
 1998 0593 43020000 		.4byte	.LASF55
 1999 0597 04       		.byte	0x4
 2000 0598 4C       		.byte	0x4c
 2001 0599 19       		.uleb128 0x19
 2002 059a 6B000000 		.4byte	0x6b
 2003 059e 00       		.byte	0
 2004 059f 00       		.byte	0
 2005              		.section	.debug_abbrev,"",%progbits
 2006              	.Ldebug_abbrev0:
ARM GAS  C:\Users\username\AppData\Local\Temp\cc0FlDXj.s 			page 56


 2007 0000 01       		.uleb128 0x1
 2008 0001 11       		.uleb128 0x11
 2009 0002 01       		.byte	0x1
 2010 0003 25       		.uleb128 0x25
 2011 0004 0E       		.uleb128 0xe
 2012 0005 13       		.uleb128 0x13
 2013 0006 0B       		.uleb128 0xb
 2014 0007 03       		.uleb128 0x3
 2015 0008 0E       		.uleb128 0xe
 2016 0009 1B       		.uleb128 0x1b
 2017 000a 0E       		.uleb128 0xe
 2018 000b 55       		.uleb128 0x55
 2019 000c 17       		.uleb128 0x17
 2020 000d 11       		.uleb128 0x11
 2021 000e 01       		.uleb128 0x1
 2022 000f 10       		.uleb128 0x10
 2023 0010 17       		.uleb128 0x17
 2024 0011 00       		.byte	0
 2025 0012 00       		.byte	0
 2026 0013 02       		.uleb128 0x2
 2027 0014 24       		.uleb128 0x24
 2028 0015 00       		.byte	0
 2029 0016 0B       		.uleb128 0xb
 2030 0017 0B       		.uleb128 0xb
 2031 0018 3E       		.uleb128 0x3e
 2032 0019 0B       		.uleb128 0xb
 2033 001a 03       		.uleb128 0x3
 2034 001b 0E       		.uleb128 0xe
 2035 001c 00       		.byte	0
 2036 001d 00       		.byte	0
 2037 001e 03       		.uleb128 0x3
 2038 001f 24       		.uleb128 0x24
 2039 0020 00       		.byte	0
 2040 0021 0B       		.uleb128 0xb
 2041 0022 0B       		.uleb128 0xb
 2042 0023 3E       		.uleb128 0x3e
 2043 0024 0B       		.uleb128 0xb
 2044 0025 03       		.uleb128 0x3
 2045 0026 08       		.uleb128 0x8
 2046 0027 00       		.byte	0
 2047 0028 00       		.byte	0
 2048 0029 04       		.uleb128 0x4
 2049 002a 16       		.uleb128 0x16
 2050 002b 00       		.byte	0
 2051 002c 03       		.uleb128 0x3
 2052 002d 0E       		.uleb128 0xe
 2053 002e 3A       		.uleb128 0x3a
 2054 002f 0B       		.uleb128 0xb
 2055 0030 3B       		.uleb128 0x3b
 2056 0031 0B       		.uleb128 0xb
 2057 0032 49       		.uleb128 0x49
 2058 0033 13       		.uleb128 0x13
 2059 0034 00       		.byte	0
 2060 0035 00       		.byte	0
 2061 0036 05       		.uleb128 0x5
 2062 0037 35       		.uleb128 0x35
 2063 0038 00       		.byte	0
ARM GAS  C:\Users\username\AppData\Local\Temp\cc0FlDXj.s 			page 57


 2064 0039 49       		.uleb128 0x49
 2065 003a 13       		.uleb128 0x13
 2066 003b 00       		.byte	0
 2067 003c 00       		.byte	0
 2068 003d 06       		.uleb128 0x6
 2069 003e 16       		.uleb128 0x16
 2070 003f 00       		.byte	0
 2071 0040 03       		.uleb128 0x3
 2072 0041 0E       		.uleb128 0xe
 2073 0042 3A       		.uleb128 0x3a
 2074 0043 0B       		.uleb128 0xb
 2075 0044 3B       		.uleb128 0x3b
 2076 0045 05       		.uleb128 0x5
 2077 0046 49       		.uleb128 0x49
 2078 0047 13       		.uleb128 0x13
 2079 0048 00       		.byte	0
 2080 0049 00       		.byte	0
 2081 004a 07       		.uleb128 0x7
 2082 004b 2E       		.uleb128 0x2e
 2083 004c 01       		.byte	0x1
 2084 004d 3F       		.uleb128 0x3f
 2085 004e 19       		.uleb128 0x19
 2086 004f 03       		.uleb128 0x3
 2087 0050 0E       		.uleb128 0xe
 2088 0051 3A       		.uleb128 0x3a
 2089 0052 0B       		.uleb128 0xb
 2090 0053 3B       		.uleb128 0x3b
 2091 0054 05       		.uleb128 0x5
 2092 0055 27       		.uleb128 0x27
 2093 0056 19       		.uleb128 0x19
 2094 0057 49       		.uleb128 0x49
 2095 0058 13       		.uleb128 0x13
 2096 0059 11       		.uleb128 0x11
 2097 005a 01       		.uleb128 0x1
 2098 005b 12       		.uleb128 0x12
 2099 005c 06       		.uleb128 0x6
 2100 005d 40       		.uleb128 0x40
 2101 005e 18       		.uleb128 0x18
 2102 005f 9742     		.uleb128 0x2117
 2103 0061 19       		.uleb128 0x19
 2104 0062 01       		.uleb128 0x1
 2105 0063 13       		.uleb128 0x13
 2106 0064 00       		.byte	0
 2107 0065 00       		.byte	0
 2108 0066 08       		.uleb128 0x8
 2109 0067 05       		.uleb128 0x5
 2110 0068 00       		.byte	0
 2111 0069 03       		.uleb128 0x3
 2112 006a 0E       		.uleb128 0xe
 2113 006b 3A       		.uleb128 0x3a
 2114 006c 0B       		.uleb128 0xb
 2115 006d 3B       		.uleb128 0x3b
 2116 006e 05       		.uleb128 0x5
 2117 006f 49       		.uleb128 0x49
 2118 0070 13       		.uleb128 0x13
 2119 0071 02       		.uleb128 0x2
 2120 0072 17       		.uleb128 0x17
ARM GAS  C:\Users\username\AppData\Local\Temp\cc0FlDXj.s 			page 58


 2121 0073 00       		.byte	0
 2122 0074 00       		.byte	0
 2123 0075 09       		.uleb128 0x9
 2124 0076 34       		.uleb128 0x34
 2125 0077 00       		.byte	0
 2126 0078 03       		.uleb128 0x3
 2127 0079 0E       		.uleb128 0xe
 2128 007a 3A       		.uleb128 0x3a
 2129 007b 0B       		.uleb128 0xb
 2130 007c 3B       		.uleb128 0x3b
 2131 007d 05       		.uleb128 0x5
 2132 007e 49       		.uleb128 0x49
 2133 007f 13       		.uleb128 0x13
 2134 0080 02       		.uleb128 0x2
 2135 0081 17       		.uleb128 0x17
 2136 0082 00       		.byte	0
 2137 0083 00       		.byte	0
 2138 0084 0A       		.uleb128 0xa
 2139 0085 898201   		.uleb128 0x4109
 2140 0088 01       		.byte	0x1
 2141 0089 11       		.uleb128 0x11
 2142 008a 01       		.uleb128 0x1
 2143 008b 31       		.uleb128 0x31
 2144 008c 13       		.uleb128 0x13
 2145 008d 00       		.byte	0
 2146 008e 00       		.byte	0
 2147 008f 0B       		.uleb128 0xb
 2148 0090 8A8201   		.uleb128 0x410a
 2149 0093 00       		.byte	0
 2150 0094 02       		.uleb128 0x2
 2151 0095 18       		.uleb128 0x18
 2152 0096 9142     		.uleb128 0x2111
 2153 0098 18       		.uleb128 0x18
 2154 0099 00       		.byte	0
 2155 009a 00       		.byte	0
 2156 009b 0C       		.uleb128 0xc
 2157 009c 2E       		.uleb128 0x2e
 2158 009d 00       		.byte	0
 2159 009e 3F       		.uleb128 0x3f
 2160 009f 19       		.uleb128 0x19
 2161 00a0 03       		.uleb128 0x3
 2162 00a1 0E       		.uleb128 0xe
 2163 00a2 3A       		.uleb128 0x3a
 2164 00a3 0B       		.uleb128 0xb
 2165 00a4 3B       		.uleb128 0x3b
 2166 00a5 05       		.uleb128 0x5
 2167 00a6 27       		.uleb128 0x27
 2168 00a7 19       		.uleb128 0x19
 2169 00a8 49       		.uleb128 0x49
 2170 00a9 13       		.uleb128 0x13
 2171 00aa 11       		.uleb128 0x11
 2172 00ab 01       		.uleb128 0x1
 2173 00ac 12       		.uleb128 0x12
 2174 00ad 06       		.uleb128 0x6
 2175 00ae 40       		.uleb128 0x40
 2176 00af 18       		.uleb128 0x18
 2177 00b0 9742     		.uleb128 0x2117
ARM GAS  C:\Users\username\AppData\Local\Temp\cc0FlDXj.s 			page 59


 2178 00b2 19       		.uleb128 0x19
 2179 00b3 00       		.byte	0
 2180 00b4 00       		.byte	0
 2181 00b5 0D       		.uleb128 0xd
 2182 00b6 2E       		.uleb128 0x2e
 2183 00b7 01       		.byte	0x1
 2184 00b8 3F       		.uleb128 0x3f
 2185 00b9 19       		.uleb128 0x19
 2186 00ba 03       		.uleb128 0x3
 2187 00bb 0E       		.uleb128 0xe
 2188 00bc 3A       		.uleb128 0x3a
 2189 00bd 0B       		.uleb128 0xb
 2190 00be 3B       		.uleb128 0x3b
 2191 00bf 05       		.uleb128 0x5
 2192 00c0 27       		.uleb128 0x27
 2193 00c1 19       		.uleb128 0x19
 2194 00c2 11       		.uleb128 0x11
 2195 00c3 01       		.uleb128 0x1
 2196 00c4 12       		.uleb128 0x12
 2197 00c5 06       		.uleb128 0x6
 2198 00c6 40       		.uleb128 0x40
 2199 00c7 18       		.uleb128 0x18
 2200 00c8 9742     		.uleb128 0x2117
 2201 00ca 19       		.uleb128 0x19
 2202 00cb 01       		.uleb128 0x1
 2203 00cc 13       		.uleb128 0x13
 2204 00cd 00       		.byte	0
 2205 00ce 00       		.byte	0
 2206 00cf 0E       		.uleb128 0xe
 2207 00d0 898201   		.uleb128 0x4109
 2208 00d3 01       		.byte	0x1
 2209 00d4 11       		.uleb128 0x11
 2210 00d5 01       		.uleb128 0x1
 2211 00d6 31       		.uleb128 0x31
 2212 00d7 13       		.uleb128 0x13
 2213 00d8 01       		.uleb128 0x1
 2214 00d9 13       		.uleb128 0x13
 2215 00da 00       		.byte	0
 2216 00db 00       		.byte	0
 2217 00dc 0F       		.uleb128 0xf
 2218 00dd 34       		.uleb128 0x34
 2219 00de 00       		.byte	0
 2220 00df 03       		.uleb128 0x3
 2221 00e0 08       		.uleb128 0x8
 2222 00e1 3A       		.uleb128 0x3a
 2223 00e2 0B       		.uleb128 0xb
 2224 00e3 3B       		.uleb128 0x3b
 2225 00e4 05       		.uleb128 0x5
 2226 00e5 49       		.uleb128 0x49
 2227 00e6 13       		.uleb128 0x13
 2228 00e7 02       		.uleb128 0x2
 2229 00e8 17       		.uleb128 0x17
 2230 00e9 00       		.byte	0
 2231 00ea 00       		.byte	0
 2232 00eb 10       		.uleb128 0x10
 2233 00ec 2E       		.uleb128 0x2e
 2234 00ed 01       		.byte	0x1
ARM GAS  C:\Users\username\AppData\Local\Temp\cc0FlDXj.s 			page 60


 2235 00ee 3F       		.uleb128 0x3f
 2236 00ef 19       		.uleb128 0x19
 2237 00f0 03       		.uleb128 0x3
 2238 00f1 0E       		.uleb128 0xe
 2239 00f2 3A       		.uleb128 0x3a
 2240 00f3 0B       		.uleb128 0xb
 2241 00f4 3B       		.uleb128 0x3b
 2242 00f5 0B       		.uleb128 0xb
 2243 00f6 27       		.uleb128 0x27
 2244 00f7 19       		.uleb128 0x19
 2245 00f8 49       		.uleb128 0x49
 2246 00f9 13       		.uleb128 0x13
 2247 00fa 11       		.uleb128 0x11
 2248 00fb 01       		.uleb128 0x1
 2249 00fc 12       		.uleb128 0x12
 2250 00fd 06       		.uleb128 0x6
 2251 00fe 40       		.uleb128 0x40
 2252 00ff 18       		.uleb128 0x18
 2253 0100 9742     		.uleb128 0x2117
 2254 0102 19       		.uleb128 0x19
 2255 0103 01       		.uleb128 0x1
 2256 0104 13       		.uleb128 0x13
 2257 0105 00       		.byte	0
 2258 0106 00       		.byte	0
 2259 0107 11       		.uleb128 0x11
 2260 0108 05       		.uleb128 0x5
 2261 0109 00       		.byte	0
 2262 010a 03       		.uleb128 0x3
 2263 010b 0E       		.uleb128 0xe
 2264 010c 3A       		.uleb128 0x3a
 2265 010d 0B       		.uleb128 0xb
 2266 010e 3B       		.uleb128 0x3b
 2267 010f 0B       		.uleb128 0xb
 2268 0110 49       		.uleb128 0x49
 2269 0111 13       		.uleb128 0x13
 2270 0112 02       		.uleb128 0x2
 2271 0113 17       		.uleb128 0x17
 2272 0114 00       		.byte	0
 2273 0115 00       		.byte	0
 2274 0116 12       		.uleb128 0x12
 2275 0117 05       		.uleb128 0x5
 2276 0118 00       		.byte	0
 2277 0119 03       		.uleb128 0x3
 2278 011a 08       		.uleb128 0x8
 2279 011b 3A       		.uleb128 0x3a
 2280 011c 0B       		.uleb128 0xb
 2281 011d 3B       		.uleb128 0x3b
 2282 011e 0B       		.uleb128 0xb
 2283 011f 49       		.uleb128 0x49
 2284 0120 13       		.uleb128 0x13
 2285 0121 02       		.uleb128 0x2
 2286 0122 17       		.uleb128 0x17
 2287 0123 00       		.byte	0
 2288 0124 00       		.byte	0
 2289 0125 13       		.uleb128 0x13
 2290 0126 34       		.uleb128 0x34
 2291 0127 00       		.byte	0
ARM GAS  C:\Users\username\AppData\Local\Temp\cc0FlDXj.s 			page 61


 2292 0128 03       		.uleb128 0x3
 2293 0129 0E       		.uleb128 0xe
 2294 012a 3A       		.uleb128 0x3a
 2295 012b 0B       		.uleb128 0xb
 2296 012c 3B       		.uleb128 0x3b
 2297 012d 0B       		.uleb128 0xb
 2298 012e 49       		.uleb128 0x49
 2299 012f 13       		.uleb128 0x13
 2300 0130 02       		.uleb128 0x2
 2301 0131 17       		.uleb128 0x17
 2302 0132 00       		.byte	0
 2303 0133 00       		.byte	0
 2304 0134 14       		.uleb128 0x14
 2305 0135 898201   		.uleb128 0x4109
 2306 0138 00       		.byte	0
 2307 0139 11       		.uleb128 0x11
 2308 013a 01       		.uleb128 0x1
 2309 013b 31       		.uleb128 0x31
 2310 013c 13       		.uleb128 0x13
 2311 013d 00       		.byte	0
 2312 013e 00       		.byte	0
 2313 013f 15       		.uleb128 0x15
 2314 0140 0F       		.uleb128 0xf
 2315 0141 00       		.byte	0
 2316 0142 0B       		.uleb128 0xb
 2317 0143 0B       		.uleb128 0xb
 2318 0144 49       		.uleb128 0x49
 2319 0145 13       		.uleb128 0x13
 2320 0146 00       		.byte	0
 2321 0147 00       		.byte	0
 2322 0148 16       		.uleb128 0x16
 2323 0149 34       		.uleb128 0x34
 2324 014a 00       		.byte	0
 2325 014b 03       		.uleb128 0x3
 2326 014c 0E       		.uleb128 0xe
 2327 014d 3A       		.uleb128 0x3a
 2328 014e 0B       		.uleb128 0xb
 2329 014f 3B       		.uleb128 0x3b
 2330 0150 0B       		.uleb128 0xb
 2331 0151 49       		.uleb128 0x49
 2332 0152 13       		.uleb128 0x13
 2333 0153 3F       		.uleb128 0x3f
 2334 0154 19       		.uleb128 0x19
 2335 0155 3C       		.uleb128 0x3c
 2336 0156 19       		.uleb128 0x19
 2337 0157 00       		.byte	0
 2338 0158 00       		.byte	0
 2339 0159 17       		.uleb128 0x17
 2340 015a 34       		.uleb128 0x34
 2341 015b 00       		.byte	0
 2342 015c 03       		.uleb128 0x3
 2343 015d 0E       		.uleb128 0xe
 2344 015e 3A       		.uleb128 0x3a
 2345 015f 0B       		.uleb128 0xb
 2346 0160 3B       		.uleb128 0x3b
 2347 0161 0B       		.uleb128 0xb
 2348 0162 49       		.uleb128 0x49
ARM GAS  C:\Users\username\AppData\Local\Temp\cc0FlDXj.s 			page 62


 2349 0163 13       		.uleb128 0x13
 2350 0164 3F       		.uleb128 0x3f
 2351 0165 19       		.uleb128 0x19
 2352 0166 02       		.uleb128 0x2
 2353 0167 18       		.uleb128 0x18
 2354 0168 00       		.byte	0
 2355 0169 00       		.byte	0
 2356 016a 18       		.uleb128 0x18
 2357 016b 2E       		.uleb128 0x2e
 2358 016c 01       		.byte	0x1
 2359 016d 3F       		.uleb128 0x3f
 2360 016e 19       		.uleb128 0x19
 2361 016f 03       		.uleb128 0x3
 2362 0170 0E       		.uleb128 0xe
 2363 0171 3A       		.uleb128 0x3a
 2364 0172 0B       		.uleb128 0xb
 2365 0173 3B       		.uleb128 0x3b
 2366 0174 0B       		.uleb128 0xb
 2367 0175 27       		.uleb128 0x27
 2368 0176 19       		.uleb128 0x19
 2369 0177 3C       		.uleb128 0x3c
 2370 0178 19       		.uleb128 0x19
 2371 0179 01       		.uleb128 0x1
 2372 017a 13       		.uleb128 0x13
 2373 017b 00       		.byte	0
 2374 017c 00       		.byte	0
 2375 017d 19       		.uleb128 0x19
 2376 017e 05       		.uleb128 0x5
 2377 017f 00       		.byte	0
 2378 0180 49       		.uleb128 0x49
 2379 0181 13       		.uleb128 0x13
 2380 0182 00       		.byte	0
 2381 0183 00       		.byte	0
 2382 0184 1A       		.uleb128 0x1a
 2383 0185 2E       		.uleb128 0x2e
 2384 0186 01       		.byte	0x1
 2385 0187 3F       		.uleb128 0x3f
 2386 0188 19       		.uleb128 0x19
 2387 0189 03       		.uleb128 0x3
 2388 018a 0E       		.uleb128 0xe
 2389 018b 3A       		.uleb128 0x3a
 2390 018c 0B       		.uleb128 0xb
 2391 018d 3B       		.uleb128 0x3b
 2392 018e 0B       		.uleb128 0xb
 2393 018f 27       		.uleb128 0x27
 2394 0190 19       		.uleb128 0x19
 2395 0191 3C       		.uleb128 0x3c
 2396 0192 19       		.uleb128 0x19
 2397 0193 00       		.byte	0
 2398 0194 00       		.byte	0
 2399 0195 00       		.byte	0
 2400              		.section	.debug_loc,"",%progbits
 2401              	.Ldebug_loc0:
 2402              	.LLST0:
 2403 0000 00000000 		.4byte	.LVL0
 2404 0004 18000000 		.4byte	.LVL2
 2405 0008 0100     		.2byte	0x1
ARM GAS  C:\Users\username\AppData\Local\Temp\cc0FlDXj.s 			page 63


 2406 000a 50       		.byte	0x50
 2407 000b 18000000 		.4byte	.LVL2
 2408 000f 22000000 		.4byte	.LVL4
 2409 0013 0100     		.2byte	0x1
 2410 0015 54       		.byte	0x54
 2411 0016 22000000 		.4byte	.LVL4
 2412 001a 74000000 		.4byte	.LVL7
 2413 001e 0100     		.2byte	0x1
 2414 0020 50       		.byte	0x50
 2415 0021 78000000 		.4byte	.LVL8
 2416 0025 80000000 		.4byte	.LVL10
 2417 0029 0100     		.2byte	0x1
 2418 002b 50       		.byte	0x50
 2419 002c 86000000 		.4byte	.LVL11
 2420 0030 88000000 		.4byte	.LVL12
 2421 0034 0100     		.2byte	0x1
 2422 0036 50       		.byte	0x50
 2423 0037 8C000000 		.4byte	.LVL13
 2424 003b 8E000000 		.4byte	.LVL14
 2425 003f 0100     		.2byte	0x1
 2426 0041 50       		.byte	0x50
 2427 0042 B2000000 		.4byte	.LVL17
 2428 0046 B4000000 		.4byte	.LVL18
 2429 004a 0100     		.2byte	0x1
 2430 004c 50       		.byte	0x50
 2431 004d B4000000 		.4byte	.LVL18
 2432 0051 B6000000 		.4byte	.LVL19
 2433 0055 0400     		.2byte	0x4
 2434 0057 F3       		.byte	0xf3
 2435 0058 01       		.uleb128 0x1
 2436 0059 50       		.byte	0x50
 2437 005a 9F       		.byte	0x9f
 2438 005b B6000000 		.4byte	.LVL19
 2439 005f B8000000 		.4byte	.LVL20
 2440 0063 0100     		.2byte	0x1
 2441 0065 50       		.byte	0x50
 2442 0066 00000000 		.4byte	0
 2443 006a 00000000 		.4byte	0
 2444              	.LLST1:
 2445 006e 00000000 		.4byte	.LVL0
 2446 0072 1B000000 		.4byte	.LVL3-1
 2447 0076 0100     		.2byte	0x1
 2448 0078 51       		.byte	0x51
 2449 0079 1B000000 		.4byte	.LVL3-1
 2450 007d B2000000 		.4byte	.LVL17
 2451 0081 0100     		.2byte	0x1
 2452 0083 55       		.byte	0x55
 2453 0084 B2000000 		.4byte	.LVL17
 2454 0088 B8000000 		.4byte	.LVL20
 2455 008c 0100     		.2byte	0x1
 2456 008e 51       		.byte	0x51
 2457 008f B8000000 		.4byte	.LVL20
 2458 0093 D8000000 		.4byte	.LFE4
 2459 0097 0400     		.2byte	0x4
 2460 0099 F3       		.byte	0xf3
 2461 009a 01       		.uleb128 0x1
 2462 009b 51       		.byte	0x51
ARM GAS  C:\Users\username\AppData\Local\Temp\cc0FlDXj.s 			page 64


 2463 009c 9F       		.byte	0x9f
 2464 009d 00000000 		.4byte	0
 2465 00a1 00000000 		.4byte	0
 2466              	.LLST2:
 2467 00a5 02000000 		.4byte	.LVL1
 2468 00a9 72000000 		.4byte	.LVL6
 2469 00ad 0200     		.2byte	0x2
 2470 00af 30       		.byte	0x30
 2471 00b0 9F       		.byte	0x9f
 2472 00b1 72000000 		.4byte	.LVL6
 2473 00b5 78000000 		.4byte	.LVL8
 2474 00b9 0200     		.2byte	0x2
 2475 00bb 31       		.byte	0x31
 2476 00bc 9F       		.byte	0x9f
 2477 00bd 78000000 		.4byte	.LVL8
 2478 00c1 7E000000 		.4byte	.LVL9
 2479 00c5 0200     		.2byte	0x2
 2480 00c7 30       		.byte	0x30
 2481 00c8 9F       		.byte	0x9f
 2482 00c9 7E000000 		.4byte	.LVL9
 2483 00cd 86000000 		.4byte	.LVL11
 2484 00d1 0200     		.2byte	0x2
 2485 00d3 31       		.byte	0x31
 2486 00d4 9F       		.byte	0x9f
 2487 00d5 86000000 		.4byte	.LVL11
 2488 00d9 90000000 		.4byte	.LVL15
 2489 00dd 0200     		.2byte	0x2
 2490 00df 30       		.byte	0x30
 2491 00e0 9F       		.byte	0x9f
 2492 00e1 90000000 		.4byte	.LVL15
 2493 00e5 AA000000 		.4byte	.LVL16
 2494 00e9 0100     		.2byte	0x1
 2495 00eb 51       		.byte	0x51
 2496 00ec B2000000 		.4byte	.LVL17
 2497 00f0 B8000000 		.4byte	.LVL20
 2498 00f4 0200     		.2byte	0x2
 2499 00f6 30       		.byte	0x30
 2500 00f7 9F       		.byte	0x9f
 2501 00f8 00000000 		.4byte	0
 2502 00fc 00000000 		.4byte	0
 2503              	.LLST3:
 2504 0100 02000000 		.4byte	.LVL1
 2505 0104 72000000 		.4byte	.LVL6
 2506 0108 0200     		.2byte	0x2
 2507 010a 34       		.byte	0x34
 2508 010b 9F       		.byte	0x9f
 2509 010c 72000000 		.4byte	.LVL6
 2510 0110 78000000 		.4byte	.LVL8
 2511 0114 0200     		.2byte	0x2
 2512 0116 31       		.byte	0x31
 2513 0117 9F       		.byte	0x9f
 2514 0118 78000000 		.4byte	.LVL8
 2515 011c 7E000000 		.4byte	.LVL9
 2516 0120 0200     		.2byte	0x2
 2517 0122 34       		.byte	0x34
 2518 0123 9F       		.byte	0x9f
 2519 0124 7E000000 		.4byte	.LVL9
ARM GAS  C:\Users\username\AppData\Local\Temp\cc0FlDXj.s 			page 65


 2520 0128 86000000 		.4byte	.LVL11
 2521 012c 0400     		.2byte	0x4
 2522 012e 0A       		.byte	0xa
 2523 012f 0001     		.2byte	0x100
 2524 0131 9F       		.byte	0x9f
 2525 0132 86000000 		.4byte	.LVL11
 2526 0136 90000000 		.4byte	.LVL15
 2527 013a 0200     		.2byte	0x2
 2528 013c 34       		.byte	0x34
 2529 013d 9F       		.byte	0x9f
 2530 013e 90000000 		.4byte	.LVL15
 2531 0142 B2000000 		.4byte	.LVL17
 2532 0146 0100     		.2byte	0x1
 2533 0148 50       		.byte	0x50
 2534 0149 B2000000 		.4byte	.LVL17
 2535 014d B8000000 		.4byte	.LVL20
 2536 0151 0200     		.2byte	0x2
 2537 0153 34       		.byte	0x34
 2538 0154 9F       		.byte	0x9f
 2539 0155 B8000000 		.4byte	.LVL20
 2540 0159 D8000000 		.4byte	.LFE4
 2541 015d 0100     		.2byte	0x1
 2542 015f 50       		.byte	0x50
 2543 0160 00000000 		.4byte	0
 2544 0164 00000000 		.4byte	0
 2545              	.LLST4:
 2546 0168 00000000 		.4byte	.LVL21
 2547 016c 48000000 		.4byte	.LVL22
 2548 0170 0200     		.2byte	0x2
 2549 0172 30       		.byte	0x30
 2550 0173 9F       		.byte	0x9f
 2551 0174 48000000 		.4byte	.LVL22
 2552 0178 6A000000 		.4byte	.LVL23
 2553 017c 0100     		.2byte	0x1
 2554 017e 51       		.byte	0x51
 2555 017f 72000000 		.4byte	.LVL24
 2556 0183 74000000 		.4byte	.LVL25
 2557 0187 0200     		.2byte	0x2
 2558 0189 30       		.byte	0x30
 2559 018a 9F       		.byte	0x9f
 2560 018b 00000000 		.4byte	0
 2561 018f 00000000 		.4byte	0
 2562              	.LLST5:
 2563 0193 00000000 		.4byte	.LVL21
 2564 0197 48000000 		.4byte	.LVL22
 2565 019b 0200     		.2byte	0x2
 2566 019d 34       		.byte	0x34
 2567 019e 9F       		.byte	0x9f
 2568 019f 48000000 		.4byte	.LVL22
 2569 01a3 72000000 		.4byte	.LVL24
 2570 01a7 0100     		.2byte	0x1
 2571 01a9 50       		.byte	0x50
 2572 01aa 72000000 		.4byte	.LVL24
 2573 01ae 74000000 		.4byte	.LVL25
 2574 01b2 0200     		.2byte	0x2
 2575 01b4 34       		.byte	0x34
 2576 01b5 9F       		.byte	0x9f
ARM GAS  C:\Users\username\AppData\Local\Temp\cc0FlDXj.s 			page 66


 2577 01b6 74000000 		.4byte	.LVL25
 2578 01ba 8C000000 		.4byte	.LFE6
 2579 01be 0100     		.2byte	0x1
 2580 01c0 50       		.byte	0x50
 2581 01c1 00000000 		.4byte	0
 2582 01c5 00000000 		.4byte	0
 2583              	.LLST6:
 2584 01c9 00000000 		.4byte	.LVL26
 2585 01cd 28000000 		.4byte	.LVL28
 2586 01d1 0100     		.2byte	0x1
 2587 01d3 50       		.byte	0x50
 2588 01d4 28000000 		.4byte	.LVL28
 2589 01d8 2C000000 		.4byte	.LVL29
 2590 01dc 0400     		.2byte	0x4
 2591 01de F3       		.byte	0xf3
 2592 01df 01       		.uleb128 0x1
 2593 01e0 50       		.byte	0x50
 2594 01e1 9F       		.byte	0x9f
 2595 01e2 2C000000 		.4byte	.LVL29
 2596 01e6 3C000000 		.4byte	.LVL31
 2597 01ea 0100     		.2byte	0x1
 2598 01ec 50       		.byte	0x50
 2599 01ed 3C000000 		.4byte	.LVL31
 2600 01f1 40000000 		.4byte	.LVL32
 2601 01f5 0400     		.2byte	0x4
 2602 01f7 F3       		.byte	0xf3
 2603 01f8 01       		.uleb128 0x1
 2604 01f9 50       		.byte	0x50
 2605 01fa 9F       		.byte	0x9f
 2606 01fb 40000000 		.4byte	.LVL32
 2607 01ff 50000000 		.4byte	.LVL34
 2608 0203 0100     		.2byte	0x1
 2609 0205 50       		.byte	0x50
 2610 0206 50000000 		.4byte	.LVL34
 2611 020a 54000000 		.4byte	.LVL35
 2612 020e 0400     		.2byte	0x4
 2613 0210 F3       		.byte	0xf3
 2614 0211 01       		.uleb128 0x1
 2615 0212 50       		.byte	0x50
 2616 0213 9F       		.byte	0x9f
 2617 0214 54000000 		.4byte	.LVL35
 2618 0218 5C000000 		.4byte	.LVL37
 2619 021c 0100     		.2byte	0x1
 2620 021e 50       		.byte	0x50
 2621 021f 5C000000 		.4byte	.LVL37
 2622 0223 82000000 		.4byte	.LVL40
 2623 0227 0400     		.2byte	0x4
 2624 0229 F3       		.byte	0xf3
 2625 022a 01       		.uleb128 0x1
 2626 022b 50       		.byte	0x50
 2627 022c 9F       		.byte	0x9f
 2628 022d 82000000 		.4byte	.LVL40
 2629 0231 84000000 		.4byte	.LVL41
 2630 0235 0100     		.2byte	0x1
 2631 0237 50       		.byte	0x50
 2632 0238 84000000 		.4byte	.LVL41
 2633 023c 98000000 		.4byte	.LFE7
ARM GAS  C:\Users\username\AppData\Local\Temp\cc0FlDXj.s 			page 67


 2634 0240 0400     		.2byte	0x4
 2635 0242 F3       		.byte	0xf3
 2636 0243 01       		.uleb128 0x1
 2637 0244 50       		.byte	0x50
 2638 0245 9F       		.byte	0x9f
 2639 0246 00000000 		.4byte	0
 2640 024a 00000000 		.4byte	0
 2641              	.LLST7:
 2642 024e 00000000 		.4byte	.LVL26
 2643 0252 4E000000 		.4byte	.LVL33
 2644 0256 0200     		.2byte	0x2
 2645 0258 30       		.byte	0x30
 2646 0259 9F       		.byte	0x9f
 2647 025a 4E000000 		.4byte	.LVL33
 2648 025e 54000000 		.4byte	.LVL35
 2649 0262 0200     		.2byte	0x2
 2650 0264 31       		.byte	0x31
 2651 0265 9F       		.byte	0x9f
 2652 0266 54000000 		.4byte	.LVL35
 2653 026a 5A000000 		.4byte	.LVL36
 2654 026e 0200     		.2byte	0x2
 2655 0270 30       		.byte	0x30
 2656 0271 9F       		.byte	0x9f
 2657 0272 5A000000 		.4byte	.LVL36
 2658 0276 60000000 		.4byte	.LVL38
 2659 027a 0200     		.2byte	0x2
 2660 027c 31       		.byte	0x31
 2661 027d 9F       		.byte	0x9f
 2662 027e 60000000 		.4byte	.LVL38
 2663 0282 7A000000 		.4byte	.LVL39
 2664 0286 0100     		.2byte	0x1
 2665 0288 51       		.byte	0x51
 2666 0289 82000000 		.4byte	.LVL40
 2667 028d 84000000 		.4byte	.LVL41
 2668 0291 0200     		.2byte	0x2
 2669 0293 30       		.byte	0x30
 2670 0294 9F       		.byte	0x9f
 2671 0295 00000000 		.4byte	0
 2672 0299 00000000 		.4byte	0
 2673              	.LLST8:
 2674 029d 00000000 		.4byte	.LVL26
 2675 02a1 26000000 		.4byte	.LVL27
 2676 02a5 0200     		.2byte	0x2
 2677 02a7 34       		.byte	0x34
 2678 02a8 9F       		.byte	0x9f
 2679 02a9 26000000 		.4byte	.LVL27
 2680 02ad 2C000000 		.4byte	.LVL29
 2681 02b1 0200     		.2byte	0x2
 2682 02b3 30       		.byte	0x30
 2683 02b4 9F       		.byte	0x9f
 2684 02b5 2C000000 		.4byte	.LVL29
 2685 02b9 3A000000 		.4byte	.LVL30
 2686 02bd 0200     		.2byte	0x2
 2687 02bf 34       		.byte	0x34
 2688 02c0 9F       		.byte	0x9f
 2689 02c1 3A000000 		.4byte	.LVL30
 2690 02c5 40000000 		.4byte	.LVL32
ARM GAS  C:\Users\username\AppData\Local\Temp\cc0FlDXj.s 			page 68


 2691 02c9 0200     		.2byte	0x2
 2692 02cb 32       		.byte	0x32
 2693 02cc 9F       		.byte	0x9f
 2694 02cd 40000000 		.4byte	.LVL32
 2695 02d1 4E000000 		.4byte	.LVL33
 2696 02d5 0200     		.2byte	0x2
 2697 02d7 34       		.byte	0x34
 2698 02d8 9F       		.byte	0x9f
 2699 02d9 4E000000 		.4byte	.LVL33
 2700 02dd 54000000 		.4byte	.LVL35
 2701 02e1 0200     		.2byte	0x2
 2702 02e3 31       		.byte	0x31
 2703 02e4 9F       		.byte	0x9f
 2704 02e5 54000000 		.4byte	.LVL35
 2705 02e9 5A000000 		.4byte	.LVL36
 2706 02ed 0200     		.2byte	0x2
 2707 02ef 34       		.byte	0x34
 2708 02f0 9F       		.byte	0x9f
 2709 02f1 5A000000 		.4byte	.LVL36
 2710 02f5 60000000 		.4byte	.LVL38
 2711 02f9 0400     		.2byte	0x4
 2712 02fb 0A       		.byte	0xa
 2713 02fc 0001     		.2byte	0x100
 2714 02fe 9F       		.byte	0x9f
 2715 02ff 60000000 		.4byte	.LVL38
 2716 0303 82000000 		.4byte	.LVL40
 2717 0307 0100     		.2byte	0x1
 2718 0309 50       		.byte	0x50
 2719 030a 82000000 		.4byte	.LVL40
 2720 030e 84000000 		.4byte	.LVL41
 2721 0312 0200     		.2byte	0x2
 2722 0314 34       		.byte	0x34
 2723 0315 9F       		.byte	0x9f
 2724 0316 84000000 		.4byte	.LVL41
 2725 031a 98000000 		.4byte	.LFE7
 2726 031e 0100     		.2byte	0x1
 2727 0320 50       		.byte	0x50
 2728 0321 00000000 		.4byte	0
 2729 0325 00000000 		.4byte	0
 2730              	.LLST9:
 2731 0329 00000000 		.4byte	.LVL42
 2732 032d 2A000000 		.4byte	.LVL44
 2733 0331 0100     		.2byte	0x1
 2734 0333 50       		.byte	0x50
 2735 0334 2A000000 		.4byte	.LVL44
 2736 0338 42000000 		.4byte	.LVL45
 2737 033c 0100     		.2byte	0x1
 2738 033e 51       		.byte	0x51
 2739 033f 42000000 		.4byte	.LVL45
 2740 0343 5E000000 		.4byte	.LVL46
 2741 0347 0100     		.2byte	0x1
 2742 0349 50       		.byte	0x50
 2743 034a 5E000000 		.4byte	.LVL46
 2744 034e 62000000 		.4byte	.LVL47
 2745 0352 0400     		.2byte	0x4
 2746 0354 F3       		.byte	0xf3
 2747 0355 01       		.uleb128 0x1
ARM GAS  C:\Users\username\AppData\Local\Temp\cc0FlDXj.s 			page 69


 2748 0356 50       		.byte	0x50
 2749 0357 9F       		.byte	0x9f
 2750 0358 62000000 		.4byte	.LVL47
 2751 035c 64000000 		.4byte	.LVL48
 2752 0360 0100     		.2byte	0x1
 2753 0362 50       		.byte	0x50
 2754 0363 64000000 		.4byte	.LVL48
 2755 0367 66000000 		.4byte	.LVL49
 2756 036b 0100     		.2byte	0x1
 2757 036d 51       		.byte	0x51
 2758 036e 66000000 		.4byte	.LVL49
 2759 0372 84000000 		.4byte	.LFE8
 2760 0376 0400     		.2byte	0x4
 2761 0378 F3       		.byte	0xf3
 2762 0379 01       		.uleb128 0x1
 2763 037a 50       		.byte	0x50
 2764 037b 9F       		.byte	0x9f
 2765 037c 00000000 		.4byte	0
 2766 0380 00000000 		.4byte	0
 2767              	.LLST10:
 2768 0384 02000000 		.4byte	.LVL43
 2769 0388 2A000000 		.4byte	.LVL44
 2770 038c 0300     		.2byte	0x3
 2771 038e 09       		.byte	0x9
 2772 038f FF       		.byte	0xff
 2773 0390 9F       		.byte	0x9f
 2774 0391 2A000000 		.4byte	.LVL44
 2775 0395 42000000 		.4byte	.LVL45
 2776 0399 0100     		.2byte	0x1
 2777 039b 50       		.byte	0x50
 2778 039c 42000000 		.4byte	.LVL45
 2779 03a0 66000000 		.4byte	.LVL49
 2780 03a4 0300     		.2byte	0x3
 2781 03a6 09       		.byte	0x9
 2782 03a7 FF       		.byte	0xff
 2783 03a8 9F       		.byte	0x9f
 2784 03a9 66000000 		.4byte	.LVL49
 2785 03ad 84000000 		.4byte	.LFE8
 2786 03b1 0100     		.2byte	0x1
 2787 03b3 50       		.byte	0x50
 2788 03b4 00000000 		.4byte	0
 2789 03b8 00000000 		.4byte	0
 2790              	.LLST11:
 2791 03bc 10000000 		.4byte	.LVL55
 2792 03c0 1C000000 		.4byte	.LVL56
 2793 03c4 0100     		.2byte	0x1
 2794 03c6 53       		.byte	0x53
 2795 03c7 1C000000 		.4byte	.LVL56
 2796 03cb 24000000 		.4byte	.LVL58
 2797 03cf 0100     		.2byte	0x1
 2798 03d1 54       		.byte	0x54
 2799 03d2 24000000 		.4byte	.LVL58
 2800 03d6 30000000 		.4byte	.LFE13
 2801 03da 0100     		.2byte	0x1
 2802 03dc 50       		.byte	0x50
 2803 03dd 00000000 		.4byte	0
 2804 03e1 00000000 		.4byte	0
ARM GAS  C:\Users\username\AppData\Local\Temp\cc0FlDXj.s 			page 70


 2805              	.LLST12:
 2806 03e5 0E000000 		.4byte	.LVL60
 2807 03e9 1A000000 		.4byte	.LVL62
 2808 03ed 0100     		.2byte	0x1
 2809 03ef 54       		.byte	0x54
 2810 03f0 1A000000 		.4byte	.LVL62
 2811 03f4 20000000 		.4byte	.LFE14
 2812 03f8 0100     		.2byte	0x1
 2813 03fa 50       		.byte	0x50
 2814 03fb 00000000 		.4byte	0
 2815 03ff 00000000 		.4byte	0
 2816              	.LLST13:
 2817 0403 00000000 		.4byte	.LVL63
 2818 0407 10000000 		.4byte	.LVL64
 2819 040b 0200     		.2byte	0x2
 2820 040d 31       		.byte	0x31
 2821 040e 9F       		.byte	0x9f
 2822 040f 10000000 		.4byte	.LVL64
 2823 0413 20000000 		.4byte	.LFE15
 2824 0417 0100     		.2byte	0x1
 2825 0419 53       		.byte	0x53
 2826 041a 00000000 		.4byte	0
 2827 041e 00000000 		.4byte	0
 2828              	.LLST14:
 2829 0422 00000000 		.4byte	.LVL65
 2830 0426 1A000000 		.4byte	.LVL68
 2831 042a 0100     		.2byte	0x1
 2832 042c 50       		.byte	0x50
 2833 042d 1A000000 		.4byte	.LVL68
 2834 0431 2E000000 		.4byte	.LVL71
 2835 0435 0200     		.2byte	0x2
 2836 0437 91       		.byte	0x91
 2837 0438 64       		.sleb128 -28
 2838 0439 2E000000 		.4byte	.LVL71
 2839 043d 4A000000 		.4byte	.LVL77
 2840 0441 0100     		.2byte	0x1
 2841 0443 50       		.byte	0x50
 2842 0444 4A000000 		.4byte	.LVL77
 2843 0448 74000000 		.4byte	.LVL79
 2844 044c 0200     		.2byte	0x2
 2845 044e 91       		.byte	0x91
 2846 044f 64       		.sleb128 -28
 2847 0450 74000000 		.4byte	.LVL79
 2848 0454 A6000000 		.4byte	.LVL82
 2849 0458 0100     		.2byte	0x1
 2850 045a 54       		.byte	0x54
 2851 045b 00000000 		.4byte	0
 2852 045f 00000000 		.4byte	0
 2853              	.LLST15:
 2854 0463 00000000 		.4byte	.LVL65
 2855 0467 1D000000 		.4byte	.LVL69-1
 2856 046b 0100     		.2byte	0x1
 2857 046d 51       		.byte	0x51
 2858 046e 1D000000 		.4byte	.LVL69-1
 2859 0472 2E000000 		.4byte	.LVL71
 2860 0476 0100     		.2byte	0x1
 2861 0478 54       		.byte	0x54
ARM GAS  C:\Users\username\AppData\Local\Temp\cc0FlDXj.s 			page 71


 2862 0479 2E000000 		.4byte	.LVL71
 2863 047d 3C000000 		.4byte	.LVL73
 2864 0481 0100     		.2byte	0x1
 2865 0483 51       		.byte	0x51
 2866 0484 3C000000 		.4byte	.LVL73
 2867 0488 44000000 		.4byte	.LVL75
 2868 048c 0100     		.2byte	0x1
 2869 048e 54       		.byte	0x54
 2870 048f 44000000 		.4byte	.LVL75
 2871 0493 4A000000 		.4byte	.LVL77
 2872 0497 0100     		.2byte	0x1
 2873 0499 51       		.byte	0x51
 2874 049a 4A000000 		.4byte	.LVL77
 2875 049e 70000000 		.4byte	.LVL78
 2876 04a2 0100     		.2byte	0x1
 2877 04a4 54       		.byte	0x54
 2878 04a5 70000000 		.4byte	.LVL78
 2879 04a9 84000000 		.4byte	.LVL80
 2880 04ad 0500     		.2byte	0x5
 2881 04af 03       		.byte	0x3
 2882 04b0 00000000 		.4byte	I2C_bus_mstrWrBufPtr
 2883 04b4 84000000 		.4byte	.LVL80
 2884 04b8 EC000000 		.4byte	.LFE2
 2885 04bc 0400     		.2byte	0x4
 2886 04be F3       		.byte	0xf3
 2887 04bf 01       		.uleb128 0x1
 2888 04c0 51       		.byte	0x51
 2889 04c1 9F       		.byte	0x9f
 2890 04c2 00000000 		.4byte	0
 2891 04c6 00000000 		.4byte	0
 2892              	.LLST16:
 2893 04ca 00000000 		.4byte	.LVL65
 2894 04ce 1D000000 		.4byte	.LVL69-1
 2895 04d2 0100     		.2byte	0x1
 2896 04d4 52       		.byte	0x52
 2897 04d5 1D000000 		.4byte	.LVL69-1
 2898 04d9 2E000000 		.4byte	.LVL71
 2899 04dd 0100     		.2byte	0x1
 2900 04df 57       		.byte	0x57
 2901 04e0 2E000000 		.4byte	.LVL71
 2902 04e4 38000000 		.4byte	.LVL72
 2903 04e8 0100     		.2byte	0x1
 2904 04ea 52       		.byte	0x52
 2905 04eb 38000000 		.4byte	.LVL72
 2906 04ef 44000000 		.4byte	.LVL75
 2907 04f3 0100     		.2byte	0x1
 2908 04f5 57       		.byte	0x57
 2909 04f6 44000000 		.4byte	.LVL75
 2910 04fa 4A000000 		.4byte	.LVL77
 2911 04fe 0100     		.2byte	0x1
 2912 0500 52       		.byte	0x52
 2913 0501 4A000000 		.4byte	.LVL77
 2914 0505 B0000000 		.4byte	.LVL86
 2915 0509 0100     		.2byte	0x1
 2916 050b 57       		.byte	0x57
 2917 050c B0000000 		.4byte	.LVL86
 2918 0510 EC000000 		.4byte	.LFE2
ARM GAS  C:\Users\username\AppData\Local\Temp\cc0FlDXj.s 			page 72


 2919 0514 0400     		.2byte	0x4
 2920 0516 F3       		.byte	0xf3
 2921 0517 01       		.uleb128 0x1
 2922 0518 52       		.byte	0x52
 2923 0519 9F       		.byte	0x9f
 2924 051a 00000000 		.4byte	0
 2925 051e 00000000 		.4byte	0
 2926              	.LLST17:
 2927 0522 00000000 		.4byte	.LVL65
 2928 0526 12000000 		.4byte	.LVL67
 2929 052a 0100     		.2byte	0x1
 2930 052c 53       		.byte	0x53
 2931 052d 12000000 		.4byte	.LVL67
 2932 0531 44000000 		.4byte	.LVL75
 2933 0535 0100     		.2byte	0x1
 2934 0537 55       		.byte	0x55
 2935 0538 44000000 		.4byte	.LVL75
 2936 053c 48000000 		.4byte	.LVL76
 2937 0540 0100     		.2byte	0x1
 2938 0542 53       		.byte	0x53
 2939 0543 48000000 		.4byte	.LVL76
 2940 0547 B0000000 		.4byte	.LVL84
 2941 054b 0100     		.2byte	0x1
 2942 054d 55       		.byte	0x55
 2943 054e B0000000 		.4byte	.LVL84
 2944 0552 EC000000 		.4byte	.LFE2
 2945 0556 0400     		.2byte	0x4
 2946 0558 F3       		.byte	0xf3
 2947 0559 01       		.uleb128 0x1
 2948 055a 53       		.byte	0x53
 2949 055b 9F       		.byte	0x9f
 2950 055c 00000000 		.4byte	0
 2951 0560 00000000 		.4byte	0
 2952              	.LLST18:
 2953 0564 0C000000 		.4byte	.LVL66
 2954 0568 2C000000 		.4byte	.LVL70
 2955 056c 0200     		.2byte	0x2
 2956 056e 34       		.byte	0x34
 2957 056f 9F       		.byte	0x9f
 2958 0570 2C000000 		.4byte	.LVL70
 2959 0574 2E000000 		.4byte	.LVL71
 2960 0578 0200     		.2byte	0x2
 2961 057a 30       		.byte	0x30
 2962 057b 9F       		.byte	0x9f
 2963 057c 2E000000 		.4byte	.LVL71
 2964 0580 40000000 		.4byte	.LVL74
 2965 0584 0200     		.2byte	0x2
 2966 0586 34       		.byte	0x34
 2967 0587 9F       		.byte	0x9f
 2968 0588 40000000 		.4byte	.LVL74
 2969 058c 44000000 		.4byte	.LVL75
 2970 0590 0200     		.2byte	0x2
 2971 0592 30       		.byte	0x30
 2972 0593 9F       		.byte	0x9f
 2973 0594 44000000 		.4byte	.LVL75
 2974 0598 4A000000 		.4byte	.LVL77
 2975 059c 0200     		.2byte	0x2
ARM GAS  C:\Users\username\AppData\Local\Temp\cc0FlDXj.s 			page 73


 2976 059e 34       		.byte	0x34
 2977 059f 9F       		.byte	0x9f
 2978 05a0 4A000000 		.4byte	.LVL77
 2979 05a4 B0000000 		.4byte	.LVL85
 2980 05a8 0100     		.2byte	0x1
 2981 05aa 56       		.byte	0x56
 2982 05ab B0000000 		.4byte	.LVL85
 2983 05af EC000000 		.4byte	.LFE2
 2984 05b3 0100     		.2byte	0x1
 2985 05b5 50       		.byte	0x50
 2986 05b6 00000000 		.4byte	0
 2987 05ba 00000000 		.4byte	0
 2988              	.LLST19:
 2989 05be 00000000 		.4byte	.LVL87
 2990 05c2 1A000000 		.4byte	.LVL90
 2991 05c6 0100     		.2byte	0x1
 2992 05c8 50       		.byte	0x50
 2993 05c9 1A000000 		.4byte	.LVL90
 2994 05cd 2E000000 		.4byte	.LVL93
 2995 05d1 0200     		.2byte	0x2
 2996 05d3 91       		.byte	0x91
 2997 05d4 64       		.sleb128 -28
 2998 05d5 2E000000 		.4byte	.LVL93
 2999 05d9 4A000000 		.4byte	.LVL99
 3000 05dd 0100     		.2byte	0x1
 3001 05df 50       		.byte	0x50
 3002 05e0 4A000000 		.4byte	.LVL99
 3003 05e4 74000000 		.4byte	.LVL101
 3004 05e8 0200     		.2byte	0x2
 3005 05ea 91       		.byte	0x91
 3006 05eb 64       		.sleb128 -28
 3007 05ec 74000000 		.4byte	.LVL101
 3008 05f0 BA000000 		.4byte	.LVL104
 3009 05f4 0100     		.2byte	0x1
 3010 05f6 54       		.byte	0x54
 3011 05f7 00000000 		.4byte	0
 3012 05fb 00000000 		.4byte	0
 3013              	.LLST20:
 3014 05ff 00000000 		.4byte	.LVL87
 3015 0603 1D000000 		.4byte	.LVL91-1
 3016 0607 0100     		.2byte	0x1
 3017 0609 51       		.byte	0x51
 3018 060a 1D000000 		.4byte	.LVL91-1
 3019 060e 2E000000 		.4byte	.LVL93
 3020 0612 0100     		.2byte	0x1
 3021 0614 54       		.byte	0x54
 3022 0615 2E000000 		.4byte	.LVL93
 3023 0619 3C000000 		.4byte	.LVL95
 3024 061d 0100     		.2byte	0x1
 3025 061f 51       		.byte	0x51
 3026 0620 3C000000 		.4byte	.LVL95
 3027 0624 44000000 		.4byte	.LVL97
 3028 0628 0100     		.2byte	0x1
 3029 062a 54       		.byte	0x54
 3030 062b 44000000 		.4byte	.LVL97
 3031 062f 4A000000 		.4byte	.LVL99
 3032 0633 0100     		.2byte	0x1
ARM GAS  C:\Users\username\AppData\Local\Temp\cc0FlDXj.s 			page 74


 3033 0635 51       		.byte	0x51
 3034 0636 4A000000 		.4byte	.LVL99
 3035 063a 6C000000 		.4byte	.LVL100
 3036 063e 0100     		.2byte	0x1
 3037 0640 54       		.byte	0x54
 3038 0641 6C000000 		.4byte	.LVL100
 3039 0645 82000000 		.4byte	.LVL102
 3040 0649 0500     		.2byte	0x5
 3041 064b 03       		.byte	0x3
 3042 064c 00000000 		.4byte	I2C_bus_mstrRdBufPtr
 3043 0650 82000000 		.4byte	.LVL102
 3044 0654 FC000000 		.4byte	.LFE3
 3045 0658 0400     		.2byte	0x4
 3046 065a F3       		.byte	0xf3
 3047 065b 01       		.uleb128 0x1
 3048 065c 51       		.byte	0x51
 3049 065d 9F       		.byte	0x9f
 3050 065e 00000000 		.4byte	0
 3051 0662 00000000 		.4byte	0
 3052              	.LLST21:
 3053 0666 00000000 		.4byte	.LVL87
 3054 066a 1D000000 		.4byte	.LVL91-1
 3055 066e 0100     		.2byte	0x1
 3056 0670 52       		.byte	0x52
 3057 0671 1D000000 		.4byte	.LVL91-1
 3058 0675 2E000000 		.4byte	.LVL93
 3059 0679 0100     		.2byte	0x1
 3060 067b 57       		.byte	0x57
 3061 067c 2E000000 		.4byte	.LVL93
 3062 0680 38000000 		.4byte	.LVL94
 3063 0684 0100     		.2byte	0x1
 3064 0686 52       		.byte	0x52
 3065 0687 38000000 		.4byte	.LVL94
 3066 068b 44000000 		.4byte	.LVL97
 3067 068f 0100     		.2byte	0x1
 3068 0691 57       		.byte	0x57
 3069 0692 44000000 		.4byte	.LVL97
 3070 0696 4A000000 		.4byte	.LVL99
 3071 069a 0100     		.2byte	0x1
 3072 069c 52       		.byte	0x52
 3073 069d 4A000000 		.4byte	.LVL99
 3074 06a1 C4000000 		.4byte	.LVL108
 3075 06a5 0100     		.2byte	0x1
 3076 06a7 57       		.byte	0x57
 3077 06a8 C4000000 		.4byte	.LVL108
 3078 06ac FC000000 		.4byte	.LFE3
 3079 06b0 0400     		.2byte	0x4
 3080 06b2 F3       		.byte	0xf3
 3081 06b3 01       		.uleb128 0x1
 3082 06b4 52       		.byte	0x52
 3083 06b5 9F       		.byte	0x9f
 3084 06b6 00000000 		.4byte	0
 3085 06ba 00000000 		.4byte	0
 3086              	.LLST22:
 3087 06be 00000000 		.4byte	.LVL87
 3088 06c2 12000000 		.4byte	.LVL89
 3089 06c6 0100     		.2byte	0x1
ARM GAS  C:\Users\username\AppData\Local\Temp\cc0FlDXj.s 			page 75


 3090 06c8 53       		.byte	0x53
 3091 06c9 12000000 		.4byte	.LVL89
 3092 06cd 44000000 		.4byte	.LVL97
 3093 06d1 0100     		.2byte	0x1
 3094 06d3 55       		.byte	0x55
 3095 06d4 44000000 		.4byte	.LVL97
 3096 06d8 48000000 		.4byte	.LVL98
 3097 06dc 0100     		.2byte	0x1
 3098 06de 53       		.byte	0x53
 3099 06df 48000000 		.4byte	.LVL98
 3100 06e3 C4000000 		.4byte	.LVL106
 3101 06e7 0100     		.2byte	0x1
 3102 06e9 55       		.byte	0x55
 3103 06ea C4000000 		.4byte	.LVL106
 3104 06ee FC000000 		.4byte	.LFE3
 3105 06f2 0400     		.2byte	0x4
 3106 06f4 F3       		.byte	0xf3
 3107 06f5 01       		.uleb128 0x1
 3108 06f6 53       		.byte	0x53
 3109 06f7 9F       		.byte	0x9f
 3110 06f8 00000000 		.4byte	0
 3111 06fc 00000000 		.4byte	0
 3112              	.LLST23:
 3113 0700 0C000000 		.4byte	.LVL88
 3114 0704 2C000000 		.4byte	.LVL92
 3115 0708 0200     		.2byte	0x2
 3116 070a 34       		.byte	0x34
 3117 070b 9F       		.byte	0x9f
 3118 070c 2C000000 		.4byte	.LVL92
 3119 0710 2E000000 		.4byte	.LVL93
 3120 0714 0200     		.2byte	0x2
 3121 0716 30       		.byte	0x30
 3122 0717 9F       		.byte	0x9f
 3123 0718 2E000000 		.4byte	.LVL93
 3124 071c 40000000 		.4byte	.LVL96
 3125 0720 0200     		.2byte	0x2
 3126 0722 34       		.byte	0x34
 3127 0723 9F       		.byte	0x9f
 3128 0724 40000000 		.4byte	.LVL96
 3129 0728 44000000 		.4byte	.LVL97
 3130 072c 0200     		.2byte	0x2
 3131 072e 30       		.byte	0x30
 3132 072f 9F       		.byte	0x9f
 3133 0730 44000000 		.4byte	.LVL97
 3134 0734 4A000000 		.4byte	.LVL99
 3135 0738 0200     		.2byte	0x2
 3136 073a 34       		.byte	0x34
 3137 073b 9F       		.byte	0x9f
 3138 073c 4A000000 		.4byte	.LVL99
 3139 0740 C4000000 		.4byte	.LVL107
 3140 0744 0100     		.2byte	0x1
 3141 0746 56       		.byte	0x56
 3142 0747 C4000000 		.4byte	.LVL107
 3143 074b FC000000 		.4byte	.LFE3
 3144 074f 0100     		.2byte	0x1
 3145 0751 50       		.byte	0x50
 3146 0752 00000000 		.4byte	0
ARM GAS  C:\Users\username\AppData\Local\Temp\cc0FlDXj.s 			page 76


 3147 0756 00000000 		.4byte	0
 3148              	.LLST24:
 3149 075a 00000000 		.4byte	.LVL109
 3150 075e 0C000000 		.4byte	.LVL111
 3151 0762 0100     		.2byte	0x1
 3152 0764 50       		.byte	0x50
 3153 0765 0C000000 		.4byte	.LVL111
 3154 0769 10000000 		.4byte	.LVL112
 3155 076d 0400     		.2byte	0x4
 3156 076f F3       		.byte	0xf3
 3157 0770 01       		.uleb128 0x1
 3158 0771 50       		.byte	0x50
 3159 0772 9F       		.byte	0x9f
 3160 0773 10000000 		.4byte	.LVL112
 3161 0777 A6000000 		.4byte	.LVL121
 3162 077b 0100     		.2byte	0x1
 3163 077d 54       		.byte	0x54
 3164 077e A6000000 		.4byte	.LVL121
 3165 0782 A8000000 		.4byte	.LVL122
 3166 0786 0100     		.2byte	0x1
 3167 0788 50       		.byte	0x50
 3168 0789 00000000 		.4byte	0
 3169 078d 00000000 		.4byte	0
 3170              	.LLST25:
 3171 0791 00000000 		.4byte	.LVL109
 3172 0795 2F000000 		.4byte	.LVL114-1
 3173 0799 0100     		.2byte	0x1
 3174 079b 51       		.byte	0x51
 3175 079c 2F000000 		.4byte	.LVL114-1
 3176 07a0 A6000000 		.4byte	.LVL121
 3177 07a4 0400     		.2byte	0x4
 3178 07a6 F3       		.byte	0xf3
 3179 07a7 01       		.uleb128 0x1
 3180 07a8 51       		.byte	0x51
 3181 07a9 9F       		.byte	0x9f
 3182 07aa A6000000 		.4byte	.LVL121
 3183 07ae A8000000 		.4byte	.LVL122
 3184 07b2 0100     		.2byte	0x1
 3185 07b4 51       		.byte	0x51
 3186 07b5 A8000000 		.4byte	.LVL122
 3187 07b9 C4000000 		.4byte	.LFE5
 3188 07bd 0400     		.2byte	0x4
 3189 07bf F3       		.byte	0xf3
 3190 07c0 01       		.uleb128 0x1
 3191 07c1 51       		.byte	0x51
 3192 07c2 9F       		.byte	0x9f
 3193 07c3 00000000 		.4byte	0
 3194 07c7 00000000 		.4byte	0
 3195              	.LLST26:
 3196 07cb 02000000 		.4byte	.LVL110
 3197 07cf 66000000 		.4byte	.LVL115
 3198 07d3 0200     		.2byte	0x2
 3199 07d5 30       		.byte	0x30
 3200 07d6 9F       		.byte	0x9f
 3201 07d7 66000000 		.4byte	.LVL115
 3202 07db 6C000000 		.4byte	.LVL116
 3203 07df 0200     		.2byte	0x2
ARM GAS  C:\Users\username\AppData\Local\Temp\cc0FlDXj.s 			page 77


 3204 07e1 31       		.byte	0x31
 3205 07e2 9F       		.byte	0x9f
 3206 07e3 6C000000 		.4byte	.LVL116
 3207 07e7 72000000 		.4byte	.LVL117
 3208 07eb 0200     		.2byte	0x2
 3209 07ed 30       		.byte	0x30
 3210 07ee 9F       		.byte	0x9f
 3211 07ef 72000000 		.4byte	.LVL117
 3212 07f3 7A000000 		.4byte	.LVL118
 3213 07f7 0200     		.2byte	0x2
 3214 07f9 31       		.byte	0x31
 3215 07fa 9F       		.byte	0x9f
 3216 07fb 7A000000 		.4byte	.LVL118
 3217 07ff 84000000 		.4byte	.LVL119
 3218 0803 0200     		.2byte	0x2
 3219 0805 30       		.byte	0x30
 3220 0806 9F       		.byte	0x9f
 3221 0807 84000000 		.4byte	.LVL119
 3222 080b 9E000000 		.4byte	.LVL120
 3223 080f 0100     		.2byte	0x1
 3224 0811 51       		.byte	0x51
 3225 0812 A6000000 		.4byte	.LVL121
 3226 0816 A8000000 		.4byte	.LVL122
 3227 081a 0200     		.2byte	0x2
 3228 081c 30       		.byte	0x30
 3229 081d 9F       		.byte	0x9f
 3230 081e 00000000 		.4byte	0
 3231 0822 00000000 		.4byte	0
 3232              	.LLST27:
 3233 0826 02000000 		.4byte	.LVL110
 3234 082a 66000000 		.4byte	.LVL115
 3235 082e 0200     		.2byte	0x2
 3236 0830 34       		.byte	0x34
 3237 0831 9F       		.byte	0x9f
 3238 0832 66000000 		.4byte	.LVL115
 3239 0836 6C000000 		.4byte	.LVL116
 3240 083a 0200     		.2byte	0x2
 3241 083c 31       		.byte	0x31
 3242 083d 9F       		.byte	0x9f
 3243 083e 6C000000 		.4byte	.LVL116
 3244 0842 72000000 		.4byte	.LVL117
 3245 0846 0200     		.2byte	0x2
 3246 0848 34       		.byte	0x34
 3247 0849 9F       		.byte	0x9f
 3248 084a 72000000 		.4byte	.LVL117
 3249 084e 7A000000 		.4byte	.LVL118
 3250 0852 0400     		.2byte	0x4
 3251 0854 0A       		.byte	0xa
 3252 0855 0001     		.2byte	0x100
 3253 0857 9F       		.byte	0x9f
 3254 0858 7A000000 		.4byte	.LVL118
 3255 085c 84000000 		.4byte	.LVL119
 3256 0860 0200     		.2byte	0x2
 3257 0862 34       		.byte	0x34
 3258 0863 9F       		.byte	0x9f
 3259 0864 84000000 		.4byte	.LVL119
 3260 0868 A6000000 		.4byte	.LVL121
ARM GAS  C:\Users\username\AppData\Local\Temp\cc0FlDXj.s 			page 78


 3261 086c 0100     		.2byte	0x1
 3262 086e 50       		.byte	0x50
 3263 086f A6000000 		.4byte	.LVL121
 3264 0873 A8000000 		.4byte	.LVL122
 3265 0877 0200     		.2byte	0x2
 3266 0879 34       		.byte	0x34
 3267 087a 9F       		.byte	0x9f
 3268 087b A8000000 		.4byte	.LVL122
 3269 087f C4000000 		.4byte	.LFE5
 3270 0883 0100     		.2byte	0x1
 3271 0885 50       		.byte	0x50
 3272 0886 00000000 		.4byte	0
 3273 088a 00000000 		.4byte	0
 3274              		.section	.debug_aranges,"",%progbits
 3275 0000 84000000 		.4byte	0x84
 3276 0004 0200     		.2byte	0x2
 3277 0006 00000000 		.4byte	.Ldebug_info0
 3278 000a 04       		.byte	0x4
 3279 000b 00       		.byte	0
 3280 000c 0000     		.2byte	0
 3281 000e 0000     		.2byte	0
 3282 0010 00000000 		.4byte	.LFB4
 3283 0014 D8000000 		.4byte	.LFE4-.LFB4
 3284 0018 00000000 		.4byte	.LFB6
 3285 001c 8C000000 		.4byte	.LFE6-.LFB6
 3286 0020 00000000 		.4byte	.LFB7
 3287 0024 98000000 		.4byte	.LFE7-.LFB7
 3288 0028 00000000 		.4byte	.LFB8
 3289 002c 84000000 		.4byte	.LFE8-.LFB8
 3290 0030 00000000 		.4byte	.LFB9
 3291 0034 0C000000 		.4byte	.LFE9-.LFB9
 3292 0038 00000000 		.4byte	.LFB10
 3293 003c 0C000000 		.4byte	.LFE10-.LFB10
 3294 0040 00000000 		.4byte	.LFB11
 3295 0044 28000000 		.4byte	.LFE11-.LFB11
 3296 0048 00000000 		.4byte	.LFB12
 3297 004c 28000000 		.4byte	.LFE12-.LFB12
 3298 0050 00000000 		.4byte	.LFB13
 3299 0054 30000000 		.4byte	.LFE13-.LFB13
 3300 0058 00000000 		.4byte	.LFB14
 3301 005c 20000000 		.4byte	.LFE14-.LFB14
 3302 0060 00000000 		.4byte	.LFB15
 3303 0064 20000000 		.4byte	.LFE15-.LFB15
 3304 0068 00000000 		.4byte	.LFB2
 3305 006c EC000000 		.4byte	.LFE2-.LFB2
 3306 0070 00000000 		.4byte	.LFB3
 3307 0074 FC000000 		.4byte	.LFE3-.LFB3
 3308 0078 00000000 		.4byte	.LFB5
 3309 007c C4000000 		.4byte	.LFE5-.LFB5
 3310 0080 00000000 		.4byte	0
 3311 0084 00000000 		.4byte	0
 3312              		.section	.debug_ranges,"",%progbits
 3313              	.Ldebug_ranges0:
 3314 0000 00000000 		.4byte	.LFB4
 3315 0004 D8000000 		.4byte	.LFE4
 3316 0008 00000000 		.4byte	.LFB6
 3317 000c 8C000000 		.4byte	.LFE6
ARM GAS  C:\Users\username\AppData\Local\Temp\cc0FlDXj.s 			page 79


 3318 0010 00000000 		.4byte	.LFB7
 3319 0014 98000000 		.4byte	.LFE7
 3320 0018 00000000 		.4byte	.LFB8
 3321 001c 84000000 		.4byte	.LFE8
 3322 0020 00000000 		.4byte	.LFB9
 3323 0024 0C000000 		.4byte	.LFE9
 3324 0028 00000000 		.4byte	.LFB10
 3325 002c 0C000000 		.4byte	.LFE10
 3326 0030 00000000 		.4byte	.LFB11
 3327 0034 28000000 		.4byte	.LFE11
 3328 0038 00000000 		.4byte	.LFB12
 3329 003c 28000000 		.4byte	.LFE12
 3330 0040 00000000 		.4byte	.LFB13
 3331 0044 30000000 		.4byte	.LFE13
 3332 0048 00000000 		.4byte	.LFB14
 3333 004c 20000000 		.4byte	.LFE14
 3334 0050 00000000 		.4byte	.LFB15
 3335 0054 20000000 		.4byte	.LFE15
 3336 0058 00000000 		.4byte	.LFB2
 3337 005c EC000000 		.4byte	.LFE2
 3338 0060 00000000 		.4byte	.LFB3
 3339 0064 FC000000 		.4byte	.LFE3
 3340 0068 00000000 		.4byte	.LFB5
 3341 006c C4000000 		.4byte	.LFE5
 3342 0070 00000000 		.4byte	0
 3343 0074 00000000 		.4byte	0
 3344              		.section	.debug_line,"",%progbits
 3345              	.Ldebug_line0:
 3346 0000 B2020000 		.section	.debug_str,"MS",%progbits,1
 3346      02008800 
 3346      00000201 
 3346      FB0E0D00 
 3346      01010101 
 3347              	.LASF19:
 3348 0000 72657365 		.ascii	"resetIp\000"
 3348      74497000 
 3349              	.LASF38:
 3350 0008 4932435F 		.ascii	"I2C_bus_I2CMasterReadBuf\000"
 3350      6275735F 
 3350      4932434D 
 3350      61737465 
 3350      72526561 
 3351              	.LASF15:
 3352 0021 72656733 		.ascii	"reg32\000"
 3352      3200
 3353              	.LASF34:
 3354 0027 4932435F 		.ascii	"I2C_bus_I2CReStartGeneration\000"
 3354      6275735F 
 3354      49324352 
 3354      65537461 
 3354      72744765 
 3355              	.LASF22:
 3356 0044 4932435F 		.ascii	"I2C_bus_I2CMasterSendStop\000"
 3356      6275735F 
 3356      4932434D 
 3356      61737465 
 3356      7253656E 
ARM GAS  C:\Users\username\AppData\Local\Temp\cc0FlDXj.s 			page 80


 3357              	.LASF21:
 3358 005e 4932435F 		.ascii	"I2C_bus_I2CMasterSendStart\000"
 3358      6275735F 
 3358      4932434D 
 3358      61737465 
 3358      7253656E 
 3359              	.LASF30:
 3360 0079 4932435F 		.ascii	"I2C_bus_I2CMasterClearWriteBuf\000"
 3360      6275735F 
 3360      4932434D 
 3360      61737465 
 3360      72436C65 
 3361              	.LASF43:
 3362 0098 4932435F 		.ascii	"I2C_bus_mstrControl\000"
 3362      6275735F 
 3362      6D737472 
 3362      436F6E74 
 3362      726F6C00 
 3363              	.LASF42:
 3364 00ac 4932435F 		.ascii	"I2C_bus_mstrStatus\000"
 3364      6275735F 
 3364      6D737472 
 3364      53746174 
 3364      757300
 3365              	.LASF3:
 3366 00bf 73686F72 		.ascii	"short unsigned int\000"
 3366      7420756E 
 3366      7369676E 
 3366      65642069 
 3366      6E7400
 3367              	.LASF32:
 3368 00d2 73746174 		.ascii	"status\000"
 3368      757300
 3369              	.LASF49:
 3370 00d9 4932435F 		.ascii	"I2C_bus_mstrWrBufIndex\000"
 3370      6275735F 
 3370      6D737472 
 3370      57724275 
 3370      66496E64 
 3371              	.LASF52:
 3372 00f0 2E5C4765 		.ascii	".\\Generated_Source\\PSoC4\\I2C_bus_I2C_MASTER.c\000"
 3372      6E657261 
 3372      7465645F 
 3372      536F7572 
 3372      63655C50 
 3373              	.LASF12:
 3374 011e 666C6F61 		.ascii	"float\000"
 3374      7400
 3375              	.LASF27:
 3376 0124 4932435F 		.ascii	"I2C_bus_I2CMasterGetReadBufSize\000"
 3376      6275735F 
 3376      4932434D 
 3376      61737465 
 3376      72476574 
 3377              	.LASF1:
 3378 0144 756E7369 		.ascii	"unsigned char\000"
 3378      676E6564 
ARM GAS  C:\Users\username\AppData\Local\Temp\cc0FlDXj.s 			page 81


 3378      20636861 
 3378      7200
 3379              	.LASF5:
 3380 0152 6C6F6E67 		.ascii	"long unsigned int\000"
 3380      20756E73 
 3380      69676E65 
 3380      6420696E 
 3380      7400
 3381              	.LASF9:
 3382 0164 75696E74 		.ascii	"uint8\000"
 3382      3800
 3383              	.LASF35:
 3384 016a 4932435F 		.ascii	"I2C_bus_I2CMasterWriteBuf\000"
 3384      6275735F 
 3384      4932434D 
 3384      61737465 
 3384      72577269 
 3385              	.LASF26:
 3386 0184 61636B4E 		.ascii	"ackNack\000"
 3386      61636B00 
 3387              	.LASF53:
 3388 018c 433A5C55 		.ascii	"C:\\Users\\username\\Dropbox\\PSoC Creator\\304 Exa"
 3388      73657273 
 3388      5C757365 
 3388      726E616D 
 3388      655C4472 
 3389 01ba 6D706C65 		.ascii	"mple\\Bluetooth_central_client\\client_test.cydsn\000"
 3389      5C426C75 
 3389      65746F6F 
 3389      74685F63 
 3389      656E7472 
 3390              	.LASF29:
 3391 01ea 4932435F 		.ascii	"I2C_bus_I2CMasterClearReadBuf\000"
 3391      6275735F 
 3391      4932434D 
 3391      61737465 
 3391      72436C65 
 3392              	.LASF46:
 3393 0208 4932435F 		.ascii	"I2C_bus_mstrRdBufIndex\000"
 3393      6275735F 
 3393      6D737472 
 3393      52644275 
 3393      66496E64 
 3394              	.LASF45:
 3395 021f 4932435F 		.ascii	"I2C_bus_mstrRdBufSize\000"
 3395      6275735F 
 3395      6D737472 
 3395      52644275 
 3395      6653697A 
 3396              	.LASF13:
 3397 0235 646F7562 		.ascii	"double\000"
 3397      6C6500
 3398              	.LASF18:
 3399 023c 62697452 		.ascii	"bitRnW\000"
 3399      6E5700
 3400              	.LASF55:
 3401 0243 4379496E 		.ascii	"CyIntEnable\000"
ARM GAS  C:\Users\username\AppData\Local\Temp\cc0FlDXj.s 			page 82


 3401      74456E61 
 3401      626C6500 
 3402              	.LASF33:
 3403 024f 4932435F 		.ascii	"I2C_bus_I2CMasterClearStatus\000"
 3403      6275735F 
 3403      4932434D 
 3403      61737465 
 3403      72436C65 
 3404              	.LASF10:
 3405 026c 75696E74 		.ascii	"uint16\000"
 3405      313600
 3406              	.LASF31:
 3407 0273 4932435F 		.ascii	"I2C_bus_I2CMasterStatus\000"
 3407      6275735F 
 3407      4932434D 
 3407      61737465 
 3407      72537461 
 3408              	.LASF39:
 3409 028b 72644461 		.ascii	"rdData\000"
 3409      746100
 3410              	.LASF11:
 3411 0292 75696E74 		.ascii	"uint32\000"
 3411      333200
 3412              	.LASF8:
 3413 0299 756E7369 		.ascii	"unsigned int\000"
 3413      676E6564 
 3413      20696E74 
 3413      00
 3414              	.LASF36:
 3415 02a6 77724461 		.ascii	"wrData\000"
 3415      746100
 3416              	.LASF7:
 3417 02ad 6C6F6E67 		.ascii	"long long unsigned int\000"
 3417      206C6F6E 
 3417      6720756E 
 3417      7369676E 
 3417      65642069 
 3418              	.LASF37:
 3419 02c4 6D6F6465 		.ascii	"mode\000"
 3419      00
 3420              	.LASF17:
 3421 02c9 736C6176 		.ascii	"slaveAddress\000"
 3421      65416464 
 3421      72657373 
 3421      00
 3422              	.LASF41:
 3423 02d6 4932435F 		.ascii	"I2C_bus_state\000"
 3423      6275735F 
 3423      73746174 
 3423      6500
 3424              	.LASF16:
 3425 02e4 73697A65 		.ascii	"sizetype\000"
 3425      74797065 
 3425      00
 3426              	.LASF20:
 3427 02ed 65727253 		.ascii	"errStatus\000"
 3427      74617475 
ARM GAS  C:\Users\username\AppData\Local\Temp\cc0FlDXj.s 			page 83


 3427      7300
 3428              	.LASF6:
 3429 02f7 6C6F6E67 		.ascii	"long long int\000"
 3429      206C6F6E 
 3429      6720696E 
 3429      7400
 3430              	.LASF44:
 3431 0305 4932435F 		.ascii	"I2C_bus_mstrRdBufPtr\000"
 3431      6275735F 
 3431      6D737472 
 3431      52644275 
 3431      66507472 
 3432              	.LASF14:
 3433 031a 63686172 		.ascii	"char\000"
 3433      00
 3434              	.LASF51:
 3435 031f 474E5520 		.ascii	"GNU C 4.9.3 20150303 (release) [ARM/embedded-4_9-br"
 3435      4320342E 
 3435      392E3320 
 3435      32303135 
 3435      30333033 
 3436 0352 616E6368 		.ascii	"anch revision 221220] -mcpu=cortex-m0 -mthumb -g -O"
 3436      20726576 
 3436      6973696F 
 3436      6E203232 
 3436      31323230 
 3437 0385 67202D66 		.ascii	"g -ffunction-sections -ffat-lto-objects\000"
 3437      66756E63 
 3437      74696F6E 
 3437      2D736563 
 3437      74696F6E 
 3438              	.LASF54:
 3439 03ad 4379496E 		.ascii	"CyIntDisable\000"
 3439      74446973 
 3439      61626C65 
 3439      00
 3440              	.LASF2:
 3441 03ba 73686F72 		.ascii	"short int\000"
 3441      7420696E 
 3441      7400
 3442              	.LASF24:
 3443 03c4 74686542 		.ascii	"theByte\000"
 3443      79746500 
 3444              	.LASF23:
 3445 03cc 4932435F 		.ascii	"I2C_bus_I2CMasterWriteByte\000"
 3445      6275735F 
 3445      4932434D 
 3445      61737465 
 3445      72577269 
 3446              	.LASF4:
 3447 03e7 6C6F6E67 		.ascii	"long int\000"
 3447      20696E74 
 3447      00
 3448              	.LASF28:
 3449 03f0 4932435F 		.ascii	"I2C_bus_I2CMasterGetWriteBufSize\000"
 3449      6275735F 
 3449      4932434D 
ARM GAS  C:\Users\username\AppData\Local\Temp\cc0FlDXj.s 			page 84


 3449      61737465 
 3449      72476574 
 3450              	.LASF0:
 3451 0411 7369676E 		.ascii	"signed char\000"
 3451      65642063 
 3451      68617200 
 3452              	.LASF47:
 3453 041d 4932435F 		.ascii	"I2C_bus_mstrWrBufPtr\000"
 3453      6275735F 
 3453      6D737472 
 3453      57724275 
 3453      66507472 
 3454              	.LASF25:
 3455 0432 4932435F 		.ascii	"I2C_bus_I2CMasterReadByte\000"
 3455      6275735F 
 3455      4932434D 
 3455      61737465 
 3455      72526561 
 3456              	.LASF40:
 3457 044c 4932435F 		.ascii	"I2C_bus_I2CMasterSendRestart\000"
 3457      6275735F 
 3457      4932434D 
 3457      61737465 
 3457      7253656E 
 3458              	.LASF50:
 3459 0469 4932435F 		.ascii	"I2C_bus_mstrWrBufIndexTmp\000"
 3459      6275735F 
 3459      6D737472 
 3459      57724275 
 3459      66496E64 
 3460              	.LASF48:
 3461 0483 4932435F 		.ascii	"I2C_bus_mstrWrBufSize\000"
 3461      6275735F 
 3461      6D737472 
 3461      57724275 
 3461      6653697A 
 3462              		.ident	"GCC: (GNU Tools for ARM Embedded Processors) 4.9.3 20150303 (release) [ARM/embedded-4_9-br
