ARM GAS  C:\Users\username\AppData\Local\Temp\cc8R0ECR.s 			page 1


   1              		.cpu cortex-m0
   2              		.fpu softvfp
   3              		.eabi_attribute 20, 1
   4              		.eabi_attribute 21, 1
   5              		.eabi_attribute 23, 3
   6              		.eabi_attribute 24, 1
   7              		.eabi_attribute 25, 1
   8              		.eabi_attribute 26, 1
   9              		.eabi_attribute 30, 1
  10              		.eabi_attribute 34, 0
  11              		.eabi_attribute 18, 4
  12              		.code	16
  13              		.file	"I2C_bus.c"
  14              		.text
  15              	.Ltext0:
  16              		.cfi_sections	.debug_frame
  17              		.section	.text.I2C_bus_ScbEnableIntr,"ax",%progbits
  18              		.align	2
  19              		.code	16
  20              		.thumb_func
  21              		.type	I2C_bus_ScbEnableIntr, %function
  22              	I2C_bus_ScbEnableIntr:
  23              	.LFB9:
  24              		.file 1 ".\\Generated_Source\\PSoC4\\I2C_bus.c"
   1:.\Generated_Source\PSoC4/I2C_bus.c **** /*******************************************************************************
   2:.\Generated_Source\PSoC4/I2C_bus.c **** * File Name: I2C_bus.c
   3:.\Generated_Source\PSoC4/I2C_bus.c **** * Version 3.0
   4:.\Generated_Source\PSoC4/I2C_bus.c **** *
   5:.\Generated_Source\PSoC4/I2C_bus.c **** * Description:
   6:.\Generated_Source\PSoC4/I2C_bus.c **** *  This file provides the source code to the API for the SCB Component.
   7:.\Generated_Source\PSoC4/I2C_bus.c **** *
   8:.\Generated_Source\PSoC4/I2C_bus.c **** * Note:
   9:.\Generated_Source\PSoC4/I2C_bus.c **** *
  10:.\Generated_Source\PSoC4/I2C_bus.c **** *******************************************************************************
  11:.\Generated_Source\PSoC4/I2C_bus.c **** * Copyright 2013-2015, Cypress Semiconductor Corporation.  All rights reserved.
  12:.\Generated_Source\PSoC4/I2C_bus.c **** * You may use this file only in accordance with the license, terms, conditions,
  13:.\Generated_Source\PSoC4/I2C_bus.c **** * disclaimers, and limitations in the end user license agreement accompanying
  14:.\Generated_Source\PSoC4/I2C_bus.c **** * the software package with which this file was provided.
  15:.\Generated_Source\PSoC4/I2C_bus.c **** *******************************************************************************/
  16:.\Generated_Source\PSoC4/I2C_bus.c **** 
  17:.\Generated_Source\PSoC4/I2C_bus.c **** #include "I2C_bus_PVT.h"
  18:.\Generated_Source\PSoC4/I2C_bus.c **** 
  19:.\Generated_Source\PSoC4/I2C_bus.c **** #if (I2C_bus_SCB_MODE_I2C_INC)
  20:.\Generated_Source\PSoC4/I2C_bus.c ****     #include "I2C_bus_I2C_PVT.h"
  21:.\Generated_Source\PSoC4/I2C_bus.c **** #endif /* (I2C_bus_SCB_MODE_I2C_INC) */
  22:.\Generated_Source\PSoC4/I2C_bus.c **** 
  23:.\Generated_Source\PSoC4/I2C_bus.c **** #if (I2C_bus_SCB_MODE_EZI2C_INC)
  24:.\Generated_Source\PSoC4/I2C_bus.c ****     #include "I2C_bus_EZI2C_PVT.h"
  25:.\Generated_Source\PSoC4/I2C_bus.c **** #endif /* (I2C_bus_SCB_MODE_EZI2C_INC) */
  26:.\Generated_Source\PSoC4/I2C_bus.c **** 
  27:.\Generated_Source\PSoC4/I2C_bus.c **** #if (I2C_bus_SCB_MODE_SPI_INC || I2C_bus_SCB_MODE_UART_INC)
  28:.\Generated_Source\PSoC4/I2C_bus.c ****     #include "I2C_bus_SPI_UART_PVT.h"
  29:.\Generated_Source\PSoC4/I2C_bus.c **** #endif /* (I2C_bus_SCB_MODE_SPI_INC || I2C_bus_SCB_MODE_UART_INC) */
  30:.\Generated_Source\PSoC4/I2C_bus.c **** 
  31:.\Generated_Source\PSoC4/I2C_bus.c **** 
  32:.\Generated_Source\PSoC4/I2C_bus.c **** /***************************************
  33:.\Generated_Source\PSoC4/I2C_bus.c **** *    Run Time Configuration Vars
ARM GAS  C:\Users\username\AppData\Local\Temp\cc8R0ECR.s 			page 2


  34:.\Generated_Source\PSoC4/I2C_bus.c **** ***************************************/
  35:.\Generated_Source\PSoC4/I2C_bus.c **** 
  36:.\Generated_Source\PSoC4/I2C_bus.c **** /* Stores internal component configuration for Unconfigured mode */
  37:.\Generated_Source\PSoC4/I2C_bus.c **** #if (I2C_bus_SCB_MODE_UNCONFIG_CONST_CFG)
  38:.\Generated_Source\PSoC4/I2C_bus.c ****     /* Common configuration variables */
  39:.\Generated_Source\PSoC4/I2C_bus.c ****     uint8 I2C_bus_scbMode = I2C_bus_SCB_MODE_UNCONFIG;
  40:.\Generated_Source\PSoC4/I2C_bus.c ****     uint8 I2C_bus_scbEnableWake;
  41:.\Generated_Source\PSoC4/I2C_bus.c ****     uint8 I2C_bus_scbEnableIntr;
  42:.\Generated_Source\PSoC4/I2C_bus.c **** 
  43:.\Generated_Source\PSoC4/I2C_bus.c ****     /* I2C configuration variables */
  44:.\Generated_Source\PSoC4/I2C_bus.c ****     uint8 I2C_bus_mode;
  45:.\Generated_Source\PSoC4/I2C_bus.c ****     uint8 I2C_bus_acceptAddr;
  46:.\Generated_Source\PSoC4/I2C_bus.c **** 
  47:.\Generated_Source\PSoC4/I2C_bus.c ****     /* SPI/UART configuration variables */
  48:.\Generated_Source\PSoC4/I2C_bus.c ****     volatile uint8 * I2C_bus_rxBuffer;
  49:.\Generated_Source\PSoC4/I2C_bus.c ****     uint8  I2C_bus_rxDataBits;
  50:.\Generated_Source\PSoC4/I2C_bus.c ****     uint32 I2C_bus_rxBufferSize;
  51:.\Generated_Source\PSoC4/I2C_bus.c **** 
  52:.\Generated_Source\PSoC4/I2C_bus.c ****     volatile uint8 * I2C_bus_txBuffer;
  53:.\Generated_Source\PSoC4/I2C_bus.c ****     uint8  I2C_bus_txDataBits;
  54:.\Generated_Source\PSoC4/I2C_bus.c ****     uint32 I2C_bus_txBufferSize;
  55:.\Generated_Source\PSoC4/I2C_bus.c **** 
  56:.\Generated_Source\PSoC4/I2C_bus.c ****     /* EZI2C configuration variables */
  57:.\Generated_Source\PSoC4/I2C_bus.c ****     uint8 I2C_bus_numberOfAddr;
  58:.\Generated_Source\PSoC4/I2C_bus.c ****     uint8 I2C_bus_subAddrSize;
  59:.\Generated_Source\PSoC4/I2C_bus.c **** #endif /* (I2C_bus_SCB_MODE_UNCONFIG_CONST_CFG) */
  60:.\Generated_Source\PSoC4/I2C_bus.c **** 
  61:.\Generated_Source\PSoC4/I2C_bus.c **** 
  62:.\Generated_Source\PSoC4/I2C_bus.c **** /***************************************
  63:.\Generated_Source\PSoC4/I2C_bus.c **** *     Common SCB Vars
  64:.\Generated_Source\PSoC4/I2C_bus.c **** ***************************************/
  65:.\Generated_Source\PSoC4/I2C_bus.c **** 
  66:.\Generated_Source\PSoC4/I2C_bus.c **** uint8 I2C_bus_initVar = 0u;
  67:.\Generated_Source\PSoC4/I2C_bus.c **** 
  68:.\Generated_Source\PSoC4/I2C_bus.c **** #if (I2C_bus_SCB_IRQ_INTERNAL)
  69:.\Generated_Source\PSoC4/I2C_bus.c **** #if !defined (CY_REMOVE_I2C_bus_CUSTOM_INTR_HANDLER)
  70:.\Generated_Source\PSoC4/I2C_bus.c ****     void (*I2C_bus_customIntrHandler)(void) = NULL;
  71:.\Generated_Source\PSoC4/I2C_bus.c **** #endif /* !defined (CY_REMOVE_I2C_bus_CUSTOM_INTR_HANDLER) */
  72:.\Generated_Source\PSoC4/I2C_bus.c **** #endif /* (I2C_bus_SCB_IRQ_INTERNAL) */
  73:.\Generated_Source\PSoC4/I2C_bus.c **** 
  74:.\Generated_Source\PSoC4/I2C_bus.c **** 
  75:.\Generated_Source\PSoC4/I2C_bus.c **** /***************************************
  76:.\Generated_Source\PSoC4/I2C_bus.c **** *    Private Function Prototypes
  77:.\Generated_Source\PSoC4/I2C_bus.c **** ***************************************/
  78:.\Generated_Source\PSoC4/I2C_bus.c **** 
  79:.\Generated_Source\PSoC4/I2C_bus.c **** static void I2C_bus_ScbEnableIntr(void);
  80:.\Generated_Source\PSoC4/I2C_bus.c **** static void I2C_bus_ScbModeStop(void);
  81:.\Generated_Source\PSoC4/I2C_bus.c **** static void I2C_bus_ScbModePostEnable(void);
  82:.\Generated_Source\PSoC4/I2C_bus.c **** 
  83:.\Generated_Source\PSoC4/I2C_bus.c **** 
  84:.\Generated_Source\PSoC4/I2C_bus.c **** /*******************************************************************************
  85:.\Generated_Source\PSoC4/I2C_bus.c **** * Function Name: I2C_bus_Init
  86:.\Generated_Source\PSoC4/I2C_bus.c **** ********************************************************************************
  87:.\Generated_Source\PSoC4/I2C_bus.c **** *
  88:.\Generated_Source\PSoC4/I2C_bus.c **** * Summary:
  89:.\Generated_Source\PSoC4/I2C_bus.c **** *  Initializes the SCB component to operate in one of the selected
  90:.\Generated_Source\PSoC4/I2C_bus.c **** *  configurations: I2C, SPI, UART or EZI2C.
ARM GAS  C:\Users\username\AppData\Local\Temp\cc8R0ECR.s 			page 3


  91:.\Generated_Source\PSoC4/I2C_bus.c **** *  When the configuration is set to "Unconfigured SCB", this function does
  92:.\Generated_Source\PSoC4/I2C_bus.c **** *  not do any initialization. Use mode-specific initialization APIs instead:
  93:.\Generated_Source\PSoC4/I2C_bus.c **** *  SCB_I2CInit, SCB_SpiInit, SCB_UartInit or SCB_EzI2CInit.
  94:.\Generated_Source\PSoC4/I2C_bus.c **** *
  95:.\Generated_Source\PSoC4/I2C_bus.c **** * Parameters:
  96:.\Generated_Source\PSoC4/I2C_bus.c **** *  None
  97:.\Generated_Source\PSoC4/I2C_bus.c **** *
  98:.\Generated_Source\PSoC4/I2C_bus.c **** * Return:
  99:.\Generated_Source\PSoC4/I2C_bus.c **** *  None
 100:.\Generated_Source\PSoC4/I2C_bus.c **** *
 101:.\Generated_Source\PSoC4/I2C_bus.c **** *******************************************************************************/
 102:.\Generated_Source\PSoC4/I2C_bus.c **** void I2C_bus_Init(void)
 103:.\Generated_Source\PSoC4/I2C_bus.c **** {
 104:.\Generated_Source\PSoC4/I2C_bus.c **** #if (I2C_bus_SCB_MODE_UNCONFIG_CONST_CFG)
 105:.\Generated_Source\PSoC4/I2C_bus.c ****     if (I2C_bus_SCB_MODE_UNCONFIG_RUNTM_CFG)
 106:.\Generated_Source\PSoC4/I2C_bus.c ****     {
 107:.\Generated_Source\PSoC4/I2C_bus.c ****         I2C_bus_initVar = 0u;
 108:.\Generated_Source\PSoC4/I2C_bus.c ****     }
 109:.\Generated_Source\PSoC4/I2C_bus.c ****     else
 110:.\Generated_Source\PSoC4/I2C_bus.c ****     {
 111:.\Generated_Source\PSoC4/I2C_bus.c ****         /* Initialization was done before this function call */
 112:.\Generated_Source\PSoC4/I2C_bus.c ****     }
 113:.\Generated_Source\PSoC4/I2C_bus.c **** 
 114:.\Generated_Source\PSoC4/I2C_bus.c **** #elif (I2C_bus_SCB_MODE_I2C_CONST_CFG)
 115:.\Generated_Source\PSoC4/I2C_bus.c ****     I2C_bus_I2CInit();
 116:.\Generated_Source\PSoC4/I2C_bus.c **** 
 117:.\Generated_Source\PSoC4/I2C_bus.c **** #elif (I2C_bus_SCB_MODE_SPI_CONST_CFG)
 118:.\Generated_Source\PSoC4/I2C_bus.c ****     I2C_bus_SpiInit();
 119:.\Generated_Source\PSoC4/I2C_bus.c **** 
 120:.\Generated_Source\PSoC4/I2C_bus.c **** #elif (I2C_bus_SCB_MODE_UART_CONST_CFG)
 121:.\Generated_Source\PSoC4/I2C_bus.c ****     I2C_bus_UartInit();
 122:.\Generated_Source\PSoC4/I2C_bus.c **** 
 123:.\Generated_Source\PSoC4/I2C_bus.c **** #elif (I2C_bus_SCB_MODE_EZI2C_CONST_CFG)
 124:.\Generated_Source\PSoC4/I2C_bus.c ****     I2C_bus_EzI2CInit();
 125:.\Generated_Source\PSoC4/I2C_bus.c **** 
 126:.\Generated_Source\PSoC4/I2C_bus.c **** #endif /* (I2C_bus_SCB_MODE_UNCONFIG_CONST_CFG) */
 127:.\Generated_Source\PSoC4/I2C_bus.c **** }
 128:.\Generated_Source\PSoC4/I2C_bus.c **** 
 129:.\Generated_Source\PSoC4/I2C_bus.c **** 
 130:.\Generated_Source\PSoC4/I2C_bus.c **** /*******************************************************************************
 131:.\Generated_Source\PSoC4/I2C_bus.c **** * Function Name: I2C_bus_Enable
 132:.\Generated_Source\PSoC4/I2C_bus.c **** ********************************************************************************
 133:.\Generated_Source\PSoC4/I2C_bus.c **** *
 134:.\Generated_Source\PSoC4/I2C_bus.c **** * Summary:
 135:.\Generated_Source\PSoC4/I2C_bus.c **** *  Enables the SCB component operation.
 136:.\Generated_Source\PSoC4/I2C_bus.c **** *  The SCB configuration should be not changed when the component is enabled.
 137:.\Generated_Source\PSoC4/I2C_bus.c **** *  Any configuration changes should be made after disabling the component.
 138:.\Generated_Source\PSoC4/I2C_bus.c **** *
 139:.\Generated_Source\PSoC4/I2C_bus.c **** * Parameters:
 140:.\Generated_Source\PSoC4/I2C_bus.c **** *  None
 141:.\Generated_Source\PSoC4/I2C_bus.c **** *
 142:.\Generated_Source\PSoC4/I2C_bus.c **** * Return:
 143:.\Generated_Source\PSoC4/I2C_bus.c **** *  None
 144:.\Generated_Source\PSoC4/I2C_bus.c **** *
 145:.\Generated_Source\PSoC4/I2C_bus.c **** *******************************************************************************/
 146:.\Generated_Source\PSoC4/I2C_bus.c **** void I2C_bus_Enable(void)
 147:.\Generated_Source\PSoC4/I2C_bus.c **** {
ARM GAS  C:\Users\username\AppData\Local\Temp\cc8R0ECR.s 			page 4


 148:.\Generated_Source\PSoC4/I2C_bus.c **** #if (I2C_bus_SCB_MODE_UNCONFIG_CONST_CFG)
 149:.\Generated_Source\PSoC4/I2C_bus.c ****     /* Enable SCB block, only if it is already configured */
 150:.\Generated_Source\PSoC4/I2C_bus.c ****     if (!I2C_bus_SCB_MODE_UNCONFIG_RUNTM_CFG)
 151:.\Generated_Source\PSoC4/I2C_bus.c ****     {
 152:.\Generated_Source\PSoC4/I2C_bus.c ****         I2C_bus_CTRL_REG |= I2C_bus_CTRL_ENABLED;
 153:.\Generated_Source\PSoC4/I2C_bus.c **** 
 154:.\Generated_Source\PSoC4/I2C_bus.c ****         I2C_bus_ScbEnableIntr();
 155:.\Generated_Source\PSoC4/I2C_bus.c **** 
 156:.\Generated_Source\PSoC4/I2C_bus.c ****         /* Call PostEnable function specific to current operation mode */
 157:.\Generated_Source\PSoC4/I2C_bus.c ****         I2C_bus_ScbModePostEnable();
 158:.\Generated_Source\PSoC4/I2C_bus.c ****     }
 159:.\Generated_Source\PSoC4/I2C_bus.c **** #else
 160:.\Generated_Source\PSoC4/I2C_bus.c ****     I2C_bus_CTRL_REG |= I2C_bus_CTRL_ENABLED;
 161:.\Generated_Source\PSoC4/I2C_bus.c **** 
 162:.\Generated_Source\PSoC4/I2C_bus.c ****     I2C_bus_ScbEnableIntr();
 163:.\Generated_Source\PSoC4/I2C_bus.c **** 
 164:.\Generated_Source\PSoC4/I2C_bus.c ****     /* Call PostEnable function specific to current operation mode */
 165:.\Generated_Source\PSoC4/I2C_bus.c ****     I2C_bus_ScbModePostEnable();
 166:.\Generated_Source\PSoC4/I2C_bus.c **** #endif /* (I2C_bus_SCB_MODE_UNCONFIG_CONST_CFG) */
 167:.\Generated_Source\PSoC4/I2C_bus.c **** }
 168:.\Generated_Source\PSoC4/I2C_bus.c **** 
 169:.\Generated_Source\PSoC4/I2C_bus.c **** 
 170:.\Generated_Source\PSoC4/I2C_bus.c **** /*******************************************************************************
 171:.\Generated_Source\PSoC4/I2C_bus.c **** * Function Name: I2C_bus_Start
 172:.\Generated_Source\PSoC4/I2C_bus.c **** ********************************************************************************
 173:.\Generated_Source\PSoC4/I2C_bus.c **** *
 174:.\Generated_Source\PSoC4/I2C_bus.c **** * Summary:
 175:.\Generated_Source\PSoC4/I2C_bus.c **** *  Invokes SCB_Init() and SCB_Enable().
 176:.\Generated_Source\PSoC4/I2C_bus.c **** *  After this function call, the component is enabled and ready for operation.
 177:.\Generated_Source\PSoC4/I2C_bus.c **** *  When configuration is set to "Unconfigured SCB", the component must first be
 178:.\Generated_Source\PSoC4/I2C_bus.c **** *  initialized to operate in one of the following configurations: I2C, SPI, UART
 179:.\Generated_Source\PSoC4/I2C_bus.c **** *  or EZ I2C. Otherwise this function does not enable the component.
 180:.\Generated_Source\PSoC4/I2C_bus.c **** *
 181:.\Generated_Source\PSoC4/I2C_bus.c **** * Parameters:
 182:.\Generated_Source\PSoC4/I2C_bus.c **** *  None
 183:.\Generated_Source\PSoC4/I2C_bus.c **** *
 184:.\Generated_Source\PSoC4/I2C_bus.c **** * Return:
 185:.\Generated_Source\PSoC4/I2C_bus.c **** *  None
 186:.\Generated_Source\PSoC4/I2C_bus.c **** *
 187:.\Generated_Source\PSoC4/I2C_bus.c **** * Global variables:
 188:.\Generated_Source\PSoC4/I2C_bus.c **** *  I2C_bus_initVar - used to check initial configuration, modified
 189:.\Generated_Source\PSoC4/I2C_bus.c **** *  on first function call.
 190:.\Generated_Source\PSoC4/I2C_bus.c **** *
 191:.\Generated_Source\PSoC4/I2C_bus.c **** *******************************************************************************/
 192:.\Generated_Source\PSoC4/I2C_bus.c **** void I2C_bus_Start(void)
 193:.\Generated_Source\PSoC4/I2C_bus.c **** {
 194:.\Generated_Source\PSoC4/I2C_bus.c ****     if (0u == I2C_bus_initVar)
 195:.\Generated_Source\PSoC4/I2C_bus.c ****     {
 196:.\Generated_Source\PSoC4/I2C_bus.c ****         I2C_bus_Init();
 197:.\Generated_Source\PSoC4/I2C_bus.c ****         I2C_bus_initVar = 1u; /* Component was initialized */
 198:.\Generated_Source\PSoC4/I2C_bus.c ****     }
 199:.\Generated_Source\PSoC4/I2C_bus.c **** 
 200:.\Generated_Source\PSoC4/I2C_bus.c ****     I2C_bus_Enable();
 201:.\Generated_Source\PSoC4/I2C_bus.c **** }
 202:.\Generated_Source\PSoC4/I2C_bus.c **** 
 203:.\Generated_Source\PSoC4/I2C_bus.c **** 
 204:.\Generated_Source\PSoC4/I2C_bus.c **** /*******************************************************************************
ARM GAS  C:\Users\username\AppData\Local\Temp\cc8R0ECR.s 			page 5


 205:.\Generated_Source\PSoC4/I2C_bus.c **** * Function Name: I2C_bus_Stop
 206:.\Generated_Source\PSoC4/I2C_bus.c **** ********************************************************************************
 207:.\Generated_Source\PSoC4/I2C_bus.c **** *
 208:.\Generated_Source\PSoC4/I2C_bus.c **** * Summary:
 209:.\Generated_Source\PSoC4/I2C_bus.c **** *  Disables the SCB component and its interrupt.
 210:.\Generated_Source\PSoC4/I2C_bus.c **** *  It also disables all TX interrupt sources so as not to cause an unexpected
 211:.\Generated_Source\PSoC4/I2C_bus.c **** *  interrupt trigger because after the component is enabled, the TX FIFO 
 212:.\Generated_Source\PSoC4/I2C_bus.c **** *  is empty.
 213:.\Generated_Source\PSoC4/I2C_bus.c **** *
 214:.\Generated_Source\PSoC4/I2C_bus.c **** * Parameters:
 215:.\Generated_Source\PSoC4/I2C_bus.c **** *  None
 216:.\Generated_Source\PSoC4/I2C_bus.c **** *
 217:.\Generated_Source\PSoC4/I2C_bus.c **** * Return:
 218:.\Generated_Source\PSoC4/I2C_bus.c **** *  None
 219:.\Generated_Source\PSoC4/I2C_bus.c **** * 
 220:.\Generated_Source\PSoC4/I2C_bus.c **** *******************************************************************************/
 221:.\Generated_Source\PSoC4/I2C_bus.c **** void I2C_bus_Stop(void)
 222:.\Generated_Source\PSoC4/I2C_bus.c **** {
 223:.\Generated_Source\PSoC4/I2C_bus.c **** #if (I2C_bus_SCB_IRQ_INTERNAL)
 224:.\Generated_Source\PSoC4/I2C_bus.c ****     I2C_bus_DisableInt();
 225:.\Generated_Source\PSoC4/I2C_bus.c **** #endif /* (I2C_bus_SCB_IRQ_INTERNAL) */
 226:.\Generated_Source\PSoC4/I2C_bus.c **** 
 227:.\Generated_Source\PSoC4/I2C_bus.c ****     /* Call Stop function specific to current operation mode */
 228:.\Generated_Source\PSoC4/I2C_bus.c ****     I2C_bus_ScbModeStop();
 229:.\Generated_Source\PSoC4/I2C_bus.c **** 
 230:.\Generated_Source\PSoC4/I2C_bus.c ****     /* Disable SCB IP */
 231:.\Generated_Source\PSoC4/I2C_bus.c ****     I2C_bus_CTRL_REG &= (uint32) ~I2C_bus_CTRL_ENABLED;
 232:.\Generated_Source\PSoC4/I2C_bus.c **** 
 233:.\Generated_Source\PSoC4/I2C_bus.c ****     /* Disable all TX interrupt sources so as not to cause an unexpected
 234:.\Generated_Source\PSoC4/I2C_bus.c ****     * interrupt trigger because after the component is enabled, the TX FIFO
 235:.\Generated_Source\PSoC4/I2C_bus.c ****     * is empty.
 236:.\Generated_Source\PSoC4/I2C_bus.c ****     * For SCB IP v0, it is critical as it does not mask-out interrupt
 237:.\Generated_Source\PSoC4/I2C_bus.c ****     * sources when they are disabled. This can cause a code lock-up in the
 238:.\Generated_Source\PSoC4/I2C_bus.c ****     * interrupt handler because TX FIFO cannot be loaded after the block
 239:.\Generated_Source\PSoC4/I2C_bus.c ****     * is disabled.
 240:.\Generated_Source\PSoC4/I2C_bus.c ****     */
 241:.\Generated_Source\PSoC4/I2C_bus.c ****     I2C_bus_SetTxInterruptMode(I2C_bus_NO_INTR_SOURCES);
 242:.\Generated_Source\PSoC4/I2C_bus.c **** 
 243:.\Generated_Source\PSoC4/I2C_bus.c **** #if (I2C_bus_SCB_IRQ_INTERNAL)
 244:.\Generated_Source\PSoC4/I2C_bus.c ****     I2C_bus_ClearPendingInt();
 245:.\Generated_Source\PSoC4/I2C_bus.c **** #endif /* (I2C_bus_SCB_IRQ_INTERNAL) */
 246:.\Generated_Source\PSoC4/I2C_bus.c **** }
 247:.\Generated_Source\PSoC4/I2C_bus.c **** 
 248:.\Generated_Source\PSoC4/I2C_bus.c **** 
 249:.\Generated_Source\PSoC4/I2C_bus.c **** /*******************************************************************************
 250:.\Generated_Source\PSoC4/I2C_bus.c **** * Function Name: I2C_bus_SetRxFifoLevel
 251:.\Generated_Source\PSoC4/I2C_bus.c **** ********************************************************************************
 252:.\Generated_Source\PSoC4/I2C_bus.c **** *
 253:.\Generated_Source\PSoC4/I2C_bus.c **** * Summary:
 254:.\Generated_Source\PSoC4/I2C_bus.c **** *  Sets level in the RX FIFO to generate a RX level interrupt.
 255:.\Generated_Source\PSoC4/I2C_bus.c **** *  When the RX FIFO has more entries than the RX FIFO level an RX level
 256:.\Generated_Source\PSoC4/I2C_bus.c **** *  interrupt request is generated.
 257:.\Generated_Source\PSoC4/I2C_bus.c **** *
 258:.\Generated_Source\PSoC4/I2C_bus.c **** * Parameters:
 259:.\Generated_Source\PSoC4/I2C_bus.c **** *  level: Level in the RX FIFO to generate RX level interrupt.
 260:.\Generated_Source\PSoC4/I2C_bus.c **** *         The range of valid level values is between 0 and RX FIFO depth - 1.
 261:.\Generated_Source\PSoC4/I2C_bus.c **** *
ARM GAS  C:\Users\username\AppData\Local\Temp\cc8R0ECR.s 			page 6


 262:.\Generated_Source\PSoC4/I2C_bus.c **** * Return:
 263:.\Generated_Source\PSoC4/I2C_bus.c **** *  None
 264:.\Generated_Source\PSoC4/I2C_bus.c **** *
 265:.\Generated_Source\PSoC4/I2C_bus.c **** *******************************************************************************/
 266:.\Generated_Source\PSoC4/I2C_bus.c **** void I2C_bus_SetRxFifoLevel(uint32 level)
 267:.\Generated_Source\PSoC4/I2C_bus.c **** {
 268:.\Generated_Source\PSoC4/I2C_bus.c ****     uint32 rxFifoCtrl;
 269:.\Generated_Source\PSoC4/I2C_bus.c **** 
 270:.\Generated_Source\PSoC4/I2C_bus.c ****     rxFifoCtrl = I2C_bus_RX_FIFO_CTRL_REG;
 271:.\Generated_Source\PSoC4/I2C_bus.c **** 
 272:.\Generated_Source\PSoC4/I2C_bus.c ****     rxFifoCtrl &= ((uint32) ~I2C_bus_RX_FIFO_CTRL_TRIGGER_LEVEL_MASK); /* Clear level mask bits */
 273:.\Generated_Source\PSoC4/I2C_bus.c ****     rxFifoCtrl |= ((uint32) (I2C_bus_RX_FIFO_CTRL_TRIGGER_LEVEL_MASK & level));
 274:.\Generated_Source\PSoC4/I2C_bus.c **** 
 275:.\Generated_Source\PSoC4/I2C_bus.c ****     I2C_bus_RX_FIFO_CTRL_REG = rxFifoCtrl;
 276:.\Generated_Source\PSoC4/I2C_bus.c **** }
 277:.\Generated_Source\PSoC4/I2C_bus.c **** 
 278:.\Generated_Source\PSoC4/I2C_bus.c **** 
 279:.\Generated_Source\PSoC4/I2C_bus.c **** /*******************************************************************************
 280:.\Generated_Source\PSoC4/I2C_bus.c **** * Function Name: I2C_bus_SetTxFifoLevel
 281:.\Generated_Source\PSoC4/I2C_bus.c **** ********************************************************************************
 282:.\Generated_Source\PSoC4/I2C_bus.c **** *
 283:.\Generated_Source\PSoC4/I2C_bus.c **** * Summary:
 284:.\Generated_Source\PSoC4/I2C_bus.c **** *  Sets level in the TX FIFO to generate a TX level interrupt.
 285:.\Generated_Source\PSoC4/I2C_bus.c **** *  When the TX FIFO has more entries than the TX FIFO level an TX level
 286:.\Generated_Source\PSoC4/I2C_bus.c **** *  interrupt request is generated.
 287:.\Generated_Source\PSoC4/I2C_bus.c **** *
 288:.\Generated_Source\PSoC4/I2C_bus.c **** * Parameters:
 289:.\Generated_Source\PSoC4/I2C_bus.c **** *  level: Level in the TX FIFO to generate TX level interrupt.
 290:.\Generated_Source\PSoC4/I2C_bus.c **** *         The range of valid level values is between 0 and TX FIFO depth - 1.
 291:.\Generated_Source\PSoC4/I2C_bus.c **** *
 292:.\Generated_Source\PSoC4/I2C_bus.c **** * Return:
 293:.\Generated_Source\PSoC4/I2C_bus.c **** *  None
 294:.\Generated_Source\PSoC4/I2C_bus.c **** *
 295:.\Generated_Source\PSoC4/I2C_bus.c **** *******************************************************************************/
 296:.\Generated_Source\PSoC4/I2C_bus.c **** void I2C_bus_SetTxFifoLevel(uint32 level)
 297:.\Generated_Source\PSoC4/I2C_bus.c **** {
 298:.\Generated_Source\PSoC4/I2C_bus.c ****     uint32 txFifoCtrl;
 299:.\Generated_Source\PSoC4/I2C_bus.c **** 
 300:.\Generated_Source\PSoC4/I2C_bus.c ****     txFifoCtrl = I2C_bus_TX_FIFO_CTRL_REG;
 301:.\Generated_Source\PSoC4/I2C_bus.c **** 
 302:.\Generated_Source\PSoC4/I2C_bus.c ****     txFifoCtrl &= ((uint32) ~I2C_bus_TX_FIFO_CTRL_TRIGGER_LEVEL_MASK); /* Clear level mask bits */
 303:.\Generated_Source\PSoC4/I2C_bus.c ****     txFifoCtrl |= ((uint32) (I2C_bus_TX_FIFO_CTRL_TRIGGER_LEVEL_MASK & level));
 304:.\Generated_Source\PSoC4/I2C_bus.c **** 
 305:.\Generated_Source\PSoC4/I2C_bus.c ****     I2C_bus_TX_FIFO_CTRL_REG = txFifoCtrl;
 306:.\Generated_Source\PSoC4/I2C_bus.c **** }
 307:.\Generated_Source\PSoC4/I2C_bus.c **** 
 308:.\Generated_Source\PSoC4/I2C_bus.c **** 
 309:.\Generated_Source\PSoC4/I2C_bus.c **** #if (I2C_bus_SCB_IRQ_INTERNAL)
 310:.\Generated_Source\PSoC4/I2C_bus.c ****     /*******************************************************************************
 311:.\Generated_Source\PSoC4/I2C_bus.c ****     * Function Name: I2C_bus_SetCustomInterruptHandler
 312:.\Generated_Source\PSoC4/I2C_bus.c ****     ********************************************************************************
 313:.\Generated_Source\PSoC4/I2C_bus.c ****     *
 314:.\Generated_Source\PSoC4/I2C_bus.c ****     * Summary:
 315:.\Generated_Source\PSoC4/I2C_bus.c ****     *  Registers a function to be called by the internal interrupt handler.
 316:.\Generated_Source\PSoC4/I2C_bus.c ****     *  First the function that is registered is called, then the internal interrupt
 317:.\Generated_Source\PSoC4/I2C_bus.c ****     *  handler performs any operation such as software buffer management functions
 318:.\Generated_Source\PSoC4/I2C_bus.c ****     *  before the interrupt returns.  It is the user's responsibility not to break
ARM GAS  C:\Users\username\AppData\Local\Temp\cc8R0ECR.s 			page 7


 319:.\Generated_Source\PSoC4/I2C_bus.c ****     *  the software buffer operations. Only one custom handler is supported, which
 320:.\Generated_Source\PSoC4/I2C_bus.c ****     *  is the function provided by the most recent call.
 321:.\Generated_Source\PSoC4/I2C_bus.c ****     *  At the initialization time no custom handler is registered.
 322:.\Generated_Source\PSoC4/I2C_bus.c ****     *
 323:.\Generated_Source\PSoC4/I2C_bus.c ****     * Parameters:
 324:.\Generated_Source\PSoC4/I2C_bus.c ****     *  func: Pointer to the function to register.
 325:.\Generated_Source\PSoC4/I2C_bus.c ****     *        The value NULL indicates to remove the current custom interrupt
 326:.\Generated_Source\PSoC4/I2C_bus.c ****     *        handler.
 327:.\Generated_Source\PSoC4/I2C_bus.c ****     *
 328:.\Generated_Source\PSoC4/I2C_bus.c ****     * Return:
 329:.\Generated_Source\PSoC4/I2C_bus.c ****     *  None
 330:.\Generated_Source\PSoC4/I2C_bus.c ****     *
 331:.\Generated_Source\PSoC4/I2C_bus.c ****     *******************************************************************************/
 332:.\Generated_Source\PSoC4/I2C_bus.c ****     void I2C_bus_SetCustomInterruptHandler(void (*func)(void))
 333:.\Generated_Source\PSoC4/I2C_bus.c ****     {
 334:.\Generated_Source\PSoC4/I2C_bus.c ****     #if !defined (CY_REMOVE_I2C_bus_CUSTOM_INTR_HANDLER)
 335:.\Generated_Source\PSoC4/I2C_bus.c ****         I2C_bus_customIntrHandler = func; /* Register interrupt handler */
 336:.\Generated_Source\PSoC4/I2C_bus.c ****     #else
 337:.\Generated_Source\PSoC4/I2C_bus.c ****         if (NULL != func)
 338:.\Generated_Source\PSoC4/I2C_bus.c ****         {
 339:.\Generated_Source\PSoC4/I2C_bus.c ****             /* Suppress compiler warning */
 340:.\Generated_Source\PSoC4/I2C_bus.c ****         }
 341:.\Generated_Source\PSoC4/I2C_bus.c ****     #endif /* !defined (CY_REMOVE_I2C_bus_CUSTOM_INTR_HANDLER) */
 342:.\Generated_Source\PSoC4/I2C_bus.c ****     }
 343:.\Generated_Source\PSoC4/I2C_bus.c **** #endif /* (I2C_bus_SCB_IRQ_INTERNAL) */
 344:.\Generated_Source\PSoC4/I2C_bus.c **** 
 345:.\Generated_Source\PSoC4/I2C_bus.c **** 
 346:.\Generated_Source\PSoC4/I2C_bus.c **** /*******************************************************************************
 347:.\Generated_Source\PSoC4/I2C_bus.c **** * Function Name: I2C_bus_ScbModeEnableIntr
 348:.\Generated_Source\PSoC4/I2C_bus.c **** ********************************************************************************
 349:.\Generated_Source\PSoC4/I2C_bus.c **** *
 350:.\Generated_Source\PSoC4/I2C_bus.c **** * Summary:
 351:.\Generated_Source\PSoC4/I2C_bus.c **** *  Enables an interrupt for a specific mode.
 352:.\Generated_Source\PSoC4/I2C_bus.c **** *
 353:.\Generated_Source\PSoC4/I2C_bus.c **** * Parameters:
 354:.\Generated_Source\PSoC4/I2C_bus.c **** *  None
 355:.\Generated_Source\PSoC4/I2C_bus.c **** *
 356:.\Generated_Source\PSoC4/I2C_bus.c **** * Return:
 357:.\Generated_Source\PSoC4/I2C_bus.c **** *  None
 358:.\Generated_Source\PSoC4/I2C_bus.c **** *
 359:.\Generated_Source\PSoC4/I2C_bus.c **** *******************************************************************************/
 360:.\Generated_Source\PSoC4/I2C_bus.c **** static void I2C_bus_ScbEnableIntr(void)
 361:.\Generated_Source\PSoC4/I2C_bus.c **** {
  25              		.loc 1 361 0
  26              		.cfi_startproc
  27 0000 08B5     		push	{r3, lr}
  28              		.cfi_def_cfa_offset 8
  29              		.cfi_offset 3, -8
  30              		.cfi_offset 14, -4
 362:.\Generated_Source\PSoC4/I2C_bus.c **** #if (I2C_bus_SCB_IRQ_INTERNAL)
 363:.\Generated_Source\PSoC4/I2C_bus.c ****     /* Enable interrupt in NVIC */
 364:.\Generated_Source\PSoC4/I2C_bus.c ****     #if (I2C_bus_SCB_MODE_UNCONFIG_CONST_CFG)
 365:.\Generated_Source\PSoC4/I2C_bus.c ****         if (0u != I2C_bus_scbEnableIntr)
 366:.\Generated_Source\PSoC4/I2C_bus.c ****         {
 367:.\Generated_Source\PSoC4/I2C_bus.c ****             I2C_bus_EnableInt();
 368:.\Generated_Source\PSoC4/I2C_bus.c ****         }
 369:.\Generated_Source\PSoC4/I2C_bus.c **** 
ARM GAS  C:\Users\username\AppData\Local\Temp\cc8R0ECR.s 			page 8


 370:.\Generated_Source\PSoC4/I2C_bus.c ****     #else
 371:.\Generated_Source\PSoC4/I2C_bus.c ****         I2C_bus_EnableInt();
  31              		.loc 1 371 0
  32 0002 0A20     		mov	r0, #10
  33 0004 FFF7FEFF 		bl	CyIntEnable
  34              	.LVL0:
 372:.\Generated_Source\PSoC4/I2C_bus.c **** 
 373:.\Generated_Source\PSoC4/I2C_bus.c ****     #endif /* (I2C_bus_SCB_MODE_UNCONFIG_CONST_CFG) */
 374:.\Generated_Source\PSoC4/I2C_bus.c **** #endif /* (I2C_bus_SCB_IRQ_INTERNAL) */
 375:.\Generated_Source\PSoC4/I2C_bus.c **** }
  35              		.loc 1 375 0
  36              		@ sp needed
  37 0008 08BD     		pop	{r3, pc}
  38              		.cfi_endproc
  39              	.LFE9:
  40              		.size	I2C_bus_ScbEnableIntr, .-I2C_bus_ScbEnableIntr
  41 000a C046     		.section	.text.I2C_bus_ScbModeStop,"ax",%progbits
  42              		.align	2
  43              		.code	16
  44              		.thumb_func
  45              		.type	I2C_bus_ScbModeStop, %function
  46              	I2C_bus_ScbModeStop:
  47              	.LFB11:
 376:.\Generated_Source\PSoC4/I2C_bus.c **** 
 377:.\Generated_Source\PSoC4/I2C_bus.c **** 
 378:.\Generated_Source\PSoC4/I2C_bus.c **** /*******************************************************************************
 379:.\Generated_Source\PSoC4/I2C_bus.c **** * Function Name: I2C_bus_ScbModePostEnable
 380:.\Generated_Source\PSoC4/I2C_bus.c **** ********************************************************************************
 381:.\Generated_Source\PSoC4/I2C_bus.c **** *
 382:.\Generated_Source\PSoC4/I2C_bus.c **** * Summary:
 383:.\Generated_Source\PSoC4/I2C_bus.c **** *  Calls the PostEnable function for a specific operation mode.
 384:.\Generated_Source\PSoC4/I2C_bus.c **** *
 385:.\Generated_Source\PSoC4/I2C_bus.c **** * Parameters:
 386:.\Generated_Source\PSoC4/I2C_bus.c **** *  None
 387:.\Generated_Source\PSoC4/I2C_bus.c **** *
 388:.\Generated_Source\PSoC4/I2C_bus.c **** * Return:
 389:.\Generated_Source\PSoC4/I2C_bus.c **** *  None
 390:.\Generated_Source\PSoC4/I2C_bus.c **** *
 391:.\Generated_Source\PSoC4/I2C_bus.c **** *******************************************************************************/
 392:.\Generated_Source\PSoC4/I2C_bus.c **** static void I2C_bus_ScbModePostEnable(void)
 393:.\Generated_Source\PSoC4/I2C_bus.c **** {
 394:.\Generated_Source\PSoC4/I2C_bus.c **** #if (I2C_bus_SCB_MODE_UNCONFIG_CONST_CFG)
 395:.\Generated_Source\PSoC4/I2C_bus.c **** #if (!I2C_bus_CY_SCBIP_V1)
 396:.\Generated_Source\PSoC4/I2C_bus.c ****     if (I2C_bus_SCB_MODE_SPI_RUNTM_CFG)
 397:.\Generated_Source\PSoC4/I2C_bus.c ****     {
 398:.\Generated_Source\PSoC4/I2C_bus.c ****         I2C_bus_SpiPostEnable();
 399:.\Generated_Source\PSoC4/I2C_bus.c ****     }
 400:.\Generated_Source\PSoC4/I2C_bus.c ****     else if (I2C_bus_SCB_MODE_UART_RUNTM_CFG)
 401:.\Generated_Source\PSoC4/I2C_bus.c ****     {
 402:.\Generated_Source\PSoC4/I2C_bus.c ****         I2C_bus_UartPostEnable();
 403:.\Generated_Source\PSoC4/I2C_bus.c ****     }
 404:.\Generated_Source\PSoC4/I2C_bus.c ****     else
 405:.\Generated_Source\PSoC4/I2C_bus.c ****     {
 406:.\Generated_Source\PSoC4/I2C_bus.c ****         /* Unknown mode: do nothing */
 407:.\Generated_Source\PSoC4/I2C_bus.c ****     }
 408:.\Generated_Source\PSoC4/I2C_bus.c **** #endif /* (!I2C_bus_CY_SCBIP_V1) */
 409:.\Generated_Source\PSoC4/I2C_bus.c **** 
ARM GAS  C:\Users\username\AppData\Local\Temp\cc8R0ECR.s 			page 9


 410:.\Generated_Source\PSoC4/I2C_bus.c **** #elif (I2C_bus_SCB_MODE_SPI_CONST_CFG)
 411:.\Generated_Source\PSoC4/I2C_bus.c ****     I2C_bus_SpiPostEnable();
 412:.\Generated_Source\PSoC4/I2C_bus.c **** 
 413:.\Generated_Source\PSoC4/I2C_bus.c **** #elif (I2C_bus_SCB_MODE_UART_CONST_CFG)
 414:.\Generated_Source\PSoC4/I2C_bus.c ****     I2C_bus_UartPostEnable();
 415:.\Generated_Source\PSoC4/I2C_bus.c **** 
 416:.\Generated_Source\PSoC4/I2C_bus.c **** #else
 417:.\Generated_Source\PSoC4/I2C_bus.c ****     /* Unknown mode: do nothing */
 418:.\Generated_Source\PSoC4/I2C_bus.c **** #endif /* (I2C_bus_SCB_MODE_UNCONFIG_CONST_CFG) */
 419:.\Generated_Source\PSoC4/I2C_bus.c **** }
 420:.\Generated_Source\PSoC4/I2C_bus.c **** 
 421:.\Generated_Source\PSoC4/I2C_bus.c **** 
 422:.\Generated_Source\PSoC4/I2C_bus.c **** /*******************************************************************************
 423:.\Generated_Source\PSoC4/I2C_bus.c **** * Function Name: I2C_bus_ScbModeStop
 424:.\Generated_Source\PSoC4/I2C_bus.c **** ********************************************************************************
 425:.\Generated_Source\PSoC4/I2C_bus.c **** *
 426:.\Generated_Source\PSoC4/I2C_bus.c **** * Summary:
 427:.\Generated_Source\PSoC4/I2C_bus.c **** *  Calls the Stop function for a specific operation mode.
 428:.\Generated_Source\PSoC4/I2C_bus.c **** *
 429:.\Generated_Source\PSoC4/I2C_bus.c **** * Parameters:
 430:.\Generated_Source\PSoC4/I2C_bus.c **** *  None
 431:.\Generated_Source\PSoC4/I2C_bus.c **** *
 432:.\Generated_Source\PSoC4/I2C_bus.c **** * Return:
 433:.\Generated_Source\PSoC4/I2C_bus.c **** *  None
 434:.\Generated_Source\PSoC4/I2C_bus.c **** *
 435:.\Generated_Source\PSoC4/I2C_bus.c **** *******************************************************************************/
 436:.\Generated_Source\PSoC4/I2C_bus.c **** static void I2C_bus_ScbModeStop(void)
 437:.\Generated_Source\PSoC4/I2C_bus.c **** {
  48              		.loc 1 437 0
  49              		.cfi_startproc
  50 0000 08B5     		push	{r3, lr}
  51              		.cfi_def_cfa_offset 8
  52              		.cfi_offset 3, -8
  53              		.cfi_offset 14, -4
 438:.\Generated_Source\PSoC4/I2C_bus.c **** #if (I2C_bus_SCB_MODE_UNCONFIG_CONST_CFG)
 439:.\Generated_Source\PSoC4/I2C_bus.c ****     if (I2C_bus_SCB_MODE_I2C_RUNTM_CFG)
 440:.\Generated_Source\PSoC4/I2C_bus.c ****     {
 441:.\Generated_Source\PSoC4/I2C_bus.c ****         I2C_bus_I2CStop();
 442:.\Generated_Source\PSoC4/I2C_bus.c ****     }
 443:.\Generated_Source\PSoC4/I2C_bus.c ****     else if (I2C_bus_SCB_MODE_EZI2C_RUNTM_CFG)
 444:.\Generated_Source\PSoC4/I2C_bus.c ****     {
 445:.\Generated_Source\PSoC4/I2C_bus.c ****         I2C_bus_EzI2CStop();
 446:.\Generated_Source\PSoC4/I2C_bus.c ****     }
 447:.\Generated_Source\PSoC4/I2C_bus.c **** #if (!I2C_bus_CY_SCBIP_V1)
 448:.\Generated_Source\PSoC4/I2C_bus.c ****     else if (I2C_bus_SCB_MODE_SPI_RUNTM_CFG)
 449:.\Generated_Source\PSoC4/I2C_bus.c ****     {
 450:.\Generated_Source\PSoC4/I2C_bus.c ****         I2C_bus_SpiStop();
 451:.\Generated_Source\PSoC4/I2C_bus.c ****     }
 452:.\Generated_Source\PSoC4/I2C_bus.c ****     else if (I2C_bus_SCB_MODE_UART_RUNTM_CFG)
 453:.\Generated_Source\PSoC4/I2C_bus.c ****     {
 454:.\Generated_Source\PSoC4/I2C_bus.c ****         I2C_bus_UartStop();
 455:.\Generated_Source\PSoC4/I2C_bus.c ****     }
 456:.\Generated_Source\PSoC4/I2C_bus.c **** #endif /* (!I2C_bus_CY_SCBIP_V1) */
 457:.\Generated_Source\PSoC4/I2C_bus.c ****     else
 458:.\Generated_Source\PSoC4/I2C_bus.c ****     {
 459:.\Generated_Source\PSoC4/I2C_bus.c ****         /* Unknown mode: do nothing */
 460:.\Generated_Source\PSoC4/I2C_bus.c ****     }
ARM GAS  C:\Users\username\AppData\Local\Temp\cc8R0ECR.s 			page 10


 461:.\Generated_Source\PSoC4/I2C_bus.c **** #elif (I2C_bus_SCB_MODE_I2C_CONST_CFG)
 462:.\Generated_Source\PSoC4/I2C_bus.c ****     I2C_bus_I2CStop();
  54              		.loc 1 462 0
  55 0002 FFF7FEFF 		bl	I2C_bus_I2CStop
  56              	.LVL1:
 463:.\Generated_Source\PSoC4/I2C_bus.c **** 
 464:.\Generated_Source\PSoC4/I2C_bus.c **** #elif (I2C_bus_SCB_MODE_EZI2C_CONST_CFG)
 465:.\Generated_Source\PSoC4/I2C_bus.c ****     I2C_bus_EzI2CStop();
 466:.\Generated_Source\PSoC4/I2C_bus.c **** 
 467:.\Generated_Source\PSoC4/I2C_bus.c **** #elif (I2C_bus_SCB_MODE_SPI_CONST_CFG)
 468:.\Generated_Source\PSoC4/I2C_bus.c ****     I2C_bus_SpiStop();
 469:.\Generated_Source\PSoC4/I2C_bus.c **** 
 470:.\Generated_Source\PSoC4/I2C_bus.c **** #elif (I2C_bus_SCB_MODE_UART_CONST_CFG)
 471:.\Generated_Source\PSoC4/I2C_bus.c ****     I2C_bus_UartStop();
 472:.\Generated_Source\PSoC4/I2C_bus.c **** 
 473:.\Generated_Source\PSoC4/I2C_bus.c **** #else
 474:.\Generated_Source\PSoC4/I2C_bus.c ****     /* Unknown mode: do nothing */
 475:.\Generated_Source\PSoC4/I2C_bus.c **** #endif /* (I2C_bus_SCB_MODE_UNCONFIG_CONST_CFG) */
 476:.\Generated_Source\PSoC4/I2C_bus.c **** }
  57              		.loc 1 476 0
  58              		@ sp needed
  59 0006 08BD     		pop	{r3, pc}
  60              		.cfi_endproc
  61              	.LFE11:
  62              		.size	I2C_bus_ScbModeStop, .-I2C_bus_ScbModeStop
  63              		.section	.text.I2C_bus_Init,"ax",%progbits
  64              		.align	2
  65              		.global	I2C_bus_Init
  66              		.code	16
  67              		.thumb_func
  68              		.type	I2C_bus_Init, %function
  69              	I2C_bus_Init:
  70              	.LFB2:
 103:.\Generated_Source\PSoC4/I2C_bus.c **** #if (I2C_bus_SCB_MODE_UNCONFIG_CONST_CFG)
  71              		.loc 1 103 0
  72              		.cfi_startproc
  73 0000 08B5     		push	{r3, lr}
  74              		.cfi_def_cfa_offset 8
  75              		.cfi_offset 3, -8
  76              		.cfi_offset 14, -4
 115:.\Generated_Source\PSoC4/I2C_bus.c **** 
  77              		.loc 1 115 0
  78 0002 FFF7FEFF 		bl	I2C_bus_I2CInit
  79              	.LVL2:
 127:.\Generated_Source\PSoC4/I2C_bus.c **** 
  80              		.loc 1 127 0
  81              		@ sp needed
  82 0006 08BD     		pop	{r3, pc}
  83              		.cfi_endproc
  84              	.LFE2:
  85              		.size	I2C_bus_Init, .-I2C_bus_Init
  86              		.section	.text.I2C_bus_Enable,"ax",%progbits
  87              		.align	2
  88              		.global	I2C_bus_Enable
  89              		.code	16
  90              		.thumb_func
  91              		.type	I2C_bus_Enable, %function
ARM GAS  C:\Users\username\AppData\Local\Temp\cc8R0ECR.s 			page 11


  92              	I2C_bus_Enable:
  93              	.LFB3:
 147:.\Generated_Source\PSoC4/I2C_bus.c **** #if (I2C_bus_SCB_MODE_UNCONFIG_CONST_CFG)
  94              		.loc 1 147 0
  95              		.cfi_startproc
  96 0000 08B5     		push	{r3, lr}
  97              		.cfi_def_cfa_offset 8
  98              		.cfi_offset 3, -8
  99              		.cfi_offset 14, -4
 160:.\Generated_Source\PSoC4/I2C_bus.c **** 
 100              		.loc 1 160 0
 101 0002 044A     		ldr	r2, .L5
 102 0004 1368     		ldr	r3, [r2]
 103 0006 8021     		mov	r1, #128
 104 0008 0906     		lsl	r1, r1, #24
 105 000a 0B43     		orr	r3, r1
 106 000c 1360     		str	r3, [r2]
 162:.\Generated_Source\PSoC4/I2C_bus.c **** 
 107              		.loc 1 162 0
 108 000e FFF7FEFF 		bl	I2C_bus_ScbEnableIntr
 109              	.LVL3:
 167:.\Generated_Source\PSoC4/I2C_bus.c **** 
 110              		.loc 1 167 0
 111              		@ sp needed
 112 0012 08BD     		pop	{r3, pc}
 113              	.L6:
 114              		.align	2
 115              	.L5:
 116 0014 00002540 		.word	1076166656
 117              		.cfi_endproc
 118              	.LFE3:
 119              		.size	I2C_bus_Enable, .-I2C_bus_Enable
 120              		.section	.text.I2C_bus_Start,"ax",%progbits
 121              		.align	2
 122              		.global	I2C_bus_Start
 123              		.code	16
 124              		.thumb_func
 125              		.type	I2C_bus_Start, %function
 126              	I2C_bus_Start:
 127              	.LFB4:
 193:.\Generated_Source\PSoC4/I2C_bus.c ****     if (0u == I2C_bus_initVar)
 128              		.loc 1 193 0
 129              		.cfi_startproc
 130 0000 08B5     		push	{r3, lr}
 131              		.cfi_def_cfa_offset 8
 132              		.cfi_offset 3, -8
 133              		.cfi_offset 14, -4
 194:.\Generated_Source\PSoC4/I2C_bus.c ****     {
 134              		.loc 1 194 0
 135 0002 064B     		ldr	r3, .L9
 136 0004 1B78     		ldrb	r3, [r3]
 137 0006 002B     		cmp	r3, #0
 138 0008 04D1     		bne	.L8
 196:.\Generated_Source\PSoC4/I2C_bus.c ****         I2C_bus_initVar = 1u; /* Component was initialized */
 139              		.loc 1 196 0
 140 000a FFF7FEFF 		bl	I2C_bus_Init
 141              	.LVL4:
ARM GAS  C:\Users\username\AppData\Local\Temp\cc8R0ECR.s 			page 12


 197:.\Generated_Source\PSoC4/I2C_bus.c ****     }
 142              		.loc 1 197 0
 143 000e 0122     		mov	r2, #1
 144 0010 024B     		ldr	r3, .L9
 145 0012 1A70     		strb	r2, [r3]
 146              	.L8:
 200:.\Generated_Source\PSoC4/I2C_bus.c **** }
 147              		.loc 1 200 0
 148 0014 FFF7FEFF 		bl	I2C_bus_Enable
 149              	.LVL5:
 201:.\Generated_Source\PSoC4/I2C_bus.c **** 
 150              		.loc 1 201 0
 151              		@ sp needed
 152 0018 08BD     		pop	{r3, pc}
 153              	.L10:
 154 001a C046     		.align	2
 155              	.L9:
 156 001c 00000000 		.word	.LANCHOR0
 157              		.cfi_endproc
 158              	.LFE4:
 159              		.size	I2C_bus_Start, .-I2C_bus_Start
 160              		.section	.text.I2C_bus_Stop,"ax",%progbits
 161              		.align	2
 162              		.global	I2C_bus_Stop
 163              		.code	16
 164              		.thumb_func
 165              		.type	I2C_bus_Stop, %function
 166              	I2C_bus_Stop:
 167              	.LFB5:
 222:.\Generated_Source\PSoC4/I2C_bus.c **** #if (I2C_bus_SCB_IRQ_INTERNAL)
 168              		.loc 1 222 0
 169              		.cfi_startproc
 170 0000 08B5     		push	{r3, lr}
 171              		.cfi_def_cfa_offset 8
 172              		.cfi_offset 3, -8
 173              		.cfi_offset 14, -4
 224:.\Generated_Source\PSoC4/I2C_bus.c **** #endif /* (I2C_bus_SCB_IRQ_INTERNAL) */
 174              		.loc 1 224 0
 175 0002 0A20     		mov	r0, #10
 176 0004 FFF7FEFF 		bl	CyIntDisable
 177              	.LVL6:
 228:.\Generated_Source\PSoC4/I2C_bus.c **** 
 178              		.loc 1 228 0
 179 0008 FFF7FEFF 		bl	I2C_bus_ScbModeStop
 180              	.LVL7:
 231:.\Generated_Source\PSoC4/I2C_bus.c **** 
 181              		.loc 1 231 0
 182 000c 054A     		ldr	r2, .L12
 183 000e 1368     		ldr	r3, [r2]
 184 0010 5B00     		lsl	r3, r3, #1
 185 0012 5B08     		lsr	r3, r3, #1
 186 0014 1360     		str	r3, [r2]
 241:.\Generated_Source\PSoC4/I2C_bus.c **** 
 187              		.loc 1 241 0
 188 0016 0022     		mov	r2, #0
 189 0018 034B     		ldr	r3, .L12+4
 190 001a 1A60     		str	r2, [r3]
ARM GAS  C:\Users\username\AppData\Local\Temp\cc8R0ECR.s 			page 13


 244:.\Generated_Source\PSoC4/I2C_bus.c **** #endif /* (I2C_bus_SCB_IRQ_INTERNAL) */
 191              		.loc 1 244 0
 192 001c 0A20     		mov	r0, #10
 193 001e FFF7FEFF 		bl	CyIntClearPending
 194              	.LVL8:
 246:.\Generated_Source\PSoC4/I2C_bus.c **** 
 195              		.loc 1 246 0
 196              		@ sp needed
 197 0022 08BD     		pop	{r3, pc}
 198              	.L13:
 199              		.align	2
 200              	.L12:
 201 0024 00002540 		.word	1076166656
 202 0028 880F2540 		.word	1076170632
 203              		.cfi_endproc
 204              	.LFE5:
 205              		.size	I2C_bus_Stop, .-I2C_bus_Stop
 206              		.section	.text.I2C_bus_SetRxFifoLevel,"ax",%progbits
 207              		.align	2
 208              		.global	I2C_bus_SetRxFifoLevel
 209              		.code	16
 210              		.thumb_func
 211              		.type	I2C_bus_SetRxFifoLevel, %function
 212              	I2C_bus_SetRxFifoLevel:
 213              	.LFB6:
 267:.\Generated_Source\PSoC4/I2C_bus.c ****     uint32 rxFifoCtrl;
 214              		.loc 1 267 0
 215              		.cfi_startproc
 216              	.LVL9:
 270:.\Generated_Source\PSoC4/I2C_bus.c **** 
 217              		.loc 1 270 0
 218 0000 034A     		ldr	r2, .L15
 219 0002 1368     		ldr	r3, [r2]
 220              	.LVL10:
 272:.\Generated_Source\PSoC4/I2C_bus.c ****     rxFifoCtrl |= ((uint32) (I2C_bus_RX_FIFO_CTRL_TRIGGER_LEVEL_MASK & level));
 221              		.loc 1 272 0
 222 0004 0F21     		mov	r1, #15
 223 0006 8B43     		bic	r3, r1
 224              	.LVL11:
 273:.\Generated_Source\PSoC4/I2C_bus.c **** 
 225              		.loc 1 273 0
 226 0008 0840     		and	r0, r1
 227              	.LVL12:
 228 000a 1843     		orr	r0, r3
 229              	.LVL13:
 275:.\Generated_Source\PSoC4/I2C_bus.c **** }
 230              		.loc 1 275 0
 231 000c 1060     		str	r0, [r2]
 276:.\Generated_Source\PSoC4/I2C_bus.c **** 
 232              		.loc 1 276 0
 233              		@ sp needed
 234 000e 7047     		bx	lr
 235              	.L16:
 236              		.align	2
 237              	.L15:
 238 0010 04032540 		.word	1076167428
 239              		.cfi_endproc
ARM GAS  C:\Users\username\AppData\Local\Temp\cc8R0ECR.s 			page 14


 240              	.LFE6:
 241              		.size	I2C_bus_SetRxFifoLevel, .-I2C_bus_SetRxFifoLevel
 242              		.section	.text.I2C_bus_SetTxFifoLevel,"ax",%progbits
 243              		.align	2
 244              		.global	I2C_bus_SetTxFifoLevel
 245              		.code	16
 246              		.thumb_func
 247              		.type	I2C_bus_SetTxFifoLevel, %function
 248              	I2C_bus_SetTxFifoLevel:
 249              	.LFB7:
 297:.\Generated_Source\PSoC4/I2C_bus.c ****     uint32 txFifoCtrl;
 250              		.loc 1 297 0
 251              		.cfi_startproc
 252              	.LVL14:
 300:.\Generated_Source\PSoC4/I2C_bus.c **** 
 253              		.loc 1 300 0
 254 0000 034A     		ldr	r2, .L18
 255 0002 1368     		ldr	r3, [r2]
 256              	.LVL15:
 302:.\Generated_Source\PSoC4/I2C_bus.c ****     txFifoCtrl |= ((uint32) (I2C_bus_TX_FIFO_CTRL_TRIGGER_LEVEL_MASK & level));
 257              		.loc 1 302 0
 258 0004 0F21     		mov	r1, #15
 259 0006 8B43     		bic	r3, r1
 260              	.LVL16:
 303:.\Generated_Source\PSoC4/I2C_bus.c **** 
 261              		.loc 1 303 0
 262 0008 0840     		and	r0, r1
 263              	.LVL17:
 264 000a 1843     		orr	r0, r3
 265              	.LVL18:
 305:.\Generated_Source\PSoC4/I2C_bus.c **** }
 266              		.loc 1 305 0
 267 000c 1060     		str	r0, [r2]
 306:.\Generated_Source\PSoC4/I2C_bus.c **** 
 268              		.loc 1 306 0
 269              		@ sp needed
 270 000e 7047     		bx	lr
 271              	.L19:
 272              		.align	2
 273              	.L18:
 274 0010 04022540 		.word	1076167172
 275              		.cfi_endproc
 276              	.LFE7:
 277              		.size	I2C_bus_SetTxFifoLevel, .-I2C_bus_SetTxFifoLevel
 278              		.section	.text.I2C_bus_SetCustomInterruptHandler,"ax",%progbits
 279              		.align	2
 280              		.global	I2C_bus_SetCustomInterruptHandler
 281              		.code	16
 282              		.thumb_func
 283              		.type	I2C_bus_SetCustomInterruptHandler, %function
 284              	I2C_bus_SetCustomInterruptHandler:
 285              	.LFB8:
 333:.\Generated_Source\PSoC4/I2C_bus.c ****     #if !defined (CY_REMOVE_I2C_bus_CUSTOM_INTR_HANDLER)
 286              		.loc 1 333 0
 287              		.cfi_startproc
 288              	.LVL19:
 335:.\Generated_Source\PSoC4/I2C_bus.c ****     #else
ARM GAS  C:\Users\username\AppData\Local\Temp\cc8R0ECR.s 			page 15


 289              		.loc 1 335 0
 290 0000 014B     		ldr	r3, .L21
 291 0002 5860     		str	r0, [r3, #4]
 342:.\Generated_Source\PSoC4/I2C_bus.c **** #endif /* (I2C_bus_SCB_IRQ_INTERNAL) */
 292              		.loc 1 342 0
 293              		@ sp needed
 294 0004 7047     		bx	lr
 295              	.L22:
 296 0006 C046     		.align	2
 297              	.L21:
 298 0008 00000000 		.word	.LANCHOR0
 299              		.cfi_endproc
 300              	.LFE8:
 301              		.size	I2C_bus_SetCustomInterruptHandler, .-I2C_bus_SetCustomInterruptHandler
 302              		.global	I2C_bus_customIntrHandler
 303              		.global	I2C_bus_initVar
 304              		.bss
 305              		.align	2
 306              		.set	.LANCHOR0,. + 0
 307              		.type	I2C_bus_initVar, %object
 308              		.size	I2C_bus_initVar, 1
 309              	I2C_bus_initVar:
 310 0000 00       		.space	1
 311 0001 000000   		.space	3
 312              		.type	I2C_bus_customIntrHandler, %object
 313              		.size	I2C_bus_customIntrHandler, 4
 314              	I2C_bus_customIntrHandler:
 315 0004 00000000 		.space	4
 316              		.text
 317              	.Letext0:
 318              		.file 2 "Generated_Source\\PSoC4/cytypes.h"
 319              		.file 3 ".\\Generated_Source\\PSoC4\\I2C_bus_I2C_PVT.h"
 320              		.file 4 "Generated_Source\\PSoC4/CyLib.h"