ARM GAS  C:\Users\username\AppData\Local\Temp\ccayKXZf.s 			page 1


   1              		.cpu cortex-m0
   2              		.fpu softvfp
   3              		.eabi_attribute 20, 1
   4              		.eabi_attribute 21, 1
   5              		.eabi_attribute 23, 3
   6              		.eabi_attribute 24, 1
   7              		.eabi_attribute 25, 1
   8              		.eabi_attribute 26, 1
   9              		.eabi_attribute 30, 1
  10              		.eabi_attribute 34, 0
  11              		.eabi_attribute 18, 4
  12              		.code	16
  13              		.file	"SERIAL_UART.c"
  14              		.text
  15              	.Ltext0:
  16              		.cfi_sections	.debug_frame
  17              		.section	.text.SERIAL_UartInit,"ax",%progbits
  18              		.align	2
  19              		.global	SERIAL_UartInit
  20              		.code	16
  21              		.thumb_func
  22              		.type	SERIAL_UartInit, %function
  23              	SERIAL_UartInit:
  24              	.LFB2:
  25              		.file 1 ".\\Generated_Source\\PSoC4\\SERIAL_UART.c"
   1:.\Generated_Source\PSoC4/SERIAL_UART.c **** /*******************************************************************************
   2:.\Generated_Source\PSoC4/SERIAL_UART.c **** * File Name: SERIAL_UART.c
   3:.\Generated_Source\PSoC4/SERIAL_UART.c **** * Version 3.0
   4:.\Generated_Source\PSoC4/SERIAL_UART.c **** *
   5:.\Generated_Source\PSoC4/SERIAL_UART.c **** * Description:
   6:.\Generated_Source\PSoC4/SERIAL_UART.c **** *  This file provides the source code to the API for the SCB Component in
   7:.\Generated_Source\PSoC4/SERIAL_UART.c **** *  UART mode.
   8:.\Generated_Source\PSoC4/SERIAL_UART.c **** *
   9:.\Generated_Source\PSoC4/SERIAL_UART.c **** * Note:
  10:.\Generated_Source\PSoC4/SERIAL_UART.c **** *
  11:.\Generated_Source\PSoC4/SERIAL_UART.c **** *******************************************************************************
  12:.\Generated_Source\PSoC4/SERIAL_UART.c **** * Copyright 2013-2015, Cypress Semiconductor Corporation.  All rights reserved.
  13:.\Generated_Source\PSoC4/SERIAL_UART.c **** * You may use this file only in accordance with the license, terms, conditions,
  14:.\Generated_Source\PSoC4/SERIAL_UART.c **** * disclaimers, and limitations in the end user license agreement accompanying
  15:.\Generated_Source\PSoC4/SERIAL_UART.c **** * the software package with which this file was provided.
  16:.\Generated_Source\PSoC4/SERIAL_UART.c **** *******************************************************************************/
  17:.\Generated_Source\PSoC4/SERIAL_UART.c **** 
  18:.\Generated_Source\PSoC4/SERIAL_UART.c **** #include "SERIAL_PVT.h"
  19:.\Generated_Source\PSoC4/SERIAL_UART.c **** #include "SERIAL_SPI_UART_PVT.h"
  20:.\Generated_Source\PSoC4/SERIAL_UART.c **** #include "cyapicallbacks.h"
  21:.\Generated_Source\PSoC4/SERIAL_UART.c **** 
  22:.\Generated_Source\PSoC4/SERIAL_UART.c **** #if(SERIAL_SCB_MODE_UNCONFIG_CONST_CFG)
  23:.\Generated_Source\PSoC4/SERIAL_UART.c **** 
  24:.\Generated_Source\PSoC4/SERIAL_UART.c ****     /***************************************
  25:.\Generated_Source\PSoC4/SERIAL_UART.c ****     *  Configuration Structure Initialization
  26:.\Generated_Source\PSoC4/SERIAL_UART.c ****     ***************************************/
  27:.\Generated_Source\PSoC4/SERIAL_UART.c **** 
  28:.\Generated_Source\PSoC4/SERIAL_UART.c ****     const SERIAL_UART_INIT_STRUCT SERIAL_configUart =
  29:.\Generated_Source\PSoC4/SERIAL_UART.c ****     {
  30:.\Generated_Source\PSoC4/SERIAL_UART.c ****         SERIAL_UART_SUB_MODE,
  31:.\Generated_Source\PSoC4/SERIAL_UART.c ****         SERIAL_UART_DIRECTION,
  32:.\Generated_Source\PSoC4/SERIAL_UART.c ****         SERIAL_UART_DATA_BITS_NUM,
ARM GAS  C:\Users\username\AppData\Local\Temp\ccayKXZf.s 			page 2


  33:.\Generated_Source\PSoC4/SERIAL_UART.c ****         SERIAL_UART_PARITY_TYPE,
  34:.\Generated_Source\PSoC4/SERIAL_UART.c ****         SERIAL_UART_STOP_BITS_NUM,
  35:.\Generated_Source\PSoC4/SERIAL_UART.c ****         SERIAL_UART_OVS_FACTOR,
  36:.\Generated_Source\PSoC4/SERIAL_UART.c ****         SERIAL_UART_IRDA_LOW_POWER,
  37:.\Generated_Source\PSoC4/SERIAL_UART.c ****         SERIAL_UART_MEDIAN_FILTER_ENABLE,
  38:.\Generated_Source\PSoC4/SERIAL_UART.c ****         SERIAL_UART_RETRY_ON_NACK,
  39:.\Generated_Source\PSoC4/SERIAL_UART.c ****         SERIAL_UART_IRDA_POLARITY,
  40:.\Generated_Source\PSoC4/SERIAL_UART.c ****         SERIAL_UART_DROP_ON_PARITY_ERR,
  41:.\Generated_Source\PSoC4/SERIAL_UART.c ****         SERIAL_UART_DROP_ON_FRAME_ERR,
  42:.\Generated_Source\PSoC4/SERIAL_UART.c ****         SERIAL_UART_WAKE_ENABLE,
  43:.\Generated_Source\PSoC4/SERIAL_UART.c ****         0u,
  44:.\Generated_Source\PSoC4/SERIAL_UART.c ****         NULL,
  45:.\Generated_Source\PSoC4/SERIAL_UART.c ****         0u,
  46:.\Generated_Source\PSoC4/SERIAL_UART.c ****         NULL,
  47:.\Generated_Source\PSoC4/SERIAL_UART.c ****         SERIAL_UART_MP_MODE_ENABLE,
  48:.\Generated_Source\PSoC4/SERIAL_UART.c ****         SERIAL_UART_MP_ACCEPT_ADDRESS,
  49:.\Generated_Source\PSoC4/SERIAL_UART.c ****         SERIAL_UART_MP_RX_ADDRESS,
  50:.\Generated_Source\PSoC4/SERIAL_UART.c ****         SERIAL_UART_MP_RX_ADDRESS_MASK,
  51:.\Generated_Source\PSoC4/SERIAL_UART.c ****         (uint32) SERIAL_SCB_IRQ_INTERNAL,
  52:.\Generated_Source\PSoC4/SERIAL_UART.c ****         SERIAL_UART_INTR_RX_MASK,
  53:.\Generated_Source\PSoC4/SERIAL_UART.c ****         SERIAL_UART_RX_TRIGGER_LEVEL,
  54:.\Generated_Source\PSoC4/SERIAL_UART.c ****         SERIAL_UART_INTR_TX_MASK,
  55:.\Generated_Source\PSoC4/SERIAL_UART.c ****         SERIAL_UART_TX_TRIGGER_LEVEL,
  56:.\Generated_Source\PSoC4/SERIAL_UART.c ****         (uint8) SERIAL_UART_BYTE_MODE_ENABLE,
  57:.\Generated_Source\PSoC4/SERIAL_UART.c ****         (uint8) SERIAL_UART_CTS_ENABLE,
  58:.\Generated_Source\PSoC4/SERIAL_UART.c ****         (uint8) SERIAL_UART_CTS_POLARITY,
  59:.\Generated_Source\PSoC4/SERIAL_UART.c ****         (uint8) SERIAL_UART_RTS_POLARITY,
  60:.\Generated_Source\PSoC4/SERIAL_UART.c ****         (uint8) SERIAL_UART_RTS_FIFO_LEVEL
  61:.\Generated_Source\PSoC4/SERIAL_UART.c ****     };
  62:.\Generated_Source\PSoC4/SERIAL_UART.c **** 
  63:.\Generated_Source\PSoC4/SERIAL_UART.c **** 
  64:.\Generated_Source\PSoC4/SERIAL_UART.c ****     /*******************************************************************************
  65:.\Generated_Source\PSoC4/SERIAL_UART.c ****     * Function Name: SERIAL_UartInit
  66:.\Generated_Source\PSoC4/SERIAL_UART.c ****     ********************************************************************************
  67:.\Generated_Source\PSoC4/SERIAL_UART.c ****     *
  68:.\Generated_Source\PSoC4/SERIAL_UART.c ****     * Summary:
  69:.\Generated_Source\PSoC4/SERIAL_UART.c ****     *  Configures the SCB for the UART operation.
  70:.\Generated_Source\PSoC4/SERIAL_UART.c ****     *
  71:.\Generated_Source\PSoC4/SERIAL_UART.c ****     * Parameters:
  72:.\Generated_Source\PSoC4/SERIAL_UART.c ****     *  config:  Pointer to a structure that contains the following ordered list of
  73:.\Generated_Source\PSoC4/SERIAL_UART.c ****     *           fields. These fields match the selections available in the
  74:.\Generated_Source\PSoC4/SERIAL_UART.c ****     *           customizer.
  75:.\Generated_Source\PSoC4/SERIAL_UART.c ****     *
  76:.\Generated_Source\PSoC4/SERIAL_UART.c ****     * Return:
  77:.\Generated_Source\PSoC4/SERIAL_UART.c ****     *  None
  78:.\Generated_Source\PSoC4/SERIAL_UART.c ****     *
  79:.\Generated_Source\PSoC4/SERIAL_UART.c ****     *******************************************************************************/
  80:.\Generated_Source\PSoC4/SERIAL_UART.c ****     void SERIAL_UartInit(const SERIAL_UART_INIT_STRUCT *config)
  81:.\Generated_Source\PSoC4/SERIAL_UART.c ****     {
  82:.\Generated_Source\PSoC4/SERIAL_UART.c ****         uint32 pinsConfig;
  83:.\Generated_Source\PSoC4/SERIAL_UART.c **** 
  84:.\Generated_Source\PSoC4/SERIAL_UART.c ****         if (NULL == config)
  85:.\Generated_Source\PSoC4/SERIAL_UART.c ****         {
  86:.\Generated_Source\PSoC4/SERIAL_UART.c ****             CYASSERT(0u != 0u); /* Halt execution due to bad function parameter */
  87:.\Generated_Source\PSoC4/SERIAL_UART.c ****         }
  88:.\Generated_Source\PSoC4/SERIAL_UART.c ****         else
  89:.\Generated_Source\PSoC4/SERIAL_UART.c ****         {
ARM GAS  C:\Users\username\AppData\Local\Temp\ccayKXZf.s 			page 3


  90:.\Generated_Source\PSoC4/SERIAL_UART.c ****             /* Get direction to configure UART pins: TX, RX or TX+RX */
  91:.\Generated_Source\PSoC4/SERIAL_UART.c ****             pinsConfig  = config->direction;
  92:.\Generated_Source\PSoC4/SERIAL_UART.c **** 
  93:.\Generated_Source\PSoC4/SERIAL_UART.c ****         #if !(SERIAL_CY_SCBIP_V0 || SERIAL_CY_SCBIP_V1)
  94:.\Generated_Source\PSoC4/SERIAL_UART.c ****             /* Add RTS and CTS pins to configure */
  95:.\Generated_Source\PSoC4/SERIAL_UART.c ****             pinsConfig |= (0u != config->rtsRxFifoLevel) ? (SERIAL_UART_RTS_PIN_ENABLE) : (0u);
  96:.\Generated_Source\PSoC4/SERIAL_UART.c ****             pinsConfig |= (0u != config->enableCts)      ? (SERIAL_UART_CTS_PIN_ENABLE) : (0u);
  97:.\Generated_Source\PSoC4/SERIAL_UART.c ****         #endif /* !(SERIAL_CY_SCBIP_V0 || SERIAL_CY_SCBIP_V1) */
  98:.\Generated_Source\PSoC4/SERIAL_UART.c **** 
  99:.\Generated_Source\PSoC4/SERIAL_UART.c ****             /* Configure pins */
 100:.\Generated_Source\PSoC4/SERIAL_UART.c ****             SERIAL_SetPins(SERIAL_SCB_MODE_UART, config->mode, pinsConfig);
 101:.\Generated_Source\PSoC4/SERIAL_UART.c **** 
 102:.\Generated_Source\PSoC4/SERIAL_UART.c ****             /* Store internal configuration */
 103:.\Generated_Source\PSoC4/SERIAL_UART.c ****             SERIAL_scbMode       = (uint8) SERIAL_SCB_MODE_UART;
 104:.\Generated_Source\PSoC4/SERIAL_UART.c ****             SERIAL_scbEnableWake = (uint8) config->enableWake;
 105:.\Generated_Source\PSoC4/SERIAL_UART.c ****             SERIAL_scbEnableIntr = (uint8) config->enableInterrupt;
 106:.\Generated_Source\PSoC4/SERIAL_UART.c **** 
 107:.\Generated_Source\PSoC4/SERIAL_UART.c ****             /* Set RX direction internal variables */
 108:.\Generated_Source\PSoC4/SERIAL_UART.c ****             SERIAL_rxBuffer      =         config->rxBuffer;
 109:.\Generated_Source\PSoC4/SERIAL_UART.c ****             SERIAL_rxDataBits    = (uint8) config->dataBits;
 110:.\Generated_Source\PSoC4/SERIAL_UART.c ****             SERIAL_rxBufferSize  = (uint8) config->rxBufferSize;
 111:.\Generated_Source\PSoC4/SERIAL_UART.c **** 
 112:.\Generated_Source\PSoC4/SERIAL_UART.c ****             /* Set TX direction internal variables */
 113:.\Generated_Source\PSoC4/SERIAL_UART.c ****             SERIAL_txBuffer      =         config->txBuffer;
 114:.\Generated_Source\PSoC4/SERIAL_UART.c ****             SERIAL_txDataBits    = (uint8) config->dataBits;
 115:.\Generated_Source\PSoC4/SERIAL_UART.c ****             SERIAL_txBufferSize  = (uint8) config->txBufferSize;
 116:.\Generated_Source\PSoC4/SERIAL_UART.c **** 
 117:.\Generated_Source\PSoC4/SERIAL_UART.c ****             /* Configure UART interface */
 118:.\Generated_Source\PSoC4/SERIAL_UART.c ****             if(SERIAL_UART_MODE_IRDA == config->mode)
 119:.\Generated_Source\PSoC4/SERIAL_UART.c ****             {
 120:.\Generated_Source\PSoC4/SERIAL_UART.c ****                 /* OVS settings: IrDA */
 121:.\Generated_Source\PSoC4/SERIAL_UART.c ****                 SERIAL_CTRL_REG  = ((0u != config->enableIrdaLowPower) ?
 122:.\Generated_Source\PSoC4/SERIAL_UART.c ****                                                 (SERIAL_UART_GET_CTRL_OVS_IRDA_LP(config->oversampl
 123:.\Generated_Source\PSoC4/SERIAL_UART.c ****                                                 (SERIAL_CTRL_OVS_IRDA_OVS16));
 124:.\Generated_Source\PSoC4/SERIAL_UART.c ****             }
 125:.\Generated_Source\PSoC4/SERIAL_UART.c ****             else
 126:.\Generated_Source\PSoC4/SERIAL_UART.c ****             {
 127:.\Generated_Source\PSoC4/SERIAL_UART.c ****                 /* OVS settings: UART and SmartCard */
 128:.\Generated_Source\PSoC4/SERIAL_UART.c ****                 SERIAL_CTRL_REG  = SERIAL_GET_CTRL_OVS(config->oversample);
 129:.\Generated_Source\PSoC4/SERIAL_UART.c ****             }
 130:.\Generated_Source\PSoC4/SERIAL_UART.c **** 
 131:.\Generated_Source\PSoC4/SERIAL_UART.c ****             SERIAL_CTRL_REG     |= SERIAL_GET_CTRL_BYTE_MODE  (config->enableByteMode)      |
 132:.\Generated_Source\PSoC4/SERIAL_UART.c ****                                              SERIAL_GET_CTRL_ADDR_ACCEPT(config->multiprocAcceptAdd
 133:.\Generated_Source\PSoC4/SERIAL_UART.c ****                                              SERIAL_CTRL_UART;
 134:.\Generated_Source\PSoC4/SERIAL_UART.c **** 
 135:.\Generated_Source\PSoC4/SERIAL_UART.c ****             /* Configure sub-mode: UART, SmartCard or IrDA */
 136:.\Generated_Source\PSoC4/SERIAL_UART.c ****             SERIAL_UART_CTRL_REG = SERIAL_GET_UART_CTRL_MODE(config->mode);
 137:.\Generated_Source\PSoC4/SERIAL_UART.c **** 
 138:.\Generated_Source\PSoC4/SERIAL_UART.c ****             /* Configure RX direction */
 139:.\Generated_Source\PSoC4/SERIAL_UART.c ****             SERIAL_UART_RX_CTRL_REG = SERIAL_GET_UART_RX_CTRL_MODE(config->stopBits)              |
 140:.\Generated_Source\PSoC4/SERIAL_UART.c ****                                         SERIAL_GET_UART_RX_CTRL_POLARITY(config->enableInvertedRx) 
 141:.\Generated_Source\PSoC4/SERIAL_UART.c ****                                         SERIAL_GET_UART_RX_CTRL_MP_MODE(config->enableMultiproc)   
 142:.\Generated_Source\PSoC4/SERIAL_UART.c ****                                         SERIAL_GET_UART_RX_CTRL_DROP_ON_PARITY_ERR(config->dropOnPa
 143:.\Generated_Source\PSoC4/SERIAL_UART.c ****                                         SERIAL_GET_UART_RX_CTRL_DROP_ON_FRAME_ERR(config->dropOnFra
 144:.\Generated_Source\PSoC4/SERIAL_UART.c **** 
 145:.\Generated_Source\PSoC4/SERIAL_UART.c ****             if(SERIAL_UART_PARITY_NONE != config->parity)
 146:.\Generated_Source\PSoC4/SERIAL_UART.c ****             {
ARM GAS  C:\Users\username\AppData\Local\Temp\ccayKXZf.s 			page 4


 147:.\Generated_Source\PSoC4/SERIAL_UART.c ****                SERIAL_UART_RX_CTRL_REG |= SERIAL_GET_UART_RX_CTRL_PARITY(config->parity) |
 148:.\Generated_Source\PSoC4/SERIAL_UART.c ****                                                     SERIAL_UART_RX_CTRL_PARITY_ENABLED;
 149:.\Generated_Source\PSoC4/SERIAL_UART.c ****             }
 150:.\Generated_Source\PSoC4/SERIAL_UART.c **** 
 151:.\Generated_Source\PSoC4/SERIAL_UART.c ****             SERIAL_RX_CTRL_REG      = SERIAL_GET_RX_CTRL_DATA_WIDTH(config->dataBits)       |
 152:.\Generated_Source\PSoC4/SERIAL_UART.c ****                                                 SERIAL_GET_RX_CTRL_MEDIAN(config->enableMedianFilte
 153:.\Generated_Source\PSoC4/SERIAL_UART.c ****                                                 SERIAL_GET_UART_RX_CTRL_ENABLED(config->direction);
 154:.\Generated_Source\PSoC4/SERIAL_UART.c **** 
 155:.\Generated_Source\PSoC4/SERIAL_UART.c ****             SERIAL_RX_FIFO_CTRL_REG = SERIAL_GET_RX_FIFO_CTRL_TRIGGER_LEVEL(config->rxTriggerLevel)
 156:.\Generated_Source\PSoC4/SERIAL_UART.c **** 
 157:.\Generated_Source\PSoC4/SERIAL_UART.c ****             /* Configure MP address */
 158:.\Generated_Source\PSoC4/SERIAL_UART.c ****             SERIAL_RX_MATCH_REG     = SERIAL_GET_RX_MATCH_ADDR(config->multiprocAddr) |
 159:.\Generated_Source\PSoC4/SERIAL_UART.c ****                                                 SERIAL_GET_RX_MATCH_MASK(config->multiprocAddrMask)
 160:.\Generated_Source\PSoC4/SERIAL_UART.c **** 
 161:.\Generated_Source\PSoC4/SERIAL_UART.c ****             /* Configure RX direction */
 162:.\Generated_Source\PSoC4/SERIAL_UART.c ****             SERIAL_UART_TX_CTRL_REG = SERIAL_GET_UART_TX_CTRL_MODE(config->stopBits) |
 163:.\Generated_Source\PSoC4/SERIAL_UART.c ****                                                 SERIAL_GET_UART_TX_CTRL_RETRY_NACK(config->enableRe
 164:.\Generated_Source\PSoC4/SERIAL_UART.c **** 
 165:.\Generated_Source\PSoC4/SERIAL_UART.c ****             if(SERIAL_UART_PARITY_NONE != config->parity)
 166:.\Generated_Source\PSoC4/SERIAL_UART.c ****             {
 167:.\Generated_Source\PSoC4/SERIAL_UART.c ****                SERIAL_UART_TX_CTRL_REG |= SERIAL_GET_UART_TX_CTRL_PARITY(config->parity) |
 168:.\Generated_Source\PSoC4/SERIAL_UART.c ****                                                     SERIAL_UART_TX_CTRL_PARITY_ENABLED;
 169:.\Generated_Source\PSoC4/SERIAL_UART.c ****             }
 170:.\Generated_Source\PSoC4/SERIAL_UART.c **** 
 171:.\Generated_Source\PSoC4/SERIAL_UART.c ****             SERIAL_TX_CTRL_REG      = SERIAL_GET_TX_CTRL_DATA_WIDTH(config->dataBits)    |
 172:.\Generated_Source\PSoC4/SERIAL_UART.c ****                                                 SERIAL_GET_UART_TX_CTRL_ENABLED(config->direction);
 173:.\Generated_Source\PSoC4/SERIAL_UART.c **** 
 174:.\Generated_Source\PSoC4/SERIAL_UART.c ****             SERIAL_TX_FIFO_CTRL_REG = SERIAL_GET_TX_FIFO_CTRL_TRIGGER_LEVEL(config->txTriggerLevel)
 175:.\Generated_Source\PSoC4/SERIAL_UART.c **** 
 176:.\Generated_Source\PSoC4/SERIAL_UART.c ****         #if !(SERIAL_CY_SCBIP_V0 || SERIAL_CY_SCBIP_V1)
 177:.\Generated_Source\PSoC4/SERIAL_UART.c ****             SERIAL_UART_FLOW_CTRL_REG = SERIAL_GET_UART_FLOW_CTRL_CTS_ENABLE(config->enableCts) | \
 178:.\Generated_Source\PSoC4/SERIAL_UART.c ****                                             SERIAL_GET_UART_FLOW_CTRL_CTS_POLARITY (config->ctsPola
 179:.\Generated_Source\PSoC4/SERIAL_UART.c ****                                             SERIAL_GET_UART_FLOW_CTRL_RTS_POLARITY (config->rtsPola
 180:.\Generated_Source\PSoC4/SERIAL_UART.c ****                                             SERIAL_GET_UART_FLOW_CTRL_TRIGGER_LEVEL(config->rtsRxFi
 181:.\Generated_Source\PSoC4/SERIAL_UART.c ****         #endif /* !(SERIAL_CY_SCBIP_V0 || SERIAL_CY_SCBIP_V1) */
 182:.\Generated_Source\PSoC4/SERIAL_UART.c **** 
 183:.\Generated_Source\PSoC4/SERIAL_UART.c ****             /* Configure interrupt with UART handler but do not enable it */
 184:.\Generated_Source\PSoC4/SERIAL_UART.c ****             CyIntDisable    (SERIAL_ISR_NUMBER);
 185:.\Generated_Source\PSoC4/SERIAL_UART.c ****             CyIntSetPriority(SERIAL_ISR_NUMBER, SERIAL_ISR_PRIORITY);
 186:.\Generated_Source\PSoC4/SERIAL_UART.c ****             (void) CyIntSetVector(SERIAL_ISR_NUMBER, &SERIAL_SPI_UART_ISR);
 187:.\Generated_Source\PSoC4/SERIAL_UART.c **** 
 188:.\Generated_Source\PSoC4/SERIAL_UART.c ****             /* Configure WAKE interrupt */
 189:.\Generated_Source\PSoC4/SERIAL_UART.c ****         #if(SERIAL_UART_RX_WAKEUP_IRQ)
 190:.\Generated_Source\PSoC4/SERIAL_UART.c ****             CyIntDisable    (SERIAL_RX_WAKE_ISR_NUMBER);
 191:.\Generated_Source\PSoC4/SERIAL_UART.c ****             CyIntSetPriority(SERIAL_RX_WAKE_ISR_NUMBER, SERIAL_RX_WAKE_ISR_PRIORITY);
 192:.\Generated_Source\PSoC4/SERIAL_UART.c ****             (void) CyIntSetVector(SERIAL_RX_WAKE_ISR_NUMBER, &SERIAL_UART_WAKEUP_ISR);
 193:.\Generated_Source\PSoC4/SERIAL_UART.c ****         #endif /* (SERIAL_UART_RX_WAKEUP_IRQ) */
 194:.\Generated_Source\PSoC4/SERIAL_UART.c **** 
 195:.\Generated_Source\PSoC4/SERIAL_UART.c ****             /* Configure interrupt sources */
 196:.\Generated_Source\PSoC4/SERIAL_UART.c ****             SERIAL_INTR_I2C_EC_MASK_REG = SERIAL_NO_INTR_SOURCES;
 197:.\Generated_Source\PSoC4/SERIAL_UART.c ****             SERIAL_INTR_SPI_EC_MASK_REG = SERIAL_NO_INTR_SOURCES;
 198:.\Generated_Source\PSoC4/SERIAL_UART.c ****             SERIAL_INTR_SLAVE_MASK_REG  = SERIAL_NO_INTR_SOURCES;
 199:.\Generated_Source\PSoC4/SERIAL_UART.c ****             SERIAL_INTR_MASTER_MASK_REG = SERIAL_NO_INTR_SOURCES;
 200:.\Generated_Source\PSoC4/SERIAL_UART.c ****             SERIAL_INTR_RX_MASK_REG     = config->rxInterruptMask;
 201:.\Generated_Source\PSoC4/SERIAL_UART.c ****             SERIAL_INTR_TX_MASK_REG     = config->txInterruptMask;
 202:.\Generated_Source\PSoC4/SERIAL_UART.c **** 
 203:.\Generated_Source\PSoC4/SERIAL_UART.c ****             /* Clear RX buffer indexes */
ARM GAS  C:\Users\username\AppData\Local\Temp\ccayKXZf.s 			page 5


 204:.\Generated_Source\PSoC4/SERIAL_UART.c ****             SERIAL_rxBufferHead     = 0u;
 205:.\Generated_Source\PSoC4/SERIAL_UART.c ****             SERIAL_rxBufferTail     = 0u;
 206:.\Generated_Source\PSoC4/SERIAL_UART.c ****             SERIAL_rxBufferOverflow = 0u;
 207:.\Generated_Source\PSoC4/SERIAL_UART.c **** 
 208:.\Generated_Source\PSoC4/SERIAL_UART.c ****             /* Clear TX buffer indexes */
 209:.\Generated_Source\PSoC4/SERIAL_UART.c ****             SERIAL_txBufferHead = 0u;
 210:.\Generated_Source\PSoC4/SERIAL_UART.c ****             SERIAL_txBufferTail = 0u;
 211:.\Generated_Source\PSoC4/SERIAL_UART.c ****         }
 212:.\Generated_Source\PSoC4/SERIAL_UART.c ****     }
 213:.\Generated_Source\PSoC4/SERIAL_UART.c **** 
 214:.\Generated_Source\PSoC4/SERIAL_UART.c **** #else
 215:.\Generated_Source\PSoC4/SERIAL_UART.c **** 
 216:.\Generated_Source\PSoC4/SERIAL_UART.c ****     /*******************************************************************************
 217:.\Generated_Source\PSoC4/SERIAL_UART.c ****     * Function Name: SERIAL_UartInit
 218:.\Generated_Source\PSoC4/SERIAL_UART.c ****     ********************************************************************************
 219:.\Generated_Source\PSoC4/SERIAL_UART.c ****     *
 220:.\Generated_Source\PSoC4/SERIAL_UART.c ****     * Summary:
 221:.\Generated_Source\PSoC4/SERIAL_UART.c ****     *  Configures the SCB for the UART operation.
 222:.\Generated_Source\PSoC4/SERIAL_UART.c ****     *
 223:.\Generated_Source\PSoC4/SERIAL_UART.c ****     * Parameters:
 224:.\Generated_Source\PSoC4/SERIAL_UART.c ****     *  None
 225:.\Generated_Source\PSoC4/SERIAL_UART.c ****     *
 226:.\Generated_Source\PSoC4/SERIAL_UART.c ****     * Return:
 227:.\Generated_Source\PSoC4/SERIAL_UART.c ****     *  None
 228:.\Generated_Source\PSoC4/SERIAL_UART.c ****     *
 229:.\Generated_Source\PSoC4/SERIAL_UART.c ****     *******************************************************************************/
 230:.\Generated_Source\PSoC4/SERIAL_UART.c ****     void SERIAL_UartInit(void)
 231:.\Generated_Source\PSoC4/SERIAL_UART.c ****     {
  26              		.loc 1 231 0
  27              		.cfi_startproc
  28 0000 10B5     		push	{r4, lr}
  29              		.cfi_def_cfa_offset 8
  30              		.cfi_offset 4, -8
  31              		.cfi_offset 14, -4
 232:.\Generated_Source\PSoC4/SERIAL_UART.c ****         /* Configure UART interface */
 233:.\Generated_Source\PSoC4/SERIAL_UART.c ****         SERIAL_CTRL_REG = SERIAL_UART_DEFAULT_CTRL;
  32              		.loc 1 233 0
  33 0002 134A     		ldr	r2, .L2
  34 0004 134B     		ldr	r3, .L2+4
  35 0006 1A60     		str	r2, [r3]
 234:.\Generated_Source\PSoC4/SERIAL_UART.c **** 
 235:.\Generated_Source\PSoC4/SERIAL_UART.c ****         /* Configure sub-mode: UART, SmartCard or IrDA */
 236:.\Generated_Source\PSoC4/SERIAL_UART.c ****         SERIAL_UART_CTRL_REG = SERIAL_UART_DEFAULT_UART_CTRL;
  36              		.loc 1 236 0
  37 0008 0023     		mov	r3, #0
  38 000a 134A     		ldr	r2, .L2+8
  39 000c 1360     		str	r3, [r2]
 237:.\Generated_Source\PSoC4/SERIAL_UART.c **** 
 238:.\Generated_Source\PSoC4/SERIAL_UART.c ****         /* Configure RX direction */
 239:.\Generated_Source\PSoC4/SERIAL_UART.c ****         SERIAL_UART_RX_CTRL_REG = SERIAL_UART_DEFAULT_UART_RX_CTRL;
  40              		.loc 1 239 0
  41 000e 0121     		mov	r1, #1
  42 0010 124A     		ldr	r2, .L2+12
  43 0012 1160     		str	r1, [r2]
 240:.\Generated_Source\PSoC4/SERIAL_UART.c ****         SERIAL_RX_CTRL_REG      = SERIAL_UART_DEFAULT_RX_CTRL;
  44              		.loc 1 240 0
  45 0014 124A     		ldr	r2, .L2+16
ARM GAS  C:\Users\username\AppData\Local\Temp\ccayKXZf.s 			page 6


  46 0016 1348     		ldr	r0, .L2+20
  47 0018 0260     		str	r2, [r0]
 241:.\Generated_Source\PSoC4/SERIAL_UART.c ****         SERIAL_RX_FIFO_CTRL_REG = SERIAL_UART_DEFAULT_RX_FIFO_CTRL;
  48              		.loc 1 241 0
  49 001a 0724     		mov	r4, #7
  50 001c 1248     		ldr	r0, .L2+24
  51 001e 0460     		str	r4, [r0]
 242:.\Generated_Source\PSoC4/SERIAL_UART.c ****         SERIAL_RX_MATCH_REG     = SERIAL_UART_DEFAULT_RX_MATCH_REG;
  52              		.loc 1 242 0
  53 0020 1248     		ldr	r0, .L2+28
  54 0022 0360     		str	r3, [r0]
 243:.\Generated_Source\PSoC4/SERIAL_UART.c **** 
 244:.\Generated_Source\PSoC4/SERIAL_UART.c ****         /* Configure TX direction */
 245:.\Generated_Source\PSoC4/SERIAL_UART.c ****         SERIAL_UART_TX_CTRL_REG = SERIAL_UART_DEFAULT_UART_TX_CTRL;
  55              		.loc 1 245 0
  56 0024 1248     		ldr	r0, .L2+32
  57 0026 0160     		str	r1, [r0]
 246:.\Generated_Source\PSoC4/SERIAL_UART.c ****         SERIAL_TX_CTRL_REG      = SERIAL_UART_DEFAULT_TX_CTRL;
  58              		.loc 1 246 0
  59 0028 1249     		ldr	r1, .L2+36
  60 002a 0A60     		str	r2, [r1]
 247:.\Generated_Source\PSoC4/SERIAL_UART.c ****         SERIAL_TX_FIFO_CTRL_REG = SERIAL_UART_DEFAULT_TX_FIFO_CTRL;
  61              		.loc 1 247 0
  62 002c 124A     		ldr	r2, .L2+40
  63 002e 1360     		str	r3, [r2]
 248:.\Generated_Source\PSoC4/SERIAL_UART.c **** 
 249:.\Generated_Source\PSoC4/SERIAL_UART.c ****     #if !(SERIAL_CY_SCBIP_V0 || SERIAL_CY_SCBIP_V1)
 250:.\Generated_Source\PSoC4/SERIAL_UART.c ****         SERIAL_UART_FLOW_CTRL_REG = SERIAL_UART_DEFAULT_FLOW_CTRL;
  64              		.loc 1 250 0
  65 0030 0421     		mov	r1, #4
  66 0032 124A     		ldr	r2, .L2+44
  67 0034 1160     		str	r1, [r2]
 251:.\Generated_Source\PSoC4/SERIAL_UART.c ****     #endif /* !(SERIAL_CY_SCBIP_V0 || SERIAL_CY_SCBIP_V1) */
 252:.\Generated_Source\PSoC4/SERIAL_UART.c **** 
 253:.\Generated_Source\PSoC4/SERIAL_UART.c ****         /* Configure interrupt with UART handler but do not enable it */
 254:.\Generated_Source\PSoC4/SERIAL_UART.c ****     #if(SERIAL_SCB_IRQ_INTERNAL)
 255:.\Generated_Source\PSoC4/SERIAL_UART.c ****         CyIntDisable    (SERIAL_ISR_NUMBER);
 256:.\Generated_Source\PSoC4/SERIAL_UART.c ****         CyIntSetPriority(SERIAL_ISR_NUMBER, SERIAL_ISR_PRIORITY);
 257:.\Generated_Source\PSoC4/SERIAL_UART.c ****         (void) CyIntSetVector(SERIAL_ISR_NUMBER, &SERIAL_SPI_UART_ISR);
 258:.\Generated_Source\PSoC4/SERIAL_UART.c ****     #endif /* (SERIAL_SCB_IRQ_INTERNAL) */
 259:.\Generated_Source\PSoC4/SERIAL_UART.c **** 
 260:.\Generated_Source\PSoC4/SERIAL_UART.c ****         /* Configure WAKE interrupt */
 261:.\Generated_Source\PSoC4/SERIAL_UART.c ****     #if(SERIAL_UART_RX_WAKEUP_IRQ)
 262:.\Generated_Source\PSoC4/SERIAL_UART.c ****         CyIntDisable    (SERIAL_RX_WAKE_ISR_NUMBER);
 263:.\Generated_Source\PSoC4/SERIAL_UART.c ****         CyIntSetPriority(SERIAL_RX_WAKE_ISR_NUMBER, SERIAL_RX_WAKE_ISR_PRIORITY);
 264:.\Generated_Source\PSoC4/SERIAL_UART.c ****         (void) CyIntSetVector(SERIAL_RX_WAKE_ISR_NUMBER, &SERIAL_UART_WAKEUP_ISR);
 265:.\Generated_Source\PSoC4/SERIAL_UART.c ****     #endif /* (SERIAL_UART_RX_WAKEUP_IRQ) */
 266:.\Generated_Source\PSoC4/SERIAL_UART.c **** 
 267:.\Generated_Source\PSoC4/SERIAL_UART.c ****         /* Configure interrupt sources */
 268:.\Generated_Source\PSoC4/SERIAL_UART.c ****         SERIAL_INTR_I2C_EC_MASK_REG = SERIAL_UART_DEFAULT_INTR_I2C_EC_MASK;
  68              		.loc 1 268 0
  69 0036 124A     		ldr	r2, .L2+48
  70 0038 1360     		str	r3, [r2]
 269:.\Generated_Source\PSoC4/SERIAL_UART.c ****         SERIAL_INTR_SPI_EC_MASK_REG = SERIAL_UART_DEFAULT_INTR_SPI_EC_MASK;
  71              		.loc 1 269 0
  72 003a 124A     		ldr	r2, .L2+52
  73 003c 1360     		str	r3, [r2]
ARM GAS  C:\Users\username\AppData\Local\Temp\ccayKXZf.s 			page 7


 270:.\Generated_Source\PSoC4/SERIAL_UART.c ****         SERIAL_INTR_SLAVE_MASK_REG  = SERIAL_UART_DEFAULT_INTR_SLAVE_MASK;
  74              		.loc 1 270 0
  75 003e 124A     		ldr	r2, .L2+56
  76 0040 1360     		str	r3, [r2]
 271:.\Generated_Source\PSoC4/SERIAL_UART.c ****         SERIAL_INTR_MASTER_MASK_REG = SERIAL_UART_DEFAULT_INTR_MASTER_MASK;
  77              		.loc 1 271 0
  78 0042 124A     		ldr	r2, .L2+60
  79 0044 1360     		str	r3, [r2]
 272:.\Generated_Source\PSoC4/SERIAL_UART.c ****         SERIAL_INTR_RX_MASK_REG     = SERIAL_UART_DEFAULT_INTR_RX_MASK;
  80              		.loc 1 272 0
  81 0046 124A     		ldr	r2, .L2+64
  82 0048 1360     		str	r3, [r2]
 273:.\Generated_Source\PSoC4/SERIAL_UART.c ****         SERIAL_INTR_TX_MASK_REG     = SERIAL_UART_DEFAULT_INTR_TX_MASK;
  83              		.loc 1 273 0
  84 004a 124A     		ldr	r2, .L2+68
  85 004c 1360     		str	r3, [r2]
 274:.\Generated_Source\PSoC4/SERIAL_UART.c **** 
 275:.\Generated_Source\PSoC4/SERIAL_UART.c ****     #if(SERIAL_INTERNAL_RX_SW_BUFFER_CONST)
 276:.\Generated_Source\PSoC4/SERIAL_UART.c ****         SERIAL_rxBufferHead     = 0u;
 277:.\Generated_Source\PSoC4/SERIAL_UART.c ****         SERIAL_rxBufferTail     = 0u;
 278:.\Generated_Source\PSoC4/SERIAL_UART.c ****         SERIAL_rxBufferOverflow = 0u;
 279:.\Generated_Source\PSoC4/SERIAL_UART.c ****     #endif /* (SERIAL_INTERNAL_RX_SW_BUFFER_CONST) */
 280:.\Generated_Source\PSoC4/SERIAL_UART.c **** 
 281:.\Generated_Source\PSoC4/SERIAL_UART.c ****     #if(SERIAL_INTERNAL_TX_SW_BUFFER_CONST)
 282:.\Generated_Source\PSoC4/SERIAL_UART.c ****         SERIAL_txBufferHead = 0u;
 283:.\Generated_Source\PSoC4/SERIAL_UART.c ****         SERIAL_txBufferTail = 0u;
 284:.\Generated_Source\PSoC4/SERIAL_UART.c ****     #endif /* (SERIAL_INTERNAL_TX_SW_BUFFER_CONST) */
 285:.\Generated_Source\PSoC4/SERIAL_UART.c ****     }
  86              		.loc 1 285 0
  87              		@ sp needed
  88 004e 10BD     		pop	{r4, pc}
  89              	.L3:
  90              		.align	2
  91              	.L2:
  92 0050 0B000002 		.word	33554443
  93 0054 00002440 		.word	1076101120
  94 0058 40002440 		.word	1076101184
  95 005c 48002440 		.word	1076101192
  96 0060 07000080 		.word	-2147483641
  97 0064 00032440 		.word	1076101888
  98 0068 04032440 		.word	1076101892
  99 006c 10032440 		.word	1076101904
 100 0070 44002440 		.word	1076101188
 101 0074 00022440 		.word	1076101632
 102 0078 04022440 		.word	1076101636
 103 007c 50002440 		.word	1076101200
 104 0080 880E2440 		.word	1076104840
 105 0084 C80E2440 		.word	1076104904
 106 0088 480F2440 		.word	1076105032
 107 008c 080F2440 		.word	1076104968
 108 0090 C80F2440 		.word	1076105160
 109 0094 880F2440 		.word	1076105096
 110              		.cfi_endproc
 111              	.LFE2:
 112              		.size	SERIAL_UartInit, .-SERIAL_UartInit
 113              		.section	.text.SERIAL_UartPostEnable,"ax",%progbits
 114              		.align	2
ARM GAS  C:\Users\username\AppData\Local\Temp\ccayKXZf.s 			page 8


 115              		.global	SERIAL_UartPostEnable
 116              		.code	16
 117              		.thumb_func
 118              		.type	SERIAL_UartPostEnable, %function
 119              	SERIAL_UartPostEnable:
 120              	.LFB3:
 286:.\Generated_Source\PSoC4/SERIAL_UART.c **** #endif /* (SERIAL_SCB_MODE_UNCONFIG_CONST_CFG) */
 287:.\Generated_Source\PSoC4/SERIAL_UART.c **** 
 288:.\Generated_Source\PSoC4/SERIAL_UART.c **** 
 289:.\Generated_Source\PSoC4/SERIAL_UART.c **** /*******************************************************************************
 290:.\Generated_Source\PSoC4/SERIAL_UART.c **** * Function Name: SERIAL_UartPostEnable
 291:.\Generated_Source\PSoC4/SERIAL_UART.c **** ********************************************************************************
 292:.\Generated_Source\PSoC4/SERIAL_UART.c **** *
 293:.\Generated_Source\PSoC4/SERIAL_UART.c **** * Summary:
 294:.\Generated_Source\PSoC4/SERIAL_UART.c **** *  Restores HSIOM settings for the UART output pins (TX and/or RTS) to be 
 295:.\Generated_Source\PSoC4/SERIAL_UART.c **** *  controlled by the SCB UART.
 296:.\Generated_Source\PSoC4/SERIAL_UART.c **** *
 297:.\Generated_Source\PSoC4/SERIAL_UART.c **** * Parameters:
 298:.\Generated_Source\PSoC4/SERIAL_UART.c **** *  None
 299:.\Generated_Source\PSoC4/SERIAL_UART.c **** *
 300:.\Generated_Source\PSoC4/SERIAL_UART.c **** * Return:
 301:.\Generated_Source\PSoC4/SERIAL_UART.c **** *  None
 302:.\Generated_Source\PSoC4/SERIAL_UART.c **** *
 303:.\Generated_Source\PSoC4/SERIAL_UART.c **** *******************************************************************************/
 304:.\Generated_Source\PSoC4/SERIAL_UART.c **** void SERIAL_UartPostEnable(void)
 305:.\Generated_Source\PSoC4/SERIAL_UART.c **** {
 121              		.loc 1 305 0
 122              		.cfi_startproc
 306:.\Generated_Source\PSoC4/SERIAL_UART.c **** #if (SERIAL_SCB_MODE_UNCONFIG_CONST_CFG)
 307:.\Generated_Source\PSoC4/SERIAL_UART.c **** 
 308:.\Generated_Source\PSoC4/SERIAL_UART.c **** #if (SERIAL_TX_SCL_MISO_PIN)
 309:.\Generated_Source\PSoC4/SERIAL_UART.c ****     if (SERIAL_CHECK_TX_SCL_MISO_PIN_USED)
 310:.\Generated_Source\PSoC4/SERIAL_UART.c ****     {
 311:.\Generated_Source\PSoC4/SERIAL_UART.c ****         /* Set SCB UART to drive the output pin */
 312:.\Generated_Source\PSoC4/SERIAL_UART.c ****         SERIAL_SET_HSIOM_SEL(SERIAL_TX_SCL_MISO_HSIOM_REG, SERIAL_TX_SCL_MISO_HSIOM_MASK,
 313:.\Generated_Source\PSoC4/SERIAL_UART.c ****                                        SERIAL_TX_SCL_MISO_HSIOM_POS, SERIAL_HSIOM_UART_SEL);
 314:.\Generated_Source\PSoC4/SERIAL_UART.c ****     }
 315:.\Generated_Source\PSoC4/SERIAL_UART.c **** #endif /* (SERIAL_TX_SCL_MISO_PIN_PIN) */
 316:.\Generated_Source\PSoC4/SERIAL_UART.c **** 
 317:.\Generated_Source\PSoC4/SERIAL_UART.c **** #if (SERIAL_RTS_SS0_PIN)
 318:.\Generated_Source\PSoC4/SERIAL_UART.c ****     if (SERIAL_CHECK_RTS_SS0_PIN_USED)
 319:.\Generated_Source\PSoC4/SERIAL_UART.c ****     {
 320:.\Generated_Source\PSoC4/SERIAL_UART.c ****         /* Set SCB UART to drive the output pin */
 321:.\Generated_Source\PSoC4/SERIAL_UART.c ****         SERIAL_SET_HSIOM_SEL(SERIAL_RTS_SS0_HSIOM_REG, SERIAL_RTS_SS0_HSIOM_MASK,
 322:.\Generated_Source\PSoC4/SERIAL_UART.c ****                                        SERIAL_RTS_SS0_HSIOM_POS, SERIAL_HSIOM_UART_SEL);
 323:.\Generated_Source\PSoC4/SERIAL_UART.c ****     }
 324:.\Generated_Source\PSoC4/SERIAL_UART.c **** #endif /* (SERIAL_RTS_SS0_PIN) */
 325:.\Generated_Source\PSoC4/SERIAL_UART.c **** 
 326:.\Generated_Source\PSoC4/SERIAL_UART.c **** #else
 327:.\Generated_Source\PSoC4/SERIAL_UART.c **** #if (SERIAL_UART_TX_PIN)
 328:.\Generated_Source\PSoC4/SERIAL_UART.c ****      /* Set SCB UART to drive the output pin */
 329:.\Generated_Source\PSoC4/SERIAL_UART.c ****     SERIAL_SET_HSIOM_SEL(SERIAL_TX_HSIOM_REG, SERIAL_TX_HSIOM_MASK,
 123              		.loc 1 329 0
 124 0000 044A     		ldr	r2, .L5
 125 0002 1168     		ldr	r1, [r2]
 126 0004 044B     		ldr	r3, .L5+4
 127 0006 0B40     		and	r3, r1
ARM GAS  C:\Users\username\AppData\Local\Temp\ccayKXZf.s 			page 9


 128 0008 9021     		mov	r1, #144
 129 000a 0904     		lsl	r1, r1, #16
 130 000c 0B43     		orr	r3, r1
 131 000e 1360     		str	r3, [r2]
 330:.\Generated_Source\PSoC4/SERIAL_UART.c ****                                    SERIAL_TX_HSIOM_POS, SERIAL_HSIOM_UART_SEL);
 331:.\Generated_Source\PSoC4/SERIAL_UART.c **** #endif /* (SERIAL_UART_TX_PIN) */
 332:.\Generated_Source\PSoC4/SERIAL_UART.c **** 
 333:.\Generated_Source\PSoC4/SERIAL_UART.c **** #if (SERIAL_UART_RTS_PIN)
 334:.\Generated_Source\PSoC4/SERIAL_UART.c ****     /* Set SCB UART to drive the output pin */
 335:.\Generated_Source\PSoC4/SERIAL_UART.c ****     SERIAL_SET_HSIOM_SEL(SERIAL_RTS_HSIOM_REG, SERIAL_RTS_HSIOM_MASK,
 336:.\Generated_Source\PSoC4/SERIAL_UART.c ****                                    SERIAL_RTS_HSIOM_POS, SERIAL_HSIOM_UART_SEL);
 337:.\Generated_Source\PSoC4/SERIAL_UART.c **** #endif /* (SERIAL_UART_RTS_PIN) */
 338:.\Generated_Source\PSoC4/SERIAL_UART.c **** 
 339:.\Generated_Source\PSoC4/SERIAL_UART.c **** #endif /* (SERIAL_SCB_MODE_UNCONFIG_CONST_CFG) */
 340:.\Generated_Source\PSoC4/SERIAL_UART.c **** }
 132              		.loc 1 340 0
 133              		@ sp needed
 134 0010 7047     		bx	lr
 135              	.L6:
 136 0012 C046     		.align	2
 137              	.L5:
 138 0014 00000240 		.word	1073872896
 139 0018 FFFF0FFF 		.word	-15728641
 140              		.cfi_endproc
 141              	.LFE3:
 142              		.size	SERIAL_UartPostEnable, .-SERIAL_UartPostEnable
 143              		.section	.text.SERIAL_UartStop,"ax",%progbits
 144              		.align	2
 145              		.global	SERIAL_UartStop
 146              		.code	16
 147              		.thumb_func
 148              		.type	SERIAL_UartStop, %function
 149              	SERIAL_UartStop:
 150              	.LFB4:
 341:.\Generated_Source\PSoC4/SERIAL_UART.c **** 
 342:.\Generated_Source\PSoC4/SERIAL_UART.c **** 
 343:.\Generated_Source\PSoC4/SERIAL_UART.c **** /*******************************************************************************
 344:.\Generated_Source\PSoC4/SERIAL_UART.c **** * Function Name: SERIAL_UartStop
 345:.\Generated_Source\PSoC4/SERIAL_UART.c **** ********************************************************************************
 346:.\Generated_Source\PSoC4/SERIAL_UART.c **** *
 347:.\Generated_Source\PSoC4/SERIAL_UART.c **** * Summary:
 348:.\Generated_Source\PSoC4/SERIAL_UART.c **** *  Changes the HSIOM settings for the UART output pins (TX and/or RTS) to keep
 349:.\Generated_Source\PSoC4/SERIAL_UART.c **** *  them inactive after the block is disabled. The output pins are controlled by
 350:.\Generated_Source\PSoC4/SERIAL_UART.c **** *  the GPIO data register. Also, the function disables the skip start feature to
 351:.\Generated_Source\PSoC4/SERIAL_UART.c **** *  not cause it to trigger after the component is enabled.
 352:.\Generated_Source\PSoC4/SERIAL_UART.c **** *
 353:.\Generated_Source\PSoC4/SERIAL_UART.c **** * Parameters:
 354:.\Generated_Source\PSoC4/SERIAL_UART.c **** *  None
 355:.\Generated_Source\PSoC4/SERIAL_UART.c **** *
 356:.\Generated_Source\PSoC4/SERIAL_UART.c **** * Return:
 357:.\Generated_Source\PSoC4/SERIAL_UART.c **** *  None
 358:.\Generated_Source\PSoC4/SERIAL_UART.c **** *
 359:.\Generated_Source\PSoC4/SERIAL_UART.c **** *******************************************************************************/
 360:.\Generated_Source\PSoC4/SERIAL_UART.c **** void SERIAL_UartStop(void)
 361:.\Generated_Source\PSoC4/SERIAL_UART.c **** {
 151              		.loc 1 361 0
 152              		.cfi_startproc
ARM GAS  C:\Users\username\AppData\Local\Temp\ccayKXZf.s 			page 10


 362:.\Generated_Source\PSoC4/SERIAL_UART.c **** #if(SERIAL_SCB_MODE_UNCONFIG_CONST_CFG)
 363:.\Generated_Source\PSoC4/SERIAL_UART.c ****     #if (SERIAL_TX_SCL_MISO_PIN)
 364:.\Generated_Source\PSoC4/SERIAL_UART.c ****         if (SERIAL_CHECK_TX_SCL_MISO_PIN_USED)
 365:.\Generated_Source\PSoC4/SERIAL_UART.c ****         {
 366:.\Generated_Source\PSoC4/SERIAL_UART.c ****             /* Set GPIO to drive output pin */
 367:.\Generated_Source\PSoC4/SERIAL_UART.c ****             SERIAL_SET_HSIOM_SEL(SERIAL_TX_SCL_MISO_HSIOM_REG, SERIAL_TX_SCL_MISO_HSIOM_MASK,
 368:.\Generated_Source\PSoC4/SERIAL_UART.c ****                                            SERIAL_TX_SCL_MISO_HSIOM_POS, SERIAL_HSIOM_GPIO_SEL);
 369:.\Generated_Source\PSoC4/SERIAL_UART.c ****         }
 370:.\Generated_Source\PSoC4/SERIAL_UART.c ****     #endif /* (SERIAL_TX_SCL_MISO_PIN_PIN) */
 371:.\Generated_Source\PSoC4/SERIAL_UART.c **** 
 372:.\Generated_Source\PSoC4/SERIAL_UART.c ****     #if (SERIAL_RTS_SS0_PIN)
 373:.\Generated_Source\PSoC4/SERIAL_UART.c ****         if (SERIAL_CHECK_RTS_SS0_PIN_USED)
 374:.\Generated_Source\PSoC4/SERIAL_UART.c ****         {
 375:.\Generated_Source\PSoC4/SERIAL_UART.c ****             /* Set output pin state after block is disabled */
 376:.\Generated_Source\PSoC4/SERIAL_UART.c ****             SERIAL_uart_rts_spi_ss0_Write(SERIAL_GET_UART_RTS_INACTIVE);
 377:.\Generated_Source\PSoC4/SERIAL_UART.c **** 
 378:.\Generated_Source\PSoC4/SERIAL_UART.c ****             /* Set GPIO to drive output pin */
 379:.\Generated_Source\PSoC4/SERIAL_UART.c ****             SERIAL_SET_HSIOM_SEL(SERIAL_RTS_SS0_HSIOM_REG, SERIAL_RTS_SS0_HSIOM_MASK,
 380:.\Generated_Source\PSoC4/SERIAL_UART.c ****                                            SERIAL_RTS_SS0_HSIOM_POS, SERIAL_HSIOM_GPIO_SEL);
 381:.\Generated_Source\PSoC4/SERIAL_UART.c ****         }
 382:.\Generated_Source\PSoC4/SERIAL_UART.c ****     #endif /* (SERIAL_SS0_PIN) */
 383:.\Generated_Source\PSoC4/SERIAL_UART.c **** 
 384:.\Generated_Source\PSoC4/SERIAL_UART.c **** #else
 385:.\Generated_Source\PSoC4/SERIAL_UART.c ****     #if (SERIAL_UART_TX_PIN)
 386:.\Generated_Source\PSoC4/SERIAL_UART.c ****         /* Set GPIO to drive output pin */
 387:.\Generated_Source\PSoC4/SERIAL_UART.c ****         SERIAL_SET_HSIOM_SEL(SERIAL_TX_HSIOM_REG, SERIAL_TX_HSIOM_MASK,
 153              		.loc 1 387 0
 154 0000 024A     		ldr	r2, .L8
 155 0002 1168     		ldr	r1, [r2]
 156 0004 024B     		ldr	r3, .L8+4
 157 0006 0B40     		and	r3, r1
 158 0008 1360     		str	r3, [r2]
 388:.\Generated_Source\PSoC4/SERIAL_UART.c ****                                        SERIAL_TX_HSIOM_POS, SERIAL_HSIOM_GPIO_SEL);
 389:.\Generated_Source\PSoC4/SERIAL_UART.c ****     #endif /* (SERIAL_UART_TX_PIN) */
 390:.\Generated_Source\PSoC4/SERIAL_UART.c **** 
 391:.\Generated_Source\PSoC4/SERIAL_UART.c ****     #if (SERIAL_UART_RTS_PIN)
 392:.\Generated_Source\PSoC4/SERIAL_UART.c ****         /* Set output pin state after block is disabled */
 393:.\Generated_Source\PSoC4/SERIAL_UART.c ****         SERIAL_rts_Write(SERIAL_GET_UART_RTS_INACTIVE);
 394:.\Generated_Source\PSoC4/SERIAL_UART.c **** 
 395:.\Generated_Source\PSoC4/SERIAL_UART.c ****         /* Set GPIO to drive output pin */
 396:.\Generated_Source\PSoC4/SERIAL_UART.c ****         SERIAL_SET_HSIOM_SEL(SERIAL_RTS_HSIOM_REG, SERIAL_RTS_HSIOM_MASK,
 397:.\Generated_Source\PSoC4/SERIAL_UART.c ****                                        SERIAL_RTS_HSIOM_POS, SERIAL_HSIOM_GPIO_SEL);
 398:.\Generated_Source\PSoC4/SERIAL_UART.c ****     #endif /* (SERIAL_UART_RTS_PIN) */
 399:.\Generated_Source\PSoC4/SERIAL_UART.c **** 
 400:.\Generated_Source\PSoC4/SERIAL_UART.c **** #endif /* (SERIAL_SCB_MODE_UNCONFIG_CONST_CFG) */
 401:.\Generated_Source\PSoC4/SERIAL_UART.c **** 
 402:.\Generated_Source\PSoC4/SERIAL_UART.c **** #if (SERIAL_UART_WAKE_ENABLE_CONST)
 403:.\Generated_Source\PSoC4/SERIAL_UART.c ****     /* Disable skip start feature used for wakeup */
 404:.\Generated_Source\PSoC4/SERIAL_UART.c ****     SERIAL_UART_RX_CTRL_REG &= (uint32) ~SERIAL_UART_RX_CTRL_SKIP_START;
 405:.\Generated_Source\PSoC4/SERIAL_UART.c **** #endif /* (SERIAL_UART_WAKE_ENABLE_CONST) */
 406:.\Generated_Source\PSoC4/SERIAL_UART.c **** }
 159              		.loc 1 406 0
 160              		@ sp needed
 161 000a 7047     		bx	lr
 162              	.L9:
 163              		.align	2
 164              	.L8:
ARM GAS  C:\Users\username\AppData\Local\Temp\ccayKXZf.s 			page 11


 165 000c 00000240 		.word	1073872896
 166 0010 FFFF0FFF 		.word	-15728641
 167              		.cfi_endproc
 168              	.LFE4:
 169              		.size	SERIAL_UartStop, .-SERIAL_UartStop
 170              		.section	.text.SERIAL_UartSetRxAddress,"ax",%progbits
 171              		.align	2
 172              		.global	SERIAL_UartSetRxAddress
 173              		.code	16
 174              		.thumb_func
 175              		.type	SERIAL_UartSetRxAddress, %function
 176              	SERIAL_UartSetRxAddress:
 177              	.LFB5:
 407:.\Generated_Source\PSoC4/SERIAL_UART.c **** 
 408:.\Generated_Source\PSoC4/SERIAL_UART.c **** 
 409:.\Generated_Source\PSoC4/SERIAL_UART.c **** /*******************************************************************************
 410:.\Generated_Source\PSoC4/SERIAL_UART.c **** * Function Name: SERIAL_UartSetRxAddress
 411:.\Generated_Source\PSoC4/SERIAL_UART.c **** ********************************************************************************
 412:.\Generated_Source\PSoC4/SERIAL_UART.c **** *
 413:.\Generated_Source\PSoC4/SERIAL_UART.c **** * Summary:
 414:.\Generated_Source\PSoC4/SERIAL_UART.c **** *  Sets the hardware detectable receiver address for the UART in the
 415:.\Generated_Source\PSoC4/SERIAL_UART.c **** *  Multiprocessor mode.
 416:.\Generated_Source\PSoC4/SERIAL_UART.c **** *
 417:.\Generated_Source\PSoC4/SERIAL_UART.c **** * Parameters:
 418:.\Generated_Source\PSoC4/SERIAL_UART.c **** *  address: Address for hardware address detection.
 419:.\Generated_Source\PSoC4/SERIAL_UART.c **** *
 420:.\Generated_Source\PSoC4/SERIAL_UART.c **** * Return:
 421:.\Generated_Source\PSoC4/SERIAL_UART.c **** *  None
 422:.\Generated_Source\PSoC4/SERIAL_UART.c **** *
 423:.\Generated_Source\PSoC4/SERIAL_UART.c **** *******************************************************************************/
 424:.\Generated_Source\PSoC4/SERIAL_UART.c **** void SERIAL_UartSetRxAddress(uint32 address)
 425:.\Generated_Source\PSoC4/SERIAL_UART.c **** {
 178              		.loc 1 425 0
 179              		.cfi_startproc
 180              	.LVL0:
 426:.\Generated_Source\PSoC4/SERIAL_UART.c ****      uint32 matchReg;
 427:.\Generated_Source\PSoC4/SERIAL_UART.c **** 
 428:.\Generated_Source\PSoC4/SERIAL_UART.c ****     matchReg = SERIAL_RX_MATCH_REG;
 181              		.loc 1 428 0
 182 0000 034A     		ldr	r2, .L11
 183 0002 1368     		ldr	r3, [r2]
 184              	.LVL1:
 429:.\Generated_Source\PSoC4/SERIAL_UART.c **** 
 430:.\Generated_Source\PSoC4/SERIAL_UART.c ****     matchReg &= ((uint32) ~SERIAL_RX_MATCH_ADDR_MASK); /* Clear address bits */
 185              		.loc 1 430 0
 186 0004 FF21     		mov	r1, #255
 187 0006 8B43     		bic	r3, r1
 188              	.LVL2:
 431:.\Generated_Source\PSoC4/SERIAL_UART.c ****     matchReg |= ((uint32)  (address & SERIAL_RX_MATCH_ADDR_MASK)); /* Set address  */
 189              		.loc 1 431 0
 190 0008 0840     		and	r0, r1
 191              	.LVL3:
 192 000a 1843     		orr	r0, r3
 193              	.LVL4:
 432:.\Generated_Source\PSoC4/SERIAL_UART.c **** 
 433:.\Generated_Source\PSoC4/SERIAL_UART.c ****     SERIAL_RX_MATCH_REG = matchReg;
 194              		.loc 1 433 0
ARM GAS  C:\Users\username\AppData\Local\Temp\ccayKXZf.s 			page 12


 195 000c 1060     		str	r0, [r2]
 434:.\Generated_Source\PSoC4/SERIAL_UART.c **** }
 196              		.loc 1 434 0
 197              		@ sp needed
 198 000e 7047     		bx	lr
 199              	.L12:
 200              		.align	2
 201              	.L11:
 202 0010 10032440 		.word	1076101904
 203              		.cfi_endproc
 204              	.LFE5:
 205              		.size	SERIAL_UartSetRxAddress, .-SERIAL_UartSetRxAddress
 206              		.section	.text.SERIAL_UartSetRxAddressMask,"ax",%progbits
 207              		.align	2
 208              		.global	SERIAL_UartSetRxAddressMask
 209              		.code	16
 210              		.thumb_func
 211              		.type	SERIAL_UartSetRxAddressMask, %function
 212              	SERIAL_UartSetRxAddressMask:
 213              	.LFB6:
 435:.\Generated_Source\PSoC4/SERIAL_UART.c **** 
 436:.\Generated_Source\PSoC4/SERIAL_UART.c **** 
 437:.\Generated_Source\PSoC4/SERIAL_UART.c **** /*******************************************************************************
 438:.\Generated_Source\PSoC4/SERIAL_UART.c **** * Function Name: SERIAL_UartSetRxAddressMask
 439:.\Generated_Source\PSoC4/SERIAL_UART.c **** ********************************************************************************
 440:.\Generated_Source\PSoC4/SERIAL_UART.c **** *
 441:.\Generated_Source\PSoC4/SERIAL_UART.c **** * Summary:
 442:.\Generated_Source\PSoC4/SERIAL_UART.c **** *  Sets the hardware address mask for the UART in the Multiprocessor mode.
 443:.\Generated_Source\PSoC4/SERIAL_UART.c **** *
 444:.\Generated_Source\PSoC4/SERIAL_UART.c **** * Parameters:
 445:.\Generated_Source\PSoC4/SERIAL_UART.c **** *  addressMask: Address mask.
 446:.\Generated_Source\PSoC4/SERIAL_UART.c **** *   0 - address bit does not care while comparison.
 447:.\Generated_Source\PSoC4/SERIAL_UART.c **** *   1 - address bit is significant while comparison.
 448:.\Generated_Source\PSoC4/SERIAL_UART.c **** *
 449:.\Generated_Source\PSoC4/SERIAL_UART.c **** * Return:
 450:.\Generated_Source\PSoC4/SERIAL_UART.c **** *  None
 451:.\Generated_Source\PSoC4/SERIAL_UART.c **** *
 452:.\Generated_Source\PSoC4/SERIAL_UART.c **** *******************************************************************************/
 453:.\Generated_Source\PSoC4/SERIAL_UART.c **** void SERIAL_UartSetRxAddressMask(uint32 addressMask)
 454:.\Generated_Source\PSoC4/SERIAL_UART.c **** {
 214              		.loc 1 454 0
 215              		.cfi_startproc
 216              	.LVL5:
 455:.\Generated_Source\PSoC4/SERIAL_UART.c ****     uint32 matchReg;
 456:.\Generated_Source\PSoC4/SERIAL_UART.c **** 
 457:.\Generated_Source\PSoC4/SERIAL_UART.c ****     matchReg = SERIAL_RX_MATCH_REG;
 217              		.loc 1 457 0
 218 0000 034A     		ldr	r2, .L14
 219 0002 1168     		ldr	r1, [r2]
 220              	.LVL6:
 458:.\Generated_Source\PSoC4/SERIAL_UART.c **** 
 459:.\Generated_Source\PSoC4/SERIAL_UART.c ****     matchReg &= ((uint32) ~SERIAL_RX_MATCH_MASK_MASK); /* Clear address mask bits */
 221              		.loc 1 459 0
 222 0004 034B     		ldr	r3, .L14+4
 223 0006 0B40     		and	r3, r1
 224              	.LVL7:
 460:.\Generated_Source\PSoC4/SERIAL_UART.c ****     matchReg |= ((uint32) (addressMask << SERIAL_RX_MATCH_MASK_POS));
ARM GAS  C:\Users\username\AppData\Local\Temp\ccayKXZf.s 			page 13


 225              		.loc 1 460 0
 226 0008 0004     		lsl	r0, r0, #16
 227              	.LVL8:
 228 000a 1843     		orr	r0, r3
 229              	.LVL9:
 461:.\Generated_Source\PSoC4/SERIAL_UART.c **** 
 462:.\Generated_Source\PSoC4/SERIAL_UART.c ****     SERIAL_RX_MATCH_REG = matchReg;
 230              		.loc 1 462 0
 231 000c 1060     		str	r0, [r2]
 463:.\Generated_Source\PSoC4/SERIAL_UART.c **** }
 232              		.loc 1 463 0
 233              		@ sp needed
 234 000e 7047     		bx	lr
 235              	.L15:
 236              		.align	2
 237              	.L14:
 238 0010 10032440 		.word	1076101904
 239 0014 FFFF00FF 		.word	-16711681
 240              		.cfi_endproc
 241              	.LFE6:
 242              		.size	SERIAL_UartSetRxAddressMask, .-SERIAL_UartSetRxAddressMask
 243              		.section	.text.SERIAL_UartGetChar,"ax",%progbits
 244              		.align	2
 245              		.global	SERIAL_UartGetChar
 246              		.code	16
 247              		.thumb_func
 248              		.type	SERIAL_UartGetChar, %function
 249              	SERIAL_UartGetChar:
 250              	.LFB7:
 464:.\Generated_Source\PSoC4/SERIAL_UART.c **** 
 465:.\Generated_Source\PSoC4/SERIAL_UART.c **** 
 466:.\Generated_Source\PSoC4/SERIAL_UART.c **** #if(SERIAL_UART_RX_DIRECTION)
 467:.\Generated_Source\PSoC4/SERIAL_UART.c ****     /*******************************************************************************
 468:.\Generated_Source\PSoC4/SERIAL_UART.c ****     * Function Name: SERIAL_UartGetChar
 469:.\Generated_Source\PSoC4/SERIAL_UART.c ****     ********************************************************************************
 470:.\Generated_Source\PSoC4/SERIAL_UART.c ****     *
 471:.\Generated_Source\PSoC4/SERIAL_UART.c ****     * Summary:
 472:.\Generated_Source\PSoC4/SERIAL_UART.c ****     *  Retrieves the next data element from the receive buffer.
 473:.\Generated_Source\PSoC4/SERIAL_UART.c ****     *  This function is designed for ASCII characters and returns a char
 474:.\Generated_Source\PSoC4/SERIAL_UART.c ****     *  where 1 to 255 are valid characters and 0 indicates an error occurred or
 475:.\Generated_Source\PSoC4/SERIAL_UART.c ****     *  no data present.
 476:.\Generated_Source\PSoC4/SERIAL_UART.c ****     *  - The RX software buffer is disabled: returns the data element
 477:.\Generated_Source\PSoC4/SERIAL_UART.c ****     *    retrieved from the RX FIFO.
 478:.\Generated_Source\PSoC4/SERIAL_UART.c ****     *    Undefined data will be returned if the RX FIFO is empty.
 479:.\Generated_Source\PSoC4/SERIAL_UART.c ****     *  - The RX software buffer is enabled: returns the data element from
 480:.\Generated_Source\PSoC4/SERIAL_UART.c ****     *    the software receive buffer.
 481:.\Generated_Source\PSoC4/SERIAL_UART.c ****     *
 482:.\Generated_Source\PSoC4/SERIAL_UART.c ****     * Parameters:
 483:.\Generated_Source\PSoC4/SERIAL_UART.c ****     *  None
 484:.\Generated_Source\PSoC4/SERIAL_UART.c ****     *
 485:.\Generated_Source\PSoC4/SERIAL_UART.c ****     * Return:
 486:.\Generated_Source\PSoC4/SERIAL_UART.c ****     *  The next data element from the receive buffer.
 487:.\Generated_Source\PSoC4/SERIAL_UART.c ****     *  ASCII character values from 1 to 255 are valid.
 488:.\Generated_Source\PSoC4/SERIAL_UART.c ****     *  A returned zero signifies an error condition or no data available.
 489:.\Generated_Source\PSoC4/SERIAL_UART.c ****     *
 490:.\Generated_Source\PSoC4/SERIAL_UART.c ****     * Side Effects:
 491:.\Generated_Source\PSoC4/SERIAL_UART.c ****     *  The errors bits may not correspond with reading characters due to RX FIFO
ARM GAS  C:\Users\username\AppData\Local\Temp\ccayKXZf.s 			page 14


 492:.\Generated_Source\PSoC4/SERIAL_UART.c ****     *  and software buffer usage.
 493:.\Generated_Source\PSoC4/SERIAL_UART.c ****     *  RX software buffer is enabled: The internal software buffer overflow
 494:.\Generated_Source\PSoC4/SERIAL_UART.c ****     *  does not treat as an error condition.
 495:.\Generated_Source\PSoC4/SERIAL_UART.c ****     *  Check SCB_rxBufferOverflow to capture that error condition.
 496:.\Generated_Source\PSoC4/SERIAL_UART.c ****     *
 497:.\Generated_Source\PSoC4/SERIAL_UART.c ****     *******************************************************************************/
 498:.\Generated_Source\PSoC4/SERIAL_UART.c ****     uint32 SERIAL_UartGetChar(void)
 499:.\Generated_Source\PSoC4/SERIAL_UART.c ****     {
 251              		.loc 1 499 0
 252              		.cfi_startproc
 253 0000 08B5     		push	{r3, lr}
 254              		.cfi_def_cfa_offset 8
 255              		.cfi_offset 3, -8
 256              		.cfi_offset 14, -4
 257              	.LVL10:
 500:.\Generated_Source\PSoC4/SERIAL_UART.c ****         uint32 rxData = 0u;
 501:.\Generated_Source\PSoC4/SERIAL_UART.c **** 
 502:.\Generated_Source\PSoC4/SERIAL_UART.c ****         /* Reads data only if there is data to read */
 503:.\Generated_Source\PSoC4/SERIAL_UART.c ****         if (0u != SERIAL_SpiUartGetRxBufferSize())
 258              		.loc 1 503 0
 259 0002 FFF7FEFF 		bl	SERIAL_SpiUartGetRxBufferSize
 260              	.LVL11:
 261 0006 0028     		cmp	r0, #0
 262 0008 02D0     		beq	.L19
 504:.\Generated_Source\PSoC4/SERIAL_UART.c ****         {
 505:.\Generated_Source\PSoC4/SERIAL_UART.c ****             rxData = SERIAL_SpiUartReadRxData();
 263              		.loc 1 505 0
 264 000a FFF7FEFF 		bl	SERIAL_SpiUartReadRxData
 265              	.LVL12:
 266 000e 00E0     		b	.L17
 267              	.LVL13:
 268              	.L19:
 500:.\Generated_Source\PSoC4/SERIAL_UART.c ****         uint32 rxData = 0u;
 269              		.loc 1 500 0
 270 0010 0020     		mov	r0, #0
 271              	.LVL14:
 272              	.L17:
 506:.\Generated_Source\PSoC4/SERIAL_UART.c ****         }
 507:.\Generated_Source\PSoC4/SERIAL_UART.c **** 
 508:.\Generated_Source\PSoC4/SERIAL_UART.c ****         if (SERIAL_CHECK_INTR_RX(SERIAL_INTR_RX_ERR))
 273              		.loc 1 508 0
 274 0012 054B     		ldr	r3, .L20
 275 0014 1A68     		ldr	r2, [r3]
 276 0016 D823     		mov	r3, #216
 277 0018 9B00     		lsl	r3, r3, #2
 278 001a 1A42     		tst	r2, r3
 279 001c 03D0     		beq	.L18
 280              	.LVL15:
 509:.\Generated_Source\PSoC4/SERIAL_UART.c ****         {
 510:.\Generated_Source\PSoC4/SERIAL_UART.c ****             rxData = 0u; /* Error occurred: returns zero */
 511:.\Generated_Source\PSoC4/SERIAL_UART.c ****             SERIAL_ClearRxInterruptSource(SERIAL_INTR_RX_ERR);
 281              		.loc 1 511 0
 282 001e 1A1C     		mov	r2, r3
 283 0020 014B     		ldr	r3, .L20
 284 0022 1A60     		str	r2, [r3]
 510:.\Generated_Source\PSoC4/SERIAL_UART.c ****             SERIAL_ClearRxInterruptSource(SERIAL_INTR_RX_ERR);
 285              		.loc 1 510 0
ARM GAS  C:\Users\username\AppData\Local\Temp\ccayKXZf.s 			page 15


 286 0024 0020     		mov	r0, #0
 287              	.LVL16:
 288              	.L18:
 512:.\Generated_Source\PSoC4/SERIAL_UART.c ****         }
 513:.\Generated_Source\PSoC4/SERIAL_UART.c **** 
 514:.\Generated_Source\PSoC4/SERIAL_UART.c ****         return (rxData);
 515:.\Generated_Source\PSoC4/SERIAL_UART.c ****     }
 289              		.loc 1 515 0
 290              		@ sp needed
 291 0026 08BD     		pop	{r3, pc}
 292              	.L21:
 293              		.align	2
 294              	.L20:
 295 0028 C00F2440 		.word	1076105152
 296              		.cfi_endproc
 297              	.LFE7:
 298              		.size	SERIAL_UartGetChar, .-SERIAL_UartGetChar
 299              		.section	.text.SERIAL_UartGetByte,"ax",%progbits
 300              		.align	2
 301              		.global	SERIAL_UartGetByte
 302              		.code	16
 303              		.thumb_func
 304              		.type	SERIAL_UartGetByte, %function
 305              	SERIAL_UartGetByte:
 306              	.LFB8:
 516:.\Generated_Source\PSoC4/SERIAL_UART.c **** 
 517:.\Generated_Source\PSoC4/SERIAL_UART.c **** 
 518:.\Generated_Source\PSoC4/SERIAL_UART.c ****     /*******************************************************************************
 519:.\Generated_Source\PSoC4/SERIAL_UART.c ****     * Function Name: SERIAL_UartGetByte
 520:.\Generated_Source\PSoC4/SERIAL_UART.c ****     ********************************************************************************
 521:.\Generated_Source\PSoC4/SERIAL_UART.c ****     *
 522:.\Generated_Source\PSoC4/SERIAL_UART.c ****     * Summary:
 523:.\Generated_Source\PSoC4/SERIAL_UART.c ****     *  Retrieves the next data element from the receive buffer, returns the
 524:.\Generated_Source\PSoC4/SERIAL_UART.c ****     *  received byte and error condition.
 525:.\Generated_Source\PSoC4/SERIAL_UART.c ****     *   - The RX software buffer is disabled: returns the data element retrieved
 526:.\Generated_Source\PSoC4/SERIAL_UART.c ****     *     from the RX FIFO. Undefined data will be returned if the RX FIFO is
 527:.\Generated_Source\PSoC4/SERIAL_UART.c ****     *     empty.
 528:.\Generated_Source\PSoC4/SERIAL_UART.c ****     *   - The RX software buffer is enabled: returns data element from the
 529:.\Generated_Source\PSoC4/SERIAL_UART.c ****     *     software receive buffer.
 530:.\Generated_Source\PSoC4/SERIAL_UART.c ****     *
 531:.\Generated_Source\PSoC4/SERIAL_UART.c ****     * Parameters:
 532:.\Generated_Source\PSoC4/SERIAL_UART.c ****     *  None
 533:.\Generated_Source\PSoC4/SERIAL_UART.c ****     *
 534:.\Generated_Source\PSoC4/SERIAL_UART.c ****     * Return:
 535:.\Generated_Source\PSoC4/SERIAL_UART.c ****     *  Bits 7-0 contain the next data element from the receive buffer and
 536:.\Generated_Source\PSoC4/SERIAL_UART.c ****     *  other bits contain the error condition.
 537:.\Generated_Source\PSoC4/SERIAL_UART.c ****     *
 538:.\Generated_Source\PSoC4/SERIAL_UART.c ****     * Side Effects:
 539:.\Generated_Source\PSoC4/SERIAL_UART.c ****     *  The errors bits may not correspond with reading characters due to RX FIFO
 540:.\Generated_Source\PSoC4/SERIAL_UART.c ****     *  and software buffer usage.
 541:.\Generated_Source\PSoC4/SERIAL_UART.c ****     *  RX software buffer is disabled: The internal software buffer overflow
 542:.\Generated_Source\PSoC4/SERIAL_UART.c ****     *  is not returned as status by this function.
 543:.\Generated_Source\PSoC4/SERIAL_UART.c ****     *  Check SCB_rxBufferOverflow to capture that error condition.
 544:.\Generated_Source\PSoC4/SERIAL_UART.c ****     *
 545:.\Generated_Source\PSoC4/SERIAL_UART.c ****     *******************************************************************************/
 546:.\Generated_Source\PSoC4/SERIAL_UART.c ****     uint32 SERIAL_UartGetByte(void)
 547:.\Generated_Source\PSoC4/SERIAL_UART.c ****     {
ARM GAS  C:\Users\username\AppData\Local\Temp\ccayKXZf.s 			page 16


 307              		.loc 1 547 0
 308              		.cfi_startproc
 309 0000 08B5     		push	{r3, lr}
 310              		.cfi_def_cfa_offset 8
 311              		.cfi_offset 3, -8
 312              		.cfi_offset 14, -4
 548:.\Generated_Source\PSoC4/SERIAL_UART.c ****         uint32 rxData;
 549:.\Generated_Source\PSoC4/SERIAL_UART.c ****         uint32 tmpStatus;
 550:.\Generated_Source\PSoC4/SERIAL_UART.c **** 
 551:.\Generated_Source\PSoC4/SERIAL_UART.c ****         #if (SERIAL_CHECK_RX_SW_BUFFER)
 552:.\Generated_Source\PSoC4/SERIAL_UART.c ****         {
 553:.\Generated_Source\PSoC4/SERIAL_UART.c ****             SERIAL_DisableInt();
 554:.\Generated_Source\PSoC4/SERIAL_UART.c ****         }
 555:.\Generated_Source\PSoC4/SERIAL_UART.c ****         #endif
 556:.\Generated_Source\PSoC4/SERIAL_UART.c **** 
 557:.\Generated_Source\PSoC4/SERIAL_UART.c ****         if (0u != SERIAL_SpiUartGetRxBufferSize())
 313              		.loc 1 557 0
 314 0002 FFF7FEFF 		bl	SERIAL_SpiUartGetRxBufferSize
 315              	.LVL17:
 316 0006 0028     		cmp	r0, #0
 317 0008 02D0     		beq	.L23
 558:.\Generated_Source\PSoC4/SERIAL_UART.c ****         {
 559:.\Generated_Source\PSoC4/SERIAL_UART.c ****             /* Enables interrupt to receive more bytes: at least one byte is in
 560:.\Generated_Source\PSoC4/SERIAL_UART.c ****             * buffer.
 561:.\Generated_Source\PSoC4/SERIAL_UART.c ****             */
 562:.\Generated_Source\PSoC4/SERIAL_UART.c ****             #if (SERIAL_CHECK_RX_SW_BUFFER)
 563:.\Generated_Source\PSoC4/SERIAL_UART.c ****             {            
 564:.\Generated_Source\PSoC4/SERIAL_UART.c ****                 SERIAL_EnableInt();
 565:.\Generated_Source\PSoC4/SERIAL_UART.c ****             }
 566:.\Generated_Source\PSoC4/SERIAL_UART.c ****             #endif
 567:.\Generated_Source\PSoC4/SERIAL_UART.c **** 
 568:.\Generated_Source\PSoC4/SERIAL_UART.c ****             /* Get received byte */
 569:.\Generated_Source\PSoC4/SERIAL_UART.c ****             rxData = SERIAL_SpiUartReadRxData();
 318              		.loc 1 569 0
 319 000a FFF7FEFF 		bl	SERIAL_SpiUartReadRxData
 320              	.LVL18:
 321 000e 01E0     		b	.L24
 322              	.LVL19:
 323              	.L23:
 570:.\Generated_Source\PSoC4/SERIAL_UART.c ****         }
 571:.\Generated_Source\PSoC4/SERIAL_UART.c ****         else
 572:.\Generated_Source\PSoC4/SERIAL_UART.c ****         {
 573:.\Generated_Source\PSoC4/SERIAL_UART.c ****             /* Reads a byte directly from RX FIFO: underflow is raised in the case
 574:.\Generated_Source\PSoC4/SERIAL_UART.c ****             * of empty. Otherwise the first received byte will be read.
 575:.\Generated_Source\PSoC4/SERIAL_UART.c ****             */
 576:.\Generated_Source\PSoC4/SERIAL_UART.c ****             rxData = SERIAL_RX_FIFO_RD_REG;
 324              		.loc 1 576 0
 325 0010 054B     		ldr	r3, .L25
 326 0012 1868     		ldr	r0, [r3]
 327              	.LVL20:
 328              	.L24:
 577:.\Generated_Source\PSoC4/SERIAL_UART.c **** 
 578:.\Generated_Source\PSoC4/SERIAL_UART.c ****             /* Enables interrupt to receive more bytes.
 579:.\Generated_Source\PSoC4/SERIAL_UART.c ****             * The RX_NOT_EMPTY interrupt is cleared by the interrupt routine
 580:.\Generated_Source\PSoC4/SERIAL_UART.c ****             * in case the byte was received and read by code above.
 581:.\Generated_Source\PSoC4/SERIAL_UART.c ****             */
 582:.\Generated_Source\PSoC4/SERIAL_UART.c ****             #if (SERIAL_CHECK_RX_SW_BUFFER)
ARM GAS  C:\Users\username\AppData\Local\Temp\ccayKXZf.s 			page 17


 583:.\Generated_Source\PSoC4/SERIAL_UART.c ****             {
 584:.\Generated_Source\PSoC4/SERIAL_UART.c ****                 SERIAL_EnableInt();
 585:.\Generated_Source\PSoC4/SERIAL_UART.c ****             }
 586:.\Generated_Source\PSoC4/SERIAL_UART.c ****             #endif
 587:.\Generated_Source\PSoC4/SERIAL_UART.c ****         }
 588:.\Generated_Source\PSoC4/SERIAL_UART.c **** 
 589:.\Generated_Source\PSoC4/SERIAL_UART.c ****         /* Get and clear RX error mask */
 590:.\Generated_Source\PSoC4/SERIAL_UART.c ****         tmpStatus = (SERIAL_GetRxInterruptSource() & SERIAL_INTR_RX_ERR);
 329              		.loc 1 590 0
 330 0014 054A     		ldr	r2, .L25+4
 331 0016 1368     		ldr	r3, [r2]
 332 0018 D821     		mov	r1, #216
 333 001a 8900     		lsl	r1, r1, #2
 334 001c 0B40     		and	r3, r1
 335              	.LVL21:
 591:.\Generated_Source\PSoC4/SERIAL_UART.c ****         SERIAL_ClearRxInterruptSource(SERIAL_INTR_RX_ERR);
 336              		.loc 1 591 0
 337 001e 1160     		str	r1, [r2]
 592:.\Generated_Source\PSoC4/SERIAL_UART.c **** 
 593:.\Generated_Source\PSoC4/SERIAL_UART.c ****         /* Puts together data and error status:
 594:.\Generated_Source\PSoC4/SERIAL_UART.c ****         * MP mode and accept address: 9th bit is set to notify mark.
 595:.\Generated_Source\PSoC4/SERIAL_UART.c ****         */
 596:.\Generated_Source\PSoC4/SERIAL_UART.c ****         rxData |= ((uint32) (tmpStatus << 8u));
 338              		.loc 1 596 0
 339 0020 1B02     		lsl	r3, r3, #8
 340              	.LVL22:
 341 0022 1843     		orr	r0, r3
 342              	.LVL23:
 597:.\Generated_Source\PSoC4/SERIAL_UART.c **** 
 598:.\Generated_Source\PSoC4/SERIAL_UART.c ****         return (rxData);
 599:.\Generated_Source\PSoC4/SERIAL_UART.c ****     }
 343              		.loc 1 599 0
 344              		@ sp needed
 345 0024 08BD     		pop	{r3, pc}
 346              	.L26:
 347 0026 C046     		.align	2
 348              	.L25:
 349 0028 40032440 		.word	1076101952
 350 002c C00F2440 		.word	1076105152
 351              		.cfi_endproc
 352              	.LFE8:
 353              		.size	SERIAL_UartGetByte, .-SERIAL_UartGetByte
 354              		.section	.text.SERIAL_UartSetRtsPolarity,"ax",%progbits
 355              		.align	2
 356              		.global	SERIAL_UartSetRtsPolarity
 357              		.code	16
 358              		.thumb_func
 359              		.type	SERIAL_UartSetRtsPolarity, %function
 360              	SERIAL_UartSetRtsPolarity:
 361              	.LFB9:
 600:.\Generated_Source\PSoC4/SERIAL_UART.c **** 
 601:.\Generated_Source\PSoC4/SERIAL_UART.c **** 
 602:.\Generated_Source\PSoC4/SERIAL_UART.c ****     #if !(SERIAL_CY_SCBIP_V0 || SERIAL_CY_SCBIP_V1)
 603:.\Generated_Source\PSoC4/SERIAL_UART.c ****         /*******************************************************************************
 604:.\Generated_Source\PSoC4/SERIAL_UART.c ****         * Function Name: SERIAL_UartSetRtsPolarity
 605:.\Generated_Source\PSoC4/SERIAL_UART.c ****         ********************************************************************************
 606:.\Generated_Source\PSoC4/SERIAL_UART.c ****         *
ARM GAS  C:\Users\username\AppData\Local\Temp\ccayKXZf.s 			page 18


 607:.\Generated_Source\PSoC4/SERIAL_UART.c ****         * Summary:
 608:.\Generated_Source\PSoC4/SERIAL_UART.c ****         *  Sets active polarity of RTS output signal.
 609:.\Generated_Source\PSoC4/SERIAL_UART.c ****         *
 610:.\Generated_Source\PSoC4/SERIAL_UART.c ****         * Parameters:
 611:.\Generated_Source\PSoC4/SERIAL_UART.c ****         *  polarity: Active polarity of RTS output signal.
 612:.\Generated_Source\PSoC4/SERIAL_UART.c ****         *   SERIAL_UART_RTS_ACTIVE_LOW  - RTS signal is active low.
 613:.\Generated_Source\PSoC4/SERIAL_UART.c ****         *   SERIAL_UART_RTS_ACTIVE_HIGH - RTS signal is active high.
 614:.\Generated_Source\PSoC4/SERIAL_UART.c ****         *
 615:.\Generated_Source\PSoC4/SERIAL_UART.c ****         * Return:
 616:.\Generated_Source\PSoC4/SERIAL_UART.c ****         *  None
 617:.\Generated_Source\PSoC4/SERIAL_UART.c ****         *
 618:.\Generated_Source\PSoC4/SERIAL_UART.c ****         *******************************************************************************/
 619:.\Generated_Source\PSoC4/SERIAL_UART.c ****         void SERIAL_UartSetRtsPolarity(uint32 polarity)
 620:.\Generated_Source\PSoC4/SERIAL_UART.c ****         {
 362              		.loc 1 620 0
 363              		.cfi_startproc
 364              	.LVL24:
 621:.\Generated_Source\PSoC4/SERIAL_UART.c ****             if(0u != polarity)
 365              		.loc 1 621 0
 366 0000 0028     		cmp	r0, #0
 367 0002 06D0     		beq	.L28
 622:.\Generated_Source\PSoC4/SERIAL_UART.c ****             {
 623:.\Generated_Source\PSoC4/SERIAL_UART.c ****                 SERIAL_UART_FLOW_CTRL_REG |= (uint32)  SERIAL_UART_FLOW_CTRL_RTS_POLARITY;
 368              		.loc 1 623 0
 369 0004 064A     		ldr	r2, .L30
 370 0006 1368     		ldr	r3, [r2]
 371 0008 8021     		mov	r1, #128
 372 000a 4902     		lsl	r1, r1, #9
 373 000c 0B43     		orr	r3, r1
 374 000e 1360     		str	r3, [r2]
 375 0010 04E0     		b	.L27
 376              	.L28:
 624:.\Generated_Source\PSoC4/SERIAL_UART.c ****             }
 625:.\Generated_Source\PSoC4/SERIAL_UART.c ****             else
 626:.\Generated_Source\PSoC4/SERIAL_UART.c ****             {
 627:.\Generated_Source\PSoC4/SERIAL_UART.c ****                 SERIAL_UART_FLOW_CTRL_REG &= (uint32) ~SERIAL_UART_FLOW_CTRL_RTS_POLARITY;
 377              		.loc 1 627 0
 378 0012 034A     		ldr	r2, .L30
 379 0014 1168     		ldr	r1, [r2]
 380 0016 034B     		ldr	r3, .L30+4
 381 0018 0B40     		and	r3, r1
 382 001a 1360     		str	r3, [r2]
 383              	.L27:
 628:.\Generated_Source\PSoC4/SERIAL_UART.c ****             }
 629:.\Generated_Source\PSoC4/SERIAL_UART.c ****         }
 384              		.loc 1 629 0
 385              		@ sp needed
 386 001c 7047     		bx	lr
 387              	.L31:
 388 001e C046     		.align	2
 389              	.L30:
 390 0020 50002440 		.word	1076101200
 391 0024 FFFFFEFF 		.word	-65537
 392              		.cfi_endproc
 393              	.LFE9:
 394              		.size	SERIAL_UartSetRtsPolarity, .-SERIAL_UartSetRtsPolarity
 395              		.section	.text.SERIAL_UartSetRtsFifoLevel,"ax",%progbits
ARM GAS  C:\Users\username\AppData\Local\Temp\ccayKXZf.s 			page 19


 396              		.align	2
 397              		.global	SERIAL_UartSetRtsFifoLevel
 398              		.code	16
 399              		.thumb_func
 400              		.type	SERIAL_UartSetRtsFifoLevel, %function
 401              	SERIAL_UartSetRtsFifoLevel:
 402              	.LFB10:
 630:.\Generated_Source\PSoC4/SERIAL_UART.c **** 
 631:.\Generated_Source\PSoC4/SERIAL_UART.c **** 
 632:.\Generated_Source\PSoC4/SERIAL_UART.c ****         /*******************************************************************************
 633:.\Generated_Source\PSoC4/SERIAL_UART.c ****         * Function Name: SERIAL_UartSetRtsFifoLevel
 634:.\Generated_Source\PSoC4/SERIAL_UART.c ****         ********************************************************************************
 635:.\Generated_Source\PSoC4/SERIAL_UART.c ****         *
 636:.\Generated_Source\PSoC4/SERIAL_UART.c ****         * Summary:
 637:.\Generated_Source\PSoC4/SERIAL_UART.c ****         *  Sets level in the RX FIFO for RTS signal activation.
 638:.\Generated_Source\PSoC4/SERIAL_UART.c ****         *  While the RX FIFO has fewer entries than the RX FIFO level the RTS signal
 639:.\Generated_Source\PSoC4/SERIAL_UART.c ****         *  remains active, otherwise the RTS signal becomes inactive.
 640:.\Generated_Source\PSoC4/SERIAL_UART.c ****         *
 641:.\Generated_Source\PSoC4/SERIAL_UART.c ****         * Parameters:
 642:.\Generated_Source\PSoC4/SERIAL_UART.c ****         *  level: Level in the RX FIFO for RTS signal activation.
 643:.\Generated_Source\PSoC4/SERIAL_UART.c ****         *         The range of valid level values is between 0 and RX FIFO depth - 1.
 644:.\Generated_Source\PSoC4/SERIAL_UART.c ****         *         Setting level value to 0 disables RTS signal activation.
 645:.\Generated_Source\PSoC4/SERIAL_UART.c ****         *
 646:.\Generated_Source\PSoC4/SERIAL_UART.c ****         * Return:
 647:.\Generated_Source\PSoC4/SERIAL_UART.c ****         *  None
 648:.\Generated_Source\PSoC4/SERIAL_UART.c ****         *
 649:.\Generated_Source\PSoC4/SERIAL_UART.c ****         *******************************************************************************/
 650:.\Generated_Source\PSoC4/SERIAL_UART.c ****         void SERIAL_UartSetRtsFifoLevel(uint32 level)
 651:.\Generated_Source\PSoC4/SERIAL_UART.c ****         {
 403              		.loc 1 651 0
 404              		.cfi_startproc
 405              	.LVL25:
 652:.\Generated_Source\PSoC4/SERIAL_UART.c ****             uint32 uartFlowCtrl;
 653:.\Generated_Source\PSoC4/SERIAL_UART.c **** 
 654:.\Generated_Source\PSoC4/SERIAL_UART.c ****             uartFlowCtrl = SERIAL_UART_FLOW_CTRL_REG;
 406              		.loc 1 654 0
 407 0000 034A     		ldr	r2, .L33
 408 0002 1368     		ldr	r3, [r2]
 409              	.LVL26:
 655:.\Generated_Source\PSoC4/SERIAL_UART.c **** 
 656:.\Generated_Source\PSoC4/SERIAL_UART.c ****             uartFlowCtrl &= ((uint32) ~SERIAL_UART_FLOW_CTRL_TRIGGER_LEVEL_MASK); /* Clear level ma
 410              		.loc 1 656 0
 411 0004 0F21     		mov	r1, #15
 412 0006 8B43     		bic	r3, r1
 413              	.LVL27:
 657:.\Generated_Source\PSoC4/SERIAL_UART.c ****             uartFlowCtrl |= ((uint32) (SERIAL_UART_FLOW_CTRL_TRIGGER_LEVEL_MASK & level));
 414              		.loc 1 657 0
 415 0008 0840     		and	r0, r1
 416              	.LVL28:
 417 000a 1843     		orr	r0, r3
 418              	.LVL29:
 658:.\Generated_Source\PSoC4/SERIAL_UART.c **** 
 659:.\Generated_Source\PSoC4/SERIAL_UART.c ****             SERIAL_UART_FLOW_CTRL_REG = uartFlowCtrl;
 419              		.loc 1 659 0
 420 000c 1060     		str	r0, [r2]
 660:.\Generated_Source\PSoC4/SERIAL_UART.c ****         }
 421              		.loc 1 660 0
ARM GAS  C:\Users\username\AppData\Local\Temp\ccayKXZf.s 			page 20


 422              		@ sp needed
 423 000e 7047     		bx	lr
 424              	.L34:
 425              		.align	2
 426              	.L33:
 427 0010 50002440 		.word	1076101200
 428              		.cfi_endproc
 429              	.LFE10:
 430              		.size	SERIAL_UartSetRtsFifoLevel, .-SERIAL_UartSetRtsFifoLevel
 431              		.section	.text.SERIAL_UartPutString,"ax",%progbits
 432              		.align	2
 433              		.global	SERIAL_UartPutString
 434              		.code	16
 435              		.thumb_func
 436              		.type	SERIAL_UartPutString, %function
 437              	SERIAL_UartPutString:
 438              	.LFB11:
 661:.\Generated_Source\PSoC4/SERIAL_UART.c ****     #endif /* !(SERIAL_CY_SCBIP_V0 || SERIAL_CY_SCBIP_V1) */
 662:.\Generated_Source\PSoC4/SERIAL_UART.c **** 
 663:.\Generated_Source\PSoC4/SERIAL_UART.c **** #endif /* (SERIAL_UART_RX_DIRECTION) */
 664:.\Generated_Source\PSoC4/SERIAL_UART.c **** 
 665:.\Generated_Source\PSoC4/SERIAL_UART.c **** 
 666:.\Generated_Source\PSoC4/SERIAL_UART.c **** #if(SERIAL_UART_TX_DIRECTION)
 667:.\Generated_Source\PSoC4/SERIAL_UART.c ****     /*******************************************************************************
 668:.\Generated_Source\PSoC4/SERIAL_UART.c ****     * Function Name: SERIAL_UartPutString
 669:.\Generated_Source\PSoC4/SERIAL_UART.c ****     ********************************************************************************
 670:.\Generated_Source\PSoC4/SERIAL_UART.c ****     *
 671:.\Generated_Source\PSoC4/SERIAL_UART.c ****     * Summary:
 672:.\Generated_Source\PSoC4/SERIAL_UART.c ****     *  Places a NULL terminated string in the transmit buffer to be sent at the
 673:.\Generated_Source\PSoC4/SERIAL_UART.c ****     *  next available bus time.
 674:.\Generated_Source\PSoC4/SERIAL_UART.c ****     *  This function is blocking and waits until there is space available to put
 675:.\Generated_Source\PSoC4/SERIAL_UART.c ****     *  all the requested data into the  transmit buffer.
 676:.\Generated_Source\PSoC4/SERIAL_UART.c ****     *
 677:.\Generated_Source\PSoC4/SERIAL_UART.c ****     * Parameters:
 678:.\Generated_Source\PSoC4/SERIAL_UART.c ****     *  string: pointer to the null terminated string array to be placed in the
 679:.\Generated_Source\PSoC4/SERIAL_UART.c ****     *          transmit buffer.
 680:.\Generated_Source\PSoC4/SERIAL_UART.c ****     *
 681:.\Generated_Source\PSoC4/SERIAL_UART.c ****     * Return:
 682:.\Generated_Source\PSoC4/SERIAL_UART.c ****     *  None
 683:.\Generated_Source\PSoC4/SERIAL_UART.c ****     *
 684:.\Generated_Source\PSoC4/SERIAL_UART.c ****     *******************************************************************************/
 685:.\Generated_Source\PSoC4/SERIAL_UART.c ****     void SERIAL_UartPutString(const char8 string[])
 686:.\Generated_Source\PSoC4/SERIAL_UART.c ****     {
 439              		.loc 1 686 0
 440              		.cfi_startproc
 441              	.LVL30:
 442 0000 38B5     		push	{r3, r4, r5, lr}
 443              		.cfi_def_cfa_offset 16
 444              		.cfi_offset 3, -16
 445              		.cfi_offset 4, -12
 446              		.cfi_offset 5, -8
 447              		.cfi_offset 14, -4
 448 0002 051C     		mov	r5, r0
 449              	.LVL31:
 687:.\Generated_Source\PSoC4/SERIAL_UART.c ****         uint32 bufIndex;
 688:.\Generated_Source\PSoC4/SERIAL_UART.c **** 
 689:.\Generated_Source\PSoC4/SERIAL_UART.c ****         bufIndex = 0u;
ARM GAS  C:\Users\username\AppData\Local\Temp\ccayKXZf.s 			page 21


 450              		.loc 1 689 0
 451 0004 0024     		mov	r4, #0
 690:.\Generated_Source\PSoC4/SERIAL_UART.c **** 
 691:.\Generated_Source\PSoC4/SERIAL_UART.c ****         /* Blocks the control flow until all data has been sent */
 692:.\Generated_Source\PSoC4/SERIAL_UART.c ****         while(string[bufIndex] != ((char8) 0))
 452              		.loc 1 692 0
 453 0006 02E0     		b	.L36
 454              	.LVL32:
 455              	.L37:
 693:.\Generated_Source\PSoC4/SERIAL_UART.c ****         {
 694:.\Generated_Source\PSoC4/SERIAL_UART.c ****             SERIAL_UartPutChar((uint32) string[bufIndex]);
 456              		.loc 1 694 0
 457 0008 FFF7FEFF 		bl	SERIAL_SpiUartWriteTxData
 458              	.LVL33:
 695:.\Generated_Source\PSoC4/SERIAL_UART.c ****             bufIndex++;
 459              		.loc 1 695 0
 460 000c 0134     		add	r4, r4, #1
 461              	.LVL34:
 462              	.L36:
 692:.\Generated_Source\PSoC4/SERIAL_UART.c ****         {
 463              		.loc 1 692 0
 464 000e 285D     		ldrb	r0, [r5, r4]
 465 0010 0028     		cmp	r0, #0
 466 0012 F9D1     		bne	.L37
 696:.\Generated_Source\PSoC4/SERIAL_UART.c ****         }
 697:.\Generated_Source\PSoC4/SERIAL_UART.c ****     }
 467              		.loc 1 697 0
 468              		@ sp needed
 469              	.LVL35:
 470              	.LVL36:
 471 0014 38BD     		pop	{r3, r4, r5, pc}
 472              		.cfi_endproc
 473              	.LFE11:
 474              		.size	SERIAL_UartPutString, .-SERIAL_UartPutString
 475 0016 C046     		.section	.text.SERIAL_UartPutCRLF,"ax",%progbits
 476              		.align	2
 477              		.global	SERIAL_UartPutCRLF
 478              		.code	16
 479              		.thumb_func
 480              		.type	SERIAL_UartPutCRLF, %function
 481              	SERIAL_UartPutCRLF:
 482              	.LFB12:
 698:.\Generated_Source\PSoC4/SERIAL_UART.c **** 
 699:.\Generated_Source\PSoC4/SERIAL_UART.c **** 
 700:.\Generated_Source\PSoC4/SERIAL_UART.c ****     /*******************************************************************************
 701:.\Generated_Source\PSoC4/SERIAL_UART.c ****     * Function Name: SERIAL_UartPutCRLF
 702:.\Generated_Source\PSoC4/SERIAL_UART.c ****     ********************************************************************************
 703:.\Generated_Source\PSoC4/SERIAL_UART.c ****     *
 704:.\Generated_Source\PSoC4/SERIAL_UART.c ****     * Summary:
 705:.\Generated_Source\PSoC4/SERIAL_UART.c ****     *  Places a byte of data followed by a carriage return (0x0D) and
 706:.\Generated_Source\PSoC4/SERIAL_UART.c ****     *  line feed (0x0A) into the transmit buffer.
 707:.\Generated_Source\PSoC4/SERIAL_UART.c ****     *  This function is blocking and waits until there is space available to put
 708:.\Generated_Source\PSoC4/SERIAL_UART.c ****     *  all the requested data into the  transmit buffer.
 709:.\Generated_Source\PSoC4/SERIAL_UART.c ****     *
 710:.\Generated_Source\PSoC4/SERIAL_UART.c ****     * Parameters:
 711:.\Generated_Source\PSoC4/SERIAL_UART.c ****     *  txDataByte : the data to be transmitted.
 712:.\Generated_Source\PSoC4/SERIAL_UART.c ****     *
ARM GAS  C:\Users\username\AppData\Local\Temp\ccayKXZf.s 			page 22


 713:.\Generated_Source\PSoC4/SERIAL_UART.c ****     * Return:
 714:.\Generated_Source\PSoC4/SERIAL_UART.c ****     *  None
 715:.\Generated_Source\PSoC4/SERIAL_UART.c ****     *
 716:.\Generated_Source\PSoC4/SERIAL_UART.c ****     *******************************************************************************/
 717:.\Generated_Source\PSoC4/SERIAL_UART.c ****     void SERIAL_UartPutCRLF(uint32 txDataByte)
 718:.\Generated_Source\PSoC4/SERIAL_UART.c ****     {
 483              		.loc 1 718 0
 484              		.cfi_startproc
 485              	.LVL37:
 486 0000 08B5     		push	{r3, lr}
 487              		.cfi_def_cfa_offset 8
 488              		.cfi_offset 3, -8
 489              		.cfi_offset 14, -4
 719:.\Generated_Source\PSoC4/SERIAL_UART.c ****         SERIAL_UartPutChar(txDataByte);  /* Blocks control flow until all data has been sent */
 490              		.loc 1 719 0
 491 0002 FFF7FEFF 		bl	SERIAL_SpiUartWriteTxData
 492              	.LVL38:
 720:.\Generated_Source\PSoC4/SERIAL_UART.c ****         SERIAL_UartPutChar(0x0Du);       /* Blocks control flow until all data has been sent */
 493              		.loc 1 720 0
 494 0006 0D20     		mov	r0, #13
 495 0008 FFF7FEFF 		bl	SERIAL_SpiUartWriteTxData
 496              	.LVL39:
 721:.\Generated_Source\PSoC4/SERIAL_UART.c ****         SERIAL_UartPutChar(0x0Au);       /* Blocks control flow until all data has been sent */
 497              		.loc 1 721 0
 498 000c 0A20     		mov	r0, #10
 499 000e FFF7FEFF 		bl	SERIAL_SpiUartWriteTxData
 500              	.LVL40:
 722:.\Generated_Source\PSoC4/SERIAL_UART.c ****     }
 501              		.loc 1 722 0
 502              		@ sp needed
 503 0012 08BD     		pop	{r3, pc}
 504              		.cfi_endproc
 505              	.LFE12:
 506              		.size	SERIAL_UartPutCRLF, .-SERIAL_UartPutCRLF
 507              		.section	.text.SERIAL_UartEnableCts,"ax",%progbits
 508              		.align	2
 509              		.global	SERIAL_UartEnableCts
 510              		.code	16
 511              		.thumb_func
 512              		.type	SERIAL_UartEnableCts, %function
 513              	SERIAL_UartEnableCts:
 514              	.LFB13:
 723:.\Generated_Source\PSoC4/SERIAL_UART.c **** 
 724:.\Generated_Source\PSoC4/SERIAL_UART.c **** 
 725:.\Generated_Source\PSoC4/SERIAL_UART.c ****     #if !(SERIAL_CY_SCBIP_V0 || SERIAL_CY_SCBIP_V1)
 726:.\Generated_Source\PSoC4/SERIAL_UART.c ****         /*******************************************************************************
 727:.\Generated_Source\PSoC4/SERIAL_UART.c ****         * Function Name: SERIALSCB_UartEnableCts
 728:.\Generated_Source\PSoC4/SERIAL_UART.c ****         ********************************************************************************
 729:.\Generated_Source\PSoC4/SERIAL_UART.c ****         *
 730:.\Generated_Source\PSoC4/SERIAL_UART.c ****         * Summary:
 731:.\Generated_Source\PSoC4/SERIAL_UART.c ****         *  Enables usage of CTS input signal by the UART transmitter.
 732:.\Generated_Source\PSoC4/SERIAL_UART.c ****         *
 733:.\Generated_Source\PSoC4/SERIAL_UART.c ****         * Parameters:
 734:.\Generated_Source\PSoC4/SERIAL_UART.c ****         *  None
 735:.\Generated_Source\PSoC4/SERIAL_UART.c ****         *
 736:.\Generated_Source\PSoC4/SERIAL_UART.c ****         * Return:
 737:.\Generated_Source\PSoC4/SERIAL_UART.c ****         *  None
ARM GAS  C:\Users\username\AppData\Local\Temp\ccayKXZf.s 			page 23


 738:.\Generated_Source\PSoC4/SERIAL_UART.c ****         *
 739:.\Generated_Source\PSoC4/SERIAL_UART.c ****         *******************************************************************************/
 740:.\Generated_Source\PSoC4/SERIAL_UART.c ****         void SERIAL_UartEnableCts(void)
 741:.\Generated_Source\PSoC4/SERIAL_UART.c ****         {
 515              		.loc 1 741 0
 516              		.cfi_startproc
 742:.\Generated_Source\PSoC4/SERIAL_UART.c ****             SERIAL_UART_FLOW_CTRL_REG |= (uint32)  SERIAL_UART_FLOW_CTRL_CTS_ENABLE;
 517              		.loc 1 742 0
 518 0000 034A     		ldr	r2, .L40
 519 0002 1368     		ldr	r3, [r2]
 520 0004 8021     		mov	r1, #128
 521 0006 8904     		lsl	r1, r1, #18
 522 0008 0B43     		orr	r3, r1
 523 000a 1360     		str	r3, [r2]
 743:.\Generated_Source\PSoC4/SERIAL_UART.c ****         }
 524              		.loc 1 743 0
 525              		@ sp needed
 526 000c 7047     		bx	lr
 527              	.L41:
 528 000e C046     		.align	2
 529              	.L40:
 530 0010 50002440 		.word	1076101200
 531              		.cfi_endproc
 532              	.LFE13:
 533              		.size	SERIAL_UartEnableCts, .-SERIAL_UartEnableCts
 534              		.section	.text.SERIAL_UartDisableCts,"ax",%progbits
 535              		.align	2
 536              		.global	SERIAL_UartDisableCts
 537              		.code	16
 538              		.thumb_func
 539              		.type	SERIAL_UartDisableCts, %function
 540              	SERIAL_UartDisableCts:
 541              	.LFB14:
 744:.\Generated_Source\PSoC4/SERIAL_UART.c **** 
 745:.\Generated_Source\PSoC4/SERIAL_UART.c **** 
 746:.\Generated_Source\PSoC4/SERIAL_UART.c ****         /*******************************************************************************
 747:.\Generated_Source\PSoC4/SERIAL_UART.c ****         * Function Name: SERIAL_UartDisableCts
 748:.\Generated_Source\PSoC4/SERIAL_UART.c ****         ********************************************************************************
 749:.\Generated_Source\PSoC4/SERIAL_UART.c ****         *
 750:.\Generated_Source\PSoC4/SERIAL_UART.c ****         * Summary:
 751:.\Generated_Source\PSoC4/SERIAL_UART.c ****         *  Disables usage of CTS input signal by the UART transmitter.
 752:.\Generated_Source\PSoC4/SERIAL_UART.c ****         *
 753:.\Generated_Source\PSoC4/SERIAL_UART.c ****         * Parameters:
 754:.\Generated_Source\PSoC4/SERIAL_UART.c ****         *  None
 755:.\Generated_Source\PSoC4/SERIAL_UART.c ****         *
 756:.\Generated_Source\PSoC4/SERIAL_UART.c ****         * Return:
 757:.\Generated_Source\PSoC4/SERIAL_UART.c ****         *  None
 758:.\Generated_Source\PSoC4/SERIAL_UART.c ****         *
 759:.\Generated_Source\PSoC4/SERIAL_UART.c ****         *******************************************************************************/
 760:.\Generated_Source\PSoC4/SERIAL_UART.c ****         void SERIAL_UartDisableCts(void)
 761:.\Generated_Source\PSoC4/SERIAL_UART.c ****         {
 542              		.loc 1 761 0
 543              		.cfi_startproc
 762:.\Generated_Source\PSoC4/SERIAL_UART.c ****             SERIAL_UART_FLOW_CTRL_REG &= (uint32) ~SERIAL_UART_FLOW_CTRL_CTS_ENABLE;
 544              		.loc 1 762 0
 545 0000 024A     		ldr	r2, .L43
 546 0002 1168     		ldr	r1, [r2]
ARM GAS  C:\Users\username\AppData\Local\Temp\ccayKXZf.s 			page 24


 547 0004 024B     		ldr	r3, .L43+4
 548 0006 0B40     		and	r3, r1
 549 0008 1360     		str	r3, [r2]
 763:.\Generated_Source\PSoC4/SERIAL_UART.c ****         }
 550              		.loc 1 763 0
 551              		@ sp needed
 552 000a 7047     		bx	lr
 553              	.L44:
 554              		.align	2
 555              	.L43:
 556 000c 50002440 		.word	1076101200
 557 0010 FFFFFFFD 		.word	-33554433
 558              		.cfi_endproc
 559              	.LFE14:
 560              		.size	SERIAL_UartDisableCts, .-SERIAL_UartDisableCts
 561              		.section	.text.SERIAL_UartSetCtsPolarity,"ax",%progbits
 562              		.align	2
 563              		.global	SERIAL_UartSetCtsPolarity
 564              		.code	16
 565              		.thumb_func
 566              		.type	SERIAL_UartSetCtsPolarity, %function
 567              	SERIAL_UartSetCtsPolarity:
 568              	.LFB15:
 764:.\Generated_Source\PSoC4/SERIAL_UART.c **** 
 765:.\Generated_Source\PSoC4/SERIAL_UART.c **** 
 766:.\Generated_Source\PSoC4/SERIAL_UART.c ****         /*******************************************************************************
 767:.\Generated_Source\PSoC4/SERIAL_UART.c ****         * Function Name: SERIAL_UartSetCtsPolarity
 768:.\Generated_Source\PSoC4/SERIAL_UART.c ****         ********************************************************************************
 769:.\Generated_Source\PSoC4/SERIAL_UART.c ****         *
 770:.\Generated_Source\PSoC4/SERIAL_UART.c ****         * Summary:
 771:.\Generated_Source\PSoC4/SERIAL_UART.c ****         *  Sets active polarity of CTS input signal.
 772:.\Generated_Source\PSoC4/SERIAL_UART.c ****         *
 773:.\Generated_Source\PSoC4/SERIAL_UART.c ****         * Parameters:
 774:.\Generated_Source\PSoC4/SERIAL_UART.c ****         *  polarity: Active polarity of CTS output signal.
 775:.\Generated_Source\PSoC4/SERIAL_UART.c ****         *   SERIAL_UART_CTS_ACTIVE_LOW  - CTS signal is active low.
 776:.\Generated_Source\PSoC4/SERIAL_UART.c ****         *   SERIAL_UART_CTS_ACTIVE_HIGH - CTS signal is active high.
 777:.\Generated_Source\PSoC4/SERIAL_UART.c ****         *
 778:.\Generated_Source\PSoC4/SERIAL_UART.c ****         * Return:
 779:.\Generated_Source\PSoC4/SERIAL_UART.c ****         *  None
 780:.\Generated_Source\PSoC4/SERIAL_UART.c ****         *
 781:.\Generated_Source\PSoC4/SERIAL_UART.c ****         *******************************************************************************/
 782:.\Generated_Source\PSoC4/SERIAL_UART.c ****         void SERIAL_UartSetCtsPolarity(uint32 polarity)
 783:.\Generated_Source\PSoC4/SERIAL_UART.c ****         {
 569              		.loc 1 783 0
 570              		.cfi_startproc
 571              	.LVL41:
 784:.\Generated_Source\PSoC4/SERIAL_UART.c ****             if (0u != polarity)
 572              		.loc 1 784 0
 573 0000 0028     		cmp	r0, #0
 574 0002 06D0     		beq	.L46
 785:.\Generated_Source\PSoC4/SERIAL_UART.c ****             {
 786:.\Generated_Source\PSoC4/SERIAL_UART.c ****                 SERIAL_UART_FLOW_CTRL_REG |= (uint32)  SERIAL_UART_FLOW_CTRL_CTS_POLARITY;
 575              		.loc 1 786 0
 576 0004 064A     		ldr	r2, .L48
 577 0006 1368     		ldr	r3, [r2]
 578 0008 8021     		mov	r1, #128
 579 000a 4904     		lsl	r1, r1, #17
ARM GAS  C:\Users\username\AppData\Local\Temp\ccayKXZf.s 			page 25


 580 000c 0B43     		orr	r3, r1
 581 000e 1360     		str	r3, [r2]
 582 0010 04E0     		b	.L45
 583              	.L46:
 787:.\Generated_Source\PSoC4/SERIAL_UART.c ****             }
 788:.\Generated_Source\PSoC4/SERIAL_UART.c ****             else
 789:.\Generated_Source\PSoC4/SERIAL_UART.c ****             {
 790:.\Generated_Source\PSoC4/SERIAL_UART.c ****                 SERIAL_UART_FLOW_CTRL_REG &= (uint32) ~SERIAL_UART_FLOW_CTRL_CTS_POLARITY;
 584              		.loc 1 790 0
 585 0012 034A     		ldr	r2, .L48
 586 0014 1168     		ldr	r1, [r2]
 587 0016 034B     		ldr	r3, .L48+4
 588 0018 0B40     		and	r3, r1
 589 001a 1360     		str	r3, [r2]
 590              	.L45:
 791:.\Generated_Source\PSoC4/SERIAL_UART.c ****             }
 792:.\Generated_Source\PSoC4/SERIAL_UART.c ****         }
 591              		.loc 1 792 0
 592              		@ sp needed
 593 001c 7047     		bx	lr
 594              	.L49:
 595 001e C046     		.align	2
 596              	.L48:
 597 0020 50002440 		.word	1076101200
 598 0024 FFFFFFFE 		.word	-16777217
 599              		.cfi_endproc
 600              	.LFE15:
 601              		.size	SERIAL_UartSetCtsPolarity, .-SERIAL_UartSetCtsPolarity
 602              		.text
 603              	.Letext0:
 604              		.file 2 "Generated_Source\\PSoC4/cytypes.h"
 605              		.file 3 ".\\Generated_Source\\PSoC4\\SERIAL_SPI_UART.h"