ARM GAS  C:\Users\username\AppData\Local\Temp\cc1E6INQ.s 			page 1


   1              		.cpu cortex-m0
   2              		.fpu softvfp
   3              		.eabi_attribute 20, 1
   4              		.eabi_attribute 21, 1
   5              		.eabi_attribute 23, 3
   6              		.eabi_attribute 24, 1
   7              		.eabi_attribute 25, 1
   8              		.eabi_attribute 26, 1
   9              		.eabi_attribute 30, 1
  10              		.eabi_attribute 34, 0
  11              		.eabi_attribute 18, 4
  12              		.code	16
  13              		.file	"SSD1306.c"
  14              		.text
  15              	.Ltext0:
  16              		.cfi_sections	.debug_frame
  17              		.section	.text.drawPixel,"ax",%progbits
  18              		.align	2
  19              		.global	drawPixel
  20              		.code	16
  21              		.thumb_func
  22              		.type	drawPixel, %function
  23              	drawPixel:
  24              	.LFB35:
  25              		.file 1 ".\\SSD1306.c"
   1:.\SSD1306.c   **** /* ============================================================
   2:.\SSD1306.c   ****  *  C SSD1306 OLED Display Driver Library for PSoC 4 
   3:.\SSD1306.c   ****  *
   4:.\SSD1306.c   ****  *  Based on AdaFruit Library by Limor Fried/Ladyada
   5:.\SSD1306.c   ****  *  Ported to PSoC by Jon Isaiah    earthworm.jim117@gmail.com   
   6:.\SSD1306.c   ****  *  
   7:.\SSD1306.c   ****  *  Legal Info at End-of-File
   8:.\SSD1306.c   ****  *
   9:.\SSD1306.c   ****  *  Last updated 8.21.15 - support for 64x128 OLED display
  10:.\SSD1306.c   ****  *
  11:.\SSD1306.c   ****  *
  12:.\SSD1306.c   ****  *  ---Usage Guide---
  13:.\SSD1306.c   ****  *
  14:.\SSD1306.c   ****  * This module contains functions specific to the SSD1306 Display Driver Chip
  15:.\SSD1306.c   ****  * This File is Configured to work with the Adafruit 64x128 Monochrome OLED display
  16:.\SSD1306.c   ****  * 
  17:.\SSD1306.c   ****  * To configure to work with other displays using the SSD1306 Display Driver
  18:.\SSD1306.c   ****  *   Modifications to the start-up routine, GDDRAM Buffer, and variables are nessesary
  19:.\SSD1306.c   ****  *
  20:.\SSD1306.c   ****  *     1. Your project must include the source files 
  21:.\SSD1306.c   ****  *            GFXmaster.c
  22:.\SSD1306.c   ****  *            GFXmaster.h
  23:.\SSD1306.c   ****  *            glcdfont.c
  24:.\SSD1306.c   ****  *            SSD1306.c
  25:.\SSD1306.c   ****  *            SSD1306.h
  26:.\SSD1306.c   ****  *
  27:.\SSD1306.c   ****  *     2. SSD1306.h must be #included in GFXmaster.c
  28:.\SSD1306.c   ****  *
  29:.\SSD1306.c   ****  *     3. Functions Included in this file and duplicated in GFXmaster.c must be
  30:.\SSD1306.c   ****              Commented out in GFXmaster.c
  31:.\SSD1306.c   ****              Their declarations in GFXmaster.h should also be commented out
  32:.\SSD1306.c   ****  * ===========================================================
ARM GAS  C:\Users\username\AppData\Local\Temp\cc1E6INQ.s 			page 2


  33:.\SSD1306.c   **** */
  34:.\SSD1306.c   **** 
  35:.\SSD1306.c   **** 
  36:.\SSD1306.c   **** #include <SSD1306.h>
  37:.\SSD1306.c   **** #include <project.h>
  38:.\SSD1306.c   **** 
  39:.\SSD1306.c   **** 
  40:.\SSD1306.c   **** 
  41:.\SSD1306.c   **** int const lcd_HEIGHT = 64;
  42:.\SSD1306.c   **** int const lcd_WIDTH = 128;
  43:.\SSD1306.c   **** 
  44:.\SSD1306.c   **** uint8_t current_rotation = 0;
  45:.\SSD1306.c   **** int current_rot_height = 64;
  46:.\SSD1306.c   **** int current_rot_width = 128;
  47:.\SSD1306.c   **** 
  48:.\SSD1306.c   **** 
  49:.\SSD1306.c   **** 
  50:.\SSD1306.c   **** static uint16_t GDDRAM_Buffer[] = {
  51:.\SSD1306.c   **** 0x00, 0x00, 0x00, 0x00, 0x00, 0x00, 0x00, 0x00, 0x00, 0x00, 0x00, 0x00, 0x00, 0x00, 0x00, 0x00,
  52:.\SSD1306.c   **** 0x00, 0x00, 0x00, 0x00, 0x00, 0x00, 0x00, 0x00, 0x00, 0x00, 0x00, 0x00, 0x00, 0x00, 0x00, 0x00,
  53:.\SSD1306.c   **** 0x00, 0x00, 0x00, 0x00, 0x00, 0x00, 0x00, 0x00, 0x00, 0x00, 0x00, 0x00, 0x00, 0x00, 0x00, 0x00,
  54:.\SSD1306.c   **** 0x00, 0x00, 0x00, 0x00, 0x00, 0x00, 0x00, 0x00, 0x00, 0x00, 0x00, 0x00, 0x00, 0x00, 0x00, 0x80,
  55:.\SSD1306.c   **** 0x80, 0x80, 0x00, 0x00, 0x00, 0x00, 0x00, 0x00, 0x00, 0x00, 0x00, 0x00, 0x00, 0x00, 0x00, 0x00,
  56:.\SSD1306.c   **** 0x00, 0x80, 0x80, 0xC0, 0xC0, 0x00, 0x00, 0x00, 0x00, 0x00, 0x00, 0x00, 0x00, 0x00, 0x00, 0x00,
  57:.\SSD1306.c   **** 0x00, 0x00, 0x00, 0x00, 0x00, 0x00, 0x00, 0x00, 0x00, 0x00, 0x00, 0x00, 0x00, 0x00, 0x00, 0x00,
  58:.\SSD1306.c   **** 0x00, 0x00, 0x00, 0x00, 0x00, 0x00, 0x00, 0x00, 0x00, 0x00, 0x00, 0x00, 0x00, 0x00, 0x00, 0x00,
  59:.\SSD1306.c   **** 0x00, 0x00, 0x00, 0x00, 0x00, 0x00, 0x00, 0x00, 0x00, 0x00, 0x00, 0x00, 0x00, 0x00, 0x00, 0x00,
  60:.\SSD1306.c   **** 0x00, 0x00, 0x00, 0x00, 0x80, 0xC0, 0xE0, 0xF0, 0xF8, 0xFC, 0xF8, 0xE0, 0x00, 0x00, 0x00, 0x00,
  61:.\SSD1306.c   **** 0x00, 0x00, 0x00, 0x00, 0x00, 0x00, 0x00, 0x00, 0x00, 0x00, 0x00, 0x00, 0x00, 0x80, 0x80, 0x80,
  62:.\SSD1306.c   **** 0x80, 0x80, 0x00, 0x80, 0x80, 0x00, 0x00, 0x00, 0x00, 0x80, 0x80, 0x80, 0x80, 0x80, 0x00, 0xFF,
  63:.\SSD1306.c   **** 0xFF, 0xFF, 0x00, 0x00, 0x00, 0x00, 0x80, 0x80, 0x80, 0x80, 0x00, 0x00, 0x80, 0x80, 0x00, 0x00,
  64:.\SSD1306.c   **** 0x80, 0xFF, 0xFF, 0x80, 0x80, 0x00, 0x80, 0x80, 0x00, 0x80, 0x80, 0x80, 0x80, 0x00, 0x80, 0x80,
  65:.\SSD1306.c   **** 0x00, 0x00, 0x00, 0x00, 0x00, 0x80, 0x80, 0x00, 0x00, 0x8C, 0x8E, 0x84, 0x00, 0x00, 0x80, 0xF8,
  66:.\SSD1306.c   **** 0xF8, 0xF8, 0x80, 0x00, 0x00, 0x00, 0x00, 0x00, 0x00, 0x00, 0x00, 0x00, 0x00, 0x00, 0x00, 0x00,
  67:.\SSD1306.c   **** 0xF0, 0xF0, 0xF0, 0xF0, 0xF0, 0xF0, 0xF0, 0xF0, 0xF0, 0xF0, 0xF0, 0xF0, 0xE0, 0xE0, 0xC0, 0x80,
  68:.\SSD1306.c   **** 0x00, 0xE0, 0xFC, 0xFE, 0xFF, 0xFF, 0xFF, 0x7F, 0xFF, 0xFF, 0xFF, 0xFF, 0xFF, 0x00, 0x00, 0x00,
  69:.\SSD1306.c   **** 0x00, 0x00, 0x00, 0x00, 0x00, 0x00, 0x00, 0x00, 0x00, 0x00, 0x00, 0xFE, 0xFF, 0xC7, 0x01, 0x01,
  70:.\SSD1306.c   **** 0x01, 0x01, 0x83, 0xFF, 0xFF, 0x00, 0x00, 0x7C, 0xFE, 0xC7, 0x01, 0x01, 0x01, 0x01, 0x83, 0xFF,
  71:.\SSD1306.c   **** 0xFF, 0xFF, 0x00, 0x38, 0xFE, 0xC7, 0x83, 0x01, 0x01, 0x01, 0x83, 0xC7, 0xFF, 0xFF, 0x00, 0x00,
  72:.\SSD1306.c   **** 0x01, 0xFF, 0xFF, 0x01, 0x01, 0x00, 0xFF, 0xFF, 0x07, 0x01, 0x01, 0x01, 0x00, 0x00, 0x7F, 0xFF,
  73:.\SSD1306.c   **** 0x80, 0x00, 0x00, 0x00, 0xFF, 0xFF, 0x7F, 0x00, 0x00, 0xFF, 0xFF, 0xFF, 0x00, 0x00, 0x01, 0xFF,
  74:.\SSD1306.c   **** 0xFF, 0xFF, 0x01, 0x00, 0x00, 0x00, 0x00, 0x00, 0x00, 0x00, 0x00, 0x00, 0x00, 0x00, 0x00, 0x00,
  75:.\SSD1306.c   **** 0x03, 0x0F, 0x3F, 0x7F, 0x7F, 0xFF, 0xFF, 0xFF, 0xFF, 0xFF, 0xFF, 0xFF, 0xE7, 0xC7, 0xC7, 0x8F,
  76:.\SSD1306.c   **** 0x8F, 0x9F, 0xBF, 0xFF, 0xFF, 0xC3, 0xC0, 0xF0, 0xFF, 0xFF, 0xFF, 0xFF, 0xFF, 0xFC, 0xFC, 0xFC,
  77:.\SSD1306.c   **** 0xFC, 0xFC, 0xFC, 0xFC, 0xFC, 0xF8, 0xF8, 0xF0, 0xF0, 0xE0, 0xC0, 0x00, 0x01, 0x03, 0x03, 0x03,
  78:.\SSD1306.c   **** 0x03, 0x03, 0x01, 0x03, 0x03, 0x00, 0x00, 0x00, 0x00, 0x01, 0x03, 0x03, 0x03, 0x03, 0x01, 0x01,
  79:.\SSD1306.c   **** 0x03, 0x01, 0x00, 0x00, 0x00, 0x01, 0x03, 0x03, 0x03, 0x03, 0x01, 0x01, 0x03, 0x03, 0x00, 0x00,
  80:.\SSD1306.c   **** 0x00, 0x03, 0x03, 0x00, 0x00, 0x00, 0x03, 0x03, 0x00, 0x00, 0x00, 0x00, 0x00, 0x00, 0x00, 0x01,
  81:.\SSD1306.c   **** 0x03, 0x03, 0x03, 0x03, 0x03, 0x01, 0x00, 0x00, 0x00, 0x01, 0x03, 0x01, 0x00, 0x00, 0x00, 0x03,
  82:.\SSD1306.c   **** 0x03, 0x01, 0x00, 0x00, 0x00, 0x00, 0x00, 0x00, 0x00, 0x00, 0x00, 0x00, 0x00, 0x00, 0x00, 0x00,
  83:.\SSD1306.c   **** 0x00, 0x00, 0x00, 0x80, 0xC0, 0xE0, 0xF0, 0xF9, 0xFF, 0xFF, 0xFF, 0xFF, 0xFF, 0x3F, 0x1F, 0x0F,
  84:.\SSD1306.c   **** 0x87, 0xC7, 0xF7, 0xFF, 0xFF, 0x1F, 0x1F, 0x3D, 0xFC, 0xF8, 0xF8, 0xF8, 0xF8, 0x7C, 0x7D, 0xFF,
  85:.\SSD1306.c   **** 0xFF, 0xFF, 0xFF, 0xFF, 0xFF, 0xFF, 0xFF, 0x7F, 0x3F, 0x0F, 0x07, 0x00, 0x30, 0x30, 0x00, 0x00,
  86:.\SSD1306.c   **** 0x00, 0x00, 0x00, 0x00, 0x00, 0x00, 0x00, 0x00, 0x00, 0x00, 0x00, 0x00, 0x00, 0x00, 0x00, 0x00,
  87:.\SSD1306.c   **** 0x00, 0x00, 0x00, 0x00, 0xFE, 0xFE, 0xFC, 0x00, 0x00, 0x00, 0x00, 0x00, 0x00, 0x00, 0x00, 0x00,
  88:.\SSD1306.c   **** 0x00, 0x00, 0x00, 0x00, 0x00, 0x00, 0x00, 0x00, 0x00, 0x00, 0x00, 0x00, 0x00, 0xE0, 0xC0, 0x00,
  89:.\SSD1306.c   **** 0x00, 0x00, 0x00, 0x00, 0x00, 0x00, 0x00, 0x00, 0x00, 0x00, 0x30, 0x30, 0x00, 0x00, 0x00, 0x00,
ARM GAS  C:\Users\username\AppData\Local\Temp\cc1E6INQ.s 			page 3


  90:.\SSD1306.c   **** 0x00, 0x00, 0x00, 0x00, 0x00, 0x00, 0x00, 0x00, 0x00, 0x00, 0x00, 0x00, 0x00, 0x00, 0x00, 0x00,
  91:.\SSD1306.c   **** 0x00, 0xC0, 0xFE, 0xFF, 0xFF, 0xFF, 0xFF, 0xFF, 0xFF, 0xFF, 0xFF, 0xFF, 0x7F, 0x7F, 0x3F, 0x1F,
  92:.\SSD1306.c   **** 0x0F, 0x07, 0x1F, 0x7F, 0xFF, 0xFF, 0xF8, 0xF8, 0xFF, 0xFF, 0xFF, 0xFF, 0xFF, 0xFE, 0xF8, 0xE0,
  93:.\SSD1306.c   **** 0x00, 0x00, 0x00, 0x01, 0x00, 0x00, 0x00, 0x00, 0x00, 0x00, 0x00, 0x00, 0xFE, 0xFE, 0x00, 0x00,
  94:.\SSD1306.c   **** 0x00, 0xFC, 0xFE, 0xFC, 0x0C, 0x06, 0x06, 0x0E, 0xFC, 0xF8, 0x00, 0x00, 0xF0, 0xF8, 0x1C, 0x0E,
  95:.\SSD1306.c   **** 0x06, 0x06, 0x06, 0x0C, 0xFF, 0xFF, 0xFF, 0x00, 0x00, 0xFE, 0xFE, 0x00, 0x00, 0x00, 0x00, 0xFC,
  96:.\SSD1306.c   **** 0xFE, 0xFC, 0x00, 0x18, 0x3C, 0x7E, 0x66, 0xE6, 0xCE, 0x84, 0x00, 0x00, 0x06, 0xFF, 0xFF, 0x06,
  97:.\SSD1306.c   **** 0x06, 0xFC, 0xFE, 0xFC, 0x0C, 0x06, 0x06, 0x06, 0x00, 0x00, 0xFE, 0xFE, 0x00, 0x00, 0xC0, 0xF8,
  98:.\SSD1306.c   **** 0xFC, 0x4E, 0x46, 0x46, 0x46, 0x4E, 0x7C, 0x78, 0x40, 0x18, 0x3C, 0x76, 0xE6, 0xCE, 0xCC, 0x80,
  99:.\SSD1306.c   **** 0x00, 0x00, 0x00, 0x00, 0x00, 0x00, 0x00, 0x00, 0x00, 0x00, 0x00, 0x00, 0x00, 0x00, 0x00, 0x00,
 100:.\SSD1306.c   **** 0x00, 0x00, 0x00, 0x00, 0x01, 0x07, 0x0F, 0x1F, 0x1F, 0x3F, 0x3F, 0x3F, 0x3F, 0x1F, 0x0F, 0x03,
 101:.\SSD1306.c   **** 0x00, 0x00, 0x00, 0x00, 0x00, 0x00, 0x00, 0x00, 0x00, 0x00, 0x00, 0x00, 0x0F, 0x0F, 0x00, 0x00,
 102:.\SSD1306.c   **** 0x00, 0x0F, 0x0F, 0x0F, 0x00, 0x00, 0x00, 0x00, 0x0F, 0x0F, 0x00, 0x00, 0x03, 0x07, 0x0E, 0x0C,
 103:.\SSD1306.c   **** 0x18, 0x18, 0x0C, 0x06, 0x0F, 0x0F, 0x0F, 0x00, 0x00, 0x01, 0x0F, 0x0E, 0x0C, 0x18, 0x0C, 0x0F,
 104:.\SSD1306.c   **** 0x07, 0x01, 0x00, 0x04, 0x0E, 0x0C, 0x18, 0x0C, 0x0F, 0x07, 0x00, 0x00, 0x00, 0x0F, 0x0F, 0x00,
 105:.\SSD1306.c   **** 0x00, 0x0F, 0x0F, 0x0F, 0x00, 0x00, 0x00, 0x00, 0x00, 0x00, 0x0F, 0x0F, 0x00, 0x00, 0x00, 0x07,
 106:.\SSD1306.c   **** 0x07, 0x0C, 0x0C, 0x18, 0x1C, 0x0C, 0x06, 0x06, 0x00, 0x04, 0x0E, 0x0C, 0x18, 0x0C, 0x0F, 0x07,
 107:.\SSD1306.c   **** 0x00, 0x00, 0x00, 0x00, 0x00, 0x00, 0x00, 0x00, 0x00, 0x00, 0x00, 0x00, 0x00, 0x00, 0x00, 0x00,
 108:.\SSD1306.c   **** 0x00, 0x00, 0x00, 0x00, 0x00, 0x00, 0x00, 0x00, 0x00, 0x00, 0x00, 0x00, 0x00, 0x00, 0x00, 0x00,
 109:.\SSD1306.c   **** 0x00, 0x00, 0x00, 0x00, 0x00, 0x00, 0x00, 0x00, 0x00, 0x00, 0x00, 0x00, 0x00, 0x00, 0x00, 0x00,
 110:.\SSD1306.c   **** 0x00, 0x00, 0x00, 0x00, 0x00, 0x00, 0x00, 0x00, 0x00, 0x00, 0x00, 0x00, 0x00, 0x00, 0x00, 0x00,
 111:.\SSD1306.c   **** 0x00, 0x00, 0x00, 0x00, 0x00, 0x00, 0x00, 0x00, 0x00, 0x00, 0x00, 0x00, 0x00, 0x00, 0x00, 0x00,
 112:.\SSD1306.c   **** 0x00, 0x00, 0x00, 0x00, 0x00, 0x00, 0x00, 0x00, 0x00, 0x00, 0x00, 0x00, 0x00, 0x00, 0x00, 0x00,
 113:.\SSD1306.c   **** 0x00, 0x00, 0x00, 0x00, 0x00, 0x00, 0x00, 0x00, 0x00, 0x00, 0x00, 0x00, 0x00, 0x00, 0x00, 0x00,
 114:.\SSD1306.c   **** 0x00, 0x00, 0x00, 0x00, 0x00, 0x00, 0x00, 0x00, 0x00, 0x00, 0x00, 0x00, 0x00, 0x00, 0x00, 0x00
 115:.\SSD1306.c   **** };
 116:.\SSD1306.c   **** 
 117:.\SSD1306.c   **** 
 118:.\SSD1306.c   **** 
 119:.\SSD1306.c   **** 
 120:.\SSD1306.c   **** #define ssd1306_swap(a, b) { int16_t t = a; a = b; b = t; }
 121:.\SSD1306.c   **** 
 122:.\SSD1306.c   **** // the most basic function, set a single pixel
 123:.\SSD1306.c   **** void drawPixel(int16_t x, int16_t y, uint16_t color) {
  26              		.loc 1 123 0
  27              		.cfi_startproc
  28              	.LVL0:
 124:.\SSD1306.c   ****   if ((x < 0) || (x >= current_rot_width) || (y < 0) || (y >= current_rot_height))
  29              		.loc 1 124 0
  30 0000 0028     		cmp	r0, #0
  31 0002 5DDB     		blt	.L1
  32              		.loc 1 124 0 is_stmt 0 discriminator 1
  33 0004 2F4B     		ldr	r3, .L10
  34 0006 1B68     		ldr	r3, [r3]
  35 0008 9842     		cmp	r0, r3
  36 000a 59DA     		bge	.L1
  37              		.loc 1 124 0 discriminator 2
  38 000c 0029     		cmp	r1, #0
  39 000e 57DB     		blt	.L1
  40              		.loc 1 124 0 discriminator 3
  41 0010 2C4B     		ldr	r3, .L10
  42 0012 5B68     		ldr	r3, [r3, #4]
  43 0014 9942     		cmp	r1, r3
  44 0016 53DA     		bge	.L1
 125:.\SSD1306.c   ****     return;
 126:.\SSD1306.c   **** 
 127:.\SSD1306.c   ****   // check rotation, move pixel around if necessary
ARM GAS  C:\Users\username\AppData\Local\Temp\cc1E6INQ.s 			page 4


 128:.\SSD1306.c   ****   switch (current_rotation) {
  45              		.loc 1 128 0 is_stmt 1
  46 0018 2B4B     		ldr	r3, .L10+4
  47 001a 1B78     		ldrb	r3, [r3]
  48 001c 022B     		cmp	r3, #2
  49 001e 08D0     		beq	.L4
  50 0020 032B     		cmp	r3, #3
  51 0022 0DD0     		beq	.L5
  52 0024 012B     		cmp	r3, #1
  53 0026 0FD1     		bne	.L3
  54              	.LVL1:
 129:.\SSD1306.c   ****   case 1:
 130:.\SSD1306.c   ****     ssd1306_swap(x, y);
 131:.\SSD1306.c   ****     x = lcd_WIDTH - x - 1;
  55              		.loc 1 131 0
  56 0028 7F23     		mov	r3, #127
  57 002a 5B1A     		sub	r3, r3, r1
  58              	.LVL2:
  59              	.LBB2:
 130:.\SSD1306.c   ****     x = lcd_WIDTH - x - 1;
  60              		.loc 1 130 0
  61 002c 011C     		mov	r1, r0
  62              	.LBE2:
  63              		.loc 1 131 0
  64 002e 18B2     		sxth	r0, r3
  65              	.LVL3:
 132:.\SSD1306.c   ****     break;
  66              		.loc 1 132 0
  67 0030 0AE0     		b	.L3
  68              	.LVL4:
  69              	.L4:
 133:.\SSD1306.c   ****   case 2:
 134:.\SSD1306.c   ****     x = lcd_WIDTH - x - 1;
  70              		.loc 1 134 0
  71 0032 7F23     		mov	r3, #127
  72 0034 181A     		sub	r0, r3, r0
  73              	.LVL5:
  74 0036 00B2     		sxth	r0, r0
  75              	.LVL6:
 135:.\SSD1306.c   ****     y = lcd_HEIGHT - y - 1;
  76              		.loc 1 135 0
  77 0038 3F23     		mov	r3, #63
  78 003a 591A     		sub	r1, r3, r1
  79              	.LVL7:
  80 003c 09B2     		sxth	r1, r1
  81              	.LVL8:
 136:.\SSD1306.c   ****     break;
  82              		.loc 1 136 0
  83 003e 03E0     		b	.L3
  84              	.L5:
  85              	.LVL9:
 137:.\SSD1306.c   ****   case 3:
 138:.\SSD1306.c   ****     ssd1306_swap(x, y);
 139:.\SSD1306.c   ****     y = lcd_HEIGHT - y - 1;
  86              		.loc 1 139 0
  87 0040 3F23     		mov	r3, #63
  88 0042 1B1A     		sub	r3, r3, r0
ARM GAS  C:\Users\username\AppData\Local\Temp\cc1E6INQ.s 			page 5


  89              	.LVL10:
  90              	.LBB3:
 138:.\SSD1306.c   ****     y = lcd_HEIGHT - y - 1;
  91              		.loc 1 138 0
  92 0044 081C     		mov	r0, r1
  93              	.LVL11:
  94              	.LBE3:
  95              		.loc 1 139 0
  96 0046 19B2     		sxth	r1, r3
  97              	.LVL12:
  98              	.L3:
 140:.\SSD1306.c   ****     break;
 141:.\SSD1306.c   ****   }  
 142:.\SSD1306.c   **** 
 143:.\SSD1306.c   ****   // x is which column
 144:.\SSD1306.c   ****     switch (color) 
  99              		.loc 1 144 0
 100 0048 012A     		cmp	r2, #1
 101 004a 04D0     		beq	.L7
 102 004c 002A     		cmp	r2, #0
 103 004e 14D0     		beq	.L8
 104 0050 022A     		cmp	r2, #2
 105 0052 24D0     		beq	.L9
 106 0054 34E0     		b	.L1
 107              	.L7:
 145:.\SSD1306.c   ****     {
 146:.\SSD1306.c   ****       case WHITE:   GDDRAM_Buffer[x+ (y/8)*lcd_WIDTH] |=  (1 << (y&7)); break;
 108              		.loc 1 146 0
 109 0056 CB17     		asr	r3, r1, #31
 110 0058 5B0F     		lsr	r3, r3, #29
 111 005a 5B18     		add	r3, r3, r1
 112 005c DB10     		asr	r3, r3, #3
 113 005e DB01     		lsl	r3, r3, #7
 114 0060 C018     		add	r0, r0, r3
 115              	.LVL13:
 116 0062 0723     		mov	r3, #7
 117 0064 1940     		and	r1, r3
 118              	.LVL14:
 119 0066 063B     		sub	r3, r3, #6
 120 0068 8B40     		lsl	r3, r3, r1
 121 006a 191C     		mov	r1, r3
 122 006c 4000     		lsl	r0, r0, #1
 123 006e 154B     		ldr	r3, .L10
 124 0070 1818     		add	r0, r3, r0
 125 0072 0389     		ldrh	r3, [r0, #8]
 126 0074 1943     		orr	r1, r3
 127 0076 0181     		strh	r1, [r0, #8]
 128 0078 22E0     		b	.L1
 129              	.LVL15:
 130              	.L8:
 147:.\SSD1306.c   ****       case BLACK:   GDDRAM_Buffer[x+ (y/8)*lcd_WIDTH] &= ~(1 << (y&7)); break; 
 131              		.loc 1 147 0
 132 007a CB17     		asr	r3, r1, #31
 133 007c 5B0F     		lsr	r3, r3, #29
 134 007e 5B18     		add	r3, r3, r1
 135 0080 DB10     		asr	r3, r3, #3
 136 0082 DB01     		lsl	r3, r3, #7
ARM GAS  C:\Users\username\AppData\Local\Temp\cc1E6INQ.s 			page 6


 137 0084 C018     		add	r0, r0, r3
 138              	.LVL16:
 139 0086 0723     		mov	r3, #7
 140 0088 1940     		and	r1, r3
 141              	.LVL17:
 142 008a 063B     		sub	r3, r3, #6
 143 008c 8B40     		lsl	r3, r3, r1
 144 008e 191C     		mov	r1, r3
 145 0090 4000     		lsl	r0, r0, #1
 146 0092 0C4B     		ldr	r3, .L10
 147 0094 1818     		add	r0, r3, r0
 148 0096 0389     		ldrh	r3, [r0, #8]
 149 0098 8B43     		bic	r3, r1
 150 009a 0381     		strh	r3, [r0, #8]
 151 009c 10E0     		b	.L1
 152              	.LVL18:
 153              	.L9:
 148:.\SSD1306.c   ****       case INVERSE: GDDRAM_Buffer[x+ (y/8)*lcd_WIDTH] ^=  (1 << (y&7)); break; 
 154              		.loc 1 148 0
 155 009e CB17     		asr	r3, r1, #31
 156 00a0 5B0F     		lsr	r3, r3, #29
 157 00a2 5B18     		add	r3, r3, r1
 158 00a4 DB10     		asr	r3, r3, #3
 159 00a6 DB01     		lsl	r3, r3, #7
 160 00a8 C018     		add	r0, r0, r3
 161              	.LVL19:
 162 00aa 0723     		mov	r3, #7
 163 00ac 1940     		and	r1, r3
 164              	.LVL20:
 165 00ae 063B     		sub	r3, r3, #6
 166 00b0 8B40     		lsl	r3, r3, r1
 167 00b2 191C     		mov	r1, r3
 168 00b4 4000     		lsl	r0, r0, #1
 169 00b6 034B     		ldr	r3, .L10
 170 00b8 1818     		add	r0, r3, r0
 171 00ba 0389     		ldrh	r3, [r0, #8]
 172 00bc 5940     		eor	r1, r3
 173 00be 0181     		strh	r1, [r0, #8]
 174              	.L1:
 149:.\SSD1306.c   ****     }
 150:.\SSD1306.c   ****     
 151:.\SSD1306.c   **** }
 175              		.loc 1 151 0
 176              		@ sp needed
 177 00c0 7047     		bx	lr
 178              	.L11:
 179 00c2 C046     		.align	2
 180              	.L10:
 181 00c4 00000000 		.word	.LANCHOR0
 182 00c8 00000000 		.word	.LANCHOR1
 183              		.cfi_endproc
 184              	.LFE35:
 185              		.size	drawPixel, .-drawPixel
 186              		.section	.text.ssd1306_command,"ax",%progbits
 187              		.align	2
 188              		.global	ssd1306_command
 189              		.code	16
ARM GAS  C:\Users\username\AppData\Local\Temp\cc1E6INQ.s 			page 7


 190              		.thumb_func
 191              		.type	ssd1306_command, %function
 192              	ssd1306_command:
 193              	.LFB36:
 152:.\SSD1306.c   **** 
 153:.\SSD1306.c   **** 
 154:.\SSD1306.c   **** int ssd1306_command(uint8_t c){
 194              		.loc 1 154 0
 195              		.cfi_startproc
 196              	.LVL21:
 197 0000 10B5     		push	{r4, lr}
 198              		.cfi_def_cfa_offset 8
 199              		.cfi_offset 4, -8
 200              		.cfi_offset 14, -4
 201 0002 041C     		mov	r4, r0
 155:.\SSD1306.c   ****     if (I2C_bus_I2CMasterSendStart(SSD1306_I2C_ADDRESS, I2C_bus_I2C_WRITE_XFER_MODE)== I2C_bus_I2C_
 202              		.loc 1 155 0
 203 0004 3C20     		mov	r0, #60
 204              	.LVL22:
 205 0006 0021     		mov	r1, #0
 206 0008 FFF7FEFF 		bl	I2C_bus_I2CMasterSendStart
 207              	.LVL23:
 208 000c 0028     		cmp	r0, #0
 209 000e 0DD1     		bne	.L14
 156:.\SSD1306.c   ****         if(I2C_bus_I2CMasterWriteByte(0x00) == I2C_bus_I2C_MSTR_NO_ERROR){ //specify following byte
 210              		.loc 1 156 0
 211 0010 FFF7FEFF 		bl	I2C_bus_I2CMasterWriteByte
 212              	.LVL24:
 213 0014 0028     		cmp	r0, #0
 214 0016 0BD1     		bne	.L15
 157:.\SSD1306.c   ****             if(I2C_bus_I2CMasterWriteByte(c) == I2C_bus_I2C_MSTR_NO_ERROR){ 
 215              		.loc 1 157 0
 216 0018 201C     		mov	r0, r4
 217 001a FFF7FEFF 		bl	I2C_bus_I2CMasterWriteByte
 218              	.LVL25:
 219 001e 0028     		cmp	r0, #0
 220 0020 08D1     		bne	.L16
 158:.\SSD1306.c   ****                 if(I2C_bus_I2CMasterSendStop() == I2C_bus_I2C_MSTR_NO_ERROR){
 221              		.loc 1 158 0
 222 0022 FFF7FEFF 		bl	I2C_bus_I2CMasterSendStop
 223              	.LVL26:
 224 0026 0028     		cmp	r0, #0
 225 0028 06D1     		bne	.L17
 226 002a 06E0     		b	.L13
 227              	.L14:
 159:.\SSD1306.c   ****                     return(EXIT_SUCCESS);
 160:.\SSD1306.c   ****                 }
 161:.\SSD1306.c   ****             }
 162:.\SSD1306.c   ****         }
 163:.\SSD1306.c   ****     }
 164:.\SSD1306.c   ****     return EXIT_FAILURE;
 228              		.loc 1 164 0
 229 002c 0120     		mov	r0, #1
 230 002e 04E0     		b	.L13
 231              	.L15:
 232 0030 0120     		mov	r0, #1
 233 0032 02E0     		b	.L13
ARM GAS  C:\Users\username\AppData\Local\Temp\cc1E6INQ.s 			page 8


 234              	.L16:
 235 0034 0120     		mov	r0, #1
 236 0036 00E0     		b	.L13
 237              	.L17:
 238 0038 0120     		mov	r0, #1
 239              	.L13:
 165:.\SSD1306.c   ****     
 166:.\SSD1306.c   ****     
 167:.\SSD1306.c   **** }
 240              		.loc 1 167 0
 241              		@ sp needed
 242 003a 10BD     		pop	{r4, pc}
 243              		.cfi_endproc
 244              	.LFE36:
 245              		.size	ssd1306_command, .-ssd1306_command
 246              		.section	.text.ssd1306_init_routine,"ax",%progbits
 247              		.align	2
 248              		.global	ssd1306_init_routine
 249              		.code	16
 250              		.thumb_func
 251              		.type	ssd1306_init_routine, %function
 252              	ssd1306_init_routine:
 253              	.LFB37:
 168:.\SSD1306.c   **** 
 169:.\SSD1306.c   **** 
 170:.\SSD1306.c   **** int ssd1306_init_routine(){ 
 254              		.loc 1 170 0
 255              		.cfi_startproc
 256 0000 08B5     		push	{r3, lr}
 257              		.cfi_def_cfa_offset 8
 258              		.cfi_offset 3, -8
 259              		.cfi_offset 14, -4
 171:.\SSD1306.c   ****     
 172:.\SSD1306.c   ****     lcdReset_Write(1u);
 260              		.loc 1 172 0
 261 0002 0120     		mov	r0, #1
 262 0004 FFF7FEFF 		bl	lcdReset_Write
 263              	.LVL27:
 173:.\SSD1306.c   ****     CyDelay(1);
 264              		.loc 1 173 0
 265 0008 0120     		mov	r0, #1
 266 000a FFF7FEFF 		bl	CyDelay
 267              	.LVL28:
 174:.\SSD1306.c   ****     lcdReset_Write(0u);
 268              		.loc 1 174 0
 269 000e 0020     		mov	r0, #0
 270 0010 FFF7FEFF 		bl	lcdReset_Write
 271              	.LVL29:
 175:.\SSD1306.c   ****     CyDelay(10);
 272              		.loc 1 175 0
 273 0014 0A20     		mov	r0, #10
 274 0016 FFF7FEFF 		bl	CyDelay
 275              	.LVL30:
 176:.\SSD1306.c   ****     lcdReset_Write(1u);
 276              		.loc 1 176 0
 277 001a 0120     		mov	r0, #1
 278 001c FFF7FEFF 		bl	lcdReset_Write
ARM GAS  C:\Users\username\AppData\Local\Temp\cc1E6INQ.s 			page 9


 279              	.LVL31:
 177:.\SSD1306.c   ****     
 178:.\SSD1306.c   ****     
 179:.\SSD1306.c   ****     ssd1306_command(SSD1306_DISPLAYOFF);                    // 0xAE
 280              		.loc 1 179 0
 281 0020 AE20     		mov	r0, #174
 282 0022 FFF7FEFF 		bl	ssd1306_command
 283              	.LVL32:
 180:.\SSD1306.c   ****     ssd1306_command(SSD1306_SETDISPLAYCLOCKDIV);            // 0xD5
 284              		.loc 1 180 0
 285 0026 D520     		mov	r0, #213
 286 0028 FFF7FEFF 		bl	ssd1306_command
 287              	.LVL33:
 181:.\SSD1306.c   ****     ssd1306_command(0x80);                                  // the suggested ratio 0x80
 288              		.loc 1 181 0
 289 002c 8020     		mov	r0, #128
 290 002e FFF7FEFF 		bl	ssd1306_command
 291              	.LVL34:
 182:.\SSD1306.c   ****     ssd1306_command(SSD1306_SETMULTIPLEX);                  // 0xA8
 292              		.loc 1 182 0
 293 0032 A820     		mov	r0, #168
 294 0034 FFF7FEFF 		bl	ssd1306_command
 295              	.LVL35:
 183:.\SSD1306.c   ****     ssd1306_command(0x3F);
 296              		.loc 1 183 0
 297 0038 3F20     		mov	r0, #63
 298 003a FFF7FEFF 		bl	ssd1306_command
 299              	.LVL36:
 184:.\SSD1306.c   ****     ssd1306_command(SSD1306_SETDISPLAYOFFSET);              // 0xD3
 300              		.loc 1 184 0
 301 003e D320     		mov	r0, #211
 302 0040 FFF7FEFF 		bl	ssd1306_command
 303              	.LVL37:
 185:.\SSD1306.c   ****     ssd1306_command(0x0);                                   // no offset
 304              		.loc 1 185 0
 305 0044 0020     		mov	r0, #0
 306 0046 FFF7FEFF 		bl	ssd1306_command
 307              	.LVL38:
 186:.\SSD1306.c   ****     ssd1306_command(SSD1306_SETSTARTLINE | 0x0);            // line #0
 308              		.loc 1 186 0
 309 004a 4020     		mov	r0, #64
 310 004c FFF7FEFF 		bl	ssd1306_command
 311              	.LVL39:
 187:.\SSD1306.c   ****     ssd1306_command(SSD1306_CHARGEPUMP);                    // 0x8D
 312              		.loc 1 187 0
 313 0050 8D20     		mov	r0, #141
 314 0052 FFF7FEFF 		bl	ssd1306_command
 315              	.LVL40:
 188:.\SSD1306.c   ****     ssd1306_command(0x14);                                  //****enable charge pump****           
 316              		.loc 1 188 0
 317 0056 1420     		mov	r0, #20
 318 0058 FFF7FEFF 		bl	ssd1306_command
 319              	.LVL41:
 189:.\SSD1306.c   ****     ssd1306_command(SSD1306_MEMORYMODE);                    // 0x20   ****No Idea what this does - 
 320              		.loc 1 189 0
 321 005c 2020     		mov	r0, #32
 322 005e FFF7FEFF 		bl	ssd1306_command
ARM GAS  C:\Users\username\AppData\Local\Temp\cc1E6INQ.s 			page 10


 323              	.LVL42:
 190:.\SSD1306.c   ****     ssd1306_command(0x00);                                  // 0x0 act like ks0108
 324              		.loc 1 190 0
 325 0062 0020     		mov	r0, #0
 326 0064 FFF7FEFF 		bl	ssd1306_command
 327              	.LVL43:
 191:.\SSD1306.c   ****     ssd1306_command(SSD1306_SEGREMAP | 0x1);
 328              		.loc 1 191 0
 329 0068 A120     		mov	r0, #161
 330 006a FFF7FEFF 		bl	ssd1306_command
 331              	.LVL44:
 192:.\SSD1306.c   ****     ssd1306_command(SSD1306_COMSCANDEC);
 332              		.loc 1 192 0
 333 006e C820     		mov	r0, #200
 334 0070 FFF7FEFF 		bl	ssd1306_command
 335              	.LVL45:
 193:.\SSD1306.c   ****     ssd1306_command(SSD1306_SETCOMPINS);                    // 0xDA
 336              		.loc 1 193 0
 337 0074 DA20     		mov	r0, #218
 338 0076 FFF7FEFF 		bl	ssd1306_command
 339              	.LVL46:
 194:.\SSD1306.c   ****     ssd1306_command(0x12);
 340              		.loc 1 194 0
 341 007a 1220     		mov	r0, #18
 342 007c FFF7FEFF 		bl	ssd1306_command
 343              	.LVL47:
 195:.\SSD1306.c   ****     ssd1306_command(SSD1306_SETCONTRAST);                   // 0x81
 344              		.loc 1 195 0
 345 0080 8120     		mov	r0, #129
 346 0082 FFF7FEFF 		bl	ssd1306_command
 347              	.LVL48:
 196:.\SSD1306.c   ****     ssd1306_command(0xCF);                                  //**charge pump is enabled****         
 348              		.loc 1 196 0
 349 0086 CF20     		mov	r0, #207
 350 0088 FFF7FEFF 		bl	ssd1306_command
 351              	.LVL49:
 197:.\SSD1306.c   ****     ssd1306_command(SSD1306_SETPRECHARGE);                  // 0xd9
 352              		.loc 1 197 0
 353 008c D920     		mov	r0, #217
 354 008e FFF7FEFF 		bl	ssd1306_command
 355              	.LVL50:
 198:.\SSD1306.c   ****     ssd1306_command(0xF1);                                   //***charge pump is enabled*****      
 356              		.loc 1 198 0
 357 0092 F120     		mov	r0, #241
 358 0094 FFF7FEFF 		bl	ssd1306_command
 359              	.LVL51:
 199:.\SSD1306.c   ****     ssd1306_command(SSD1306_SETVCOMDETECT);                 // 0xDB
 360              		.loc 1 199 0
 361 0098 DB20     		mov	r0, #219
 362 009a FFF7FEFF 		bl	ssd1306_command
 363              	.LVL52:
 200:.\SSD1306.c   ****     ssd1306_command(0x40);
 364              		.loc 1 200 0
 365 009e 4020     		mov	r0, #64
 366 00a0 FFF7FEFF 		bl	ssd1306_command
 367              	.LVL53:
 201:.\SSD1306.c   ****     ssd1306_command(SSD1306_DISPLAYALLON_RESUME);           // 0xA4
ARM GAS  C:\Users\username\AppData\Local\Temp\cc1E6INQ.s 			page 11


 368              		.loc 1 201 0
 369 00a4 A420     		mov	r0, #164
 370 00a6 FFF7FEFF 		bl	ssd1306_command
 371              	.LVL54:
 202:.\SSD1306.c   ****     ssd1306_command(SSD1306_NORMALDISPLAY);                 // 0xA6
 372              		.loc 1 202 0
 373 00aa A620     		mov	r0, #166
 374 00ac FFF7FEFF 		bl	ssd1306_command
 375              	.LVL55:
 203:.\SSD1306.c   ****     
 204:.\SSD1306.c   ****     ssd1306_command(SSD1306_DISPLAYON);//--turn on oled panel
 376              		.loc 1 204 0
 377 00b0 AF20     		mov	r0, #175
 378 00b2 FFF7FEFF 		bl	ssd1306_command
 379              	.LVL56:
 205:.\SSD1306.c   ****     return EXIT_SUCCESS;
 206:.\SSD1306.c   **** }
 380              		.loc 1 206 0
 381 00b6 0020     		mov	r0, #0
 382              		@ sp needed
 383 00b8 08BD     		pop	{r3, pc}
 384              		.cfi_endproc
 385              	.LFE37:
 386              		.size	ssd1306_init_routine, .-ssd1306_init_routine
 387 00ba C046     		.section	.text.ssd1306_display,"ax",%progbits
 388              		.align	2
 389              		.global	ssd1306_display
 390              		.code	16
 391              		.thumb_func
 392              		.type	ssd1306_display, %function
 393              	ssd1306_display:
 394              	.LFB38:
 207:.\SSD1306.c   **** 
 208:.\SSD1306.c   **** 
 209:.\SSD1306.c   **** void ssd1306_display(void) {
 395              		.loc 1 209 0
 396              		.cfi_startproc
 397 0000 38B5     		push	{r3, r4, r5, lr}
 398              		.cfi_def_cfa_offset 16
 399              		.cfi_offset 3, -16
 400              		.cfi_offset 4, -12
 401              		.cfi_offset 5, -8
 402              		.cfi_offset 14, -4
 210:.\SSD1306.c   ****   ssd1306_command(SSD1306_COLUMNADDR);
 403              		.loc 1 210 0
 404 0002 2120     		mov	r0, #33
 405 0004 FFF7FEFF 		bl	ssd1306_command
 406              	.LVL57:
 211:.\SSD1306.c   ****   ssd1306_command(0);   // Column start address (0 = reset)
 407              		.loc 1 211 0
 408 0008 0020     		mov	r0, #0
 409 000a FFF7FEFF 		bl	ssd1306_command
 410              	.LVL58:
 212:.\SSD1306.c   ****   ssd1306_command(lcd_WIDTH-1); // Column end address (127 = reset)
 411              		.loc 1 212 0
 412 000e 7F20     		mov	r0, #127
 413 0010 FFF7FEFF 		bl	ssd1306_command
ARM GAS  C:\Users\username\AppData\Local\Temp\cc1E6INQ.s 			page 12


 414              	.LVL59:
 213:.\SSD1306.c   **** 
 214:.\SSD1306.c   ****   ssd1306_command(SSD1306_PAGEADDR);
 415              		.loc 1 214 0
 416 0014 2220     		mov	r0, #34
 417 0016 FFF7FEFF 		bl	ssd1306_command
 418              	.LVL60:
 215:.\SSD1306.c   ****   ssd1306_command(0); // Page start address (0 = reset)
 419              		.loc 1 215 0
 420 001a 0020     		mov	r0, #0
 421 001c FFF7FEFF 		bl	ssd1306_command
 422              	.LVL61:
 216:.\SSD1306.c   ****   ssd1306_command(7); // Page end address
 423              		.loc 1 216 0
 424 0020 0720     		mov	r0, #7
 425 0022 FFF7FEFF 		bl	ssd1306_command
 426              	.LVL62:
 217:.\SSD1306.c   **** 
 218:.\SSD1306.c   **** 
 219:.\SSD1306.c   ****     // I2C
 220:.\SSD1306.c   ****     uint16_t i = 0;
 221:.\SSD1306.c   ****     uint16_t x = 0;
 222:.\SSD1306.c   ****     for (i=0; i<(lcd_WIDTH*lcd_HEIGHT/8); i++) {
 427              		.loc 1 222 0
 428 0026 0025     		mov	r5, #0
 429 0028 16E0     		b	.L20
 430              	.LVL63:
 431              	.L23:
 223:.\SSD1306.c   ****       // send a bunch of data in one xmission
 224:.\SSD1306.c   ****       I2C_bus_I2CMasterSendStart(SSD1306_I2C_ADDRESS, I2C_bus_I2C_WRITE_XFER_MODE);
 432              		.loc 1 224 0
 433 002a 3C20     		mov	r0, #60
 434 002c 0021     		mov	r1, #0
 435 002e FFF7FEFF 		bl	I2C_bus_I2CMasterSendStart
 436              	.LVL64:
 225:.\SSD1306.c   ****       I2C_bus_I2CMasterWriteByte(0x40);                              //set display start line
 437              		.loc 1 225 0
 438 0032 4020     		mov	r0, #64
 439 0034 FFF7FEFF 		bl	I2C_bus_I2CMasterWriteByte
 440              	.LVL65:
 226:.\SSD1306.c   ****       for (x=0; x<16; x++) {
 441              		.loc 1 226 0
 442 0038 0024     		mov	r4, #0
 443 003a 09E0     		b	.L21
 444              	.LVL66:
 445              	.L22:
 227:.\SSD1306.c   **** 	    I2C_bus_I2CMasterWriteByte(GDDRAM_Buffer[i]);                                       //write 12
 446              		.loc 1 227 0 discriminator 3
 447 003c 6B00     		lsl	r3, r5, #1
 448 003e 084A     		ldr	r2, .L24
 449 0040 D318     		add	r3, r2, r3
 450 0042 1889     		ldrh	r0, [r3, #8]
 451 0044 FFF7FEFF 		bl	I2C_bus_I2CMasterWriteByte
 452              	.LVL67:
 228:.\SSD1306.c   **** 	    i++;
 453              		.loc 1 228 0 discriminator 3
 454 0048 0135     		add	r5, r5, #1
ARM GAS  C:\Users\username\AppData\Local\Temp\cc1E6INQ.s 			page 13


 455              	.LVL68:
 456 004a ADB2     		uxth	r5, r5
 457              	.LVL69:
 226:.\SSD1306.c   ****       for (x=0; x<16; x++) {
 458              		.loc 1 226 0 discriminator 3
 459 004c 0134     		add	r4, r4, #1
 460              	.LVL70:
 461 004e A4B2     		uxth	r4, r4
 462              	.LVL71:
 463              	.L21:
 226:.\SSD1306.c   ****       for (x=0; x<16; x++) {
 464              		.loc 1 226 0 is_stmt 0 discriminator 1
 465 0050 0F2C     		cmp	r4, #15
 466 0052 F3D9     		bls	.L22
 467              	.LVL72:
 229:.\SSD1306.c   ****       }
 230:.\SSD1306.c   ****       i--;
 231:.\SSD1306.c   ****       I2C_bus_I2CMasterSendStop();
 468              		.loc 1 231 0 is_stmt 1 discriminator 2
 469 0054 FFF7FEFF 		bl	I2C_bus_I2CMasterSendStop
 470              	.LVL73:
 471              	.L20:
 222:.\SSD1306.c   ****       // send a bunch of data in one xmission
 472              		.loc 1 222 0 discriminator 1
 473 0058 024B     		ldr	r3, .L24+4
 474 005a 9D42     		cmp	r5, r3
 475 005c E5DD     		ble	.L23
 232:.\SSD1306.c   ****     }
 233:.\SSD1306.c   **** 
 234:.\SSD1306.c   ****   
 235:.\SSD1306.c   **** }
 476              		.loc 1 235 0
 477              		@ sp needed
 478              	.LVL74:
 479 005e 38BD     		pop	{r3, r4, r5, pc}
 480              	.L25:
 481              		.align	2
 482              	.L24:
 483 0060 00000000 		.word	.LANCHOR0
 484 0064 FF030000 		.word	1023
 485              		.cfi_endproc
 486              	.LFE38:
 487              		.size	ssd1306_display, .-ssd1306_display
 488              		.section	.text.ssd1306_clearDisplay,"ax",%progbits
 489              		.align	2
 490              		.global	ssd1306_clearDisplay
 491              		.code	16
 492              		.thumb_func
 493              		.type	ssd1306_clearDisplay, %function
 494              	ssd1306_clearDisplay:
 495              	.LFB39:
 236:.\SSD1306.c   **** 
 237:.\SSD1306.c   **** 
 238:.\SSD1306.c   **** void ssd1306_clearDisplay(void) {
 496              		.loc 1 238 0
 497              		.cfi_startproc
 498 0000 08B5     		push	{r3, lr}
ARM GAS  C:\Users\username\AppData\Local\Temp\cc1E6INQ.s 			page 14


 499              		.cfi_def_cfa_offset 8
 500              		.cfi_offset 3, -8
 501              		.cfi_offset 14, -4
 239:.\SSD1306.c   ****   memset(GDDRAM_Buffer, 0, (lcd_WIDTH*lcd_HEIGHT/4));       // clear everything
 502              		.loc 1 239 0
 503 0002 0448     		ldr	r0, .L27
 504 0004 0830     		add	r0, r0, #8
 505 0006 0021     		mov	r1, #0
 506 0008 8022     		mov	r2, #128
 507 000a 1201     		lsl	r2, r2, #4
 508 000c FFF7FEFF 		bl	memset
 509              	.LVL75:
 240:.\SSD1306.c   **** }
 510              		.loc 1 240 0
 511              		@ sp needed
 512 0010 08BD     		pop	{r3, pc}
 513              	.L28:
 514 0012 C046     		.align	2
 515              	.L27:
 516 0014 00000000 		.word	.LANCHOR0
 517              		.cfi_endproc
 518              	.LFE39:
 519              		.size	ssd1306_clearDisplay, .-ssd1306_clearDisplay
 520              		.section	.text.invertDisplay,"ax",%progbits
 521              		.align	2
 522              		.global	invertDisplay
 523              		.code	16
 524              		.thumb_func
 525              		.type	invertDisplay, %function
 526              	invertDisplay:
 527              	.LFB40:
 241:.\SSD1306.c   **** 
 242:.\SSD1306.c   **** 
 243:.\SSD1306.c   **** void invertDisplay(uint8_t i) {
 528              		.loc 1 243 0
 529              		.cfi_startproc
 530              	.LVL76:
 531 0000 08B5     		push	{r3, lr}
 532              		.cfi_def_cfa_offset 8
 533              		.cfi_offset 3, -8
 534              		.cfi_offset 14, -4
 244:.\SSD1306.c   ****   if (i) {
 535              		.loc 1 244 0
 536 0002 0028     		cmp	r0, #0
 537 0004 03D0     		beq	.L30
 245:.\SSD1306.c   ****     ssd1306_command(SSD1306_INVERTDISPLAY);
 538              		.loc 1 245 0
 539 0006 A720     		mov	r0, #167
 540              	.LVL77:
 541 0008 FFF7FEFF 		bl	ssd1306_command
 542              	.LVL78:
 543 000c 02E0     		b	.L29
 544              	.LVL79:
 545              	.L30:
 246:.\SSD1306.c   ****   } else {
 247:.\SSD1306.c   ****     ssd1306_command(SSD1306_NORMALDISPLAY);
 546              		.loc 1 247 0
ARM GAS  C:\Users\username\AppData\Local\Temp\cc1E6INQ.s 			page 15


 547 000e A620     		mov	r0, #166
 548              	.LVL80:
 549 0010 FFF7FEFF 		bl	ssd1306_command
 550              	.LVL81:
 551              	.L29:
 248:.\SSD1306.c   ****   }
 249:.\SSD1306.c   **** }
 552              		.loc 1 249 0
 553              		@ sp needed
 554 0014 08BD     		pop	{r3, pc}
 555              		.cfi_endproc
 556              	.LFE40:
 557              		.size	invertDisplay, .-invertDisplay
 558 0016 C046     		.section	.text.dim,"ax",%progbits
 559              		.align	2
 560              		.global	dim
 561              		.code	16
 562              		.thumb_func
 563              		.type	dim, %function
 564              	dim:
 565              	.LFB41:
 250:.\SSD1306.c   **** 
 251:.\SSD1306.c   **** 
 252:.\SSD1306.c   **** void dim(CYBIT dim) {
 566              		.loc 1 252 0
 567              		.cfi_startproc
 568              	.LVL82:
 569 0000 10B5     		push	{r4, lr}
 570              		.cfi_def_cfa_offset 8
 571              		.cfi_offset 4, -8
 572              		.cfi_offset 14, -4
 253:.\SSD1306.c   ****   uint8_t contrast;                               //Dim the display
 254:.\SSD1306.c   ****                                                   //dim = true: display is dimmed
 255:.\SSD1306.c   ****   if (dim) {                                      //dim = false: display is noral
 573              		.loc 1 255 0
 574 0002 0028     		cmp	r0, #0
 575 0004 01D0     		beq	.L34
 256:.\SSD1306.c   ****     contrast = 0; // Dimmed display
 576              		.loc 1 256 0
 577 0006 0024     		mov	r4, #0
 578 0008 00E0     		b	.L33
 579              	.L34:
 257:.\SSD1306.c   ****   }                                               // the range of contrast to too small to be reall
 258:.\SSD1306.c   ****   else {                                          // it is useful to dim the display
 259:.\SSD1306.c   ****     contrast = 0xCF;  //**0xCF is normal due to charge pump setting
 580              		.loc 1 259 0
 581 000a CF24     		mov	r4, #207
 582              	.L33:
 583              	.LVL83:
 260:.\SSD1306.c   ****   }
 261:.\SSD1306.c   ****   
 262:.\SSD1306.c   ****   ssd1306_command(SSD1306_SETCONTRAST);
 584              		.loc 1 262 0
 585 000c 8120     		mov	r0, #129
 586              	.LVL84:
 587 000e FFF7FEFF 		bl	ssd1306_command
 588              	.LVL85:
ARM GAS  C:\Users\username\AppData\Local\Temp\cc1E6INQ.s 			page 16


 263:.\SSD1306.c   ****   ssd1306_command(contrast);
 589              		.loc 1 263 0
 590 0012 201C     		mov	r0, r4
 591 0014 FFF7FEFF 		bl	ssd1306_command
 592              	.LVL86:
 264:.\SSD1306.c   **** }
 593              		.loc 1 264 0
 594              		@ sp needed
 595              	.LVL87:
 596 0018 10BD     		pop	{r4, pc}
 597              		.cfi_endproc
 598              	.LFE41:
 599              		.size	dim, .-dim
 600 001a C046     		.section	.text.ssd1306_panel_sleep,"ax",%progbits
 601              		.align	2
 602              		.global	ssd1306_panel_sleep
 603              		.code	16
 604              		.thumb_func
 605              		.type	ssd1306_panel_sleep, %function
 606              	ssd1306_panel_sleep:
 607              	.LFB42:
 265:.\SSD1306.c   **** 
 266:.\SSD1306.c   **** 
 267:.\SSD1306.c   **** void ssd1306_panel_sleep(){
 608              		.loc 1 267 0
 609              		.cfi_startproc
 610 0000 08B5     		push	{r3, lr}
 611              		.cfi_def_cfa_offset 8
 612              		.cfi_offset 3, -8
 613              		.cfi_offset 14, -4
 268:.\SSD1306.c   ****     ssd1306_command(SSD1306_DISPLAYOFF);                    // 0xAE
 614              		.loc 1 268 0
 615 0002 AE20     		mov	r0, #174
 616 0004 FFF7FEFF 		bl	ssd1306_command
 617              	.LVL88:
 269:.\SSD1306.c   **** }
 618              		.loc 1 269 0
 619              		@ sp needed
 620 0008 08BD     		pop	{r3, pc}
 621              		.cfi_endproc
 622              	.LFE42:
 623              		.size	ssd1306_panel_sleep, .-ssd1306_panel_sleep
 624 000a C046     		.section	.text.ssd1306_panel_wakeup,"ax",%progbits
 625              		.align	2
 626              		.global	ssd1306_panel_wakeup
 627              		.code	16
 628              		.thumb_func
 629              		.type	ssd1306_panel_wakeup, %function
 630              	ssd1306_panel_wakeup:
 631              	.LFB43:
 270:.\SSD1306.c   **** 
 271:.\SSD1306.c   **** void ssd1306_panel_wakeup(){
 632              		.loc 1 271 0
 633              		.cfi_startproc
 634 0000 08B5     		push	{r3, lr}
 635              		.cfi_def_cfa_offset 8
 636              		.cfi_offset 3, -8
ARM GAS  C:\Users\username\AppData\Local\Temp\cc1E6INQ.s 			page 17


 637              		.cfi_offset 14, -4
 272:.\SSD1306.c   ****     ssd1306_command(SSD1306_DISPLAYON);//--turn on oled panel
 638              		.loc 1 272 0
 639 0002 AF20     		mov	r0, #175
 640 0004 FFF7FEFF 		bl	ssd1306_command
 641              	.LVL89:
 273:.\SSD1306.c   **** }
 642              		.loc 1 273 0
 643              		@ sp needed
 644 0008 08BD     		pop	{r3, pc}
 645              		.cfi_endproc
 646              	.LFE43:
 647              		.size	ssd1306_panel_wakeup, .-ssd1306_panel_wakeup
 648 000a C046     		.section	.text.ssd1306_data,"ax",%progbits
 649              		.align	2
 650              		.global	ssd1306_data
 651              		.code	16
 652              		.thumb_func
 653              		.type	ssd1306_data, %function
 654              	ssd1306_data:
 655              	.LFB44:
 274:.\SSD1306.c   **** 
 275:.\SSD1306.c   **** 
 276:.\SSD1306.c   **** void ssd1306_data(uint8_t c) {
 656              		.loc 1 276 0
 657              		.cfi_startproc
 658              	.LVL90:
 659 0000 10B5     		push	{r4, lr}
 660              		.cfi_def_cfa_offset 8
 661              		.cfi_offset 4, -8
 662              		.cfi_offset 14, -4
 663 0002 041C     		mov	r4, r0
 664              	.LVL91:
 277:.\SSD1306.c   ****     uint8_t control = 0x40;   // Co = 0, D/C = 1
 278:.\SSD1306.c   ****     I2C_bus_I2CMasterSendStart(SSD1306_I2C_ADDRESS, I2C_bus_I2C_WRITE_XFER_MODE);
 665              		.loc 1 278 0
 666 0004 3C20     		mov	r0, #60
 667              	.LVL92:
 668 0006 0021     		mov	r1, #0
 669 0008 FFF7FEFF 		bl	I2C_bus_I2CMasterSendStart
 670              	.LVL93:
 279:.\SSD1306.c   ****     I2C_bus_I2CMasterWriteByte(control); 
 671              		.loc 1 279 0
 672 000c 4020     		mov	r0, #64
 673 000e FFF7FEFF 		bl	I2C_bus_I2CMasterWriteByte
 674              	.LVL94:
 280:.\SSD1306.c   ****     I2C_bus_I2CMasterWriteByte(c); 
 675              		.loc 1 280 0
 676 0012 201C     		mov	r0, r4
 677 0014 FFF7FEFF 		bl	I2C_bus_I2CMasterWriteByte
 678              	.LVL95:
 281:.\SSD1306.c   ****     I2C_bus_I2CMasterSendStop();
 679              		.loc 1 281 0
 680 0018 FFF7FEFF 		bl	I2C_bus_I2CMasterSendStop
 681              	.LVL96:
 282:.\SSD1306.c   **** }
 682              		.loc 1 282 0
ARM GAS  C:\Users\username\AppData\Local\Temp\cc1E6INQ.s 			page 18


 683              		@ sp needed
 684 001c 10BD     		pop	{r4, pc}
 685              		.cfi_endproc
 686              	.LFE44:
 687              		.size	ssd1306_data, .-ssd1306_data
 688 001e C046     		.section	.text.drawFastHLineInternal,"ax",%progbits
 689              		.align	2
 690              		.global	drawFastHLineInternal
 691              		.code	16
 692              		.thumb_func
 693              		.type	drawFastHLineInternal, %function
 694              	drawFastHLineInternal:
 695              	.LFB46:
 283:.\SSD1306.c   **** 
 284:.\SSD1306.c   **** 
 285:.\SSD1306.c   **** void drawFastHLine(int16_t x, int16_t y, int16_t w, uint16_t color) {
 286:.\SSD1306.c   ****   CYBIT bSwap = 0;
 287:.\SSD1306.c   ****   switch(current_rotation) { 
 288:.\SSD1306.c   ****     case 0:
 289:.\SSD1306.c   ****       // 0 degree rotation, do nothing
 290:.\SSD1306.c   ****       break;
 291:.\SSD1306.c   ****     case 1:
 292:.\SSD1306.c   ****       // 90 degree rotation, swap x & y for rotation, then invert x
 293:.\SSD1306.c   ****       bSwap = 1;
 294:.\SSD1306.c   ****       ssd1306_swap(x, y);
 295:.\SSD1306.c   ****       x = lcd_WIDTH - x - 1;
 296:.\SSD1306.c   ****       break;
 297:.\SSD1306.c   ****     case 2:
 298:.\SSD1306.c   ****       // 180 degree rotation, invert x and y - then shift y around for height.
 299:.\SSD1306.c   ****       x = lcd_WIDTH - x - 1;
 300:.\SSD1306.c   ****       y = lcd_HEIGHT - y - 1;
 301:.\SSD1306.c   ****       x -= (w-1);
 302:.\SSD1306.c   ****       break;
 303:.\SSD1306.c   ****     case 3:
 304:.\SSD1306.c   ****       // 270 degree rotation, swap x & y for rotation, then invert y  and adjust y for w (not to be
 305:.\SSD1306.c   ****       bSwap = 1;
 306:.\SSD1306.c   ****       ssd1306_swap(x, y);
 307:.\SSD1306.c   ****       y = lcd_HEIGHT - y - 1;
 308:.\SSD1306.c   ****       y -= (w-1);
 309:.\SSD1306.c   ****       break;
 310:.\SSD1306.c   ****   }
 311:.\SSD1306.c   **** 
 312:.\SSD1306.c   ****   if(bSwap) { 
 313:.\SSD1306.c   ****     drawFastVLineInternal(x, y, w, color);
 314:.\SSD1306.c   ****   } else { 
 315:.\SSD1306.c   ****     drawFastHLineInternal(x, y, w, color);
 316:.\SSD1306.c   ****   }
 317:.\SSD1306.c   **** }
 318:.\SSD1306.c   **** 
 319:.\SSD1306.c   **** 
 320:.\SSD1306.c   **** void drawFastHLineInternal(int16_t x, int16_t y, int16_t w, uint16_t color) {
 696              		.loc 1 320 0
 697              		.cfi_startproc
 698              	.LVL97:
 699 0000 30B5     		push	{r4, r5, lr}
 700              		.cfi_def_cfa_offset 12
 701              		.cfi_offset 4, -12
ARM GAS  C:\Users\username\AppData\Local\Temp\cc1E6INQ.s 			page 19


 702              		.cfi_offset 5, -8
 703              		.cfi_offset 14, -4
 321:.\SSD1306.c   ****   // Do bounds/limit checks
 322:.\SSD1306.c   ****   if(y < 0 || y >= lcd_HEIGHT) { return; }
 704              		.loc 1 322 0
 705 0002 8CB2     		uxth	r4, r1
 706 0004 3F2C     		cmp	r4, #63
 707 0006 42D8     		bhi	.L38
 323:.\SSD1306.c   **** 
 324:.\SSD1306.c   ****   // make sure we don't try to draw below 0
 325:.\SSD1306.c   ****   if(x < 0) { 
 708              		.loc 1 325 0
 709 0008 0028     		cmp	r0, #0
 710 000a 02DA     		bge	.L40
 326:.\SSD1306.c   ****     w += x;
 711              		.loc 1 326 0
 712 000c 1218     		add	r2, r2, r0
 713              	.LVL98:
 714 000e 12B2     		sxth	r2, r2
 715              	.LVL99:
 327:.\SSD1306.c   ****     x = 0;
 716              		.loc 1 327 0
 717 0010 0020     		mov	r0, #0
 718              	.LVL100:
 719              	.L40:
 328:.\SSD1306.c   ****   }
 329:.\SSD1306.c   **** 
 330:.\SSD1306.c   ****   // make sure we don't go off the edge of the display
 331:.\SSD1306.c   ****   if( (x + w) > lcd_WIDTH) { 
 720              		.loc 1 331 0
 721 0012 8518     		add	r5, r0, r2
 722 0014 802D     		cmp	r5, #128
 723 0016 02DD     		ble	.L41
 332:.\SSD1306.c   ****     w = (lcd_WIDTH - x);
 724              		.loc 1 332 0
 725 0018 8022     		mov	r2, #128
 726              	.LVL101:
 727 001a 121A     		sub	r2, r2, r0
 728 001c 12B2     		sxth	r2, r2
 729              	.LVL102:
 730              	.L41:
 333:.\SSD1306.c   ****   }
 334:.\SSD1306.c   **** 
 335:.\SSD1306.c   ****   // if our width is now negative, punt
 336:.\SSD1306.c   ****   if(w <= 0) { return; }
 731              		.loc 1 336 0
 732 001e 002A     		cmp	r2, #0
 733 0020 35DD     		ble	.L38
 734              	.LVL103:
 337:.\SSD1306.c   **** 
 338:.\SSD1306.c   ****   // set up the pointer for  movement through the buffer
 339:.\SSD1306.c   ****   register uint16_t *pBuf = GDDRAM_Buffer;
 340:.\SSD1306.c   ****   // adjust the buffer pointer for the current row
 341:.\SSD1306.c   ****   pBuf += ((y/8) * lcd_WIDTH);
 735              		.loc 1 341 0
 736 0022 CD17     		asr	r5, r1, #31
 737 0024 6D0F     		lsr	r5, r5, #29
ARM GAS  C:\Users\username\AppData\Local\Temp\cc1E6INQ.s 			page 20


 738 0026 6918     		add	r1, r5, r1
 739              	.LVL104:
 740 0028 C910     		asr	r1, r1, #3
 741 002a 0902     		lsl	r1, r1, #8
 742              	.LVL105:
 342:.\SSD1306.c   ****   // and offset x columns in
 343:.\SSD1306.c   ****   pBuf += x;
 743              		.loc 1 343 0
 744 002c 4000     		lsl	r0, r0, #1
 745              	.LVL106:
 746 002e 4018     		add	r0, r0, r1
 747 0030 1749     		ldr	r1, .L49
 748              	.LVL107:
 749 0032 0831     		add	r1, r1, #8
 750 0034 0918     		add	r1, r1, r0
 751              	.LVL108:
 344:.\SSD1306.c   **** 
 345:.\SSD1306.c   ****   register uint8_t mask = 1 << (y&7);
 752              		.loc 1 345 0
 753 0036 0720     		mov	r0, #7
 754 0038 2040     		and	r0, r4
 755 003a 0124     		mov	r4, #1
 756              	.LVL109:
 757 003c 8440     		lsl	r4, r4, r0
 758 003e E0B2     		uxtb	r0, r4
 759              	.LVL110:
 346:.\SSD1306.c   **** 
 347:.\SSD1306.c   ****   switch (color) 
 760              		.loc 1 347 0
 761 0040 012B     		cmp	r3, #1
 762 0042 09D0     		beq	.L42
 763 0044 002B     		cmp	r3, #0
 764 0046 0CD0     		beq	.L43
 765 0048 022B     		cmp	r3, #2
 766 004a 1CD0     		beq	.L44
 767 004c 1FE0     		b	.L38
 768              	.LVL111:
 769              	.L45:
 348:.\SSD1306.c   ****   {
 349:.\SSD1306.c   ****   case WHITE:         while(w--) { *pBuf++ |= mask; }; break;
 770              		.loc 1 349 0 discriminator 2
 771 004e 0A88     		ldrh	r2, [r1]
 772 0050 0243     		orr	r2, r0
 773 0052 0A80     		strh	r2, [r1]
 774 0054 1A1C     		mov	r2, r3
 775 0056 0231     		add	r1, r1, #2
 776              	.LVL112:
 777              	.L42:
 778              		.loc 1 349 0 is_stmt 0 discriminator 1
 779 0058 531E     		sub	r3, r2, #1
 780 005a 1BB2     		sxth	r3, r3
 781              	.LVL113:
 782 005c 002A     		cmp	r2, #0
 783 005e F6D1     		bne	.L45
 784 0060 15E0     		b	.L38
 785              	.LVL114:
 786              	.L43:
ARM GAS  C:\Users\username\AppData\Local\Temp\cc1E6INQ.s 			page 21


 350:.\SSD1306.c   ****     case BLACK: mask = ~mask;   while(w--) { *pBuf++ &= mask; }; break;
 787              		.loc 1 350 0 is_stmt 1
 788 0062 C043     		mvn	r0, r0
 789              	.LVL115:
 790 0064 C0B2     		uxtb	r0, r0
 791              	.LVL116:
 792 0066 04E0     		b	.L46
 793              	.LVL117:
 794              	.L47:
 795              		.loc 1 350 0 is_stmt 0 discriminator 3
 796 0068 0A88     		ldrh	r2, [r1]
 797 006a 0240     		and	r2, r0
 798 006c 0A80     		strh	r2, [r1]
 799 006e 1A1C     		mov	r2, r3
 800 0070 0231     		add	r1, r1, #2
 801              	.LVL118:
 802              	.L46:
 803              		.loc 1 350 0 discriminator 1
 804 0072 531E     		sub	r3, r2, #1
 805 0074 1BB2     		sxth	r3, r3
 806              	.LVL119:
 807 0076 002A     		cmp	r2, #0
 808 0078 F6D1     		bne	.L47
 809 007a 08E0     		b	.L38
 810              	.L48:
 811              	.LVL120:
 351:.\SSD1306.c   ****   case INVERSE:         while(w--) { *pBuf++ ^= mask; }; break;
 812              		.loc 1 351 0 is_stmt 1 discriminator 2
 813 007c 0A88     		ldrh	r2, [r1]
 814 007e 4240     		eor	r2, r0
 815 0080 0A80     		strh	r2, [r1]
 816 0082 1A1C     		mov	r2, r3
 817 0084 0231     		add	r1, r1, #2
 818              	.LVL121:
 819              	.L44:
 820              		.loc 1 351 0 is_stmt 0 discriminator 1
 821 0086 531E     		sub	r3, r2, #1
 822 0088 1BB2     		sxth	r3, r3
 823              	.LVL122:
 824 008a 002A     		cmp	r2, #0
 825 008c F6D1     		bne	.L48
 826              	.LVL123:
 827              	.L38:
 352:.\SSD1306.c   ****   }
 353:.\SSD1306.c   **** }
 828              		.loc 1 353 0 is_stmt 1
 829              		@ sp needed
 830 008e 30BD     		pop	{r4, r5, pc}
 831              	.L50:
 832              		.align	2
 833              	.L49:
 834 0090 00000000 		.word	.LANCHOR0
 835              		.cfi_endproc
 836              	.LFE46:
 837              		.size	drawFastHLineInternal, .-drawFastHLineInternal
 838              		.section	.text.drawFastVLineInternal,"ax",%progbits
 839              		.align	2
ARM GAS  C:\Users\username\AppData\Local\Temp\cc1E6INQ.s 			page 22


 840              		.global	drawFastVLineInternal
 841              		.code	16
 842              		.thumb_func
 843              		.type	drawFastVLineInternal, %function
 844              	drawFastVLineInternal:
 845              	.LFB48:
 354:.\SSD1306.c   **** 
 355:.\SSD1306.c   **** 
 356:.\SSD1306.c   **** void drawFastVLine(int16_t x, int16_t y, int16_t h, uint16_t color) {
 357:.\SSD1306.c   ****   CYBIT bSwap = 0;
 358:.\SSD1306.c   ****   switch(current_rotation) { 
 359:.\SSD1306.c   ****     case 0:
 360:.\SSD1306.c   ****       break;
 361:.\SSD1306.c   ****     case 1:
 362:.\SSD1306.c   ****       // 90 degree rotation, swap x & y for rotation, then invert x and adjust x for h (now to beco
 363:.\SSD1306.c   ****       bSwap = 1;
 364:.\SSD1306.c   ****       ssd1306_swap(x, y);
 365:.\SSD1306.c   ****       x = lcd_WIDTH - x - 1;
 366:.\SSD1306.c   ****       x -= (h-1);
 367:.\SSD1306.c   ****       break;
 368:.\SSD1306.c   ****     case 2:
 369:.\SSD1306.c   ****       // 180 degree rotation, invert x and y - then shift y around for height.
 370:.\SSD1306.c   ****       x = lcd_WIDTH - x - 1;
 371:.\SSD1306.c   ****       y = lcd_HEIGHT - y - 1;
 372:.\SSD1306.c   ****       y -= (h-1);
 373:.\SSD1306.c   ****       break;
 374:.\SSD1306.c   ****     case 3:
 375:.\SSD1306.c   ****       // 270 degree rotation, swap x & y for rotation, then invert y 
 376:.\SSD1306.c   ****       bSwap = 1;
 377:.\SSD1306.c   ****       ssd1306_swap(x, y);
 378:.\SSD1306.c   ****       y = lcd_HEIGHT - y - 1;
 379:.\SSD1306.c   ****       break;
 380:.\SSD1306.c   ****   }
 381:.\SSD1306.c   **** 
 382:.\SSD1306.c   ****   if(bSwap) { 
 383:.\SSD1306.c   ****     drawFastHLineInternal(x, y, h, color);
 384:.\SSD1306.c   ****   } else {
 385:.\SSD1306.c   ****     drawFastVLineInternal(x, y, h, color);
 386:.\SSD1306.c   ****   }
 387:.\SSD1306.c   **** }
 388:.\SSD1306.c   **** 
 389:.\SSD1306.c   **** 
 390:.\SSD1306.c   **** void drawFastVLineInternal(int16_t x, int16_t __y, int16_t __h, uint16_t color) {
 846              		.loc 1 390 0
 847              		.cfi_startproc
 848              	.LVL124:
 849 0000 70B5     		push	{r4, r5, r6, lr}
 850              		.cfi_def_cfa_offset 16
 851              		.cfi_offset 4, -16
 852              		.cfi_offset 5, -12
 853              		.cfi_offset 6, -8
 854              		.cfi_offset 14, -4
 391:.\SSD1306.c   **** 
 392:.\SSD1306.c   ****   // do nothing if we're off the left or right side of the screen
 393:.\SSD1306.c   ****   if(x < 0 || x >= lcd_WIDTH) { return; }
 855              		.loc 1 393 0
 856 0002 84B2     		uxth	r4, r0
ARM GAS  C:\Users\username\AppData\Local\Temp\cc1E6INQ.s 			page 23


 857 0004 7F2C     		cmp	r4, #127
 858 0006 6ED8     		bhi	.L51
 394:.\SSD1306.c   **** 
 395:.\SSD1306.c   ****   // make sure we don't try to draw below 0
 396:.\SSD1306.c   ****   if(__y < 0) { 
 859              		.loc 1 396 0
 860 0008 0029     		cmp	r1, #0
 861 000a 02DA     		bge	.L53
 397:.\SSD1306.c   ****     // __y is negative, this will subtract enough from __h to account for __y being 0
 398:.\SSD1306.c   ****     __h += __y;
 862              		.loc 1 398 0
 863 000c 5218     		add	r2, r2, r1
 864              	.LVL125:
 865 000e 12B2     		sxth	r2, r2
 866              	.LVL126:
 399:.\SSD1306.c   ****     __y = 0;
 867              		.loc 1 399 0
 868 0010 0021     		mov	r1, #0
 869              	.LVL127:
 870              	.L53:
 400:.\SSD1306.c   **** 
 401:.\SSD1306.c   ****   } 
 402:.\SSD1306.c   **** 
 403:.\SSD1306.c   ****   // make sure we don't go past the height of the display
 404:.\SSD1306.c   ****   if( (__y + __h) > lcd_HEIGHT) { 
 871              		.loc 1 404 0
 872 0012 8C18     		add	r4, r1, r2
 873 0014 402C     		cmp	r4, #64
 874 0016 02DD     		ble	.L54
 405:.\SSD1306.c   ****     __h = (lcd_HEIGHT - __y);
 875              		.loc 1 405 0
 876 0018 4022     		mov	r2, #64
 877              	.LVL128:
 878 001a 521A     		sub	r2, r2, r1
 879 001c 12B2     		sxth	r2, r2
 880              	.LVL129:
 881              	.L54:
 406:.\SSD1306.c   ****   }
 407:.\SSD1306.c   **** 
 408:.\SSD1306.c   ****   // if our height is now negative, punt 
 409:.\SSD1306.c   ****   if(__h <= 0) { 
 882              		.loc 1 409 0
 883 001e 002A     		cmp	r2, #0
 884 0020 61DD     		ble	.L51
 410:.\SSD1306.c   ****     return;
 411:.\SSD1306.c   ****   }
 412:.\SSD1306.c   **** 
 413:.\SSD1306.c   ****   // this display doesn't need ints for coordinates, use local byte registers for faster juggling
 414:.\SSD1306.c   ****   register uint8_t y = __y;
 885              		.loc 1 414 0
 886 0022 C9B2     		uxtb	r1, r1
 887              	.LVL130:
 415:.\SSD1306.c   ****   register uint8_t h = __h;
 888              		.loc 1 415 0
 889 0024 D2B2     		uxtb	r2, r2
 890              	.LVL131:
 416:.\SSD1306.c   **** 
ARM GAS  C:\Users\username\AppData\Local\Temp\cc1E6INQ.s 			page 24


 417:.\SSD1306.c   **** 
 418:.\SSD1306.c   ****   // set up the pointer for fast movement through the buffer
 419:.\SSD1306.c   ****   register uint16_t *pBuf = GDDRAM_Buffer;
 420:.\SSD1306.c   ****   // adjust the buffer pointer for the current row
 421:.\SSD1306.c   ****   pBuf += ((y/8) * lcd_WIDTH);
 891              		.loc 1 421 0
 892 0026 CC08     		lsr	r4, r1, #3
 893 0028 2402     		lsl	r4, r4, #8
 894              	.LVL132:
 422:.\SSD1306.c   ****   // and offset x columns in
 423:.\SSD1306.c   ****   pBuf += x;
 895              		.loc 1 423 0
 896 002a 4000     		lsl	r0, r0, #1
 897              	.LVL133:
 898 002c 0019     		add	r0, r0, r4
 899 002e 2E4C     		ldr	r4, .L70
 900              	.LVL134:
 901 0030 0834     		add	r4, r4, #8
 902 0032 2018     		add	r0, r4, r0
 903              	.LVL135:
 424:.\SSD1306.c   **** 
 425:.\SSD1306.c   ****   // do the first partial byte, if necessary - this requires some masking
 426:.\SSD1306.c   ****   register uint8_t mod = (y&7);
 904              		.loc 1 426 0
 905 0034 0724     		mov	r4, #7
 906 0036 2140     		and	r1, r4
 907              	.LVL136:
 427:.\SSD1306.c   ****   if(mod) {
 908              		.loc 1 427 0
 909 0038 22D0     		beq	.L55
 910              	.LBB4:
 428:.\SSD1306.c   ****     // mask off the high n bits we want to set 
 429:.\SSD1306.c   ****     mod = 8-mod;
 911              		.loc 1 429 0
 912 003a 0824     		mov	r4, #8
 913 003c 611A     		sub	r1, r4, r1
 914              	.LVL137:
 915 003e C9B2     		uxtb	r1, r1
 916              	.LVL138:
 430:.\SSD1306.c   **** 
 431:.\SSD1306.c   ****     // note - lookup table results in a nearly 10% performance improvement in fill* functions
 432:.\SSD1306.c   ****     // register uint8_t mask = ~(0xFF >> (mod));
 433:.\SSD1306.c   ****     static uint8_t premask[8] = {0x00, 0x80, 0xC0, 0xE0, 0xF0, 0xF8, 0xFC, 0xFE };
 434:.\SSD1306.c   ****     register uint8_t mask = premask[mod];
 917              		.loc 1 434 0
 918 0040 2A4C     		ldr	r4, .L70+4
 919 0042 645C     		ldrb	r4, [r4, r1]
 920              	.LVL139:
 435:.\SSD1306.c   **** 
 436:.\SSD1306.c   ****     // adjust the mask if we're not going to reach the end of this byte
 437:.\SSD1306.c   ****     if( h < mod) { 
 921              		.loc 1 437 0
 922 0044 8A42     		cmp	r2, r1
 923 0046 03D2     		bcs	.L56
 438:.\SSD1306.c   ****       mask &= (0XFF >> (mod-h));
 924              		.loc 1 438 0
 925 0048 8E1A     		sub	r6, r1, r2
ARM GAS  C:\Users\username\AppData\Local\Temp\cc1E6INQ.s 			page 25


 926 004a FF25     		mov	r5, #255
 927 004c 3541     		asr	r5, r5, r6
 928 004e 2C40     		and	r4, r5
 929              	.LVL140:
 930              	.L56:
 439:.\SSD1306.c   ****     }
 440:.\SSD1306.c   **** 
 441:.\SSD1306.c   ****   switch (color) 
 931              		.loc 1 441 0
 932 0050 012B     		cmp	r3, #1
 933 0052 04D0     		beq	.L58
 934 0054 002B     		cmp	r3, #0
 935 0056 06D0     		beq	.L59
 936 0058 022B     		cmp	r3, #2
 937 005a 08D0     		beq	.L60
 938 005c 0AE0     		b	.L57
 939              	.L58:
 442:.\SSD1306.c   ****     {
 443:.\SSD1306.c   ****     case WHITE:   *pBuf |=  mask;  break;
 940              		.loc 1 443 0
 941 005e 0588     		ldrh	r5, [r0]
 942 0060 2C43     		orr	r4, r5
 943              	.LVL141:
 944 0062 0480     		strh	r4, [r0]
 945 0064 06E0     		b	.L57
 946              	.LVL142:
 947              	.L59:
 444:.\SSD1306.c   ****     case BLACK:   *pBuf &= ~mask;  break;
 948              		.loc 1 444 0
 949 0066 0588     		ldrh	r5, [r0]
 950 0068 A543     		bic	r5, r4
 951 006a 0580     		strh	r5, [r0]
 952 006c 02E0     		b	.L57
 953              	.L60:
 445:.\SSD1306.c   ****     case INVERSE: *pBuf ^=  mask;  break;
 954              		.loc 1 445 0
 955 006e 0588     		ldrh	r5, [r0]
 956 0070 6C40     		eor	r4, r5
 957              	.LVL143:
 958 0072 0480     		strh	r4, [r0]
 959              	.L57:
 446:.\SSD1306.c   ****     }
 447:.\SSD1306.c   ****   
 448:.\SSD1306.c   ****     // fast exit if we're done here!
 449:.\SSD1306.c   ****     if(h<mod) { return; }
 960              		.loc 1 449 0
 961 0074 8A42     		cmp	r2, r1
 962 0076 36D3     		bcc	.L51
 450:.\SSD1306.c   **** 
 451:.\SSD1306.c   ****     h -= mod;
 963              		.loc 1 451 0
 964 0078 521A     		sub	r2, r2, r1
 965              	.LVL144:
 966 007a D2B2     		uxtb	r2, r2
 967              	.LVL145:
 452:.\SSD1306.c   **** 
 453:.\SSD1306.c   ****     pBuf += lcd_WIDTH;
ARM GAS  C:\Users\username\AppData\Local\Temp\cc1E6INQ.s 			page 26


 968              		.loc 1 453 0
 969 007c 0130     		add	r0, r0, #1
 970              	.LVL146:
 971 007e FF30     		add	r0, r0, #255
 972              	.LVL147:
 973              	.L55:
 974              	.LBE4:
 454:.\SSD1306.c   ****   }
 455:.\SSD1306.c   **** 
 456:.\SSD1306.c   **** 
 457:.\SSD1306.c   ****   // write solid bytes while we can - effectively doing 8 rows at a time
 458:.\SSD1306.c   ****   if(h >= 8) { 
 975              		.loc 1 458 0
 976 0080 072A     		cmp	r2, #7
 977 0082 17D9     		bls	.L61
 459:.\SSD1306.c   ****     if (color == INVERSE)  {          // separate copy of the code so we don't impact performance o
 978              		.loc 1 459 0
 979 0084 022B     		cmp	r3, #2
 980 0086 09D1     		bne	.L62
 981              	.LVL148:
 982              	.L63:
 460:.\SSD1306.c   ****       do  {
 461:.\SSD1306.c   ****       *pBuf=~(*pBuf);
 983              		.loc 1 461 0 discriminator 1
 984 0088 0188     		ldrh	r1, [r0]
 985 008a C943     		mvn	r1, r1
 986 008c 0180     		strh	r1, [r0]
 462:.\SSD1306.c   **** 
 463:.\SSD1306.c   ****         // adjust the buffer forward 8 rows worth of data
 464:.\SSD1306.c   ****         pBuf += lcd_WIDTH;
 987              		.loc 1 464 0 discriminator 1
 988 008e 0130     		add	r0, r0, #1
 989              	.LVL149:
 990 0090 FF30     		add	r0, r0, #255
 991              	.LVL150:
 465:.\SSD1306.c   **** 
 466:.\SSD1306.c   ****         // adjust h & y (there's got to be a faster way for me to do this, but this should still he
 467:.\SSD1306.c   ****         h -= 8;
 992              		.loc 1 467 0 discriminator 1
 993 0092 083A     		sub	r2, r2, #8
 994              	.LVL151:
 995 0094 D2B2     		uxtb	r2, r2
 996              	.LVL152:
 468:.\SSD1306.c   ****       } while(h >= 8);
 997              		.loc 1 468 0 discriminator 1
 998 0096 072A     		cmp	r2, #7
 999 0098 F6D8     		bhi	.L63
 1000 009a 0BE0     		b	.L61
 1001              	.LVL153:
 1002              	.L62:
 1003              	.LBB5:
 469:.\SSD1306.c   ****       }
 470:.\SSD1306.c   ****     else {
 471:.\SSD1306.c   ****       // store a local value to work with 
 472:.\SSD1306.c   ****       register uint8_t val = (color == WHITE) ? 255 : 0;
 1004              		.loc 1 472 0
 1005 009c 012B     		cmp	r3, #1
ARM GAS  C:\Users\username\AppData\Local\Temp\cc1E6INQ.s 			page 27


 1006 009e 01D1     		bne	.L69
 1007 00a0 FF21     		mov	r1, #255
 1008              	.LVL154:
 1009 00a2 00E0     		b	.L65
 1010              	.LVL155:
 1011              	.L69:
 1012 00a4 0021     		mov	r1, #0
 1013              	.LVL156:
 1014              	.L65:
 473:.\SSD1306.c   **** 
 474:.\SSD1306.c   ****       do  {
 475:.\SSD1306.c   ****         // write our value in
 476:.\SSD1306.c   ****       *pBuf = val;
 1015              		.loc 1 476 0 discriminator 1
 1016 00a6 0180     		strh	r1, [r0]
 477:.\SSD1306.c   **** 
 478:.\SSD1306.c   ****         // adjust the buffer forward 8 rows worth of data
 479:.\SSD1306.c   ****         pBuf += lcd_WIDTH;
 1017              		.loc 1 479 0 discriminator 1
 1018 00a8 0130     		add	r0, r0, #1
 1019              	.LVL157:
 1020 00aa FF30     		add	r0, r0, #255
 1021              	.LVL158:
 480:.\SSD1306.c   **** 
 481:.\SSD1306.c   ****         // adjust h & y (there's got to be a faster way for me to do this, but this should still he
 482:.\SSD1306.c   ****         h -= 8;
 1022              		.loc 1 482 0 discriminator 1
 1023 00ac 083A     		sub	r2, r2, #8
 1024              	.LVL159:
 1025 00ae D2B2     		uxtb	r2, r2
 1026              	.LVL160:
 483:.\SSD1306.c   ****       } while(h >= 8);
 1027              		.loc 1 483 0 discriminator 1
 1028 00b0 072A     		cmp	r2, #7
 1029 00b2 F8D8     		bhi	.L65
 1030              	.L61:
 1031              	.LBE5:
 484:.\SSD1306.c   ****       }
 485:.\SSD1306.c   ****     }
 486:.\SSD1306.c   **** 
 487:.\SSD1306.c   ****   // now do the final partial byte, if necessary
 488:.\SSD1306.c   ****   if(h) {
 1032              		.loc 1 488 0
 1033 00b4 002A     		cmp	r2, #0
 1034 00b6 16D0     		beq	.L51
 1035              	.LBB6:
 489:.\SSD1306.c   ****     mod = h & 7;
 1036              		.loc 1 489 0
 1037 00b8 0721     		mov	r1, #7
 1038 00ba 0A40     		and	r2, r1
 1039              	.LVL161:
 490:.\SSD1306.c   ****     // this time we want to mask the low bits of the byte, vs the high bits we did above
 491:.\SSD1306.c   ****     // register uint8_t mask = (1 << mod) - 1;
 492:.\SSD1306.c   ****     // note - lookup table results in a nearly 10% performance improvement in fill* functions
 493:.\SSD1306.c   ****     static uint8_t postmask[8] = {0x00, 0x01, 0x03, 0x07, 0x0F, 0x1F, 0x3F, 0x7F };
 494:.\SSD1306.c   ****     register uint8_t mask = postmask[mod];
 1040              		.loc 1 494 0
ARM GAS  C:\Users\username\AppData\Local\Temp\cc1E6INQ.s 			page 28


 1041 00bc 0B49     		ldr	r1, .L70+4
 1042 00be 8A18     		add	r2, r1, r2
 1043              	.LVL162:
 1044 00c0 127A     		ldrb	r2, [r2, #8]
 1045              	.LVL163:
 495:.\SSD1306.c   ****     switch (color) 
 1046              		.loc 1 495 0
 1047 00c2 012B     		cmp	r3, #1
 1048 00c4 04D0     		beq	.L66
 1049 00c6 002B     		cmp	r3, #0
 1050 00c8 06D0     		beq	.L67
 1051 00ca 022B     		cmp	r3, #2
 1052 00cc 08D0     		beq	.L68
 1053 00ce 0AE0     		b	.L51
 1054              	.L66:
 496:.\SSD1306.c   ****     {
 497:.\SSD1306.c   ****       case WHITE:   *pBuf |=  mask;  break;
 1055              		.loc 1 497 0
 1056 00d0 0388     		ldrh	r3, [r0]
 1057              	.LVL164:
 1058 00d2 1A43     		orr	r2, r3
 1059              	.LVL165:
 1060 00d4 0280     		strh	r2, [r0]
 1061 00d6 06E0     		b	.L51
 1062              	.LVL166:
 1063              	.L67:
 498:.\SSD1306.c   ****       case BLACK:   *pBuf &= ~mask;  break;
 1064              		.loc 1 498 0
 1065 00d8 0388     		ldrh	r3, [r0]
 1066              	.LVL167:
 1067 00da 9343     		bic	r3, r2
 1068 00dc 0380     		strh	r3, [r0]
 1069 00de 02E0     		b	.L51
 1070              	.LVL168:
 1071              	.L68:
 499:.\SSD1306.c   ****       case INVERSE: *pBuf ^=  mask;  break;
 1072              		.loc 1 499 0
 1073 00e0 0388     		ldrh	r3, [r0]
 1074              	.LVL169:
 1075 00e2 5A40     		eor	r2, r3
 1076              	.LVL170:
 1077 00e4 0280     		strh	r2, [r0]
 1078              	.LVL171:
 1079              	.L51:
 1080              	.LBE6:
 500:.\SSD1306.c   ****     }
 501:.\SSD1306.c   ****   }
 502:.\SSD1306.c   **** }
 1081              		.loc 1 502 0
 1082              		@ sp needed
 1083 00e6 70BD     		pop	{r4, r5, r6, pc}
 1084              	.L71:
 1085              		.align	2
 1086              	.L70:
 1087 00e8 00000000 		.word	.LANCHOR0
 1088 00ec 00000000 		.word	.LANCHOR2
 1089              		.cfi_endproc
ARM GAS  C:\Users\username\AppData\Local\Temp\cc1E6INQ.s 			page 29


 1090              	.LFE48:
 1091              		.size	drawFastVLineInternal, .-drawFastVLineInternal
 1092              		.section	.text.drawFastHLine,"ax",%progbits
 1093              		.align	2
 1094              		.global	drawFastHLine
 1095              		.code	16
 1096              		.thumb_func
 1097              		.type	drawFastHLine, %function
 1098              	drawFastHLine:
 1099              	.LFB45:
 285:.\SSD1306.c   ****   CYBIT bSwap = 0;
 1100              		.loc 1 285 0
 1101              		.cfi_startproc
 1102              	.LVL172:
 1103 0000 10B5     		push	{r4, lr}
 1104              		.cfi_def_cfa_offset 8
 1105              		.cfi_offset 4, -8
 1106              		.cfi_offset 14, -4
 1107              	.LVL173:
 287:.\SSD1306.c   ****     case 0:
 1108              		.loc 1 287 0
 1109 0002 154C     		ldr	r4, .L81
 1110 0004 2478     		ldrb	r4, [r4]
 1111 0006 022C     		cmp	r4, #2
 1112 0008 09D0     		beq	.L74
 1113 000a 032C     		cmp	r4, #3
 1114 000c 12D0     		beq	.L75
 1115 000e 012C     		cmp	r4, #1
 1116 0010 19D1     		bne	.L80
 1117              	.LVL174:
 295:.\SSD1306.c   ****       break;
 1118              		.loc 1 295 0
 1119 0012 7F24     		mov	r4, #127
 1120 0014 641A     		sub	r4, r4, r1
 1121              	.LVL175:
 1122              	.LBB7:
 294:.\SSD1306.c   ****       x = lcd_WIDTH - x - 1;
 1123              		.loc 1 294 0
 1124 0016 011C     		mov	r1, r0
 1125              	.LBE7:
 295:.\SSD1306.c   ****       break;
 1126              		.loc 1 295 0
 1127 0018 20B2     		sxth	r0, r4
 1128              	.LVL176:
 293:.\SSD1306.c   ****       ssd1306_swap(x, y);
 1129              		.loc 1 293 0
 1130 001a 0124     		mov	r4, #1
 1131              	.LVL177:
 296:.\SSD1306.c   ****     case 2:
 1132              		.loc 1 296 0
 1133 001c 14E0     		b	.L73
 1134              	.LVL178:
 1135              	.L74:
 299:.\SSD1306.c   ****       y = lcd_HEIGHT - y - 1;
 1136              		.loc 1 299 0
 1137 001e 7F24     		mov	r4, #127
 1138 0020 201A     		sub	r0, r4, r0
ARM GAS  C:\Users\username\AppData\Local\Temp\cc1E6INQ.s 			page 30


 1139              	.LVL179:
 1140 0022 80B2     		uxth	r0, r0
 1141              	.LVL180:
 300:.\SSD1306.c   ****       x -= (w-1);
 1142              		.loc 1 300 0
 1143 0024 3F24     		mov	r4, #63
 1144 0026 611A     		sub	r1, r4, r1
 1145              	.LVL181:
 1146 0028 09B2     		sxth	r1, r1
 1147              	.LVL182:
 301:.\SSD1306.c   ****       break;
 1148              		.loc 1 301 0
 1149 002a 801A     		sub	r0, r0, r2
 1150              	.LVL183:
 1151 002c 0130     		add	r0, r0, #1
 1152 002e 00B2     		sxth	r0, r0
 1153              	.LVL184:
 286:.\SSD1306.c   ****   switch(current_rotation) { 
 1154              		.loc 1 286 0
 1155 0030 0024     		mov	r4, #0
 302:.\SSD1306.c   ****     case 3:
 1156              		.loc 1 302 0
 1157 0032 09E0     		b	.L73
 1158              	.L75:
 1159              	.LVL185:
 307:.\SSD1306.c   ****       y -= (w-1);
 1160              		.loc 1 307 0
 1161 0034 3F24     		mov	r4, #63
 1162 0036 241A     		sub	r4, r4, r0
 1163 0038 A4B2     		uxth	r4, r4
 1164              	.LVL186:
 308:.\SSD1306.c   ****       break;
 1165              		.loc 1 308 0
 1166 003a A41A     		sub	r4, r4, r2
 1167              	.LVL187:
 1168 003c 0134     		add	r4, r4, #1
 1169              	.LVL188:
 1170              	.LBB8:
 306:.\SSD1306.c   ****       y = lcd_HEIGHT - y - 1;
 1171              		.loc 1 306 0
 1172 003e 081C     		mov	r0, r1
 1173              	.LVL189:
 1174              	.LBE8:
 308:.\SSD1306.c   ****       break;
 1175              		.loc 1 308 0
 1176 0040 21B2     		sxth	r1, r4
 1177              	.LVL190:
 305:.\SSD1306.c   ****       ssd1306_swap(x, y);
 1178              		.loc 1 305 0
 1179 0042 0124     		mov	r4, #1
 1180              	.LVL191:
 309:.\SSD1306.c   ****   }
 1181              		.loc 1 309 0
 1182 0044 00E0     		b	.L73
 1183              	.LVL192:
 1184              	.L80:
 286:.\SSD1306.c   ****   switch(current_rotation) { 
ARM GAS  C:\Users\username\AppData\Local\Temp\cc1E6INQ.s 			page 31


 1185              		.loc 1 286 0
 1186 0046 0024     		mov	r4, #0
 1187              	.LVL193:
 1188              	.L73:
 312:.\SSD1306.c   ****     drawFastVLineInternal(x, y, w, color);
 1189              		.loc 1 312 0
 1190 0048 002C     		cmp	r4, #0
 1191 004a 02D0     		beq	.L77
 313:.\SSD1306.c   ****   } else { 
 1192              		.loc 1 313 0
 1193 004c FFF7FEFF 		bl	drawFastVLineInternal
 1194              	.LVL194:
 1195 0050 01E0     		b	.L72
 1196              	.LVL195:
 1197              	.L77:
 315:.\SSD1306.c   ****   }
 1198              		.loc 1 315 0
 1199 0052 FFF7FEFF 		bl	drawFastHLineInternal
 1200              	.LVL196:
 1201              	.L72:
 317:.\SSD1306.c   **** 
 1202              		.loc 1 317 0
 1203              		@ sp needed
 1204              	.LVL197:
 1205 0056 10BD     		pop	{r4, pc}
 1206              	.L82:
 1207              		.align	2
 1208              	.L81:
 1209 0058 00000000 		.word	.LANCHOR1
 1210              		.cfi_endproc
 1211              	.LFE45:
 1212              		.size	drawFastHLine, .-drawFastHLine
 1213              		.section	.text.drawFastVLine,"ax",%progbits
 1214              		.align	2
 1215              		.global	drawFastVLine
 1216              		.code	16
 1217              		.thumb_func
 1218              		.type	drawFastVLine, %function
 1219              	drawFastVLine:
 1220              	.LFB47:
 356:.\SSD1306.c   ****   CYBIT bSwap = 0;
 1221              		.loc 1 356 0
 1222              		.cfi_startproc
 1223              	.LVL198:
 1224 0000 10B5     		push	{r4, lr}
 1225              		.cfi_def_cfa_offset 8
 1226              		.cfi_offset 4, -8
 1227              		.cfi_offset 14, -4
 1228              	.LVL199:
 358:.\SSD1306.c   ****     case 0:
 1229              		.loc 1 358 0
 1230 0002 154C     		ldr	r4, .L92
 1231 0004 2478     		ldrb	r4, [r4]
 1232 0006 022C     		cmp	r4, #2
 1233 0008 0CD0     		beq	.L85
 1234 000a 032C     		cmp	r4, #3
 1235 000c 15D0     		beq	.L86
ARM GAS  C:\Users\username\AppData\Local\Temp\cc1E6INQ.s 			page 32


 1236 000e 012C     		cmp	r4, #1
 1237 0010 19D1     		bne	.L91
 1238              	.LVL200:
 365:.\SSD1306.c   ****       x -= (h-1);
 1239              		.loc 1 365 0
 1240 0012 7F24     		mov	r4, #127
 1241 0014 641A     		sub	r4, r4, r1
 1242 0016 A4B2     		uxth	r4, r4
 1243              	.LVL201:
 366:.\SSD1306.c   ****       break;
 1244              		.loc 1 366 0
 1245 0018 A41A     		sub	r4, r4, r2
 1246              	.LVL202:
 1247 001a 0134     		add	r4, r4, #1
 1248              	.LVL203:
 1249              	.LBB9:
 364:.\SSD1306.c   ****       x = lcd_WIDTH - x - 1;
 1250              		.loc 1 364 0
 1251 001c 011C     		mov	r1, r0
 1252              	.LBE9:
 366:.\SSD1306.c   ****       break;
 1253              		.loc 1 366 0
 1254 001e 20B2     		sxth	r0, r4
 1255              	.LVL204:
 363:.\SSD1306.c   ****       ssd1306_swap(x, y);
 1256              		.loc 1 363 0
 1257 0020 0124     		mov	r4, #1
 1258              	.LVL205:
 367:.\SSD1306.c   ****     case 2:
 1259              		.loc 1 367 0
 1260 0022 11E0     		b	.L84
 1261              	.LVL206:
 1262              	.L85:
 370:.\SSD1306.c   ****       y = lcd_HEIGHT - y - 1;
 1263              		.loc 1 370 0
 1264 0024 7F24     		mov	r4, #127
 1265 0026 201A     		sub	r0, r4, r0
 1266              	.LVL207:
 1267 0028 00B2     		sxth	r0, r0
 1268              	.LVL208:
 371:.\SSD1306.c   ****       y -= (h-1);
 1269              		.loc 1 371 0
 1270 002a 3F24     		mov	r4, #63
 1271 002c 611A     		sub	r1, r4, r1
 1272              	.LVL209:
 1273 002e 89B2     		uxth	r1, r1
 1274              	.LVL210:
 372:.\SSD1306.c   ****       break;
 1275              		.loc 1 372 0
 1276 0030 891A     		sub	r1, r1, r2
 1277              	.LVL211:
 1278 0032 0131     		add	r1, r1, #1
 1279 0034 09B2     		sxth	r1, r1
 1280              	.LVL212:
 357:.\SSD1306.c   ****   switch(current_rotation) { 
 1281              		.loc 1 357 0
 1282 0036 0024     		mov	r4, #0
ARM GAS  C:\Users\username\AppData\Local\Temp\cc1E6INQ.s 			page 33


 373:.\SSD1306.c   ****     case 3:
 1283              		.loc 1 373 0
 1284 0038 06E0     		b	.L84
 1285              	.L86:
 1286              	.LVL213:
 378:.\SSD1306.c   ****       break;
 1287              		.loc 1 378 0
 1288 003a 3F24     		mov	r4, #63
 1289 003c 241A     		sub	r4, r4, r0
 1290              	.LVL214:
 1291              	.LBB10:
 377:.\SSD1306.c   ****       y = lcd_HEIGHT - y - 1;
 1292              		.loc 1 377 0
 1293 003e 081C     		mov	r0, r1
 1294              	.LVL215:
 1295              	.LBE10:
 378:.\SSD1306.c   ****       break;
 1296              		.loc 1 378 0
 1297 0040 21B2     		sxth	r1, r4
 1298              	.LVL216:
 376:.\SSD1306.c   ****       ssd1306_swap(x, y);
 1299              		.loc 1 376 0
 1300 0042 0124     		mov	r4, #1
 1301              	.LVL217:
 379:.\SSD1306.c   ****   }
 1302              		.loc 1 379 0
 1303 0044 00E0     		b	.L84
 1304              	.LVL218:
 1305              	.L91:
 357:.\SSD1306.c   ****   switch(current_rotation) { 
 1306              		.loc 1 357 0
 1307 0046 0024     		mov	r4, #0
 1308              	.LVL219:
 1309              	.L84:
 382:.\SSD1306.c   ****     drawFastHLineInternal(x, y, h, color);
 1310              		.loc 1 382 0
 1311 0048 002C     		cmp	r4, #0
 1312 004a 02D0     		beq	.L88
 383:.\SSD1306.c   ****   } else {
 1313              		.loc 1 383 0
 1314 004c FFF7FEFF 		bl	drawFastHLineInternal
 1315              	.LVL220:
 1316 0050 01E0     		b	.L83
 1317              	.LVL221:
 1318              	.L88:
 385:.\SSD1306.c   ****   }
 1319              		.loc 1 385 0
 1320 0052 FFF7FEFF 		bl	drawFastVLineInternal
 1321              	.LVL222:
 1322              	.L83:
 387:.\SSD1306.c   **** 
 1323              		.loc 1 387 0
 1324              		@ sp needed
 1325              	.LVL223:
 1326 0056 10BD     		pop	{r4, pc}
 1327              	.L93:
 1328              		.align	2
ARM GAS  C:\Users\username\AppData\Local\Temp\cc1E6INQ.s 			page 34


 1329              	.L92:
 1330 0058 00000000 		.word	.LANCHOR1
 1331              		.cfi_endproc
 1332              	.LFE47:
 1333              		.size	drawFastVLine, .-drawFastVLine
 1334              		.section	.text.startscrollright,"ax",%progbits
 1335              		.align	2
 1336              		.global	startscrollright
 1337              		.code	16
 1338              		.thumb_func
 1339              		.type	startscrollright, %function
 1340              	startscrollright:
 1341              	.LFB49:
 503:.\SSD1306.c   **** 
 504:.\SSD1306.c   **** 
 505:.\SSD1306.c   **** // startscrollright
 506:.\SSD1306.c   **** // Activate a right handed scroll for rows start through stop
 507:.\SSD1306.c   **** // Hint, the display is 16 rows tall. To scroll the whole display, run:
 508:.\SSD1306.c   **** // display.scrollright(0x00, 0x0F) 
 509:.\SSD1306.c   **** void startscrollright(uint8_t start, uint8_t stop){
 1342              		.loc 1 509 0
 1343              		.cfi_startproc
 1344              	.LVL224:
 1345 0000 38B5     		push	{r3, r4, r5, lr}
 1346              		.cfi_def_cfa_offset 16
 1347              		.cfi_offset 3, -16
 1348              		.cfi_offset 4, -12
 1349              		.cfi_offset 5, -8
 1350              		.cfi_offset 14, -4
 1351 0002 051C     		mov	r5, r0
 1352 0004 0C1C     		mov	r4, r1
 510:.\SSD1306.c   ****   ssd1306_command(SSD1306_RIGHT_HORIZONTAL_SCROLL);
 1353              		.loc 1 510 0
 1354 0006 2620     		mov	r0, #38
 1355              	.LVL225:
 1356 0008 FFF7FEFF 		bl	ssd1306_command
 1357              	.LVL226:
 511:.\SSD1306.c   ****   ssd1306_command(0X00);
 1358              		.loc 1 511 0
 1359 000c 0020     		mov	r0, #0
 1360 000e FFF7FEFF 		bl	ssd1306_command
 1361              	.LVL227:
 512:.\SSD1306.c   ****   ssd1306_command(start);
 1362              		.loc 1 512 0
 1363 0012 281C     		mov	r0, r5
 1364 0014 FFF7FEFF 		bl	ssd1306_command
 1365              	.LVL228:
 513:.\SSD1306.c   ****   ssd1306_command(0X00);
 1366              		.loc 1 513 0
 1367 0018 0020     		mov	r0, #0
 1368 001a FFF7FEFF 		bl	ssd1306_command
 1369              	.LVL229:
 514:.\SSD1306.c   ****   ssd1306_command(stop);
 1370              		.loc 1 514 0
 1371 001e 201C     		mov	r0, r4
 1372 0020 FFF7FEFF 		bl	ssd1306_command
 1373              	.LVL230:
ARM GAS  C:\Users\username\AppData\Local\Temp\cc1E6INQ.s 			page 35


 515:.\SSD1306.c   ****   ssd1306_command(0X00);
 1374              		.loc 1 515 0
 1375 0024 0020     		mov	r0, #0
 1376 0026 FFF7FEFF 		bl	ssd1306_command
 1377              	.LVL231:
 516:.\SSD1306.c   ****   ssd1306_command(0XFF);
 1378              		.loc 1 516 0
 1379 002a FF20     		mov	r0, #255
 1380 002c FFF7FEFF 		bl	ssd1306_command
 1381              	.LVL232:
 517:.\SSD1306.c   ****   ssd1306_command(SSD1306_ACTIVATE_SCROLL);
 1382              		.loc 1 517 0
 1383 0030 2F20     		mov	r0, #47
 1384 0032 FFF7FEFF 		bl	ssd1306_command
 1385              	.LVL233:
 518:.\SSD1306.c   **** }
 1386              		.loc 1 518 0
 1387              		@ sp needed
 1388 0036 38BD     		pop	{r3, r4, r5, pc}
 1389              		.cfi_endproc
 1390              	.LFE49:
 1391              		.size	startscrollright, .-startscrollright
 1392              		.section	.text.startscrollleft,"ax",%progbits
 1393              		.align	2
 1394              		.global	startscrollleft
 1395              		.code	16
 1396              		.thumb_func
 1397              		.type	startscrollleft, %function
 1398              	startscrollleft:
 1399              	.LFB50:
 519:.\SSD1306.c   **** 
 520:.\SSD1306.c   **** // startscrollleft
 521:.\SSD1306.c   **** // Activate a right handed scroll for rows start through stop
 522:.\SSD1306.c   **** // Hint, the display is 16 rows tall. To scroll the whole display, run:
 523:.\SSD1306.c   **** // display.scrollright(0x00, 0x0F) 
 524:.\SSD1306.c   **** void startscrollleft(uint8_t start, uint8_t stop){
 1400              		.loc 1 524 0
 1401              		.cfi_startproc
 1402              	.LVL234:
 1403 0000 38B5     		push	{r3, r4, r5, lr}
 1404              		.cfi_def_cfa_offset 16
 1405              		.cfi_offset 3, -16
 1406              		.cfi_offset 4, -12
 1407              		.cfi_offset 5, -8
 1408              		.cfi_offset 14, -4
 1409 0002 051C     		mov	r5, r0
 1410 0004 0C1C     		mov	r4, r1
 525:.\SSD1306.c   ****   ssd1306_command(SSD1306_LEFT_HORIZONTAL_SCROLL);
 1411              		.loc 1 525 0
 1412 0006 2720     		mov	r0, #39
 1413              	.LVL235:
 1414 0008 FFF7FEFF 		bl	ssd1306_command
 1415              	.LVL236:
 526:.\SSD1306.c   ****   ssd1306_command(0X00);
 1416              		.loc 1 526 0
 1417 000c 0020     		mov	r0, #0
 1418 000e FFF7FEFF 		bl	ssd1306_command
ARM GAS  C:\Users\username\AppData\Local\Temp\cc1E6INQ.s 			page 36


 1419              	.LVL237:
 527:.\SSD1306.c   ****   ssd1306_command(start);
 1420              		.loc 1 527 0
 1421 0012 281C     		mov	r0, r5
 1422 0014 FFF7FEFF 		bl	ssd1306_command
 1423              	.LVL238:
 528:.\SSD1306.c   ****   ssd1306_command(0X00);
 1424              		.loc 1 528 0
 1425 0018 0020     		mov	r0, #0
 1426 001a FFF7FEFF 		bl	ssd1306_command
 1427              	.LVL239:
 529:.\SSD1306.c   ****   ssd1306_command(stop);
 1428              		.loc 1 529 0
 1429 001e 201C     		mov	r0, r4
 1430 0020 FFF7FEFF 		bl	ssd1306_command
 1431              	.LVL240:
 530:.\SSD1306.c   ****   ssd1306_command(0X00);
 1432              		.loc 1 530 0
 1433 0024 0020     		mov	r0, #0
 1434 0026 FFF7FEFF 		bl	ssd1306_command
 1435              	.LVL241:
 531:.\SSD1306.c   ****   ssd1306_command(0XFF);
 1436              		.loc 1 531 0
 1437 002a FF20     		mov	r0, #255
 1438 002c FFF7FEFF 		bl	ssd1306_command
 1439              	.LVL242:
 532:.\SSD1306.c   ****   ssd1306_command(SSD1306_ACTIVATE_SCROLL);
 1440              		.loc 1 532 0
 1441 0030 2F20     		mov	r0, #47
 1442 0032 FFF7FEFF 		bl	ssd1306_command
 1443              	.LVL243:
 533:.\SSD1306.c   **** }
 1444              		.loc 1 533 0
 1445              		@ sp needed
 1446 0036 38BD     		pop	{r3, r4, r5, pc}
 1447              		.cfi_endproc
 1448              	.LFE50:
 1449              		.size	startscrollleft, .-startscrollleft
 1450              		.section	.text.startscrolldiagright,"ax",%progbits
 1451              		.align	2
 1452              		.global	startscrolldiagright
 1453              		.code	16
 1454              		.thumb_func
 1455              		.type	startscrolldiagright, %function
 1456              	startscrolldiagright:
 1457              	.LFB51:
 534:.\SSD1306.c   **** 
 535:.\SSD1306.c   **** // startscrolldiagright
 536:.\SSD1306.c   **** // Activate a diagonal scroll for rows start through stop
 537:.\SSD1306.c   **** // Hint, the display is 16 rows tall. To scroll the whole display, run:
 538:.\SSD1306.c   **** // display.scrollright(0x00, 0x0F) 
 539:.\SSD1306.c   **** void startscrolldiagright(uint8_t start, uint8_t stop){
 1458              		.loc 1 539 0
 1459              		.cfi_startproc
 1460              	.LVL244:
 1461 0000 38B5     		push	{r3, r4, r5, lr}
 1462              		.cfi_def_cfa_offset 16
ARM GAS  C:\Users\username\AppData\Local\Temp\cc1E6INQ.s 			page 37


 1463              		.cfi_offset 3, -16
 1464              		.cfi_offset 4, -12
 1465              		.cfi_offset 5, -8
 1466              		.cfi_offset 14, -4
 1467 0002 051C     		mov	r5, r0
 1468 0004 0C1C     		mov	r4, r1
 540:.\SSD1306.c   ****   ssd1306_command(SSD1306_SET_VERTICAL_SCROLL_AREA);  
 1469              		.loc 1 540 0
 1470 0006 A320     		mov	r0, #163
 1471              	.LVL245:
 1472 0008 FFF7FEFF 		bl	ssd1306_command
 1473              	.LVL246:
 541:.\SSD1306.c   ****   ssd1306_command(0X00);
 1474              		.loc 1 541 0
 1475 000c 0020     		mov	r0, #0
 1476 000e FFF7FEFF 		bl	ssd1306_command
 1477              	.LVL247:
 542:.\SSD1306.c   ****   ssd1306_command(lcd_HEIGHT);
 1478              		.loc 1 542 0
 1479 0012 4020     		mov	r0, #64
 1480 0014 FFF7FEFF 		bl	ssd1306_command
 1481              	.LVL248:
 543:.\SSD1306.c   ****   ssd1306_command(SSD1306_VERTICAL_AND_RIGHT_HORIZONTAL_SCROLL);
 1482              		.loc 1 543 0
 1483 0018 2920     		mov	r0, #41
 1484 001a FFF7FEFF 		bl	ssd1306_command
 1485              	.LVL249:
 544:.\SSD1306.c   ****   ssd1306_command(0X00);
 1486              		.loc 1 544 0
 1487 001e 0020     		mov	r0, #0
 1488 0020 FFF7FEFF 		bl	ssd1306_command
 1489              	.LVL250:
 545:.\SSD1306.c   ****   ssd1306_command(start);
 1490              		.loc 1 545 0
 1491 0024 281C     		mov	r0, r5
 1492 0026 FFF7FEFF 		bl	ssd1306_command
 1493              	.LVL251:
 546:.\SSD1306.c   ****   ssd1306_command(0X00);
 1494              		.loc 1 546 0
 1495 002a 0020     		mov	r0, #0
 1496 002c FFF7FEFF 		bl	ssd1306_command
 1497              	.LVL252:
 547:.\SSD1306.c   ****   ssd1306_command(stop);
 1498              		.loc 1 547 0
 1499 0030 201C     		mov	r0, r4
 1500 0032 FFF7FEFF 		bl	ssd1306_command
 1501              	.LVL253:
 548:.\SSD1306.c   ****   ssd1306_command(0X01);
 1502              		.loc 1 548 0
 1503 0036 0120     		mov	r0, #1
 1504 0038 FFF7FEFF 		bl	ssd1306_command
 1505              	.LVL254:
 549:.\SSD1306.c   ****   ssd1306_command(SSD1306_ACTIVATE_SCROLL);
 1506              		.loc 1 549 0
 1507 003c 2F20     		mov	r0, #47
 1508 003e FFF7FEFF 		bl	ssd1306_command
 1509              	.LVL255:
ARM GAS  C:\Users\username\AppData\Local\Temp\cc1E6INQ.s 			page 38


 550:.\SSD1306.c   **** }
 1510              		.loc 1 550 0
 1511              		@ sp needed
 1512 0042 38BD     		pop	{r3, r4, r5, pc}
 1513              		.cfi_endproc
 1514              	.LFE51:
 1515              		.size	startscrolldiagright, .-startscrolldiagright
 1516              		.section	.text.startscrolldiagleft,"ax",%progbits
 1517              		.align	2
 1518              		.global	startscrolldiagleft
 1519              		.code	16
 1520              		.thumb_func
 1521              		.type	startscrolldiagleft, %function
 1522              	startscrolldiagleft:
 1523              	.LFB52:
 551:.\SSD1306.c   **** 
 552:.\SSD1306.c   **** // startscrolldiagleft
 553:.\SSD1306.c   **** // Activate a diagonal scroll for rows start through stop
 554:.\SSD1306.c   **** // Hint, the display is 16 rows tall. To scroll the whole display, run:
 555:.\SSD1306.c   **** // display.scrollright(0x00, 0x0F) 
 556:.\SSD1306.c   **** void startscrolldiagleft(uint8_t start, uint8_t stop){
 1524              		.loc 1 556 0
 1525              		.cfi_startproc
 1526              	.LVL256:
 1527 0000 38B5     		push	{r3, r4, r5, lr}
 1528              		.cfi_def_cfa_offset 16
 1529              		.cfi_offset 3, -16
 1530              		.cfi_offset 4, -12
 1531              		.cfi_offset 5, -8
 1532              		.cfi_offset 14, -4
 1533 0002 051C     		mov	r5, r0
 1534 0004 0C1C     		mov	r4, r1
 557:.\SSD1306.c   ****   ssd1306_command(SSD1306_SET_VERTICAL_SCROLL_AREA);  
 1535              		.loc 1 557 0
 1536 0006 A320     		mov	r0, #163
 1537              	.LVL257:
 1538 0008 FFF7FEFF 		bl	ssd1306_command
 1539              	.LVL258:
 558:.\SSD1306.c   ****   ssd1306_command(0X00);
 1540              		.loc 1 558 0
 1541 000c 0020     		mov	r0, #0
 1542 000e FFF7FEFF 		bl	ssd1306_command
 1543              	.LVL259:
 559:.\SSD1306.c   ****   ssd1306_command(lcd_HEIGHT);
 1544              		.loc 1 559 0
 1545 0012 4020     		mov	r0, #64
 1546 0014 FFF7FEFF 		bl	ssd1306_command
 1547              	.LVL260:
 560:.\SSD1306.c   ****   ssd1306_command(SSD1306_VERTICAL_AND_LEFT_HORIZONTAL_SCROLL);
 1548              		.loc 1 560 0
 1549 0018 2A20     		mov	r0, #42
 1550 001a FFF7FEFF 		bl	ssd1306_command
 1551              	.LVL261:
 561:.\SSD1306.c   ****   ssd1306_command(0X00);
 1552              		.loc 1 561 0
 1553 001e 0020     		mov	r0, #0
 1554 0020 FFF7FEFF 		bl	ssd1306_command
ARM GAS  C:\Users\username\AppData\Local\Temp\cc1E6INQ.s 			page 39


 1555              	.LVL262:
 562:.\SSD1306.c   ****   ssd1306_command(start);
 1556              		.loc 1 562 0
 1557 0024 281C     		mov	r0, r5
 1558 0026 FFF7FEFF 		bl	ssd1306_command
 1559              	.LVL263:
 563:.\SSD1306.c   ****   ssd1306_command(0X00);
 1560              		.loc 1 563 0
 1561 002a 0020     		mov	r0, #0
 1562 002c FFF7FEFF 		bl	ssd1306_command
 1563              	.LVL264:
 564:.\SSD1306.c   ****   ssd1306_command(stop);
 1564              		.loc 1 564 0
 1565 0030 201C     		mov	r0, r4
 1566 0032 FFF7FEFF 		bl	ssd1306_command
 1567              	.LVL265:
 565:.\SSD1306.c   ****   ssd1306_command(0X01);
 1568              		.loc 1 565 0
 1569 0036 0120     		mov	r0, #1
 1570 0038 FFF7FEFF 		bl	ssd1306_command
 1571              	.LVL266:
 566:.\SSD1306.c   ****   ssd1306_command(SSD1306_ACTIVATE_SCROLL);
 1572              		.loc 1 566 0
 1573 003c 2F20     		mov	r0, #47
 1574 003e FFF7FEFF 		bl	ssd1306_command
 1575              	.LVL267:
 567:.\SSD1306.c   **** }
 1576              		.loc 1 567 0
 1577              		@ sp needed
 1578 0042 38BD     		pop	{r3, r4, r5, pc}
 1579              		.cfi_endproc
 1580              	.LFE52:
 1581              		.size	startscrolldiagleft, .-startscrolldiagleft
 1582              		.section	.text.stopscroll,"ax",%progbits
 1583              		.align	2
 1584              		.global	stopscroll
 1585              		.code	16
 1586              		.thumb_func
 1587              		.type	stopscroll, %function
 1588              	stopscroll:
 1589              	.LFB53:
 568:.\SSD1306.c   **** 
 569:.\SSD1306.c   **** void stopscroll(void){
 1590              		.loc 1 569 0
 1591              		.cfi_startproc
 1592 0000 08B5     		push	{r3, lr}
 1593              		.cfi_def_cfa_offset 8
 1594              		.cfi_offset 3, -8
 1595              		.cfi_offset 14, -4
 570:.\SSD1306.c   ****   ssd1306_command(SSD1306_DEACTIVATE_SCROLL);
 1596              		.loc 1 570 0
 1597 0002 2E20     		mov	r0, #46
 1598 0004 FFF7FEFF 		bl	ssd1306_command
 1599              	.LVL268:
 571:.\SSD1306.c   **** }
 1600              		.loc 1 571 0
 1601              		@ sp needed
ARM GAS  C:\Users\username\AppData\Local\Temp\cc1E6INQ.s 			page 40


 1602 0008 08BD     		pop	{r3, pc}
 1603              		.cfi_endproc
 1604              	.LFE53:
 1605              		.size	stopscroll, .-stopscroll
 1606              		.global	current_rot_width
 1607              		.global	current_rot_height
 1608              		.global	current_rotation
 1609              		.global	lcd_WIDTH
 1610              		.global	lcd_HEIGHT
 1611 000a C046     		.section	.rodata
 1612              		.align	2
 1613              		.set	.LANCHOR2,. + 0
 1614              		.type	premask.7282, %object
 1615              		.size	premask.7282, 8
 1616              	premask.7282:
 1617 0000 00       		.byte	0
 1618 0001 80       		.byte	-128
 1619 0002 C0       		.byte	-64
 1620 0003 E0       		.byte	-32
 1621 0004 F0       		.byte	-16
 1622 0005 F8       		.byte	-8
 1623 0006 FC       		.byte	-4
 1624 0007 FE       		.byte	-2
 1625              		.type	postmask.7293, %object
 1626              		.size	postmask.7293, 8
 1627              	postmask.7293:
 1628 0008 00       		.byte	0
 1629 0009 01       		.byte	1
 1630 000a 03       		.byte	3
 1631 000b 07       		.byte	7
 1632 000c 0F       		.byte	15
 1633 000d 1F       		.byte	31
 1634 000e 3F       		.byte	63
 1635 000f 7F       		.byte	127
 1636              		.type	lcd_WIDTH, %object
 1637              		.size	lcd_WIDTH, 4
 1638              	lcd_WIDTH:
 1639 0010 80000000 		.word	128
 1640              		.type	lcd_HEIGHT, %object
 1641              		.size	lcd_HEIGHT, 4
 1642              	lcd_HEIGHT:
 1643 0014 40000000 		.word	64
 1644              		.data
 1645              		.align	2
 1646              		.set	.LANCHOR0,. + 0
 1647              		.type	current_rot_width, %object
 1648              		.size	current_rot_width, 4
 1649              	current_rot_width:
 1650 0000 80000000 		.word	128
 1651              		.type	current_rot_height, %object
 1652              		.size	current_rot_height, 4
 1653              	current_rot_height:
 1654 0004 40000000 		.word	64
 1655              		.type	GDDRAM_Buffer, %object
 1656              		.size	GDDRAM_Buffer, 2048
 1657              	GDDRAM_Buffer:
 1658 0008 0000     		.short	0
ARM GAS  C:\Users\username\AppData\Local\Temp\cc1E6INQ.s 			page 41


 1659 000a 0000     		.short	0
 1660 000c 0000     		.short	0
 1661 000e 0000     		.short	0
 1662 0010 0000     		.short	0
 1663 0012 0000     		.short	0
 1664 0014 0000     		.short	0
 1665 0016 0000     		.short	0
 1666 0018 0000     		.short	0
 1667 001a 0000     		.short	0
 1668 001c 0000     		.short	0
 1669 001e 0000     		.short	0
 1670 0020 0000     		.short	0
 1671 0022 0000     		.short	0
 1672 0024 0000     		.short	0
 1673 0026 0000     		.short	0
 1674 0028 0000     		.short	0
 1675 002a 0000     		.short	0
 1676 002c 0000     		.short	0
 1677 002e 0000     		.short	0
 1678 0030 0000     		.short	0
 1679 0032 0000     		.short	0
 1680 0034 0000     		.short	0
 1681 0036 0000     		.short	0
 1682 0038 0000     		.short	0
 1683 003a 0000     		.short	0
 1684 003c 0000     		.short	0
 1685 003e 0000     		.short	0
 1686 0040 0000     		.short	0
 1687 0042 0000     		.short	0
 1688 0044 0000     		.short	0
 1689 0046 0000     		.short	0
 1690 0048 0000     		.short	0
 1691 004a 0000     		.short	0
 1692 004c 0000     		.short	0
 1693 004e 0000     		.short	0
 1694 0050 0000     		.short	0
 1695 0052 0000     		.short	0
 1696 0054 0000     		.short	0
 1697 0056 0000     		.short	0
 1698 0058 0000     		.short	0
 1699 005a 0000     		.short	0
 1700 005c 0000     		.short	0
 1701 005e 0000     		.short	0
 1702 0060 0000     		.short	0
 1703 0062 0000     		.short	0
 1704 0064 0000     		.short	0
 1705 0066 0000     		.short	0
 1706 0068 0000     		.short	0
 1707 006a 0000     		.short	0
 1708 006c 0000     		.short	0
 1709 006e 0000     		.short	0
 1710 0070 0000     		.short	0
 1711 0072 0000     		.short	0
 1712 0074 0000     		.short	0
 1713 0076 0000     		.short	0
 1714 0078 0000     		.short	0
 1715 007a 0000     		.short	0
ARM GAS  C:\Users\username\AppData\Local\Temp\cc1E6INQ.s 			page 42


 1716 007c 0000     		.short	0
 1717 007e 0000     		.short	0
 1718 0080 0000     		.short	0
 1719 0082 0000     		.short	0
 1720 0084 0000     		.short	0
 1721 0086 8000     		.short	128
 1722 0088 8000     		.short	128
 1723 008a 8000     		.short	128
 1724 008c 0000     		.short	0
 1725 008e 0000     		.short	0
 1726 0090 0000     		.short	0
 1727 0092 0000     		.short	0
 1728 0094 0000     		.short	0
 1729 0096 0000     		.short	0
 1730 0098 0000     		.short	0
 1731 009a 0000     		.short	0
 1732 009c 0000     		.short	0
 1733 009e 0000     		.short	0
 1734 00a0 0000     		.short	0
 1735 00a2 0000     		.short	0
 1736 00a4 0000     		.short	0
 1737 00a6 0000     		.short	0
 1738 00a8 0000     		.short	0
 1739 00aa 8000     		.short	128
 1740 00ac 8000     		.short	128
 1741 00ae C000     		.short	192
 1742 00b0 C000     		.short	192
 1743 00b2 0000     		.short	0
 1744 00b4 0000     		.short	0
 1745 00b6 0000     		.short	0
 1746 00b8 0000     		.short	0
 1747 00ba 0000     		.short	0
 1748 00bc 0000     		.short	0
 1749 00be 0000     		.short	0
 1750 00c0 0000     		.short	0
 1751 00c2 0000     		.short	0
 1752 00c4 0000     		.short	0
 1753 00c6 0000     		.short	0
 1754 00c8 0000     		.short	0
 1755 00ca 0000     		.short	0
 1756 00cc 0000     		.short	0
 1757 00ce 0000     		.short	0
 1758 00d0 0000     		.short	0
 1759 00d2 0000     		.short	0
 1760 00d4 0000     		.short	0
 1761 00d6 0000     		.short	0
 1762 00d8 0000     		.short	0
 1763 00da 0000     		.short	0
 1764 00dc 0000     		.short	0
 1765 00de 0000     		.short	0
 1766 00e0 0000     		.short	0
 1767 00e2 0000     		.short	0
 1768 00e4 0000     		.short	0
 1769 00e6 0000     		.short	0
 1770 00e8 0000     		.short	0
 1771 00ea 0000     		.short	0
 1772 00ec 0000     		.short	0
ARM GAS  C:\Users\username\AppData\Local\Temp\cc1E6INQ.s 			page 43


 1773 00ee 0000     		.short	0
 1774 00f0 0000     		.short	0
 1775 00f2 0000     		.short	0
 1776 00f4 0000     		.short	0
 1777 00f6 0000     		.short	0
 1778 00f8 0000     		.short	0
 1779 00fa 0000     		.short	0
 1780 00fc 0000     		.short	0
 1781 00fe 0000     		.short	0
 1782 0100 0000     		.short	0
 1783 0102 0000     		.short	0
 1784 0104 0000     		.short	0
 1785 0106 0000     		.short	0
 1786 0108 0000     		.short	0
 1787 010a 0000     		.short	0
 1788 010c 0000     		.short	0
 1789 010e 0000     		.short	0
 1790 0110 0000     		.short	0
 1791 0112 0000     		.short	0
 1792 0114 0000     		.short	0
 1793 0116 0000     		.short	0
 1794 0118 0000     		.short	0
 1795 011a 0000     		.short	0
 1796 011c 0000     		.short	0
 1797 011e 0000     		.short	0
 1798 0120 0000     		.short	0
 1799 0122 0000     		.short	0
 1800 0124 0000     		.short	0
 1801 0126 0000     		.short	0
 1802 0128 0000     		.short	0
 1803 012a 0000     		.short	0
 1804 012c 0000     		.short	0
 1805 012e 0000     		.short	0
 1806 0130 8000     		.short	128
 1807 0132 C000     		.short	192
 1808 0134 E000     		.short	224
 1809 0136 F000     		.short	240
 1810 0138 F800     		.short	248
 1811 013a FC00     		.short	252
 1812 013c F800     		.short	248
 1813 013e E000     		.short	224
 1814 0140 0000     		.short	0
 1815 0142 0000     		.short	0
 1816 0144 0000     		.short	0
 1817 0146 0000     		.short	0
 1818 0148 0000     		.short	0
 1819 014a 0000     		.short	0
 1820 014c 0000     		.short	0
 1821 014e 0000     		.short	0
 1822 0150 0000     		.short	0
 1823 0152 0000     		.short	0
 1824 0154 0000     		.short	0
 1825 0156 0000     		.short	0
 1826 0158 0000     		.short	0
 1827 015a 0000     		.short	0
 1828 015c 0000     		.short	0
 1829 015e 0000     		.short	0
ARM GAS  C:\Users\username\AppData\Local\Temp\cc1E6INQ.s 			page 44


 1830 0160 0000     		.short	0
 1831 0162 8000     		.short	128
 1832 0164 8000     		.short	128
 1833 0166 8000     		.short	128
 1834 0168 8000     		.short	128
 1835 016a 8000     		.short	128
 1836 016c 0000     		.short	0
 1837 016e 8000     		.short	128
 1838 0170 8000     		.short	128
 1839 0172 0000     		.short	0
 1840 0174 0000     		.short	0
 1841 0176 0000     		.short	0
 1842 0178 0000     		.short	0
 1843 017a 8000     		.short	128
 1844 017c 8000     		.short	128
 1845 017e 8000     		.short	128
 1846 0180 8000     		.short	128
 1847 0182 8000     		.short	128
 1848 0184 0000     		.short	0
 1849 0186 FF00     		.short	255
 1850 0188 FF00     		.short	255
 1851 018a FF00     		.short	255
 1852 018c 0000     		.short	0
 1853 018e 0000     		.short	0
 1854 0190 0000     		.short	0
 1855 0192 0000     		.short	0
 1856 0194 8000     		.short	128
 1857 0196 8000     		.short	128
 1858 0198 8000     		.short	128
 1859 019a 8000     		.short	128
 1860 019c 0000     		.short	0
 1861 019e 0000     		.short	0
 1862 01a0 8000     		.short	128
 1863 01a2 8000     		.short	128
 1864 01a4 0000     		.short	0
 1865 01a6 0000     		.short	0
 1866 01a8 8000     		.short	128
 1867 01aa FF00     		.short	255
 1868 01ac FF00     		.short	255
 1869 01ae 8000     		.short	128
 1870 01b0 8000     		.short	128
 1871 01b2 0000     		.short	0
 1872 01b4 8000     		.short	128
 1873 01b6 8000     		.short	128
 1874 01b8 0000     		.short	0
 1875 01ba 8000     		.short	128
 1876 01bc 8000     		.short	128
 1877 01be 8000     		.short	128
 1878 01c0 8000     		.short	128
 1879 01c2 0000     		.short	0
 1880 01c4 8000     		.short	128
 1881 01c6 8000     		.short	128
 1882 01c8 0000     		.short	0
 1883 01ca 0000     		.short	0
 1884 01cc 0000     		.short	0
 1885 01ce 0000     		.short	0
 1886 01d0 0000     		.short	0
ARM GAS  C:\Users\username\AppData\Local\Temp\cc1E6INQ.s 			page 45


 1887 01d2 8000     		.short	128
 1888 01d4 8000     		.short	128
 1889 01d6 0000     		.short	0
 1890 01d8 0000     		.short	0
 1891 01da 8C00     		.short	140
 1892 01dc 8E00     		.short	142
 1893 01de 8400     		.short	132
 1894 01e0 0000     		.short	0
 1895 01e2 0000     		.short	0
 1896 01e4 8000     		.short	128
 1897 01e6 F800     		.short	248
 1898 01e8 F800     		.short	248
 1899 01ea F800     		.short	248
 1900 01ec 8000     		.short	128
 1901 01ee 0000     		.short	0
 1902 01f0 0000     		.short	0
 1903 01f2 0000     		.short	0
 1904 01f4 0000     		.short	0
 1905 01f6 0000     		.short	0
 1906 01f8 0000     		.short	0
 1907 01fa 0000     		.short	0
 1908 01fc 0000     		.short	0
 1909 01fe 0000     		.short	0
 1910 0200 0000     		.short	0
 1911 0202 0000     		.short	0
 1912 0204 0000     		.short	0
 1913 0206 0000     		.short	0
 1914 0208 F000     		.short	240
 1915 020a F000     		.short	240
 1916 020c F000     		.short	240
 1917 020e F000     		.short	240
 1918 0210 F000     		.short	240
 1919 0212 F000     		.short	240
 1920 0214 F000     		.short	240
 1921 0216 F000     		.short	240
 1922 0218 F000     		.short	240
 1923 021a F000     		.short	240
 1924 021c F000     		.short	240
 1925 021e F000     		.short	240
 1926 0220 E000     		.short	224
 1927 0222 E000     		.short	224
 1928 0224 C000     		.short	192
 1929 0226 8000     		.short	128
 1930 0228 0000     		.short	0
 1931 022a E000     		.short	224
 1932 022c FC00     		.short	252
 1933 022e FE00     		.short	254
 1934 0230 FF00     		.short	255
 1935 0232 FF00     		.short	255
 1936 0234 FF00     		.short	255
 1937 0236 7F00     		.short	127
 1938 0238 FF00     		.short	255
 1939 023a FF00     		.short	255
 1940 023c FF00     		.short	255
 1941 023e FF00     		.short	255
 1942 0240 FF00     		.short	255
 1943 0242 0000     		.short	0
ARM GAS  C:\Users\username\AppData\Local\Temp\cc1E6INQ.s 			page 46


 1944 0244 0000     		.short	0
 1945 0246 0000     		.short	0
 1946 0248 0000     		.short	0
 1947 024a 0000     		.short	0
 1948 024c 0000     		.short	0
 1949 024e 0000     		.short	0
 1950 0250 0000     		.short	0
 1951 0252 0000     		.short	0
 1952 0254 0000     		.short	0
 1953 0256 0000     		.short	0
 1954 0258 0000     		.short	0
 1955 025a 0000     		.short	0
 1956 025c 0000     		.short	0
 1957 025e FE00     		.short	254
 1958 0260 FF00     		.short	255
 1959 0262 C700     		.short	199
 1960 0264 0100     		.short	1
 1961 0266 0100     		.short	1
 1962 0268 0100     		.short	1
 1963 026a 0100     		.short	1
 1964 026c 8300     		.short	131
 1965 026e FF00     		.short	255
 1966 0270 FF00     		.short	255
 1967 0272 0000     		.short	0
 1968 0274 0000     		.short	0
 1969 0276 7C00     		.short	124
 1970 0278 FE00     		.short	254
 1971 027a C700     		.short	199
 1972 027c 0100     		.short	1
 1973 027e 0100     		.short	1
 1974 0280 0100     		.short	1
 1975 0282 0100     		.short	1
 1976 0284 8300     		.short	131
 1977 0286 FF00     		.short	255
 1978 0288 FF00     		.short	255
 1979 028a FF00     		.short	255
 1980 028c 0000     		.short	0
 1981 028e 3800     		.short	56
 1982 0290 FE00     		.short	254
 1983 0292 C700     		.short	199
 1984 0294 8300     		.short	131
 1985 0296 0100     		.short	1
 1986 0298 0100     		.short	1
 1987 029a 0100     		.short	1
 1988 029c 8300     		.short	131
 1989 029e C700     		.short	199
 1990 02a0 FF00     		.short	255
 1991 02a2 FF00     		.short	255
 1992 02a4 0000     		.short	0
 1993 02a6 0000     		.short	0
 1994 02a8 0100     		.short	1
 1995 02aa FF00     		.short	255
 1996 02ac FF00     		.short	255
 1997 02ae 0100     		.short	1
 1998 02b0 0100     		.short	1
 1999 02b2 0000     		.short	0
 2000 02b4 FF00     		.short	255
ARM GAS  C:\Users\username\AppData\Local\Temp\cc1E6INQ.s 			page 47


 2001 02b6 FF00     		.short	255
 2002 02b8 0700     		.short	7
 2003 02ba 0100     		.short	1
 2004 02bc 0100     		.short	1
 2005 02be 0100     		.short	1
 2006 02c0 0000     		.short	0
 2007 02c2 0000     		.short	0
 2008 02c4 7F00     		.short	127
 2009 02c6 FF00     		.short	255
 2010 02c8 8000     		.short	128
 2011 02ca 0000     		.short	0
 2012 02cc 0000     		.short	0
 2013 02ce 0000     		.short	0
 2014 02d0 FF00     		.short	255
 2015 02d2 FF00     		.short	255
 2016 02d4 7F00     		.short	127
 2017 02d6 0000     		.short	0
 2018 02d8 0000     		.short	0
 2019 02da FF00     		.short	255
 2020 02dc FF00     		.short	255
 2021 02de FF00     		.short	255
 2022 02e0 0000     		.short	0
 2023 02e2 0000     		.short	0
 2024 02e4 0100     		.short	1
 2025 02e6 FF00     		.short	255
 2026 02e8 FF00     		.short	255
 2027 02ea FF00     		.short	255
 2028 02ec 0100     		.short	1
 2029 02ee 0000     		.short	0
 2030 02f0 0000     		.short	0
 2031 02f2 0000     		.short	0
 2032 02f4 0000     		.short	0
 2033 02f6 0000     		.short	0
 2034 02f8 0000     		.short	0
 2035 02fa 0000     		.short	0
 2036 02fc 0000     		.short	0
 2037 02fe 0000     		.short	0
 2038 0300 0000     		.short	0
 2039 0302 0000     		.short	0
 2040 0304 0000     		.short	0
 2041 0306 0000     		.short	0
 2042 0308 0300     		.short	3
 2043 030a 0F00     		.short	15
 2044 030c 3F00     		.short	63
 2045 030e 7F00     		.short	127
 2046 0310 7F00     		.short	127
 2047 0312 FF00     		.short	255
 2048 0314 FF00     		.short	255
 2049 0316 FF00     		.short	255
 2050 0318 FF00     		.short	255
 2051 031a FF00     		.short	255
 2052 031c FF00     		.short	255
 2053 031e FF00     		.short	255
 2054 0320 E700     		.short	231
 2055 0322 C700     		.short	199
 2056 0324 C700     		.short	199
 2057 0326 8F00     		.short	143
ARM GAS  C:\Users\username\AppData\Local\Temp\cc1E6INQ.s 			page 48


 2058 0328 8F00     		.short	143
 2059 032a 9F00     		.short	159
 2060 032c BF00     		.short	191
 2061 032e FF00     		.short	255
 2062 0330 FF00     		.short	255
 2063 0332 C300     		.short	195
 2064 0334 C000     		.short	192
 2065 0336 F000     		.short	240
 2066 0338 FF00     		.short	255
 2067 033a FF00     		.short	255
 2068 033c FF00     		.short	255
 2069 033e FF00     		.short	255
 2070 0340 FF00     		.short	255
 2071 0342 FC00     		.short	252
 2072 0344 FC00     		.short	252
 2073 0346 FC00     		.short	252
 2074 0348 FC00     		.short	252
 2075 034a FC00     		.short	252
 2076 034c FC00     		.short	252
 2077 034e FC00     		.short	252
 2078 0350 FC00     		.short	252
 2079 0352 F800     		.short	248
 2080 0354 F800     		.short	248
 2081 0356 F000     		.short	240
 2082 0358 F000     		.short	240
 2083 035a E000     		.short	224
 2084 035c C000     		.short	192
 2085 035e 0000     		.short	0
 2086 0360 0100     		.short	1
 2087 0362 0300     		.short	3
 2088 0364 0300     		.short	3
 2089 0366 0300     		.short	3
 2090 0368 0300     		.short	3
 2091 036a 0300     		.short	3
 2092 036c 0100     		.short	1
 2093 036e 0300     		.short	3
 2094 0370 0300     		.short	3
 2095 0372 0000     		.short	0
 2096 0374 0000     		.short	0
 2097 0376 0000     		.short	0
 2098 0378 0000     		.short	0
 2099 037a 0100     		.short	1
 2100 037c 0300     		.short	3
 2101 037e 0300     		.short	3
 2102 0380 0300     		.short	3
 2103 0382 0300     		.short	3
 2104 0384 0100     		.short	1
 2105 0386 0100     		.short	1
 2106 0388 0300     		.short	3
 2107 038a 0100     		.short	1
 2108 038c 0000     		.short	0
 2109 038e 0000     		.short	0
 2110 0390 0000     		.short	0
 2111 0392 0100     		.short	1
 2112 0394 0300     		.short	3
 2113 0396 0300     		.short	3
 2114 0398 0300     		.short	3
ARM GAS  C:\Users\username\AppData\Local\Temp\cc1E6INQ.s 			page 49


 2115 039a 0300     		.short	3
 2116 039c 0100     		.short	1
 2117 039e 0100     		.short	1
 2118 03a0 0300     		.short	3
 2119 03a2 0300     		.short	3
 2120 03a4 0000     		.short	0
 2121 03a6 0000     		.short	0
 2122 03a8 0000     		.short	0
 2123 03aa 0300     		.short	3
 2124 03ac 0300     		.short	3
 2125 03ae 0000     		.short	0
 2126 03b0 0000     		.short	0
 2127 03b2 0000     		.short	0
 2128 03b4 0300     		.short	3
 2129 03b6 0300     		.short	3
 2130 03b8 0000     		.short	0
 2131 03ba 0000     		.short	0
 2132 03bc 0000     		.short	0
 2133 03be 0000     		.short	0
 2134 03c0 0000     		.short	0
 2135 03c2 0000     		.short	0
 2136 03c4 0000     		.short	0
 2137 03c6 0100     		.short	1
 2138 03c8 0300     		.short	3
 2139 03ca 0300     		.short	3
 2140 03cc 0300     		.short	3
 2141 03ce 0300     		.short	3
 2142 03d0 0300     		.short	3
 2143 03d2 0100     		.short	1
 2144 03d4 0000     		.short	0
 2145 03d6 0000     		.short	0
 2146 03d8 0000     		.short	0
 2147 03da 0100     		.short	1
 2148 03dc 0300     		.short	3
 2149 03de 0100     		.short	1
 2150 03e0 0000     		.short	0
 2151 03e2 0000     		.short	0
 2152 03e4 0000     		.short	0
 2153 03e6 0300     		.short	3
 2154 03e8 0300     		.short	3
 2155 03ea 0100     		.short	1
 2156 03ec 0000     		.short	0
 2157 03ee 0000     		.short	0
 2158 03f0 0000     		.short	0
 2159 03f2 0000     		.short	0
 2160 03f4 0000     		.short	0
 2161 03f6 0000     		.short	0
 2162 03f8 0000     		.short	0
 2163 03fa 0000     		.short	0
 2164 03fc 0000     		.short	0
 2165 03fe 0000     		.short	0
 2166 0400 0000     		.short	0
 2167 0402 0000     		.short	0
 2168 0404 0000     		.short	0
 2169 0406 0000     		.short	0
 2170 0408 0000     		.short	0
 2171 040a 0000     		.short	0
ARM GAS  C:\Users\username\AppData\Local\Temp\cc1E6INQ.s 			page 50


 2172 040c 0000     		.short	0
 2173 040e 8000     		.short	128
 2174 0410 C000     		.short	192
 2175 0412 E000     		.short	224
 2176 0414 F000     		.short	240
 2177 0416 F900     		.short	249
 2178 0418 FF00     		.short	255
 2179 041a FF00     		.short	255
 2180 041c FF00     		.short	255
 2181 041e FF00     		.short	255
 2182 0420 FF00     		.short	255
 2183 0422 3F00     		.short	63
 2184 0424 1F00     		.short	31
 2185 0426 0F00     		.short	15
 2186 0428 8700     		.short	135
 2187 042a C700     		.short	199
 2188 042c F700     		.short	247
 2189 042e FF00     		.short	255
 2190 0430 FF00     		.short	255
 2191 0432 1F00     		.short	31
 2192 0434 1F00     		.short	31
 2193 0436 3D00     		.short	61
 2194 0438 FC00     		.short	252
 2195 043a F800     		.short	248
 2196 043c F800     		.short	248
 2197 043e F800     		.short	248
 2198 0440 F800     		.short	248
 2199 0442 7C00     		.short	124
 2200 0444 7D00     		.short	125
 2201 0446 FF00     		.short	255
 2202 0448 FF00     		.short	255
 2203 044a FF00     		.short	255
 2204 044c FF00     		.short	255
 2205 044e FF00     		.short	255
 2206 0450 FF00     		.short	255
 2207 0452 FF00     		.short	255
 2208 0454 FF00     		.short	255
 2209 0456 7F00     		.short	127
 2210 0458 3F00     		.short	63
 2211 045a 0F00     		.short	15
 2212 045c 0700     		.short	7
 2213 045e 0000     		.short	0
 2214 0460 3000     		.short	48
 2215 0462 3000     		.short	48
 2216 0464 0000     		.short	0
 2217 0466 0000     		.short	0
 2218 0468 0000     		.short	0
 2219 046a 0000     		.short	0
 2220 046c 0000     		.short	0
 2221 046e 0000     		.short	0
 2222 0470 0000     		.short	0
 2223 0472 0000     		.short	0
 2224 0474 0000     		.short	0
 2225 0476 0000     		.short	0
 2226 0478 0000     		.short	0
 2227 047a 0000     		.short	0
 2228 047c 0000     		.short	0
ARM GAS  C:\Users\username\AppData\Local\Temp\cc1E6INQ.s 			page 51


 2229 047e 0000     		.short	0
 2230 0480 0000     		.short	0
 2231 0482 0000     		.short	0
 2232 0484 0000     		.short	0
 2233 0486 0000     		.short	0
 2234 0488 0000     		.short	0
 2235 048a 0000     		.short	0
 2236 048c 0000     		.short	0
 2237 048e 0000     		.short	0
 2238 0490 FE00     		.short	254
 2239 0492 FE00     		.short	254
 2240 0494 FC00     		.short	252
 2241 0496 0000     		.short	0
 2242 0498 0000     		.short	0
 2243 049a 0000     		.short	0
 2244 049c 0000     		.short	0
 2245 049e 0000     		.short	0
 2246 04a0 0000     		.short	0
 2247 04a2 0000     		.short	0
 2248 04a4 0000     		.short	0
 2249 04a6 0000     		.short	0
 2250 04a8 0000     		.short	0
 2251 04aa 0000     		.short	0
 2252 04ac 0000     		.short	0
 2253 04ae 0000     		.short	0
 2254 04b0 0000     		.short	0
 2255 04b2 0000     		.short	0
 2256 04b4 0000     		.short	0
 2257 04b6 0000     		.short	0
 2258 04b8 0000     		.short	0
 2259 04ba 0000     		.short	0
 2260 04bc 0000     		.short	0
 2261 04be 0000     		.short	0
 2262 04c0 0000     		.short	0
 2263 04c2 E000     		.short	224
 2264 04c4 C000     		.short	192
 2265 04c6 0000     		.short	0
 2266 04c8 0000     		.short	0
 2267 04ca 0000     		.short	0
 2268 04cc 0000     		.short	0
 2269 04ce 0000     		.short	0
 2270 04d0 0000     		.short	0
 2271 04d2 0000     		.short	0
 2272 04d4 0000     		.short	0
 2273 04d6 0000     		.short	0
 2274 04d8 0000     		.short	0
 2275 04da 0000     		.short	0
 2276 04dc 3000     		.short	48
 2277 04de 3000     		.short	48
 2278 04e0 0000     		.short	0
 2279 04e2 0000     		.short	0
 2280 04e4 0000     		.short	0
 2281 04e6 0000     		.short	0
 2282 04e8 0000     		.short	0
 2283 04ea 0000     		.short	0
 2284 04ec 0000     		.short	0
 2285 04ee 0000     		.short	0
ARM GAS  C:\Users\username\AppData\Local\Temp\cc1E6INQ.s 			page 52


 2286 04f0 0000     		.short	0
 2287 04f2 0000     		.short	0
 2288 04f4 0000     		.short	0
 2289 04f6 0000     		.short	0
 2290 04f8 0000     		.short	0
 2291 04fa 0000     		.short	0
 2292 04fc 0000     		.short	0
 2293 04fe 0000     		.short	0
 2294 0500 0000     		.short	0
 2295 0502 0000     		.short	0
 2296 0504 0000     		.short	0
 2297 0506 0000     		.short	0
 2298 0508 0000     		.short	0
 2299 050a C000     		.short	192
 2300 050c FE00     		.short	254
 2301 050e FF00     		.short	255
 2302 0510 FF00     		.short	255
 2303 0512 FF00     		.short	255
 2304 0514 FF00     		.short	255
 2305 0516 FF00     		.short	255
 2306 0518 FF00     		.short	255
 2307 051a FF00     		.short	255
 2308 051c FF00     		.short	255
 2309 051e FF00     		.short	255
 2310 0520 7F00     		.short	127
 2311 0522 7F00     		.short	127
 2312 0524 3F00     		.short	63
 2313 0526 1F00     		.short	31
 2314 0528 0F00     		.short	15
 2315 052a 0700     		.short	7
 2316 052c 1F00     		.short	31
 2317 052e 7F00     		.short	127
 2318 0530 FF00     		.short	255
 2319 0532 FF00     		.short	255
 2320 0534 F800     		.short	248
 2321 0536 F800     		.short	248
 2322 0538 FF00     		.short	255
 2323 053a FF00     		.short	255
 2324 053c FF00     		.short	255
 2325 053e FF00     		.short	255
 2326 0540 FF00     		.short	255
 2327 0542 FE00     		.short	254
 2328 0544 F800     		.short	248
 2329 0546 E000     		.short	224
 2330 0548 0000     		.short	0
 2331 054a 0000     		.short	0
 2332 054c 0000     		.short	0
 2333 054e 0100     		.short	1
 2334 0550 0000     		.short	0
 2335 0552 0000     		.short	0
 2336 0554 0000     		.short	0
 2337 0556 0000     		.short	0
 2338 0558 0000     		.short	0
 2339 055a 0000     		.short	0
 2340 055c 0000     		.short	0
 2341 055e 0000     		.short	0
 2342 0560 FE00     		.short	254
ARM GAS  C:\Users\username\AppData\Local\Temp\cc1E6INQ.s 			page 53


 2343 0562 FE00     		.short	254
 2344 0564 0000     		.short	0
 2345 0566 0000     		.short	0
 2346 0568 0000     		.short	0
 2347 056a FC00     		.short	252
 2348 056c FE00     		.short	254
 2349 056e FC00     		.short	252
 2350 0570 0C00     		.short	12
 2351 0572 0600     		.short	6
 2352 0574 0600     		.short	6
 2353 0576 0E00     		.short	14
 2354 0578 FC00     		.short	252
 2355 057a F800     		.short	248
 2356 057c 0000     		.short	0
 2357 057e 0000     		.short	0
 2358 0580 F000     		.short	240
 2359 0582 F800     		.short	248
 2360 0584 1C00     		.short	28
 2361 0586 0E00     		.short	14
 2362 0588 0600     		.short	6
 2363 058a 0600     		.short	6
 2364 058c 0600     		.short	6
 2365 058e 0C00     		.short	12
 2366 0590 FF00     		.short	255
 2367 0592 FF00     		.short	255
 2368 0594 FF00     		.short	255
 2369 0596 0000     		.short	0
 2370 0598 0000     		.short	0
 2371 059a FE00     		.short	254
 2372 059c FE00     		.short	254
 2373 059e 0000     		.short	0
 2374 05a0 0000     		.short	0
 2375 05a2 0000     		.short	0
 2376 05a4 0000     		.short	0
 2377 05a6 FC00     		.short	252
 2378 05a8 FE00     		.short	254
 2379 05aa FC00     		.short	252
 2380 05ac 0000     		.short	0
 2381 05ae 1800     		.short	24
 2382 05b0 3C00     		.short	60
 2383 05b2 7E00     		.short	126
 2384 05b4 6600     		.short	102
 2385 05b6 E600     		.short	230
 2386 05b8 CE00     		.short	206
 2387 05ba 8400     		.short	132
 2388 05bc 0000     		.short	0
 2389 05be 0000     		.short	0
 2390 05c0 0600     		.short	6
 2391 05c2 FF00     		.short	255
 2392 05c4 FF00     		.short	255
 2393 05c6 0600     		.short	6
 2394 05c8 0600     		.short	6
 2395 05ca FC00     		.short	252
 2396 05cc FE00     		.short	254
 2397 05ce FC00     		.short	252
 2398 05d0 0C00     		.short	12
 2399 05d2 0600     		.short	6
ARM GAS  C:\Users\username\AppData\Local\Temp\cc1E6INQ.s 			page 54


 2400 05d4 0600     		.short	6
 2401 05d6 0600     		.short	6
 2402 05d8 0000     		.short	0
 2403 05da 0000     		.short	0
 2404 05dc FE00     		.short	254
 2405 05de FE00     		.short	254
 2406 05e0 0000     		.short	0
 2407 05e2 0000     		.short	0
 2408 05e4 C000     		.short	192
 2409 05e6 F800     		.short	248
 2410 05e8 FC00     		.short	252
 2411 05ea 4E00     		.short	78
 2412 05ec 4600     		.short	70
 2413 05ee 4600     		.short	70
 2414 05f0 4600     		.short	70
 2415 05f2 4E00     		.short	78
 2416 05f4 7C00     		.short	124
 2417 05f6 7800     		.short	120
 2418 05f8 4000     		.short	64
 2419 05fa 1800     		.short	24
 2420 05fc 3C00     		.short	60
 2421 05fe 7600     		.short	118
 2422 0600 E600     		.short	230
 2423 0602 CE00     		.short	206
 2424 0604 CC00     		.short	204
 2425 0606 8000     		.short	128
 2426 0608 0000     		.short	0
 2427 060a 0000     		.short	0
 2428 060c 0000     		.short	0
 2429 060e 0000     		.short	0
 2430 0610 0000     		.short	0
 2431 0612 0000     		.short	0
 2432 0614 0000     		.short	0
 2433 0616 0000     		.short	0
 2434 0618 0000     		.short	0
 2435 061a 0000     		.short	0
 2436 061c 0000     		.short	0
 2437 061e 0000     		.short	0
 2438 0620 0000     		.short	0
 2439 0622 0000     		.short	0
 2440 0624 0000     		.short	0
 2441 0626 0000     		.short	0
 2442 0628 0000     		.short	0
 2443 062a 0000     		.short	0
 2444 062c 0000     		.short	0
 2445 062e 0000     		.short	0
 2446 0630 0100     		.short	1
 2447 0632 0700     		.short	7
 2448 0634 0F00     		.short	15
 2449 0636 1F00     		.short	31
 2450 0638 1F00     		.short	31
 2451 063a 3F00     		.short	63
 2452 063c 3F00     		.short	63
 2453 063e 3F00     		.short	63
 2454 0640 3F00     		.short	63
 2455 0642 1F00     		.short	31
 2456 0644 0F00     		.short	15
ARM GAS  C:\Users\username\AppData\Local\Temp\cc1E6INQ.s 			page 55


 2457 0646 0300     		.short	3
 2458 0648 0000     		.short	0
 2459 064a 0000     		.short	0
 2460 064c 0000     		.short	0
 2461 064e 0000     		.short	0
 2462 0650 0000     		.short	0
 2463 0652 0000     		.short	0
 2464 0654 0000     		.short	0
 2465 0656 0000     		.short	0
 2466 0658 0000     		.short	0
 2467 065a 0000     		.short	0
 2468 065c 0000     		.short	0
 2469 065e 0000     		.short	0
 2470 0660 0F00     		.short	15
 2471 0662 0F00     		.short	15
 2472 0664 0000     		.short	0
 2473 0666 0000     		.short	0
 2474 0668 0000     		.short	0
 2475 066a 0F00     		.short	15
 2476 066c 0F00     		.short	15
 2477 066e 0F00     		.short	15
 2478 0670 0000     		.short	0
 2479 0672 0000     		.short	0
 2480 0674 0000     		.short	0
 2481 0676 0000     		.short	0
 2482 0678 0F00     		.short	15
 2483 067a 0F00     		.short	15
 2484 067c 0000     		.short	0
 2485 067e 0000     		.short	0
 2486 0680 0300     		.short	3
 2487 0682 0700     		.short	7
 2488 0684 0E00     		.short	14
 2489 0686 0C00     		.short	12
 2490 0688 1800     		.short	24
 2491 068a 1800     		.short	24
 2492 068c 0C00     		.short	12
 2493 068e 0600     		.short	6
 2494 0690 0F00     		.short	15
 2495 0692 0F00     		.short	15
 2496 0694 0F00     		.short	15
 2497 0696 0000     		.short	0
 2498 0698 0000     		.short	0
 2499 069a 0100     		.short	1
 2500 069c 0F00     		.short	15
 2501 069e 0E00     		.short	14
 2502 06a0 0C00     		.short	12
 2503 06a2 1800     		.short	24
 2504 06a4 0C00     		.short	12
 2505 06a6 0F00     		.short	15
 2506 06a8 0700     		.short	7
 2507 06aa 0100     		.short	1
 2508 06ac 0000     		.short	0
 2509 06ae 0400     		.short	4
 2510 06b0 0E00     		.short	14
 2511 06b2 0C00     		.short	12
 2512 06b4 1800     		.short	24
 2513 06b6 0C00     		.short	12
ARM GAS  C:\Users\username\AppData\Local\Temp\cc1E6INQ.s 			page 56


 2514 06b8 0F00     		.short	15
 2515 06ba 0700     		.short	7
 2516 06bc 0000     		.short	0
 2517 06be 0000     		.short	0
 2518 06c0 0000     		.short	0
 2519 06c2 0F00     		.short	15
 2520 06c4 0F00     		.short	15
 2521 06c6 0000     		.short	0
 2522 06c8 0000     		.short	0
 2523 06ca 0F00     		.short	15
 2524 06cc 0F00     		.short	15
 2525 06ce 0F00     		.short	15
 2526 06d0 0000     		.short	0
 2527 06d2 0000     		.short	0
 2528 06d4 0000     		.short	0
 2529 06d6 0000     		.short	0
 2530 06d8 0000     		.short	0
 2531 06da 0000     		.short	0
 2532 06dc 0F00     		.short	15
 2533 06de 0F00     		.short	15
 2534 06e0 0000     		.short	0
 2535 06e2 0000     		.short	0
 2536 06e4 0000     		.short	0
 2537 06e6 0700     		.short	7
 2538 06e8 0700     		.short	7
 2539 06ea 0C00     		.short	12
 2540 06ec 0C00     		.short	12
 2541 06ee 1800     		.short	24
 2542 06f0 1C00     		.short	28
 2543 06f2 0C00     		.short	12
 2544 06f4 0600     		.short	6
 2545 06f6 0600     		.short	6
 2546 06f8 0000     		.short	0
 2547 06fa 0400     		.short	4
 2548 06fc 0E00     		.short	14
 2549 06fe 0C00     		.short	12
 2550 0700 1800     		.short	24
 2551 0702 0C00     		.short	12
 2552 0704 0F00     		.short	15
 2553 0706 0700     		.short	7
 2554 0708 0000     		.short	0
 2555 070a 0000     		.short	0
 2556 070c 0000     		.short	0
 2557 070e 0000     		.short	0
 2558 0710 0000     		.short	0
 2559 0712 0000     		.short	0
 2560 0714 0000     		.short	0
 2561 0716 0000     		.short	0
 2562 0718 0000     		.short	0
 2563 071a 0000     		.short	0
 2564 071c 0000     		.short	0
 2565 071e 0000     		.short	0
 2566 0720 0000     		.short	0
 2567 0722 0000     		.short	0
 2568 0724 0000     		.short	0
 2569 0726 0000     		.short	0
 2570 0728 0000     		.short	0
ARM GAS  C:\Users\username\AppData\Local\Temp\cc1E6INQ.s 			page 57


 2571 072a 0000     		.short	0
 2572 072c 0000     		.short	0
 2573 072e 0000     		.short	0
 2574 0730 0000     		.short	0
 2575 0732 0000     		.short	0
 2576 0734 0000     		.short	0
 2577 0736 0000     		.short	0
 2578 0738 0000     		.short	0
 2579 073a 0000     		.short	0
 2580 073c 0000     		.short	0
 2581 073e 0000     		.short	0
 2582 0740 0000     		.short	0
 2583 0742 0000     		.short	0
 2584 0744 0000     		.short	0
 2585 0746 0000     		.short	0
 2586 0748 0000     		.short	0
 2587 074a 0000     		.short	0
 2588 074c 0000     		.short	0
 2589 074e 0000     		.short	0
 2590 0750 0000     		.short	0
 2591 0752 0000     		.short	0
 2592 0754 0000     		.short	0
 2593 0756 0000     		.short	0
 2594 0758 0000     		.short	0
 2595 075a 0000     		.short	0
 2596 075c 0000     		.short	0
 2597 075e 0000     		.short	0
 2598 0760 0000     		.short	0
 2599 0762 0000     		.short	0
 2600 0764 0000     		.short	0
 2601 0766 0000     		.short	0
 2602 0768 0000     		.short	0
 2603 076a 0000     		.short	0
 2604 076c 0000     		.short	0
 2605 076e 0000     		.short	0
 2606 0770 0000     		.short	0
 2607 0772 0000     		.short	0
 2608 0774 0000     		.short	0
 2609 0776 0000     		.short	0
 2610 0778 0000     		.short	0
 2611 077a 0000     		.short	0
 2612 077c 0000     		.short	0
 2613 077e 0000     		.short	0
 2614 0780 0000     		.short	0
 2615 0782 0000     		.short	0
 2616 0784 0000     		.short	0
 2617 0786 0000     		.short	0
 2618 0788 0000     		.short	0
 2619 078a 0000     		.short	0
 2620 078c 0000     		.short	0
 2621 078e 0000     		.short	0
 2622 0790 0000     		.short	0
 2623 0792 0000     		.short	0
 2624 0794 0000     		.short	0
 2625 0796 0000     		.short	0
 2626 0798 0000     		.short	0
 2627 079a 0000     		.short	0
ARM GAS  C:\Users\username\AppData\Local\Temp\cc1E6INQ.s 			page 58


 2628 079c 0000     		.short	0
 2629 079e 0000     		.short	0
 2630 07a0 0000     		.short	0
 2631 07a2 0000     		.short	0
 2632 07a4 0000     		.short	0
 2633 07a6 0000     		.short	0
 2634 07a8 0000     		.short	0
 2635 07aa 0000     		.short	0
 2636 07ac 0000     		.short	0
 2637 07ae 0000     		.short	0
 2638 07b0 0000     		.short	0
 2639 07b2 0000     		.short	0
 2640 07b4 0000     		.short	0
 2641 07b6 0000     		.short	0
 2642 07b8 0000     		.short	0
 2643 07ba 0000     		.short	0
 2644 07bc 0000     		.short	0
 2645 07be 0000     		.short	0
 2646 07c0 0000     		.short	0
 2647 07c2 0000     		.short	0
 2648 07c4 0000     		.short	0
 2649 07c6 0000     		.short	0
 2650 07c8 0000     		.short	0
 2651 07ca 0000     		.short	0
 2652 07cc 0000     		.short	0
 2653 07ce 0000     		.short	0
 2654 07d0 0000     		.short	0
 2655 07d2 0000     		.short	0
 2656 07d4 0000     		.short	0
 2657 07d6 0000     		.short	0
 2658 07d8 0000     		.short	0
 2659 07da 0000     		.short	0
 2660 07dc 0000     		.short	0
 2661 07de 0000     		.short	0
 2662 07e0 0000     		.short	0
 2663 07e2 0000     		.short	0
 2664 07e4 0000     		.short	0
 2665 07e6 0000     		.short	0
 2666 07e8 0000     		.short	0
 2667 07ea 0000     		.short	0
 2668 07ec 0000     		.short	0
 2669 07ee 0000     		.short	0
 2670 07f0 0000     		.short	0
 2671 07f2 0000     		.short	0
 2672 07f4 0000     		.short	0
 2673 07f6 0000     		.short	0
 2674 07f8 0000     		.short	0
 2675 07fa 0000     		.short	0
 2676 07fc 0000     		.short	0
 2677 07fe 0000     		.short	0
 2678 0800 0000     		.short	0
 2679 0802 0000     		.short	0
 2680 0804 0000     		.short	0
 2681 0806 0000     		.short	0
 2682              		.bss
 2683              		.set	.LANCHOR1,. + 0
 2684              		.type	current_rotation, %object
ARM GAS  C:\Users\username\AppData\Local\Temp\cc1E6INQ.s 			page 59


 2685              		.size	current_rotation, 1
 2686              	current_rotation:
 2687 0000 00       		.space	1
 2688              		.text
 2689              	.Letext0:
 2690              		.file 2 "c:\\program files (x86)\\cypress\\psoc creator\\3.3\\psoc creator\\import\\gnu\\arm\\4.9.
 2691              		.file 3 "c:\\program files (x86)\\cypress\\psoc creator\\3.3\\psoc creator\\import\\gnu\\arm\\4.9.
 2692              		.file 4 "Generated_Source\\PSoC4/cytypes.h"
 2693              		.file 5 "Generated_Source\\PSoC4/BLE_1_Stack.h"
 2694              		.file 6 "Generated_Source\\PSoC4/BLE_1_eventHandler.h"
 2695              		.file 7 "Generated_Source\\PSoC4/I2C_bus_I2C.h"
 2696              		.file 8 "Generated_Source\\PSoC4/lcdReset.h"
 2697              		.file 9 "Generated_Source\\PSoC4/CyLib.h"