ARM GAS  C:\Users\username\AppData\Local\Temp\ccGdFOFP.s 			page 1


   1              		.cpu cortex-m0
   2              		.fpu softvfp
   3              		.eabi_attribute 20, 1
   4              		.eabi_attribute 21, 1
   5              		.eabi_attribute 23, 3
   6              		.eabi_attribute 24, 1
   7              		.eabi_attribute 25, 1
   8              		.eabi_attribute 26, 1
   9              		.eabi_attribute 30, 1
  10              		.eabi_attribute 34, 0
  11              		.eabi_attribute 18, 4
  12              		.code	16
  13              		.file	"BLEProcess.c"
  14              		.text
  15              	.Ltext0:
  16              		.cfi_sections	.debug_frame
  17              		.section	.text.UpdateRGBcharacteristic,"ax",%progbits
  18              		.align	2
  19              		.global	UpdateRGBcharacteristic
  20              		.code	16
  21              		.thumb_func
  22              		.type	UpdateRGBcharacteristic, %function
  23              	UpdateRGBcharacteristic:
  24              	.LFB36:
  25              		.file 1 ".\\BLEProcess.c"
   1:.\BLEProcess.c **** /******************************************************************************
   2:.\BLEProcess.c **** * Project Name		: AN91162
   3:.\BLEProcess.c **** * File Name			: BLEProcess.c
   4:.\BLEProcess.c **** * Version 			: 1.0
   5:.\BLEProcess.c **** * Device Used		: CY8C4247LQI-BL483
   6:.\BLEProcess.c **** * Software Used		: PSoC Creator 3.2
   7:.\BLEProcess.c **** * Compiler    		: ARM GCC 4.8.4, ARM MDK Generic
   8:.\BLEProcess.c **** * Related Hardware	: CY8CKIT-042-BLE Bluetooth Low Energy Pioneer Kit 
   9:.\BLEProcess.c **** * Owner             : ROIT
  10:.\BLEProcess.c **** *
  11:.\BLEProcess.c **** ********************************************************************************
  12:.\BLEProcess.c **** * Copyright (2014), Cypress Semiconductor Corporation. All Rights Reserved.
  13:.\BLEProcess.c **** ********************************************************************************
  14:.\BLEProcess.c **** * This software is owned by Cypress Semiconductor Corporation (Cypress)
  15:.\BLEProcess.c **** * and is protected by and subject to worldwide patent protection (United
  16:.\BLEProcess.c **** * States and foreign), United States copyright laws and international treaty
  17:.\BLEProcess.c **** * provisions. Cypress hereby grants to licensee a personal, non-exclusive,
  18:.\BLEProcess.c **** * non-transferable license to copy, use, modify, create derivative works of,
  19:.\BLEProcess.c **** * and compile the Cypress Source Code and derivative works for the sole
  20:.\BLEProcess.c **** * purpose of creating custom software in support of licensee product to be
  21:.\BLEProcess.c **** * used only in conjunction with a Cypress integrated circuit as specified in
  22:.\BLEProcess.c **** * the applicable agreement. Any reproduction, modification, translation,
  23:.\BLEProcess.c **** * compilation, or representation of this software except as specified above 
  24:.\BLEProcess.c **** * is prohibited without the express written permission of Cypress.
  25:.\BLEProcess.c **** *
  26:.\BLEProcess.c **** * Disclaimer: CYPRESS MAKES NO WARRANTY OF ANY KIND, EXPRESS OR IMPLIED, WITH 
  27:.\BLEProcess.c **** * REGARD TO THIS MATERIAL, INCLUDING, BUT NOT LIMITED TO, THE IMPLIED 
  28:.\BLEProcess.c **** * WARRANTIES OF MERCHANTABILITY AND FITNESS FOR A PARTICULAR PURPOSE.
  29:.\BLEProcess.c **** * Cypress reserves the right to make changes without further notice to the 
  30:.\BLEProcess.c **** * materials described herein. Cypress does not assume any liability arising out 
  31:.\BLEProcess.c **** * of the application or use of any product or circuit described herein. Cypress 
  32:.\BLEProcess.c **** * does not authorize its products for use as critical components in life-support 
ARM GAS  C:\Users\username\AppData\Local\Temp\ccGdFOFP.s 			page 2


  33:.\BLEProcess.c **** * systems where a malfunction or failure may reasonably be expected to result in 
  34:.\BLEProcess.c **** * significant injury to the user. The inclusion of Cypress' product in a life-
  35:.\BLEProcess.c **** * support systems application implies that the manufacturer assumes all risk of 
  36:.\BLEProcess.c **** * such use and in doing so indemnifies Cypress against all charges. 
  37:.\BLEProcess.c **** *
  38:.\BLEProcess.c **** * Use of this Software may be limited by and subject to the applicable Cypress
  39:.\BLEProcess.c **** * software license agreement. 
  40:.\BLEProcess.c **** *******************************************************************************/
  41:.\BLEProcess.c **** /*******************************************************************************
  42:.\BLEProcess.c **** * Contains function definitions for Event callback handler function for BLE 
  43:.\BLEProcess.c **** * events as well as updating RGB characteristic GATT DB
  44:.\BLEProcess.c **** *******************************************************************************/
  45:.\BLEProcess.c **** #include <main.h>
  46:.\BLEProcess.c **** 
  47:.\BLEProcess.c **** 
  48:.\BLEProcess.c **** 
  49:.\BLEProcess.c **** 
  50:.\BLEProcess.c **** 
  51:.\BLEProcess.c **** 
  52:.\BLEProcess.c **** /*******************************************************************************
  53:.\BLEProcess.c **** * Function Name: GeneralEventHandler
  54:.\BLEProcess.c **** ********************************************************************************
  55:.\BLEProcess.c **** * Summary:
  56:.\BLEProcess.c **** *        General callback event handler function for BLE component through which
  57:.\BLEProcess.c **** * application recieves various BLE events.
  58:.\BLEProcess.c **** *
  59:.\BLEProcess.c **** * Parameters:
  60:.\BLEProcess.c **** *  event:		event type. See "CYBLE_EVENT_T" structure in BLE_Stack.h
  61:.\BLEProcess.c **** *  eventParam: 	parameter associated with the event
  62:.\BLEProcess.c **** *
  63:.\BLEProcess.c **** * Return:
  64:.\BLEProcess.c **** *  void
  65:.\BLEProcess.c **** *
  66:.\BLEProcess.c **** *******************************************************************************/
  67:.\BLEProcess.c **** void GeneralEventHandler(uint32 event, void * eventParam)
  68:.\BLEProcess.c **** {
  69:.\BLEProcess.c **** 	/* Structure to store data written by Client */	
  70:.\BLEProcess.c **** 	CYBLE_GATTS_WRITE_REQ_PARAM_T *wrReqParam;
  71:.\BLEProcess.c **** 	
  72:.\BLEProcess.c **** 	/* 'RGBledData[]' is an array to store 4 bytes of RGB LED data*/
  73:.\BLEProcess.c **** 	uint8 RGBledData[RGB_CHAR_DATA_LEN];
  74:.\BLEProcess.c **** 	
  75:.\BLEProcess.c **** 	switch(event)
  76:.\BLEProcess.c ****     {
  77:.\BLEProcess.c **** 		case CYBLE_EVT_STACK_ON:
  78:.\BLEProcess.c **** 			/* BLE stack is on. Start BLE advertisement */
  79:.\BLEProcess.c **** 			CyBle_GappStartAdvertisement(CYBLE_ADVERTISING_FAST);
  80:.\BLEProcess.c **** 		break;
  81:.\BLEProcess.c **** 		
  82:.\BLEProcess.c **** 		case CYBLE_EVT_GAPP_ADVERTISEMENT_START_STOP:
  83:.\BLEProcess.c **** 			/* This event is generated whenever Advertisement starts or stops.
  84:.\BLEProcess.c **** 			* The exact state of advertisement is obtained by CyBle_State() */
  85:.\BLEProcess.c **** 			if(CyBle_GetState() == CYBLE_STATE_DISCONNECTED)
  86:.\BLEProcess.c **** 			{
  87:.\BLEProcess.c **** 				CyBle_GappStartAdvertisement(CYBLE_ADVERTISING_FAST);
  88:.\BLEProcess.c **** 			}
  89:.\BLEProcess.c **** 		break;
ARM GAS  C:\Users\username\AppData\Local\Temp\ccGdFOFP.s 			page 3


  90:.\BLEProcess.c **** 			
  91:.\BLEProcess.c **** 		case CYBLE_EVT_GAP_DEVICE_DISCONNECTED:
  92:.\BLEProcess.c **** 			/* This event is generated at GAP disconnection. 
  93:.\BLEProcess.c **** 			* Restart advertisement */
  94:.\BLEProcess.c **** 			CyBle_GappStartAdvertisement(CYBLE_ADVERTISING_FAST);
  95:.\BLEProcess.c **** 			break;
  96:.\BLEProcess.c **** 
  97:.\BLEProcess.c ****         case CYBLE_EVT_GATTS_WRITE_REQ: 
  98:.\BLEProcess.c **** 			/* This event is generated when the connected Central device sends a
  99:.\BLEProcess.c **** 			* Write request. The parameter contains the data written */
 100:.\BLEProcess.c **** 			
 101:.\BLEProcess.c **** 			/* Extract the Write data sent by Client */
 102:.\BLEProcess.c ****             wrReqParam = (CYBLE_GATTS_WRITE_REQ_PARAM_T *) eventParam;
 103:.\BLEProcess.c **** 			
 104:.\BLEProcess.c **** 			/* If the attribute handle of the characteristic written to 
 105:.\BLEProcess.c **** 			* is equal to that of RGB_LED characteristic, then extract 
 106:.\BLEProcess.c **** 			* the RGB LED data */
 107:.\BLEProcess.c **** 			if(CYBLE_CUSTOMSERVICE_TRANSMITDATA_CHAR_HANDLE == wrReqParam->handleValPair.attrHandle)
 108:.\BLEProcess.c ****             {
 109:.\BLEProcess.c **** 				/* Store RGB LED data in local array */
 110:.\BLEProcess.c ****                 RGBledData[RED_INDEX] = wrReqParam->handleValPair.value.val[RED_INDEX];
 111:.\BLEProcess.c ****                 RGBledData[GREEN_INDEX] = wrReqParam->handleValPair.value.val[GREEN_INDEX];
 112:.\BLEProcess.c ****                 RGBledData[BLUE_INDEX] = wrReqParam->handleValPair.value.val[BLUE_INDEX];
 113:.\BLEProcess.c ****                 RGBledData[INTENSITY_INDEX] = wrReqParam->handleValPair.value.val[INTENSITY_INDEX];
 114:.\BLEProcess.c ****                 
 115:.\BLEProcess.c **** 				/* Update the PrISM component density value to represent color */
 116:.\BLEProcess.c ****                 UpdateRGBLED(RGBledData, sizeof(RGBledData));
 117:.\BLEProcess.c **** 				
 118:.\BLEProcess.c **** 				/* Update the GATT DB for RGB LED read characteristics*/
 119:.\BLEProcess.c **** 				UpdateRGBcharacteristic(RGBledData, 
 120:.\BLEProcess.c **** 										sizeof(RGBledData), 
 121:.\BLEProcess.c **** 										CYBLE_CUSTOMSERVICE_TRANSMITDATA_CHAR_HANDLE );
 122:.\BLEProcess.c ****             }
 123:.\BLEProcess.c **** 			
 124:.\BLEProcess.c **** 			/* Send the response to the write request. */
 125:.\BLEProcess.c **** 			CyBle_GattsWriteRsp(cyBle_connHandle);
 126:.\BLEProcess.c **** 			
 127:.\BLEProcess.c **** 			break;
 128:.\BLEProcess.c **** 			
 129:.\BLEProcess.c **** 	    case CYBLE_EVT_GATT_DISCONNECT_IND:
 130:.\BLEProcess.c **** 			/* This event is generated at GATT disconnection */
 131:.\BLEProcess.c **** 			
 132:.\BLEProcess.c **** 			/* Reset the color values*/	
 133:.\BLEProcess.c **** 			RGBledData[RED_INDEX] = FALSE;
 134:.\BLEProcess.c **** 			RGBledData[GREEN_INDEX] = FALSE;
 135:.\BLEProcess.c **** 			RGBledData[BLUE_INDEX] = FALSE;
 136:.\BLEProcess.c ****             RGBledData[INTENSITY_INDEX] = FALSE;
 137:.\BLEProcess.c **** 			
 138:.\BLEProcess.c **** 			/* Switch off LEDs */
 139:.\BLEProcess.c **** 			UpdateRGBLED(RGBledData, sizeof(RGBledData));
 140:.\BLEProcess.c **** 			
 141:.\BLEProcess.c **** 			/* Register the new color in GATT DB*/			
 142:.\BLEProcess.c **** 			UpdateRGBcharacteristic(RGBledData, 
 143:.\BLEProcess.c **** 									sizeof(RGBledData),
 144:.\BLEProcess.c **** 									CYBLE_CUSTOMSERVICE_TRANSMITDATA_CHAR_HANDLE );
 145:.\BLEProcess.c ****             CyBle_GappStartAdvertisement(CYBLE_ADVERTISING_FAST);
 146:.\BLEProcess.c **** 			break;	
ARM GAS  C:\Users\username\AppData\Local\Temp\ccGdFOFP.s 			page 4


 147:.\BLEProcess.c **** 			
 148:.\BLEProcess.c ****         default:
 149:.\BLEProcess.c **** 
 150:.\BLEProcess.c ****        	break;
 151:.\BLEProcess.c ****     }   	
 152:.\BLEProcess.c **** }
 153:.\BLEProcess.c **** 
 154:.\BLEProcess.c **** 
 155:.\BLEProcess.c **** 
 156:.\BLEProcess.c **** 
 157:.\BLEProcess.c **** 
 158:.\BLEProcess.c **** /*******************************************************************************
 159:.\BLEProcess.c **** * Function Name: UpdateRGBcharacteristic
 160:.\BLEProcess.c **** ********************************************************************************
 161:.\BLEProcess.c **** * Summary:
 162:.\BLEProcess.c **** *        Update the GATT DB with new RGB Color received to allow Client to read 
 163:.\BLEProcess.c **** * back updated color values.
 164:.\BLEProcess.c **** *
 165:.\BLEProcess.c **** * Parameters:
 166:.\BLEProcess.c **** *  ledData:		array pointer where color value is stored
 167:.\BLEProcess.c **** *  len: 		length of the array
 168:.\BLEProcess.c **** *  attrHandle:	attribute handle of the characteristic
 169:.\BLEProcess.c **** *
 170:.\BLEProcess.c **** * Return:
 171:.\BLEProcess.c **** *  void
 172:.\BLEProcess.c **** *
 173:.\BLEProcess.c **** *******************************************************************************/
 174:.\BLEProcess.c **** void UpdateRGBcharacteristic(uint8* ledData, uint8 len, uint16 attrHandle)
 175:.\BLEProcess.c **** {
  26              		.loc 1 175 0
  27              		.cfi_startproc
  28              	.LVL0:
  29 0000 00B5     		push	{lr}
  30              		.cfi_def_cfa_offset 4
  31              		.cfi_offset 14, -4
  32 0002 85B0     		sub	sp, sp, #20
  33              		.cfi_def_cfa_offset 24
 176:.\BLEProcess.c **** 	/* 'rgbHandle' stores RGB control data parameters */
 177:.\BLEProcess.c **** 	CYBLE_GATT_HANDLE_VALUE_PAIR_T		rgbHandle;
 178:.\BLEProcess.c **** 
 179:.\BLEProcess.c **** 	/* Update RGB control handle with new values */
 180:.\BLEProcess.c **** 	rgbHandle.attrHandle = attrHandle;
  34              		.loc 1 180 0
  35 0004 01AB     		add	r3, sp, #4
  36 0006 1A81     		strh	r2, [r3, #8]
 181:.\BLEProcess.c **** 	rgbHandle.value.val = ledData;
  37              		.loc 1 181 0
  38 0008 0190     		str	r0, [sp, #4]
 182:.\BLEProcess.c **** 	rgbHandle.value.len = len;
  39              		.loc 1 182 0
  40 000a 9980     		strh	r1, [r3, #4]
 183:.\BLEProcess.c **** 	
 184:.\BLEProcess.c **** 	/* Update the RGB LED attribute value. This will allow 
 185:.\BLEProcess.c **** 	* Client device to read the existing color values over 
 186:.\BLEProcess.c **** 	* RGB LED characteristic */
 187:.\BLEProcess.c **** 	CyBle_GattsWriteAttributeValue(&rgbHandle, 
  41              		.loc 1 187 0
ARM GAS  C:\Users\username\AppData\Local\Temp\ccGdFOFP.s 			page 5


  42 000c 181C     		mov	r0, r3
  43              	.LVL1:
  44 000e 0021     		mov	r1, #0
  45              	.LVL2:
  46 0010 024A     		ldr	r2, .L2
  47              	.LVL3:
  48 0012 0023     		mov	r3, #0
  49 0014 FFF7FEFF 		bl	CyBle_GattsWriteAttributeValue
  50              	.LVL4:
 188:.\BLEProcess.c **** 									FALSE, 
 189:.\BLEProcess.c **** 									&cyBle_connHandle, 
 190:.\BLEProcess.c **** 									CYBLE_GATT_DB_LOCALLY_INITIATED);
 191:.\BLEProcess.c **** }
  51              		.loc 1 191 0
  52 0018 05B0     		add	sp, sp, #20
  53              		@ sp needed
  54 001a 00BD     		pop	{pc}
  55              	.L3:
  56              		.align	2
  57              	.L2:
  58 001c 00000000 		.word	cyBle_connHandle
  59              		.cfi_endproc
  60              	.LFE36:
  61              		.size	UpdateRGBcharacteristic, .-UpdateRGBcharacteristic
  62              		.section	.text.GeneralEventHandler,"ax",%progbits
  63              		.align	2
  64              		.global	GeneralEventHandler
  65              		.code	16
  66              		.thumb_func
  67              		.type	GeneralEventHandler, %function
  68              	GeneralEventHandler:
  69              	.LFB35:
  68:.\BLEProcess.c **** 	/* Structure to store data written by Client */	
  70              		.loc 1 68 0
  71              		.cfi_startproc
  72              	.LVL5:
  73 0000 10B5     		push	{r4, lr}
  74              		.cfi_def_cfa_offset 8
  75              		.cfi_offset 4, -8
  76              		.cfi_offset 14, -4
  77 0002 82B0     		sub	sp, sp, #8
  78              		.cfi_def_cfa_offset 16
  75:.\BLEProcess.c ****     {
  79              		.loc 1 75 0
  80 0004 2828     		cmp	r0, #40
  81 0006 16D0     		beq	.L6
  82 0008 04D8     		bhi	.L7
  83 000a 0128     		cmp	r0, #1
  84 000c 07D0     		beq	.L8
  85 000e 2628     		cmp	r0, #38
  86 0010 09D0     		beq	.L9
  87 0012 44E0     		b	.L4
  88              	.L7:
  89 0014 4228     		cmp	r0, #66
  90 0016 30D0     		beq	.L10
  91 0018 4C28     		cmp	r0, #76
  92 001a 10D0     		beq	.L11
ARM GAS  C:\Users\username\AppData\Local\Temp\ccGdFOFP.s 			page 6


  93 001c 3FE0     		b	.L4
  94              	.L8:
  79:.\BLEProcess.c **** 		break;
  95              		.loc 1 79 0
  96 001e 0020     		mov	r0, #0
  97              	.LVL6:
  98 0020 FFF7FEFF 		bl	CyBle_GappStartAdvertisement
  99              	.LVL7:
  80:.\BLEProcess.c **** 		
 100              		.loc 1 80 0
 101 0024 3BE0     		b	.L4
 102              	.LVL8:
 103              	.L9:
  85:.\BLEProcess.c **** 			{
 104              		.loc 1 85 0
 105 0026 1F4B     		ldr	r3, .L13
 106 0028 1B78     		ldrb	r3, [r3]
 107 002a 042B     		cmp	r3, #4
 108 002c 37D1     		bne	.L4
  87:.\BLEProcess.c **** 			}
 109              		.loc 1 87 0
 110 002e 0020     		mov	r0, #0
 111              	.LVL9:
 112 0030 FFF7FEFF 		bl	CyBle_GappStartAdvertisement
 113              	.LVL10:
 114 0034 33E0     		b	.L4
 115              	.LVL11:
 116              	.L6:
  94:.\BLEProcess.c **** 			break;
 117              		.loc 1 94 0
 118 0036 0020     		mov	r0, #0
 119              	.LVL12:
 120 0038 FFF7FEFF 		bl	CyBle_GappStartAdvertisement
 121              	.LVL13:
  95:.\BLEProcess.c **** 
 122              		.loc 1 95 0
 123 003c 2FE0     		b	.L4
 124              	.LVL14:
 125              	.L11:
 107:.\BLEProcess.c ****             {
 126              		.loc 1 107 0
 127 003e 8B89     		ldrh	r3, [r1, #12]
 128 0040 0E2B     		cmp	r3, #14
 129 0042 12D1     		bne	.L12
 110:.\BLEProcess.c ****                 RGBledData[GREEN_INDEX] = wrReqParam->handleValPair.value.val[GREEN_INDEX];
 130              		.loc 1 110 0
 131 0044 4B68     		ldr	r3, [r1, #4]
 132 0046 1A78     		ldrb	r2, [r3]
 133 0048 01AC     		add	r4, sp, #4
 134 004a 2270     		strb	r2, [r4]
 111:.\BLEProcess.c ****                 RGBledData[BLUE_INDEX] = wrReqParam->handleValPair.value.val[BLUE_INDEX];
 135              		.loc 1 111 0
 136 004c 5A78     		ldrb	r2, [r3, #1]
 137 004e 6270     		strb	r2, [r4, #1]
 112:.\BLEProcess.c ****                 RGBledData[INTENSITY_INDEX] = wrReqParam->handleValPair.value.val[INTENSITY_INDEX];
 138              		.loc 1 112 0
 139 0050 9A78     		ldrb	r2, [r3, #2]
ARM GAS  C:\Users\username\AppData\Local\Temp\ccGdFOFP.s 			page 7


 140 0052 A270     		strb	r2, [r4, #2]
 113:.\BLEProcess.c ****                 
 141              		.loc 1 113 0
 142 0054 DB78     		ldrb	r3, [r3, #3]
 143 0056 E370     		strb	r3, [r4, #3]
 116:.\BLEProcess.c **** 				
 144              		.loc 1 116 0
 145 0058 201C     		mov	r0, r4
 146              	.LVL15:
 147 005a 0421     		mov	r1, #4
 148              	.LVL16:
 149 005c FFF7FEFF 		bl	UpdateRGBLED
 150              	.LVL17:
 119:.\BLEProcess.c **** 										sizeof(RGBledData), 
 151              		.loc 1 119 0
 152 0060 201C     		mov	r0, r4
 153 0062 0421     		mov	r1, #4
 154 0064 0E22     		mov	r2, #14
 155 0066 FFF7FEFF 		bl	UpdateRGBcharacteristic
 156              	.LVL18:
 157              	.L12:
 125:.\BLEProcess.c **** 			
 158              		.loc 1 125 0
 159 006a 0F4A     		ldr	r2, .L13+4
 160 006c 1378     		ldrb	r3, [r2]
 161 006e 5078     		ldrb	r0, [r2, #1]
 162 0070 0002     		lsl	r0, r0, #8
 163 0072 1843     		orr	r0, r3
 164 0074 FFF7FEFF 		bl	CyBle_GattsWriteRsp
 165              	.LVL19:
 127:.\BLEProcess.c **** 			
 166              		.loc 1 127 0
 167 0078 11E0     		b	.L4
 168              	.LVL20:
 169              	.L10:
 133:.\BLEProcess.c **** 			RGBledData[GREEN_INDEX] = FALSE;
 170              		.loc 1 133 0
 171 007a 01AC     		add	r4, sp, #4
 172 007c 0023     		mov	r3, #0
 173 007e 2370     		strb	r3, [r4]
 134:.\BLEProcess.c **** 			RGBledData[BLUE_INDEX] = FALSE;
 174              		.loc 1 134 0
 175 0080 6370     		strb	r3, [r4, #1]
 135:.\BLEProcess.c ****             RGBledData[INTENSITY_INDEX] = FALSE;
 176              		.loc 1 135 0
 177 0082 A370     		strb	r3, [r4, #2]
 136:.\BLEProcess.c **** 			
 178              		.loc 1 136 0
 179 0084 E370     		strb	r3, [r4, #3]
 139:.\BLEProcess.c **** 			
 180              		.loc 1 139 0
 181 0086 201C     		mov	r0, r4
 182              	.LVL21:
 183 0088 0421     		mov	r1, #4
 184              	.LVL22:
 185 008a FFF7FEFF 		bl	UpdateRGBLED
 186              	.LVL23:
ARM GAS  C:\Users\username\AppData\Local\Temp\ccGdFOFP.s 			page 8


 142:.\BLEProcess.c **** 									sizeof(RGBledData),
 187              		.loc 1 142 0
 188 008e 201C     		mov	r0, r4
 189 0090 0421     		mov	r1, #4
 190 0092 0E22     		mov	r2, #14
 191 0094 FFF7FEFF 		bl	UpdateRGBcharacteristic
 192              	.LVL24:
 145:.\BLEProcess.c **** 			break;	
 193              		.loc 1 145 0
 194 0098 0020     		mov	r0, #0
 195 009a FFF7FEFF 		bl	CyBle_GappStartAdvertisement
 196              	.LVL25:
 197              	.L4:
 152:.\BLEProcess.c **** 
 198              		.loc 1 152 0
 199 009e 02B0     		add	sp, sp, #8
 200              		@ sp needed
 201 00a0 10BD     		pop	{r4, pc}
 202              	.L14:
 203 00a2 C046     		.align	2
 204              	.L13:
 205 00a4 00000000 		.word	cyBle_state
 206 00a8 00000000 		.word	cyBle_connHandle
 207              		.cfi_endproc
 208              	.LFE35:
 209              		.size	GeneralEventHandler, .-GeneralEventHandler
 210              		.comm	buffer,22,4
 211              		.comm	devAddr,1,1
 212              		.text
 213              	.Letext0:
 214              		.file 2 "c:\\program files (x86)\\cypress\\psoc creator\\3.3\\psoc creator\\import\\gnu\\arm\\4.9.
 215              		.file 3 "c:\\program files (x86)\\cypress\\psoc creator\\3.3\\psoc creator\\import\\gnu\\arm\\4.9.
 216              		.file 4 "Generated_Source\\PSoC4/cytypes.h"
 217              		.file 5 "Generated_Source\\PSoC4/BLE_Stack.h"
 218              		.file 6 "Generated_Source\\PSoC4/BLE_StackGatt.h"
 219              		.file 7 "Generated_Source\\PSoC4/BLE_StackGattServer.h"
 220              		.file 8 "Generated_Source\\PSoC4/BLE_eventHandler.h"
 221              		.file 9 "./mpu6050.h"
 222              		.file 10 "Generated_Source\\PSoC4/BLE_StackGattDb.h"
 223              		.file 11 "Generated_Source\\PSoC4/BLE.h"
 224              		.file 12 "./led.h"