ARM GAS  C:\Users\username\AppData\Local\Temp\ccpEPnp3.s 			page 1


   1              		.cpu cortex-m0
   2              		.fpu softvfp
   3              		.eabi_attribute 20, 1
   4              		.eabi_attribute 21, 1
   5              		.eabi_attribute 23, 3
   6              		.eabi_attribute 24, 1
   7              		.eabi_attribute 25, 1
   8              		.eabi_attribute 26, 1
   9              		.eabi_attribute 30, 1
  10              		.eabi_attribute 34, 0
  11              		.eabi_attribute 18, 4
  12              		.code	16
  13              		.file	"i2cFunctions.c"
  14              		.text
  15              	.Ltext0:
  16              		.cfi_sections	.debug_frame
  17              		.section	.text.I2CReadBytes,"ax",%progbits
  18              		.align	2
  19              		.global	I2CReadBytes
  20              		.code	16
  21              		.thumb_func
  22              		.type	I2CReadBytes, %function
  23              	I2CReadBytes:
  24              	.LFB35:
  25              		.file 1 ".\\i2cFunctions.c"
   1:.\i2cFunctions.c **** /* ========================================
   2:.\i2cFunctions.c ****  *
   3:.\i2cFunctions.c ****  * Copyright Samuel Walsh, 2014
   4:.\i2cFunctions.c ****  * All Rights Reserved
   5:.\i2cFunctions.c ****  * UNPUBLISHED, LICENSED SOFTWARE.
   6:.\i2cFunctions.c ****  *
   7:.\i2cFunctions.c ****  * CONFIDENTIAL AND PROPRIETARY INFORMATION
   8:.\i2cFunctions.c ****  * WHICH IS THE PROPERTY OF Samuel Walsh.
   9:.\i2cFunctions.c ****  *
  10:.\i2cFunctions.c ****  * ========================================
  11:.\i2cFunctions.c **** */
  12:.\i2cFunctions.c **** 
  13:.\i2cFunctions.c **** /* [] END OF FILE */
  14:.\i2cFunctions.c **** 
  15:.\i2cFunctions.c **** #include <project.h>
  16:.\i2cFunctions.c **** 
  17:.\i2cFunctions.c **** 
  18:.\i2cFunctions.c **** void I2CReadBytes(uint8_t devAddr, uint8_t regAddr, uint8_t length, uint8_t *value) {
  26              		.loc 1 18 0
  27              		.cfi_startproc
  28              	.LVL0:
  29 0000 F8B5     		push	{r3, r4, r5, r6, r7, lr}
  30              		.cfi_def_cfa_offset 24
  31              		.cfi_offset 3, -24
  32              		.cfi_offset 4, -20
  33              		.cfi_offset 5, -16
  34              		.cfi_offset 6, -12
  35              		.cfi_offset 7, -8
  36              		.cfi_offset 14, -4
  37 0002 041C     		mov	r4, r0
  38 0004 0E1C     		mov	r6, r1
  39 0006 171C     		mov	r7, r2
ARM GAS  C:\Users\username\AppData\Local\Temp\ccpEPnp3.s 			page 2


  40 0008 1D1C     		mov	r5, r3
  41              	.LVL1:
  19:.\i2cFunctions.c **** 	uint8_t i=0;
  20:.\i2cFunctions.c **** 	I2C_bus_I2CMasterSendStart(devAddr, I2C_bus_I2C_WRITE_XFER_MODE);
  42              		.loc 1 20 0
  43 000a 0021     		mov	r1, #0
  44              	.LVL2:
  45 000c FFF7FEFF 		bl	I2C_bus_I2CMasterSendStart
  46              	.LVL3:
  21:.\i2cFunctions.c **** 	I2C_bus_I2CMasterWriteByte(regAddr);
  47              		.loc 1 21 0
  48 0010 301C     		mov	r0, r6
  49 0012 FFF7FEFF 		bl	I2C_bus_I2CMasterWriteByte
  50              	.LVL4:
  22:.\i2cFunctions.c **** 	I2C_bus_I2CMasterSendRestart(devAddr, I2C_bus_I2C_READ_XFER_MODE);
  51              		.loc 1 22 0
  52 0016 201C     		mov	r0, r4
  53 0018 0121     		mov	r1, #1
  54 001a FFF7FEFF 		bl	I2C_bus_I2CMasterSendRestart
  55              	.LVL5:
  19:.\i2cFunctions.c **** 	uint8_t i=0;
  56              		.loc 1 19 0
  57 001e 0022     		mov	r2, #0
  23:.\i2cFunctions.c **** 	while (i++ < (length-1)) {
  58              		.loc 1 23 0
  59 0020 06E0     		b	.L2
  60              	.LVL6:
  61              	.L3:
  24:.\i2cFunctions.c **** 		*value++ = I2C_bus_I2CMasterReadByte(I2C_bus_I2C_ACK_DATA);
  62              		.loc 1 24 0
  63 0022 6E1C     		add	r6, r5, #1
  64              	.LVL7:
  65 0024 0020     		mov	r0, #0
  66 0026 FFF7FEFF 		bl	I2C_bus_I2CMasterReadByte
  67              	.LVL8:
  68 002a 2870     		strb	r0, [r5]
  23:.\i2cFunctions.c **** 	while (i++ < (length-1)) {
  69              		.loc 1 23 0
  70 002c 221C     		mov	r2, r4
  71              		.loc 1 24 0
  72 002e 351C     		mov	r5, r6
  73              	.LVL9:
  74              	.L2:
  23:.\i2cFunctions.c **** 	while (i++ < (length-1)) {
  75              		.loc 1 23 0
  76 0030 531C     		add	r3, r2, #1
  77 0032 DCB2     		uxtb	r4, r3
  78              	.LVL10:
  79 0034 7B1E     		sub	r3, r7, #1
  80 0036 9A42     		cmp	r2, r3
  81 0038 F3DB     		blt	.L3
  25:.\i2cFunctions.c **** 	}
  26:.\i2cFunctions.c **** 	*value = I2C_bus_I2CMasterReadByte(I2C_bus_I2C_NAK_DATA);
  82              		.loc 1 26 0
  83 003a 0120     		mov	r0, #1
  84 003c FFF7FEFF 		bl	I2C_bus_I2CMasterReadByte
  85              	.LVL11:
ARM GAS  C:\Users\username\AppData\Local\Temp\ccpEPnp3.s 			page 3


  86 0040 2870     		strb	r0, [r5]
  27:.\i2cFunctions.c **** 	I2C_bus_I2CMasterSendStop();	
  87              		.loc 1 27 0
  88 0042 FFF7FEFF 		bl	I2C_bus_I2CMasterSendStop
  89              	.LVL12:
  28:.\i2cFunctions.c **** }
  90              		.loc 1 28 0
  91              		@ sp needed
  92              	.LVL13:
  93              	.LVL14:
  94 0046 F8BD     		pop	{r3, r4, r5, r6, r7, pc}
  95              		.cfi_endproc
  96              	.LFE35:
  97              		.size	I2CReadBytes, .-I2CReadBytes
  98              		.section	.text.I2CReadByte,"ax",%progbits
  99              		.align	2
 100              		.global	I2CReadByte
 101              		.code	16
 102              		.thumb_func
 103              		.type	I2CReadByte, %function
 104              	I2CReadByte:
 105              	.LFB36:
  29:.\i2cFunctions.c **** 
  30:.\i2cFunctions.c **** void I2CReadByte(uint8_t devAddr, uint8_t regAddr, uint8_t *value) {
 106              		.loc 1 30 0
 107              		.cfi_startproc
 108              	.LVL15:
 109 0000 08B5     		push	{r3, lr}
 110              		.cfi_def_cfa_offset 8
 111              		.cfi_offset 3, -8
 112              		.cfi_offset 14, -4
 113 0002 131C     		mov	r3, r2
  31:.\i2cFunctions.c **** 	I2CReadBytes(devAddr, regAddr, 1, value);
 114              		.loc 1 31 0
 115 0004 0122     		mov	r2, #1
 116              	.LVL16:
 117 0006 FFF7FEFF 		bl	I2CReadBytes
 118              	.LVL17:
  32:.\i2cFunctions.c **** }
 119              		.loc 1 32 0
 120              		@ sp needed
 121 000a 08BD     		pop	{r3, pc}
 122              		.cfi_endproc
 123              	.LFE36:
 124              		.size	I2CReadByte, .-I2CReadByte
 125              		.section	.text.I2CReadBits,"ax",%progbits
 126              		.align	2
 127              		.global	I2CReadBits
 128              		.code	16
 129              		.thumb_func
 130              		.type	I2CReadBits, %function
 131              	I2CReadBits:
 132              	.LFB37:
  33:.\i2cFunctions.c **** 
  34:.\i2cFunctions.c **** void I2CReadBits(uint8_t devAddr, uint8_t regAddr, uint8_t bitStart, uint8_t length, uint8_t *value
 133              		.loc 1 34 0
 134              		.cfi_startproc
ARM GAS  C:\Users\username\AppData\Local\Temp\ccpEPnp3.s 			page 4


 135              	.LVL18:
 136 0000 F8B5     		push	{r3, r4, r5, r6, r7, lr}
 137              		.cfi_def_cfa_offset 24
 138              		.cfi_offset 3, -24
 139              		.cfi_offset 4, -20
 140              		.cfi_offset 5, -16
 141              		.cfi_offset 6, -12
 142              		.cfi_offset 7, -8
 143              		.cfi_offset 14, -4
 144 0002 069D     		ldr	r5, [sp, #24]
  35:.\i2cFunctions.c ****    	uint8_t mask = ((1 << length) - 1) << (bitStart - length + 1);
 145              		.loc 1 35 0
 146 0004 0126     		mov	r6, #1
 147 0006 9E40     		lsl	r6, r6, r3
 148 0008 013E     		sub	r6, r6, #1
 149 000a D41A     		sub	r4, r2, r3
 150 000c 671C     		add	r7, r4, #1
 151 000e BE40     		lsl	r6, r6, r7
 152 0010 F4B2     		uxtb	r4, r6
 153              	.LVL19:
  36:.\i2cFunctions.c ****     I2CReadByte(devAddr, regAddr, value);
 154              		.loc 1 36 0
 155 0012 2A1C     		mov	r2, r5
 156              	.LVL20:
 157 0014 FFF7FEFF 		bl	I2CReadByte
 158              	.LVL21:
  37:.\i2cFunctions.c ****     *value &= mask;
 159              		.loc 1 37 0
 160 0018 2B78     		ldrb	r3, [r5]
 161 001a 1C40     		and	r4, r3
 162              	.LVL22:
  38:.\i2cFunctions.c ****     *value >>= (bitStart - length + 1);
 163              		.loc 1 38 0
 164 001c 3C41     		asr	r4, r4, r7
 165 001e 2C70     		strb	r4, [r5]
  39:.\i2cFunctions.c **** }
 166              		.loc 1 39 0
 167              		@ sp needed
 168              	.LVL23:
 169 0020 F8BD     		pop	{r3, r4, r5, r6, r7, pc}
 170              		.cfi_endproc
 171              	.LFE37:
 172              		.size	I2CReadBits, .-I2CReadBits
 173 0022 C046     		.section	.text.I2CReadBit,"ax",%progbits
 174              		.align	2
 175              		.global	I2CReadBit
 176              		.code	16
 177              		.thumb_func
 178              		.type	I2CReadBit, %function
 179              	I2CReadBit:
 180              	.LFB38:
  40:.\i2cFunctions.c **** 
  41:.\i2cFunctions.c **** void I2CReadBit(uint8_t devAddr, uint8_t regAddr, uint8_t bitNum, uint8_t *value) {
 181              		.loc 1 41 0
 182              		.cfi_startproc
 183              	.LVL24:
 184 0000 38B5     		push	{r3, r4, r5, lr}
ARM GAS  C:\Users\username\AppData\Local\Temp\ccpEPnp3.s 			page 5


 185              		.cfi_def_cfa_offset 16
 186              		.cfi_offset 3, -16
 187              		.cfi_offset 4, -12
 188              		.cfi_offset 5, -8
 189              		.cfi_offset 14, -4
 190 0002 151C     		mov	r5, r2
 191 0004 1C1C     		mov	r4, r3
  42:.\i2cFunctions.c **** 	I2CReadByte(devAddr, regAddr, value);
 192              		.loc 1 42 0
 193 0006 1A1C     		mov	r2, r3
 194              	.LVL25:
 195 0008 FFF7FEFF 		bl	I2CReadByte
 196              	.LVL26:
  43:.\i2cFunctions.c **** 	*value = *value & (1 << bitNum);
 197              		.loc 1 43 0
 198 000c 2378     		ldrb	r3, [r4]
 199 000e 0122     		mov	r2, #1
 200 0010 AA40     		lsl	r2, r2, r5
 201 0012 1A40     		and	r2, r3
 202 0014 2270     		strb	r2, [r4]
  44:.\i2cFunctions.c **** }
 203              		.loc 1 44 0
 204              		@ sp needed
 205              	.LVL27:
 206 0016 38BD     		pop	{r3, r4, r5, pc}
 207              		.cfi_endproc
 208              	.LFE38:
 209              		.size	I2CReadBit, .-I2CReadBit
 210              		.section	.text.I2CWriteBytes,"ax",%progbits
 211              		.align	2
 212              		.global	I2CWriteBytes
 213              		.code	16
 214              		.thumb_func
 215              		.type	I2CWriteBytes, %function
 216              	I2CWriteBytes:
 217              	.LFB39:
  45:.\i2cFunctions.c **** 	
  46:.\i2cFunctions.c **** void I2CWriteBytes(uint8_t devAddr, uint8_t regAddr, uint8_t length, uint8_t *value) {
 218              		.loc 1 46 0
 219              		.cfi_startproc
 220              	.LVL28:
 221 0000 F8B5     		push	{r3, r4, r5, r6, r7, lr}
 222              		.cfi_def_cfa_offset 24
 223              		.cfi_offset 3, -24
 224              		.cfi_offset 4, -20
 225              		.cfi_offset 5, -16
 226              		.cfi_offset 6, -12
 227              		.cfi_offset 7, -8
 228              		.cfi_offset 14, -4
 229 0002 0C1C     		mov	r4, r1
 230 0004 171C     		mov	r7, r2
 231 0006 1D1C     		mov	r5, r3
 232              	.LVL29:
  47:.\i2cFunctions.c **** 	uint8_t i=0;
  48:.\i2cFunctions.c **** 	I2C_bus_I2CMasterSendStart(devAddr, I2C_bus_I2C_WRITE_XFER_MODE);
 233              		.loc 1 48 0
 234 0008 0021     		mov	r1, #0
ARM GAS  C:\Users\username\AppData\Local\Temp\ccpEPnp3.s 			page 6


 235              	.LVL30:
 236 000a FFF7FEFF 		bl	I2C_bus_I2CMasterSendStart
 237              	.LVL31:
  49:.\i2cFunctions.c **** 	I2C_bus_I2CMasterWriteByte(regAddr);
 238              		.loc 1 49 0
 239 000e 201C     		mov	r0, r4
 240 0010 FFF7FEFF 		bl	I2C_bus_I2CMasterWriteByte
 241              	.LVL32:
  47:.\i2cFunctions.c **** 	uint8_t i=0;
 242              		.loc 1 47 0
 243 0014 0022     		mov	r2, #0
  50:.\i2cFunctions.c **** 	while (i++ < length) {
 244              		.loc 1 50 0
 245 0016 05E0     		b	.L8
 246              	.LVL33:
 247              	.L9:
  51:.\i2cFunctions.c **** 		I2C_bus_I2CMasterWriteByte(*value++);
 248              		.loc 1 51 0
 249 0018 6E1C     		add	r6, r5, #1
 250              	.LVL34:
 251 001a 2878     		ldrb	r0, [r5]
 252 001c FFF7FEFF 		bl	I2C_bus_I2CMasterWriteByte
 253              	.LVL35:
  50:.\i2cFunctions.c **** 	while (i++ < length) {
 254              		.loc 1 50 0
 255 0020 221C     		mov	r2, r4
 256              		.loc 1 51 0
 257 0022 351C     		mov	r5, r6
 258              	.LVL36:
 259              	.L8:
  50:.\i2cFunctions.c **** 	while (i++ < length) {
 260              		.loc 1 50 0
 261 0024 531C     		add	r3, r2, #1
 262 0026 DCB2     		uxtb	r4, r3
 263              	.LVL37:
 264 0028 BA42     		cmp	r2, r7
 265 002a F5D3     		bcc	.L9
  52:.\i2cFunctions.c **** 	}
  53:.\i2cFunctions.c **** 	I2C_bus_I2CMasterSendStop();	
 266              		.loc 1 53 0
 267 002c FFF7FEFF 		bl	I2C_bus_I2CMasterSendStop
 268              	.LVL38:
  54:.\i2cFunctions.c **** }
 269              		.loc 1 54 0
 270              		@ sp needed
 271              	.LVL39:
 272              	.LVL40:
 273 0030 F8BD     		pop	{r3, r4, r5, r6, r7, pc}
 274              		.cfi_endproc
 275              	.LFE39:
 276              		.size	I2CWriteBytes, .-I2CWriteBytes
 277 0032 C046     		.section	.text.I2CWriteByte,"ax",%progbits
 278              		.align	2
 279              		.global	I2CWriteByte
 280              		.code	16
 281              		.thumb_func
 282              		.type	I2CWriteByte, %function
ARM GAS  C:\Users\username\AppData\Local\Temp\ccpEPnp3.s 			page 7


 283              	I2CWriteByte:
 284              	.LFB40:
  55:.\i2cFunctions.c **** 
  56:.\i2cFunctions.c **** void I2CWriteByte(uint8_t devAddr, uint8_t regAddr, uint8_t value) {
 285              		.loc 1 56 0
 286              		.cfi_startproc
 287              	.LVL41:
 288 0000 00B5     		push	{lr}
 289              		.cfi_def_cfa_offset 4
 290              		.cfi_offset 14, -4
 291 0002 83B0     		sub	sp, sp, #12
 292              		.cfi_def_cfa_offset 16
 293 0004 6B46     		mov	r3, sp
 294 0006 0733     		add	r3, r3, #7
 295 0008 1A70     		strb	r2, [r3]
  57:.\i2cFunctions.c **** 	I2CWriteBytes(devAddr, regAddr, 1, &value);
 296              		.loc 1 57 0
 297 000a 0122     		mov	r2, #1
 298              	.LVL42:
 299 000c FFF7FEFF 		bl	I2CWriteBytes
 300              	.LVL43:
  58:.\i2cFunctions.c **** }
 301              		.loc 1 58 0
 302 0010 03B0     		add	sp, sp, #12
 303              	.LVL44:
 304              		@ sp needed
 305 0012 00BD     		pop	{pc}
 306              		.cfi_endproc
 307              	.LFE40:
 308              		.size	I2CWriteByte, .-I2CWriteByte
 309              		.section	.text.I2CWriteBits,"ax",%progbits
 310              		.align	2
 311              		.global	I2CWriteBits
 312              		.code	16
 313              		.thumb_func
 314              		.type	I2CWriteBits, %function
 315              	I2CWriteBits:
 316              	.LFB41:
  59:.\i2cFunctions.c **** 
  60:.\i2cFunctions.c **** void I2CWriteBits(uint8_t devAddr, uint8_t regAddr, uint8_t bitStart, uint8_t length, uint8_t value
 317              		.loc 1 60 0
 318              		.cfi_startproc
 319              	.LVL45:
 320 0000 F0B5     		push	{r4, r5, r6, r7, lr}
 321              		.cfi_def_cfa_offset 20
 322              		.cfi_offset 4, -20
 323              		.cfi_offset 5, -16
 324              		.cfi_offset 6, -12
 325              		.cfi_offset 7, -8
 326              		.cfi_offset 14, -4
 327 0002 4F46     		mov	r7, r9
 328 0004 80B4     		push	{r7}
 329              		.cfi_def_cfa_offset 24
 330              		.cfi_offset 9, -24
 331 0006 84B0     		sub	sp, sp, #16
 332              		.cfi_def_cfa_offset 40
 333 0008 0091     		str	r1, [sp]
ARM GAS  C:\Users\username\AppData\Local\Temp\ccpEPnp3.s 			page 8


 334 000a 0AA9     		add	r1, sp, #40
 335              	.LVL46:
 336 000c 0C78     		ldrb	r4, [r1]
 337 000e A146     		mov	r9, r4
  61:.\i2cFunctions.c **** 	uint8_t b;
  62:.\i2cFunctions.c **** 	uint8_t mask = ((1 << length) - 1) << (bitStart - length + 1);
 338              		.loc 1 62 0
 339 0010 0124     		mov	r4, #1
 340 0012 9C40     		lsl	r4, r4, r3
 341 0014 013C     		sub	r4, r4, #1
 342 0016 D21A     		sub	r2, r2, r3
 343              	.LVL47:
 344 0018 571C     		add	r7, r2, #1
 345 001a BC40     		lsl	r4, r4, r7
 346 001c E6B2     		uxtb	r6, r4
 347              	.LVL48:
  63:.\i2cFunctions.c **** 	I2CReadByte(devAddr, regAddr, &b);
 348              		.loc 1 63 0
 349 001e 02AB     		add	r3, sp, #8
 350              	.LVL49:
 351 0020 DD1D     		add	r5, r3, #7
 352 0022 0190     		str	r0, [sp, #4]
 353 0024 0099     		ldr	r1, [sp]
 354              	.LVL50:
 355 0026 2A1C     		mov	r2, r5
 356 0028 FFF7FEFF 		bl	I2CReadByte
 357              	.LVL51:
  64:.\i2cFunctions.c **** 	value <<= (bitStart - length + 1);
 358              		.loc 1 64 0
 359 002c 4A46     		mov	r2, r9
 360 002e BA40     		lsl	r2, r2, r7
 361              	.LVL52:
  65:.\i2cFunctions.c **** 	value &= mask;
 362              		.loc 1 65 0
 363 0030 3240     		and	r2, r6
 364              	.LVL53:
  66:.\i2cFunctions.c **** 	b &= ~(mask);
 365              		.loc 1 66 0
 366 0032 2978     		ldrb	r1, [r5]
 367 0034 A143     		bic	r1, r4
  67:.\i2cFunctions.c **** 	b |= value;
 368              		.loc 1 67 0
 369 0036 0A43     		orr	r2, r1
 370              	.LVL54:
 371 0038 2A70     		strb	r2, [r5]
  68:.\i2cFunctions.c **** 	I2CWriteByte(devAddr, regAddr, b);	
 372              		.loc 1 68 0
 373 003a 0198     		ldr	r0, [sp, #4]
 374 003c 0099     		ldr	r1, [sp]
 375 003e FFF7FEFF 		bl	I2CWriteByte
 376              	.LVL55:
  69:.\i2cFunctions.c **** }
 377              		.loc 1 69 0
 378 0042 04B0     		add	sp, sp, #16
 379              		@ sp needed
 380              	.LVL56:
 381 0044 04BC     		pop	{r2}
ARM GAS  C:\Users\username\AppData\Local\Temp\ccpEPnp3.s 			page 9


 382 0046 9146     		mov	r9, r2
 383 0048 F0BD     		pop	{r4, r5, r6, r7, pc}
 384              		.cfi_endproc
 385              	.LFE41:
 386              		.size	I2CWriteBits, .-I2CWriteBits
 387 004a C046     		.section	.text.I2CWriteBit,"ax",%progbits
 388              		.align	2
 389              		.global	I2CWriteBit
 390              		.code	16
 391              		.thumb_func
 392              		.type	I2CWriteBit, %function
 393              	I2CWriteBit:
 394              	.LFB42:
  70:.\i2cFunctions.c **** 
  71:.\i2cFunctions.c **** void I2CWriteBit(uint8_t devAddr, uint8_t regAddr, uint8_t bitNum, uint8_t value) {
 395              		.loc 1 71 0
 396              		.cfi_startproc
 397              	.LVL57:
 398 0000 F0B5     		push	{r4, r5, r6, r7, lr}
 399              		.cfi_def_cfa_offset 20
 400              		.cfi_offset 4, -20
 401              		.cfi_offset 5, -16
 402              		.cfi_offset 6, -12
 403              		.cfi_offset 7, -8
 404              		.cfi_offset 14, -4
 405 0002 83B0     		sub	sp, sp, #12
 406              		.cfi_def_cfa_offset 32
 407 0004 051C     		mov	r5, r0
 408 0006 0C1C     		mov	r4, r1
 409 0008 161C     		mov	r6, r2
 410 000a 1F1C     		mov	r7, r3
  72:.\i2cFunctions.c **** 	uint8_t b;
  73:.\i2cFunctions.c **** 	I2CReadByte(devAddr, regAddr, &b);
 411              		.loc 1 73 0
 412 000c 6B46     		mov	r3, sp
 413              	.LVL58:
 414 000e DA1D     		add	r2, r3, #7
 415              	.LVL59:
 416 0010 FFF7FEFF 		bl	I2CReadByte
 417              	.LVL60:
  74:.\i2cFunctions.c **** 	b = (value != 0) ? (b | (1 << bitNum)) : (b & ~(1 << bitNum));
 418              		.loc 1 74 0
 419 0014 002F     		cmp	r7, #0
 420 0016 07D0     		beq	.L13
 421              		.loc 1 74 0 is_stmt 0 discriminator 1
 422 0018 0122     		mov	r2, #1
 423 001a B240     		lsl	r2, r2, r6
 424 001c 6B46     		mov	r3, sp
 425 001e 0733     		add	r3, r3, #7
 426 0020 1B78     		ldrb	r3, [r3]
 427 0022 1A43     		orr	r2, r3
 428 0024 D2B2     		uxtb	r2, r2
 429 0026 05E0     		b	.L14
 430              	.L13:
 431              		.loc 1 74 0 discriminator 2
 432 0028 0123     		mov	r3, #1
 433 002a B340     		lsl	r3, r3, r6
ARM GAS  C:\Users\username\AppData\Local\Temp\ccpEPnp3.s 			page 10


 434 002c 6A46     		mov	r2, sp
 435 002e 0732     		add	r2, r2, #7
 436 0030 1278     		ldrb	r2, [r2]
 437 0032 9A43     		bic	r2, r3
 438              	.L14:
 439              		.loc 1 74 0 discriminator 4
 440 0034 6B46     		mov	r3, sp
 441 0036 DA71     		strb	r2, [r3, #7]
  75:.\i2cFunctions.c **** 	I2CWriteByte(devAddr, regAddr, b);
 442              		.loc 1 75 0 is_stmt 1 discriminator 4
 443 0038 281C     		mov	r0, r5
 444 003a 211C     		mov	r1, r4
 445 003c FFF7FEFF 		bl	I2CWriteByte
 446              	.LVL61:
  76:.\i2cFunctions.c **** }
 447              		.loc 1 76 0 discriminator 4
 448 0040 03B0     		add	sp, sp, #12
 449              		@ sp needed
 450 0042 F0BD     		pop	{r4, r5, r6, r7, pc}
 451              		.cfi_endproc
 452              	.LFE42:
 453              		.size	I2CWriteBit, .-I2CWriteBit
 454              		.section	.text.I2CWriteWords,"ax",%progbits
 455              		.align	2
 456              		.global	I2CWriteWords
 457              		.code	16
 458              		.thumb_func
 459              		.type	I2CWriteWords, %function
 460              	I2CWriteWords:
 461              	.LFB43:
  77:.\i2cFunctions.c **** 
  78:.\i2cFunctions.c **** void I2CWriteWords(uint8_t devAddr, uint8_t regAddr, uint8_t length, uint16_t *value) {
 462              		.loc 1 78 0
 463              		.cfi_startproc
 464              	.LVL62:
 465 0000 F8B5     		push	{r3, r4, r5, r6, r7, lr}
 466              		.cfi_def_cfa_offset 24
 467              		.cfi_offset 3, -24
 468              		.cfi_offset 4, -20
 469              		.cfi_offset 5, -16
 470              		.cfi_offset 6, -12
 471              		.cfi_offset 7, -8
 472              		.cfi_offset 14, -4
 473 0002 0C1C     		mov	r4, r1
 474 0004 171C     		mov	r7, r2
 475 0006 1D1C     		mov	r5, r3
 476              	.LVL63:
  79:.\i2cFunctions.c **** 	uint8_t i=0;
  80:.\i2cFunctions.c **** 	I2C_bus_I2CMasterSendStart(devAddr, I2C_bus_I2C_WRITE_XFER_MODE);
 477              		.loc 1 80 0
 478 0008 0021     		mov	r1, #0
 479              	.LVL64:
 480 000a FFF7FEFF 		bl	I2C_bus_I2CMasterSendStart
 481              	.LVL65:
  81:.\i2cFunctions.c **** 	I2C_bus_I2CMasterWriteByte(regAddr);
 482              		.loc 1 81 0
 483 000e 201C     		mov	r0, r4
ARM GAS  C:\Users\username\AppData\Local\Temp\ccpEPnp3.s 			page 11


 484 0010 FFF7FEFF 		bl	I2C_bus_I2CMasterWriteByte
 485              	.LVL66:
  79:.\i2cFunctions.c **** 	uint8_t i=0;
 486              		.loc 1 79 0
 487 0014 0022     		mov	r2, #0
  82:.\i2cFunctions.c **** 	while (i++ < length) {
 488              		.loc 1 82 0
 489 0016 08E0     		b	.L16
 490              	.LVL67:
 491              	.L17:
  83:.\i2cFunctions.c **** 		I2C_bus_I2CMasterWriteByte(((uint8_t)*value) >> 8);
 492              		.loc 1 83 0
 493 0018 0020     		mov	r0, #0
 494 001a FFF7FEFF 		bl	I2C_bus_I2CMasterWriteByte
 495              	.LVL68:
  84:.\i2cFunctions.c **** 		I2C_bus_I2CMasterWriteByte((uint8_t)*value++);
 496              		.loc 1 84 0
 497 001e AE1C     		add	r6, r5, #2
 498              	.LVL69:
 499 0020 2878     		ldrb	r0, [r5]
 500 0022 FFF7FEFF 		bl	I2C_bus_I2CMasterWriteByte
 501              	.LVL70:
  82:.\i2cFunctions.c **** 	while (i++ < length) {
 502              		.loc 1 82 0
 503 0026 221C     		mov	r2, r4
 504              		.loc 1 84 0
 505 0028 351C     		mov	r5, r6
 506              	.LVL71:
 507              	.L16:
  82:.\i2cFunctions.c **** 	while (i++ < length) {
 508              		.loc 1 82 0
 509 002a 531C     		add	r3, r2, #1
 510 002c DCB2     		uxtb	r4, r3
 511              	.LVL72:
 512 002e BA42     		cmp	r2, r7
 513 0030 F2D3     		bcc	.L17
  85:.\i2cFunctions.c **** 	}
  86:.\i2cFunctions.c **** 	I2C_bus_I2CMasterSendStop();		
 514              		.loc 1 86 0
 515 0032 FFF7FEFF 		bl	I2C_bus_I2CMasterSendStop
 516              	.LVL73:
  87:.\i2cFunctions.c **** }
 517              		.loc 1 87 0
 518              		@ sp needed
 519              	.LVL74:
 520              	.LVL75:
 521 0036 F8BD     		pop	{r3, r4, r5, r6, r7, pc}
 522              		.cfi_endproc
 523              	.LFE43:
 524              		.size	I2CWriteWords, .-I2CWriteWords
 525              		.section	.text.I2CWriteWord,"ax",%progbits
 526              		.align	2
 527              		.global	I2CWriteWord
 528              		.code	16
 529              		.thumb_func
 530              		.type	I2CWriteWord, %function
 531              	I2CWriteWord:
ARM GAS  C:\Users\username\AppData\Local\Temp\ccpEPnp3.s 			page 12


 532              	.LFB44:
  88:.\i2cFunctions.c **** 
  89:.\i2cFunctions.c **** void I2CWriteWord(uint8_t devAddr, uint8_t regAddr, uint16_t value) {
 533              		.loc 1 89 0
 534              		.cfi_startproc
 535              	.LVL76:
 536 0000 00B5     		push	{lr}
 537              		.cfi_def_cfa_offset 4
 538              		.cfi_offset 14, -4
 539 0002 83B0     		sub	sp, sp, #12
 540              		.cfi_def_cfa_offset 16
 541 0004 6B46     		mov	r3, sp
 542 0006 0633     		add	r3, r3, #6
 543 0008 1A80     		strh	r2, [r3]
  90:.\i2cFunctions.c **** 	I2CWriteWords(devAddr, regAddr, 1, &value);
 544              		.loc 1 90 0
 545 000a 0122     		mov	r2, #1
 546              	.LVL77:
 547 000c FFF7FEFF 		bl	I2CWriteWords
 548              	.LVL78:
  91:.\i2cFunctions.c **** }...
 549              		.loc 1 91 0
 550 0010 03B0     		add	sp, sp, #12
 551              	.LVL79:
 552              		@ sp needed
 553 0012 00BD     		pop	{pc}
 554              		.cfi_endproc
 555              	.LFE44:
 556              		.size	I2CWriteWord, .-I2CWriteWord
 557              		.text
 558              	.Letext0:
 559              		.file 2 "c:\\program files (x86)\\cypress\\psoc creator\\3.3\\psoc creator\\import\\gnu\\arm\\4.9.
 560              		.file 3 "c:\\program files (x86)\\cypress\\psoc creator\\3.3\\psoc creator\\import\\gnu\\arm\\4.9.
 561              		.file 4 "Generated_Source\\PSoC4/cytypes.h"
 562              		.file 5 "Generated_Source\\PSoC4/I2C_bus_I2C.h"