ARM GAS  C:\Users\username\AppData\Local\Temp\ccax2kle.s 			page 1


   1              		.cpu cortex-m0
   2              		.fpu softvfp
   3              		.eabi_attribute 20, 1
   4              		.eabi_attribute 21, 1
   5              		.eabi_attribute 23, 3
   6              		.eabi_attribute 24, 1
   7              		.eabi_attribute 25, 1
   8              		.eabi_attribute 26, 1
   9              		.eabi_attribute 30, 1
  10              		.eabi_attribute 34, 0
  11              		.eabi_attribute 18, 4
  12              		.code	16
  13              		.file	"main.c"
  14              		.text
  15              	.Ltext0:
  16              		.cfi_sections	.debug_frame
  17              		.section	.text.TIMER_ISR,"ax",%progbits
  18              		.align	2
  19              		.global	TIMER_ISR
  20              		.code	16
  21              		.thumb_func
  22              		.type	TIMER_ISR, %function
  23              	TIMER_ISR:
  24              	.LFB35:
  25              		.file 1 ".\\main.c"
   1:.\main.c      **** /* ========================================
   2:.\main.c      ****  *
   3:.\main.c      ****  * Copyright YOUR COMPANY, THE YEAR
   4:.\main.c      ****  * All Rights Reserved
   5:.\main.c      ****  * UNPUBLISHED, LICENSED SOFTWARE.
   6:.\main.c      ****  *
   7:.\main.c      ****  * CONFIDENTIAL AND PROPRIETARY INFORMATION
   8:.\main.c      ****  * WHICH IS THE PROPERTY OF your company.
   9:.\main.c      ****  *
  10:.\main.c      ****  * ========================================
  11:.\main.c      **** */
  12:.\main.c      **** 
  13:.\main.c      **** #include<main.h>
  14:.\main.c      **** 
  15:.\main.c      **** 
  16:.\main.c      **** 
  17:.\main.c      **** #define numberOfTests 100
  18:.\main.c      **** int i = 0; //for loop increment variable
  19:.\main.c      ****    
  20:.\main.c      **** 
  21:.\main.c      ****    
  22:.\main.c      **** 
  23:.\main.c      **** 
  24:.\main.c      **** 
  25:.\main.c      **** uint16 fiveMicroSeconds_count = 0;
  26:.\main.c      **** CY_ISR(TIMER_ISR){
  26              		.loc 1 26 0
  27              		.cfi_startproc
  27:.\main.c      ****     fiveMicroSeconds_count++;
  28              		.loc 1 27 0
  29 0000 024A     		ldr	r2, .L2
  30 0002 1388     		ldrh	r3, [r2]
ARM GAS  C:\Users\username\AppData\Local\Temp\ccax2kle.s 			page 2


  31 0004 0133     		add	r3, r3, #1
  32 0006 1380     		strh	r3, [r2]
  28:.\main.c      **** }
  33              		.loc 1 28 0
  34              		@ sp needed
  35 0008 7047     		bx	lr
  36              	.L3:
  37 000a C046     		.align	2
  38              	.L2:
  39 000c 00000000 		.word	.LANCHOR0
  40              		.cfi_endproc
  41              	.LFE35:
  42              		.size	TIMER_ISR, .-TIMER_ISR
  43              		.section	.text.InitializeSystem,"ax",%progbits
  44              		.align	2
  45              		.global	InitializeSystem
  46              		.code	16
  47              		.thumb_func
  48              		.type	InitializeSystem, %function
  49              	InitializeSystem:
  50              	.LFB37:
  29:.\main.c      **** 
  30:.\main.c      **** 
  31:.\main.c      **** 
  32:.\main.c      **** int main()
  33:.\main.c      **** {
  34:.\main.c      ****     /* Start the components */
  35:.\main.c      **** 	InitializeSystem();
  36:.\main.c      ****     
  37:.\main.c      ****     CYBLE_GATT_HANDLE_VALUE_PAIR_T		TransmitDataHandle;
  38:.\main.c      ****     union FloatBytes ExampleData;
  39:.\main.c      ****     ExampleData.floats[0] = 0.000000;
  40:.\main.c      ****     ExampleData.floats[1] = 0.000000; 
  41:.\main.c      ****     
  42:.\main.c      ****     TransmitDataHandle.attrHandle = 0x000Eu; //CYBLE_CUSTOMSERVICE_TRANSMITDATA_CHAR_HANDLE in BLE_
  43:.\main.c      ****     TransmitDataHandle.value.val = ExampleData.bytes;
  44:.\main.c      **** 	TransmitDataHandle.value.len = 8;
  45:.\main.c      **** 
  46:.\main.c      ****     float incrementUp= 0.00;    
  47:.\main.c      ****     float incrementDown = 65000;
  48:.\main.c      ****     /* Place your initialization/startup code here (e.g. MyInst_Start()) */
  49:.\main.c      **** 
  50:.\main.c      ****     for(;;)
  51:.\main.c      ****     {   
  52:.\main.c      ****         CyBle_ProcessEvents();
  53:.\main.c      **** 
  54:.\main.c      ****          ExampleData.floats[0] = incrementUp;   //incrementer or something here
  55:.\main.c      ****          ExampleData.floats[1] = incrementDown;    //incrementer or something here
  56:.\main.c      **** 
  57:.\main.c      ****          incrementUp = incrementUp + 1.00;
  58:.\main.c      ****          incrementDown = incrementDown - 1.00;
  59:.\main.c      ****                     
  60:.\main.c      ****          CyBle_ProcessEvents();
  61:.\main.c      ****          TransmitDataHandle.value.val = ExampleData.bytes;
  62:.\main.c      ****          TransmitDataHandle.value.len = 8;
  63:.\main.c      ****         
  64:.\main.c      ****          CyBle_GattsWriteAttributeValue(&TransmitDataHandle, 
ARM GAS  C:\Users\username\AppData\Local\Temp\ccax2kle.s 			page 3


  65:.\main.c      **** 									FALSE, 
  66:.\main.c      **** 									&cyBle_connHandle, 
  67:.\main.c      **** 									CYBLE_GATT_DB_LOCALLY_INITIATED);
  68:.\main.c      ****          
  69:.\main.c      **** 
  70:.\main.c      ****          CyDelay(250);
  71:.\main.c      ****     }
  72:.\main.c      **** }
  73:.\main.c      **** 
  74:.\main.c      **** 
  75:.\main.c      **** 
  76:.\main.c      **** void InitializeSystem(void)
  77:.\main.c      **** {
  51              		.loc 1 77 0
  52              		.cfi_startproc
  53 0000 08B5     		push	{r3, lr}
  54              		.cfi_def_cfa_offset 8
  55              		.cfi_offset 3, -8
  56              		.cfi_offset 14, -4
  78:.\main.c      **** 	/* Enable Global Interrupt Mask */
  79:.\main.c      **** 	CyGlobalIntEnable;		
  57              		.loc 1 79 0
  58              	@ 79 ".\main.c" 1
  59 0002 62B6     		CPSIE   i
  60              	@ 0 "" 2
  80:.\main.c      ****     isr_1_StartEx(TIMER_ISR);
  61              		.loc 1 80 0
  62              		.code	16
  63 0004 0348     		ldr	r0, .L5
  64 0006 FFF7FEFF 		bl	isr_1_StartEx
  65              	.LVL0:
  81:.\main.c      **** 
  82:.\main.c      **** 	CyBle_Start(GeneralEventHandler);
  66              		.loc 1 82 0
  67 000a 0348     		ldr	r0, .L5+4
  68 000c FFF7FEFF 		bl	CyBle_Start
  69              	.LVL1:
  83:.\main.c      ****     
  84:.\main.c      ****     
  85:.\main.c      ****     
  86:.\main.c      ****     
  87:.\main.c      **** }
  70              		.loc 1 87 0
  71              		@ sp needed
  72 0010 08BD     		pop	{r3, pc}
  73              	.L6:
  74 0012 C046     		.align	2
  75              	.L5:
  76 0014 00000000 		.word	TIMER_ISR
  77 0018 00000000 		.word	GeneralEventHandler
  78              		.cfi_endproc
  79              	.LFE37:
  80              		.size	InitializeSystem, .-InitializeSystem
  81              		.global	__aeabi_fadd
  82              		.global	__aeabi_fsub
  83              		.section	.text.main,"ax",%progbits
  84              		.align	2
ARM GAS  C:\Users\username\AppData\Local\Temp\ccax2kle.s 			page 4


  85              		.global	main
  86              		.code	16
  87              		.thumb_func
  88              		.type	main, %function
  89              	main:
  90              	.LFB36:
  33:.\main.c      ****     /* Start the components */
  91              		.loc 1 33 0
  92              		.cfi_startproc
  93 0000 70B5     		push	{r4, r5, r6, lr}
  94              		.cfi_def_cfa_offset 16
  95              		.cfi_offset 4, -16
  96              		.cfi_offset 5, -12
  97              		.cfi_offset 6, -8
  98              		.cfi_offset 14, -4
  99 0002 86B0     		sub	sp, sp, #24
 100              		.cfi_def_cfa_offset 40
  35:.\main.c      ****     
 101              		.loc 1 35 0
 102 0004 FFF7FEFF 		bl	InitializeSystem
 103              	.LVL2:
  39:.\main.c      ****     ExampleData.floats[1] = 0.000000; 
 104              		.loc 1 39 0
 105 0008 01AA     		add	r2, sp, #4
 106 000a 0024     		mov	r4, #0
 107 000c 0194     		str	r4, [sp, #4]
  40:.\main.c      ****     
 108              		.loc 1 40 0
 109 000e 0294     		str	r4, [sp, #8]
  42:.\main.c      ****     TransmitDataHandle.value.val = ExampleData.bytes;
 110              		.loc 1 42 0
 111 0010 03AB     		add	r3, sp, #12
 112 0012 0E21     		mov	r1, #14
 113 0014 1981     		strh	r1, [r3, #8]
  43:.\main.c      **** 	TransmitDataHandle.value.len = 8;
 114              		.loc 1 43 0
 115 0016 0392     		str	r2, [sp, #12]
  44:.\main.c      **** 
 116              		.loc 1 44 0
 117 0018 0822     		mov	r2, #8
 118 001a 9A80     		strh	r2, [r3, #4]
 119              	.LVL3:
  47:.\main.c      ****     /* Place your initialization/startup code here (e.g. MyInst_Start()) */
 120              		.loc 1 47 0
 121 001c 104D     		ldr	r5, .L9
 122              	.LVL4:
 123              	.L8:
  52:.\main.c      **** 
 124              		.loc 1 52 0 discriminator 1
 125 001e FFF7FEFF 		bl	CyBle_ProcessEvents
 126              	.LVL5:
  54:.\main.c      ****          ExampleData.floats[1] = incrementDown;    //incrementer or something here
 127              		.loc 1 54 0 discriminator 1
 128 0022 01AE     		add	r6, sp, #4
 129 0024 0194     		str	r4, [sp, #4]
  55:.\main.c      **** 
 130              		.loc 1 55 0 discriminator 1
ARM GAS  C:\Users\username\AppData\Local\Temp\ccax2kle.s 			page 5


 131 0026 0295     		str	r5, [sp, #8]
  57:.\main.c      ****          incrementDown = incrementDown - 1.00;
 132              		.loc 1 57 0 discriminator 1
 133 0028 201C     		add	r0, r4, #0
 134 002a FE21     		mov	r1, #254
 135 002c 8905     		lsl	r1, r1, #22
 136 002e FFF7FEFF 		bl	__aeabi_fadd
 137              	.LVL6:
 138 0032 041C     		add	r4, r0, #0
 139              	.LVL7:
  58:.\main.c      ****                     
 140              		.loc 1 58 0 discriminator 1
 141 0034 281C     		add	r0, r5, #0
 142              	.LVL8:
 143 0036 FE21     		mov	r1, #254
 144 0038 8905     		lsl	r1, r1, #22
 145 003a FFF7FEFF 		bl	__aeabi_fsub
 146              	.LVL9:
 147 003e 051C     		add	r5, r0, #0
 148              	.LVL10:
  60:.\main.c      ****          TransmitDataHandle.value.val = ExampleData.bytes;
 149              		.loc 1 60 0 discriminator 1
 150 0040 FFF7FEFF 		bl	CyBle_ProcessEvents
 151              	.LVL11:
  61:.\main.c      ****          TransmitDataHandle.value.len = 8;
 152              		.loc 1 61 0 discriminator 1
 153 0044 03A8     		add	r0, sp, #12
 154 0046 0396     		str	r6, [sp, #12]
  62:.\main.c      ****         
 155              		.loc 1 62 0 discriminator 1
 156 0048 0823     		mov	r3, #8
 157 004a 8380     		strh	r3, [r0, #4]
  64:.\main.c      **** 									FALSE, 
 158              		.loc 1 64 0 discriminator 1
 159 004c 0021     		mov	r1, #0
 160 004e 054A     		ldr	r2, .L9+4
 161 0050 0023     		mov	r3, #0
 162 0052 FFF7FEFF 		bl	CyBle_GattsWriteAttributeValue
 163              	.LVL12:
  70:.\main.c      ****     }
 164              		.loc 1 70 0 discriminator 1
 165 0056 FA20     		mov	r0, #250
 166 0058 FFF7FEFF 		bl	CyDelay
 167              	.LVL13:
  71:.\main.c      **** }
 168              		.loc 1 71 0 discriminator 1
 169 005c DFE7     		b	.L8
 170              	.L10:
 171 005e C046     		.align	2
 172              	.L9:
 173 0060 00E87D47 		.word	1199433728
 174 0064 00000000 		.word	cyBle_connHandle
 175              		.cfi_endproc
 176              	.LFE36:
 177              		.size	main, .-main
 178              		.global	fiveMicroSeconds_count
 179              		.global	i
ARM GAS  C:\Users\username\AppData\Local\Temp\ccax2kle.s 			page 6


 180              		.comm	buffer,22,4
 181              		.comm	devAddr,1,1
 182              		.bss
 183              		.align	2
 184              		.set	.LANCHOR0,. + 0
 185              		.type	fiveMicroSeconds_count, %object
 186              		.size	fiveMicroSeconds_count, 2
 187              	fiveMicroSeconds_count:
 188 0000 0000     		.space	2
 189 0002 0000     		.space	2
 190              		.type	i, %object
 191              		.size	i, 4
 192              	i:
 193 0004 00000000 		.space	4
 194              		.text
 195              	.Letext0:
 196              		.file 2 "c:\\program files (x86)\\cypress\\psoc creator\\3.3\\psoc creator\\import\\gnu\\arm\\4.9.
 197              		.file 3 "c:\\program files (x86)\\cypress\\psoc creator\\3.3\\psoc creator\\import\\gnu\\arm\\4.9.
 198              		.file 4 "Generated_Source\\PSoC4/cytypes.h"
 199              		.file 5 "Generated_Source\\PSoC4/BLE_Stack.h"
 200              		.file 6 "Generated_Source\\PSoC4/BLE_StackGatt.h"
 201              		.file 7 "Generated_Source\\PSoC4/BLE.h"
 202              		.file 8 "./main.h"
 203              		.file 9 "Generated_Source\\PSoC4/BLE_eventHandler.h"
 204              		.file 10 "./mpu6050.h"
 205              		.file 11 "Generated_Source\\PSoC4/BLE_StackGattDb.h"
 206              		.file 12 "Generated_Source\\PSoC4/isr_1.h"
 207              		.file 13 "Generated_Source\\PSoC4/CyLib.h"