ARM GAS  C:\Users\username\AppData\Local\Temp\cca9Ol7c.s 			page 1


   1              		.cpu cortex-m0
   2              		.fpu softvfp
   3              		.eabi_attribute 20, 1
   4              		.eabi_attribute 21, 1
   5              		.eabi_attribute 23, 3
   6              		.eabi_attribute 24, 1
   7              		.eabi_attribute 25, 1
   8              		.eabi_attribute 26, 1
   9              		.eabi_attribute 30, 1
  10              		.eabi_attribute 34, 0
  11              		.eabi_attribute 18, 4
  12              		.code	16
  13              		.file	"mpu6050.c"
  14              		.text
  15              	.Ltext0:
  16              		.cfi_sections	.debug_frame
  17              		.section	.text.MPU6050_init,"ax",%progbits
  18              		.align	2
  19              		.global	MPU6050_init
  20              		.code	16
  21              		.thumb_func
  22              		.type	MPU6050_init, %function
  23              	MPU6050_init:
  24              	.LFB0:
  25              		.file 1 ".\\mpu6050.c"
   1:.\mpu6050.c   **** // I2Cdev library collection - MPU6050 I2C device class
   2:.\mpu6050.c   **** // Based on InvenSense MPU-6050 register map document rev. 2.0, 5/19/2011 (RM-MPU-6000A-00)
   3:.\mpu6050.c   **** // 8/24/2011 by Jeff Rowberg <jeff@rowberg.net>
   4:.\mpu6050.c   **** // Updates should (hopefully) always be available at https://github.com/jrowberg/i2cdevlib
   5:.\mpu6050.c   **** //
   6:.\mpu6050.c   **** // Changelog:
   7:.\mpu6050.c   **** // 26/May/2014: C version to be used on PSoC Creator (www.cypress.com) by Hernán Sánchez
   8:.\mpu6050.c   **** //     ... - ongoing debug release
   9:.\mpu6050.c   **** 
  10:.\mpu6050.c   **** // NOTE: THIS IS ONLY A PARIAL RELEASE. THIS DEVICE CLASS IS CURRENTLY UNDERGOING ACTIVE
  11:.\mpu6050.c   **** // DEVELOPMENT AND IS STILL MISSING SOME IMPORTANT FEATURES. PLEASE KEEP THIS IN MIND IF
  12:.\mpu6050.c   **** // YOU DECIDE TO USE THIS PARTICULAR CODE FOR ANYTHING.
  13:.\mpu6050.c   **** 
  14:.\mpu6050.c   **** /* ============================================
  15:.\mpu6050.c   **** I2Cdev device library code is placed under the MIT license
  16:.\mpu6050.c   **** Copyright (c) 2012 Jeff Rowberg
  17:.\mpu6050.c   **** 
  18:.\mpu6050.c   **** Permission is hereby granted, free of charge, to any person obtaining a copy
  19:.\mpu6050.c   **** of this software and associated documentation files (the "Software"), to deal
  20:.\mpu6050.c   **** in the Software without restriction, including without limitation the rights
  21:.\mpu6050.c   **** to use, copy, modify, merge, publish, distribute, sublicense, and/or sell
  22:.\mpu6050.c   **** copies of the Software, and to permit persons to whom the Software is
  23:.\mpu6050.c   **** furnished to do so, subject to the following conditions:
  24:.\mpu6050.c   **** 
  25:.\mpu6050.c   **** The above copyright notice and this permission notice shall be included in
  26:.\mpu6050.c   **** all copies or substantial portions of the Software.
  27:.\mpu6050.c   **** 
  28:.\mpu6050.c   **** THE SOFTWARE IS PROVIDED "AS IS", WITHOUT WARRANTY OF ANY KIND, EXPRESS OR
  29:.\mpu6050.c   **** IMPLIED, INCLUDING BUT NOT LIMITED TO THE WARRANTIES OF MERCHANTABILITY,
  30:.\mpu6050.c   **** FITNESS FOR A PARTICULAR PURPOSE AND NONINFRINGEMENT. IN NO EVENT SHALL THE
  31:.\mpu6050.c   **** AUTHORS OR COPYRIGHT HOLDERS BE LIABLE FOR ANY CLAIM, DAMAGES OR OTHER
  32:.\mpu6050.c   **** LIABILITY, WHETHER IN AN ACTION OF CONTRACT, TORT OR OTHERWISE, ARISING FROM,
ARM GAS  C:\Users\username\AppData\Local\Temp\cca9Ol7c.s 			page 2


  33:.\mpu6050.c   **** OUT OF OR IN CONNECTION WITH THE SOFTWARE OR THE USE OR OTHER DEALINGS IN
  34:.\mpu6050.c   **** THE SOFTWARE.
  35:.\mpu6050.c   **** ===============================================
  36:.\mpu6050.c   **** */
  37:.\mpu6050.c   **** 
  38:.\mpu6050.c   **** 
  39:.\mpu6050.c   **** #include <stdint.h>
  40:.\mpu6050.c   **** #include "mpu6050.h"
  41:.\mpu6050.c   **** 
  42:.\mpu6050.c   **** /** Default constructor, uses default I2C address.
  43:.\mpu6050.c   ****  * @see MPU6050_DEFAULT_ADDRESS
  44:.\mpu6050.c   ****  */
  45:.\mpu6050.c   **** void MPU6050_init() {
  26              		.loc 1 45 0
  27              		.cfi_startproc
  46:.\mpu6050.c   ****     devAddr = MPU6050_DEFAULT_ADDRESS;
  28              		.loc 1 46 0
  29 0000 6822     		mov	r2, #104
  30 0002 014B     		ldr	r3, .L2
  31 0004 1A70     		strb	r2, [r3]
  47:.\mpu6050.c   **** }
  32              		.loc 1 47 0
  33              		@ sp needed
  34 0006 7047     		bx	lr
  35              	.L3:
  36              		.align	2
  37              	.L2:
  38 0008 00000000 		.word	devAddr
  39              		.cfi_endproc
  40              	.LFE0:
  41              		.size	MPU6050_init, .-MPU6050_init
  42              		.section	.text.I2C_MPU6050_I2CAddress,"ax",%progbits
  43              		.align	2
  44              		.global	I2C_MPU6050_I2CAddress
  45              		.code	16
  46              		.thumb_func
  47              		.type	I2C_MPU6050_I2CAddress, %function
  48              	I2C_MPU6050_I2CAddress:
  49              	.LFB1:
  48:.\mpu6050.c   **** 
  49:.\mpu6050.c   **** /** Specific address constructor.
  50:.\mpu6050.c   ****  * @param address I2C address
  51:.\mpu6050.c   ****  * @see MPU6050_DEFAULT_ADDRESS
  52:.\mpu6050.c   ****  * @see MPU6050_ADDRESS_AD0_LOW
  53:.\mpu6050.c   ****  * @see MPU6050_ADDRESS_AD0_HIGH
  54:.\mpu6050.c   ****  */
  55:.\mpu6050.c   **** void I2C_MPU6050_I2CAddress(uint8_t address) {
  50              		.loc 1 55 0
  51              		.cfi_startproc
  52              	.LVL0:
  56:.\mpu6050.c   ****     devAddr = address;
  53              		.loc 1 56 0
  54 0000 014B     		ldr	r3, .L5
  55 0002 1870     		strb	r0, [r3]
  57:.\mpu6050.c   **** }
  56              		.loc 1 57 0
  57              		@ sp needed
ARM GAS  C:\Users\username\AppData\Local\Temp\cca9Ol7c.s 			page 3


  58 0004 7047     		bx	lr
  59              	.L6:
  60 0006 C046     		.align	2
  61              	.L5:
  62 0008 00000000 		.word	devAddr
  63              		.cfi_endproc
  64              	.LFE1:
  65              		.size	I2C_MPU6050_I2CAddress, .-I2C_MPU6050_I2CAddress
  66              		.section	.text.MPU6050_getAuxVDDIOLevel,"ax",%progbits
  67              		.align	2
  68              		.global	MPU6050_getAuxVDDIOLevel
  69              		.code	16
  70              		.thumb_func
  71              		.type	MPU6050_getAuxVDDIOLevel, %function
  72              	MPU6050_getAuxVDDIOLevel:
  73              	.LFB4:
  58:.\mpu6050.c   **** 
  59:.\mpu6050.c   **** /** Power on and prepare for general usage.
  60:.\mpu6050.c   ****  * This will activate the device and take it out of sleep mode (which must be done
  61:.\mpu6050.c   ****  * after start-up). This function also sets both the accelerometer and the gyroscope
  62:.\mpu6050.c   ****  * to their most sensitive settings, namely +/- 2g and +/- 250 degrees/sec, and sets
  63:.\mpu6050.c   ****  * the clock source to use the X Gyro for reference, which is slightly better than
  64:.\mpu6050.c   ****  * the default internal clock source.
  65:.\mpu6050.c   ****  */
  66:.\mpu6050.c   **** void MPU6050_initialize() {
  67:.\mpu6050.c   ****     MPU6050_setClockSource(MPU6050_CLOCK_PLL_XGYRO);
  68:.\mpu6050.c   ****     MPU6050_setFullScaleGyroRange(MPU6050_GYRO_FS_250);
  69:.\mpu6050.c   ****     MPU6050_setFullScaleAccelRange(MPU6050_ACCEL_FS_2);
  70:.\mpu6050.c   ****     MPU6050_setSleepEnabled(false); // thanks to Jack Elston for pointing this one out!
  71:.\mpu6050.c   **** }
  72:.\mpu6050.c   **** 
  73:.\mpu6050.c   **** /** Verify the I2C connection.
  74:.\mpu6050.c   ****  * Make sure the device is connected and responds as expected.
  75:.\mpu6050.c   ****  * @return True if connection is valid, false otherwise
  76:.\mpu6050.c   ****  */
  77:.\mpu6050.c   **** bool MPU6050_testConnection() {
  78:.\mpu6050.c   ****     return MPU6050_getDeviceID() == 0x34;
  79:.\mpu6050.c   **** }
  80:.\mpu6050.c   **** 
  81:.\mpu6050.c   **** // AUX_VDDIO register (InvenSense demo code calls this RA_*G_OFFS_TC)
  82:.\mpu6050.c   **** 
  83:.\mpu6050.c   **** /** Get the auxiliary I2C supply voltage level.
  84:.\mpu6050.c   ****  * When set to 1, the auxiliary I2C bus high logic level is VDD. When cleared to
  85:.\mpu6050.c   ****  * 0, the auxiliary I2C bus high logic level is VLOGIC. This does not apply to
  86:.\mpu6050.c   ****  * the MPU-6000, which does not have a VLOGIC pin.
  87:.\mpu6050.c   ****  * @return I2C supply voltage level (0=VLOGIC, 1=VDD)
  88:.\mpu6050.c   ****  */
  89:.\mpu6050.c   **** uint8_t MPU6050_getAuxVDDIOLevel() {
  74              		.loc 1 89 0
  75              		.cfi_startproc
  76 0000 10B5     		push	{r4, lr}
  77              		.cfi_def_cfa_offset 8
  78              		.cfi_offset 4, -8
  79              		.cfi_offset 14, -4
  90:.\mpu6050.c   ****     I2CReadBit(devAddr, MPU6050_RA_YG_OFFS_TC, MPU6050_TC_PWR_MODE_BIT, buffer);
  80              		.loc 1 90 0
  81 0002 054B     		ldr	r3, .L8
ARM GAS  C:\Users\username\AppData\Local\Temp\cca9Ol7c.s 			page 4


  82 0004 1878     		ldrb	r0, [r3]
  83 0006 054C     		ldr	r4, .L8+4
  84 0008 0121     		mov	r1, #1
  85 000a 0722     		mov	r2, #7
  86 000c 231C     		mov	r3, r4
  87 000e FFF7FEFF 		bl	I2CReadBit
  88              	.LVL1:
  91:.\mpu6050.c   ****     return buffer[0];
  89              		.loc 1 91 0
  90 0012 2078     		ldrb	r0, [r4]
  92:.\mpu6050.c   **** }
  91              		.loc 1 92 0
  92              		@ sp needed
  93 0014 10BD     		pop	{r4, pc}
  94              	.L9:
  95 0016 C046     		.align	2
  96              	.L8:
  97 0018 00000000 		.word	devAddr
  98 001c 00000000 		.word	buffer
  99              		.cfi_endproc
 100              	.LFE4:
 101              		.size	MPU6050_getAuxVDDIOLevel, .-MPU6050_getAuxVDDIOLevel
 102              		.section	.text.MPU6050_setAuxVDDIOLevel,"ax",%progbits
 103              		.align	2
 104              		.global	MPU6050_setAuxVDDIOLevel
 105              		.code	16
 106              		.thumb_func
 107              		.type	MPU6050_setAuxVDDIOLevel, %function
 108              	MPU6050_setAuxVDDIOLevel:
 109              	.LFB5:
  93:.\mpu6050.c   **** /** Set the auxiliary I2C supply voltage level.
  94:.\mpu6050.c   ****  * When set to 1, the auxiliary I2C bus high logic level is VDD. When cleared to
  95:.\mpu6050.c   ****  * 0, the auxiliary I2C bus high logic level is VLOGIC. This does not apply to
  96:.\mpu6050.c   ****  * the MPU-6000, which does not have a VLOGIC pin.
  97:.\mpu6050.c   ****  * @param level I2C supply voltage level (0=VLOGIC, 1=VDD)
  98:.\mpu6050.c   ****  */
  99:.\mpu6050.c   **** void MPU6050_setAuxVDDIOLevel(uint8_t level) {
 110              		.loc 1 99 0
 111              		.cfi_startproc
 112              	.LVL2:
 113 0000 08B5     		push	{r3, lr}
 114              		.cfi_def_cfa_offset 8
 115              		.cfi_offset 3, -8
 116              		.cfi_offset 14, -4
 117 0002 031C     		mov	r3, r0
 100:.\mpu6050.c   ****     I2CWriteBit(devAddr, MPU6050_RA_YG_OFFS_TC, MPU6050_TC_PWR_MODE_BIT, level);
 118              		.loc 1 100 0
 119 0004 034A     		ldr	r2, .L11
 120 0006 1078     		ldrb	r0, [r2]
 121              	.LVL3:
 122 0008 0121     		mov	r1, #1
 123 000a 0722     		mov	r2, #7
 124 000c FFF7FEFF 		bl	I2CWriteBit
 125              	.LVL4:
 101:.\mpu6050.c   **** }
 126              		.loc 1 101 0
 127              		@ sp needed
ARM GAS  C:\Users\username\AppData\Local\Temp\cca9Ol7c.s 			page 5


 128 0010 08BD     		pop	{r3, pc}
 129              	.L12:
 130 0012 C046     		.align	2
 131              	.L11:
 132 0014 00000000 		.word	devAddr
 133              		.cfi_endproc
 134              	.LFE5:
 135              		.size	MPU6050_setAuxVDDIOLevel, .-MPU6050_setAuxVDDIOLevel
 136              		.section	.text.MPU6050_getRate,"ax",%progbits
 137              		.align	2
 138              		.global	MPU6050_getRate
 139              		.code	16
 140              		.thumb_func
 141              		.type	MPU6050_getRate, %function
 142              	MPU6050_getRate:
 143              	.LFB6:
 102:.\mpu6050.c   **** 
 103:.\mpu6050.c   **** // SMPLRT_DIV register
 104:.\mpu6050.c   **** 
 105:.\mpu6050.c   **** /** Get gyroscope output rate divider.
 106:.\mpu6050.c   ****  * The sensor register output, FIFO output, DMP sampling, Motion detection, Zero
 107:.\mpu6050.c   ****  * Motion detection, and Free Fall detection are all based on the Sample Rate.
 108:.\mpu6050.c   ****  * The Sample Rate is generated by dividing the gyroscope output rate by
 109:.\mpu6050.c   ****  * SMPLRT_DIV:
 110:.\mpu6050.c   ****  *
 111:.\mpu6050.c   ****  * Sample Rate = Gyroscope Output Rate / (1 + SMPLRT_DIV)
 112:.\mpu6050.c   ****  *
 113:.\mpu6050.c   ****  * where Gyroscope Output Rate = 8kHz when the DLPF is disabled (DLPF_CFG = 0 or
 114:.\mpu6050.c   ****  * 7), and 1kHz when the DLPF is enabled (see Register 26).
 115:.\mpu6050.c   ****  *
 116:.\mpu6050.c   ****  * Note: The accelerometer output rate is 1kHz. This means that for a Sample
 117:.\mpu6050.c   ****  * Rate greater than 1kHz, the same accelerometer sample may be output to the
 118:.\mpu6050.c   ****  * FIFO, DMP, and sensor registers more than once.
 119:.\mpu6050.c   ****  *
 120:.\mpu6050.c   ****  * For a diagram of the gyroscope and accelerometer signal paths, see Section 8
 121:.\mpu6050.c   ****  * of the MPU-6000/MPU-6050 Product Specification document.
 122:.\mpu6050.c   ****  *
 123:.\mpu6050.c   ****  * @return Current sample rate
 124:.\mpu6050.c   ****  * @see MPU6050_RA_SMPLRT_DIV
 125:.\mpu6050.c   ****  */
 126:.\mpu6050.c   **** uint8_t MPU6050_getRate() {
 144              		.loc 1 126 0
 145              		.cfi_startproc
 146 0000 10B5     		push	{r4, lr}
 147              		.cfi_def_cfa_offset 8
 148              		.cfi_offset 4, -8
 149              		.cfi_offset 14, -4
 127:.\mpu6050.c   ****     I2CReadByte(devAddr, MPU6050_RA_SMPLRT_DIV, buffer);
 150              		.loc 1 127 0
 151 0002 044B     		ldr	r3, .L14
 152 0004 1878     		ldrb	r0, [r3]
 153 0006 044C     		ldr	r4, .L14+4
 154 0008 1921     		mov	r1, #25
 155 000a 221C     		mov	r2, r4
 156 000c FFF7FEFF 		bl	I2CReadByte
 157              	.LVL5:
 128:.\mpu6050.c   ****     return buffer[0];
ARM GAS  C:\Users\username\AppData\Local\Temp\cca9Ol7c.s 			page 6


 158              		.loc 1 128 0
 159 0010 2078     		ldrb	r0, [r4]
 129:.\mpu6050.c   **** }
 160              		.loc 1 129 0
 161              		@ sp needed
 162 0012 10BD     		pop	{r4, pc}
 163              	.L15:
 164              		.align	2
 165              	.L14:
 166 0014 00000000 		.word	devAddr
 167 0018 00000000 		.word	buffer
 168              		.cfi_endproc
 169              	.LFE6:
 170              		.size	MPU6050_getRate, .-MPU6050_getRate
 171              		.section	.text.MPU6050_setRate,"ax",%progbits
 172              		.align	2
 173              		.global	MPU6050_setRate
 174              		.code	16
 175              		.thumb_func
 176              		.type	MPU6050_setRate, %function
 177              	MPU6050_setRate:
 178              	.LFB7:
 130:.\mpu6050.c   **** /** Set gyroscope sample rate divider.
 131:.\mpu6050.c   ****  * @param rate New sample rate divider
 132:.\mpu6050.c   ****  * @see getRate()
 133:.\mpu6050.c   ****  * @see MPU6050_RA_SMPLRT_DIV
 134:.\mpu6050.c   ****  */
 135:.\mpu6050.c   **** void MPU6050_setRate(uint8_t rate) {
 179              		.loc 1 135 0
 180              		.cfi_startproc
 181              	.LVL6:
 182 0000 08B5     		push	{r3, lr}
 183              		.cfi_def_cfa_offset 8
 184              		.cfi_offset 3, -8
 185              		.cfi_offset 14, -4
 186 0002 021C     		mov	r2, r0
 136:.\mpu6050.c   ****     I2CWriteByte(devAddr, MPU6050_RA_SMPLRT_DIV, rate);
 187              		.loc 1 136 0
 188 0004 024B     		ldr	r3, .L17
 189 0006 1878     		ldrb	r0, [r3]
 190              	.LVL7:
 191 0008 1921     		mov	r1, #25
 192 000a FFF7FEFF 		bl	I2CWriteByte
 193              	.LVL8:
 137:.\mpu6050.c   **** }
 194              		.loc 1 137 0
 195              		@ sp needed
 196 000e 08BD     		pop	{r3, pc}
 197              	.L18:
 198              		.align	2
 199              	.L17:
 200 0010 00000000 		.word	devAddr
 201              		.cfi_endproc
 202              	.LFE7:
 203              		.size	MPU6050_setRate, .-MPU6050_setRate
 204              		.section	.text.MPU6050_getExternalFrameSync,"ax",%progbits
 205              		.align	2
ARM GAS  C:\Users\username\AppData\Local\Temp\cca9Ol7c.s 			page 7


 206              		.global	MPU6050_getExternalFrameSync
 207              		.code	16
 208              		.thumb_func
 209              		.type	MPU6050_getExternalFrameSync, %function
 210              	MPU6050_getExternalFrameSync:
 211              	.LFB8:
 138:.\mpu6050.c   **** 
 139:.\mpu6050.c   **** // CONFIG register
 140:.\mpu6050.c   **** 
 141:.\mpu6050.c   **** /** Get external FSYNC configuration.
 142:.\mpu6050.c   ****  * Configures the external Frame Synchronization (FSYNC) pin sampling. An
 143:.\mpu6050.c   ****  * external signal connected to the FSYNC pin can be sampled by configuring
 144:.\mpu6050.c   ****  * EXT_SYNC_SET. Signal changes to the FSYNC pin are latched so that short
 145:.\mpu6050.c   ****  * strobes may be captured. The latched FSYNC signal will be sampled at the
 146:.\mpu6050.c   ****  * Sampling Rate, as defined in register 25. After sampling, the latch will
 147:.\mpu6050.c   ****  * reset to the current FSYNC signal state.
 148:.\mpu6050.c   ****  *
 149:.\mpu6050.c   ****  * The sampled value will be reported in place of the least significant bit in
 150:.\mpu6050.c   ****  * a sensor data register determined by the value of EXT_SYNC_SET according to
 151:.\mpu6050.c   ****  * the following table.
 152:.\mpu6050.c   ****  *
 153:.\mpu6050.c   ****  * <pre>
 154:.\mpu6050.c   ****  * EXT_SYNC_SET | FSYNC Bit Location
 155:.\mpu6050.c   ****  * -------------+-------------------
 156:.\mpu6050.c   ****  * 0            | Input disabled
 157:.\mpu6050.c   ****  * 1            | TEMP_OUT_L[0]
 158:.\mpu6050.c   ****  * 2            | GYRO_XOUT_L[0]
 159:.\mpu6050.c   ****  * 3            | GYRO_YOUT_L[0]
 160:.\mpu6050.c   ****  * 4            | GYRO_ZOUT_L[0]
 161:.\mpu6050.c   ****  * 5            | ACCEL_XOUT_L[0]
 162:.\mpu6050.c   ****  * 6            | ACCEL_YOUT_L[0]
 163:.\mpu6050.c   ****  * 7            | ACCEL_ZOUT_L[0]
 164:.\mpu6050.c   ****  * </pre>
 165:.\mpu6050.c   ****  *
 166:.\mpu6050.c   ****  * @return FSYNC configuration value
 167:.\mpu6050.c   ****  */
 168:.\mpu6050.c   **** uint8_t MPU6050_getExternalFrameSync() {
 212              		.loc 1 168 0
 213              		.cfi_startproc
 214 0000 10B5     		push	{r4, lr}
 215              		.cfi_def_cfa_offset 8
 216              		.cfi_offset 4, -8
 217              		.cfi_offset 14, -4
 218 0002 82B0     		sub	sp, sp, #8
 219              		.cfi_def_cfa_offset 16
 169:.\mpu6050.c   ****     I2CReadBits(devAddr, MPU6050_RA_CONFIG, MPU6050_CFG_EXT_SYNC_SET_BIT, MPU6050_CFG_EXT_SYNC_SET_
 220              		.loc 1 169 0
 221 0004 054B     		ldr	r3, .L20
 222 0006 1878     		ldrb	r0, [r3]
 223 0008 054C     		ldr	r4, .L20+4
 224 000a 0094     		str	r4, [sp]
 225 000c 1A21     		mov	r1, #26
 226 000e 0522     		mov	r2, #5
 227 0010 0323     		mov	r3, #3
 228 0012 FFF7FEFF 		bl	I2CReadBits
 229              	.LVL9:
 170:.\mpu6050.c   ****     return buffer[0];
ARM GAS  C:\Users\username\AppData\Local\Temp\cca9Ol7c.s 			page 8


 230              		.loc 1 170 0
 231 0016 2078     		ldrb	r0, [r4]
 171:.\mpu6050.c   **** }
 232              		.loc 1 171 0
 233 0018 02B0     		add	sp, sp, #8
 234              		@ sp needed
 235 001a 10BD     		pop	{r4, pc}
 236              	.L21:
 237              		.align	2
 238              	.L20:
 239 001c 00000000 		.word	devAddr
 240 0020 00000000 		.word	buffer
 241              		.cfi_endproc
 242              	.LFE8:
 243              		.size	MPU6050_getExternalFrameSync, .-MPU6050_getExternalFrameSync
 244              		.section	.text.MPU6050_setExternalFrameSync,"ax",%progbits
 245              		.align	2
 246              		.global	MPU6050_setExternalFrameSync
 247              		.code	16
 248              		.thumb_func
 249              		.type	MPU6050_setExternalFrameSync, %function
 250              	MPU6050_setExternalFrameSync:
 251              	.LFB9:
 172:.\mpu6050.c   **** /** Set external FSYNC configuration.
 173:.\mpu6050.c   ****  * @see getExternalFrameSync()
 174:.\mpu6050.c   ****  * @see MPU6050_RA_CONFIG
 175:.\mpu6050.c   ****  * @param sync New FSYNC configuration value
 176:.\mpu6050.c   ****  */
 177:.\mpu6050.c   **** void MPU6050_setExternalFrameSync(uint8_t sync) {
 252              		.loc 1 177 0
 253              		.cfi_startproc
 254              	.LVL10:
 255 0000 00B5     		push	{lr}
 256              		.cfi_def_cfa_offset 4
 257              		.cfi_offset 14, -4
 258 0002 83B0     		sub	sp, sp, #12
 259              		.cfi_def_cfa_offset 16
 178:.\mpu6050.c   ****     I2CWriteBits(devAddr, MPU6050_RA_CONFIG, MPU6050_CFG_EXT_SYNC_SET_BIT, MPU6050_CFG_EXT_SYNC_SET
 260              		.loc 1 178 0
 261 0004 054B     		ldr	r3, .L23
 262 0006 1B78     		ldrb	r3, [r3]
 263 0008 0090     		str	r0, [sp]
 264 000a 181C     		mov	r0, r3
 265              	.LVL11:
 266 000c 1A21     		mov	r1, #26
 267 000e 0522     		mov	r2, #5
 268 0010 0323     		mov	r3, #3
 269 0012 FFF7FEFF 		bl	I2CWriteBits
 270              	.LVL12:
 179:.\mpu6050.c   **** }
 271              		.loc 1 179 0
 272 0016 03B0     		add	sp, sp, #12
 273              		@ sp needed
 274 0018 00BD     		pop	{pc}
 275              	.L24:
 276 001a C046     		.align	2
 277              	.L23:
ARM GAS  C:\Users\username\AppData\Local\Temp\cca9Ol7c.s 			page 9


 278 001c 00000000 		.word	devAddr
 279              		.cfi_endproc
 280              	.LFE9:
 281              		.size	MPU6050_setExternalFrameSync, .-MPU6050_setExternalFrameSync
 282              		.section	.text.MPU6050_getDLPFMode,"ax",%progbits
 283              		.align	2
 284              		.global	MPU6050_getDLPFMode
 285              		.code	16
 286              		.thumb_func
 287              		.type	MPU6050_getDLPFMode, %function
 288              	MPU6050_getDLPFMode:
 289              	.LFB10:
 180:.\mpu6050.c   **** /** Get digital low-pass filter configuration.
 181:.\mpu6050.c   ****  * The DLPF_CFG parameter sets the digital low pass filter configuration. It
 182:.\mpu6050.c   ****  * also determines the internal sampling rate used by the device as shown in
 183:.\mpu6050.c   ****  * the table below.
 184:.\mpu6050.c   ****  *
 185:.\mpu6050.c   ****  * Note: The accelerometer output rate is 1kHz. This means that for a Sample
 186:.\mpu6050.c   ****  * Rate greater than 1kHz, the same accelerometer sample may be output to the
 187:.\mpu6050.c   ****  * FIFO, DMP, and sensor registers more than once.
 188:.\mpu6050.c   ****  *
 189:.\mpu6050.c   ****  * <pre>
 190:.\mpu6050.c   ****  *          |   ACCELEROMETER    |           GYROSCOPE
 191:.\mpu6050.c   ****  * DLPF_CFG | Bandwidth | Delay  | Bandwidth | Delay  | Sample Rate
 192:.\mpu6050.c   ****  * ---------+-----------+--------+-----------+--------+-------------
 193:.\mpu6050.c   ****  * 0        | 260Hz     | 0ms    | 256Hz     | 0.98ms | 8kHz
 194:.\mpu6050.c   ****  * 1        | 184Hz     | 2.0ms  | 188Hz     | 1.9ms  | 1kHz
 195:.\mpu6050.c   ****  * 2        | 94Hz      | 3.0ms  | 98Hz      | 2.8ms  | 1kHz
 196:.\mpu6050.c   ****  * 3        | 44Hz      | 4.9ms  | 42Hz      | 4.8ms  | 1kHz
 197:.\mpu6050.c   ****  * 4        | 21Hz      | 8.5ms  | 20Hz      | 8.3ms  | 1kHz
 198:.\mpu6050.c   ****  * 5        | 10Hz      | 13.8ms | 10Hz      | 13.4ms | 1kHz
 199:.\mpu6050.c   ****  * 6        | 5Hz       | 19.0ms | 5Hz       | 18.6ms | 1kHz
 200:.\mpu6050.c   ****  * 7        |   -- Reserved --   |   -- Reserved --   | Reserved
 201:.\mpu6050.c   ****  * </pre>
 202:.\mpu6050.c   ****  *
 203:.\mpu6050.c   ****  * @return DLFP configuration
 204:.\mpu6050.c   ****  * @see MPU6050_RA_CONFIG
 205:.\mpu6050.c   ****  * @see MPU6050_CFG_DLPF_CFG_BIT
 206:.\mpu6050.c   ****  * @see MPU6050_CFG_DLPF_CFG_LENGTH
 207:.\mpu6050.c   ****  */
 208:.\mpu6050.c   **** uint8_t MPU6050_getDLPFMode() {
 290              		.loc 1 208 0
 291              		.cfi_startproc
 292 0000 10B5     		push	{r4, lr}
 293              		.cfi_def_cfa_offset 8
 294              		.cfi_offset 4, -8
 295              		.cfi_offset 14, -4
 296 0002 82B0     		sub	sp, sp, #8
 297              		.cfi_def_cfa_offset 16
 209:.\mpu6050.c   ****     I2CReadBits(devAddr, MPU6050_RA_CONFIG, MPU6050_CFG_DLPF_CFG_BIT, MPU6050_CFG_DLPF_CFG_LENGTH, 
 298              		.loc 1 209 0
 299 0004 054B     		ldr	r3, .L26
 300 0006 1878     		ldrb	r0, [r3]
 301 0008 054C     		ldr	r4, .L26+4
 302 000a 0094     		str	r4, [sp]
 303 000c 1A21     		mov	r1, #26
 304 000e 0222     		mov	r2, #2
ARM GAS  C:\Users\username\AppData\Local\Temp\cca9Ol7c.s 			page 10


 305 0010 0323     		mov	r3, #3
 306 0012 FFF7FEFF 		bl	I2CReadBits
 307              	.LVL13:
 210:.\mpu6050.c   ****     return buffer[0];
 308              		.loc 1 210 0
 309 0016 2078     		ldrb	r0, [r4]
 211:.\mpu6050.c   **** }
 310              		.loc 1 211 0
 311 0018 02B0     		add	sp, sp, #8
 312              		@ sp needed
 313 001a 10BD     		pop	{r4, pc}
 314              	.L27:
 315              		.align	2
 316              	.L26:
 317 001c 00000000 		.word	devAddr
 318 0020 00000000 		.word	buffer
 319              		.cfi_endproc
 320              	.LFE10:
 321              		.size	MPU6050_getDLPFMode, .-MPU6050_getDLPFMode
 322              		.section	.text.MPU6050_setDLPFMode,"ax",%progbits
 323              		.align	2
 324              		.global	MPU6050_setDLPFMode
 325              		.code	16
 326              		.thumb_func
 327              		.type	MPU6050_setDLPFMode, %function
 328              	MPU6050_setDLPFMode:
 329              	.LFB11:
 212:.\mpu6050.c   **** /** Set digital low-pass filter configuration.
 213:.\mpu6050.c   ****  * @param mode New DLFP configuration setting
 214:.\mpu6050.c   ****  * @see getDLPFBandwidth()
 215:.\mpu6050.c   ****  * @see MPU6050_DLPF_BW_256
 216:.\mpu6050.c   ****  * @see MPU6050_RA_CONFIG
 217:.\mpu6050.c   ****  * @see MPU6050_CFG_DLPF_CFG_BIT
 218:.\mpu6050.c   ****  * @see MPU6050_CFG_DLPF_CFG_LENGTH
 219:.\mpu6050.c   ****  */
 220:.\mpu6050.c   **** void MPU6050_setDLPFMode(uint8_t mode) {
 330              		.loc 1 220 0
 331              		.cfi_startproc
 332              	.LVL14:
 333 0000 00B5     		push	{lr}
 334              		.cfi_def_cfa_offset 4
 335              		.cfi_offset 14, -4
 336 0002 83B0     		sub	sp, sp, #12
 337              		.cfi_def_cfa_offset 16
 221:.\mpu6050.c   ****     I2CWriteBits(devAddr, MPU6050_RA_CONFIG, MPU6050_CFG_DLPF_CFG_BIT, MPU6050_CFG_DLPF_CFG_LENGTH,
 338              		.loc 1 221 0
 339 0004 054B     		ldr	r3, .L29
 340 0006 1B78     		ldrb	r3, [r3]
 341 0008 0090     		str	r0, [sp]
 342 000a 181C     		mov	r0, r3
 343              	.LVL15:
 344 000c 1A21     		mov	r1, #26
 345 000e 0222     		mov	r2, #2
 346 0010 0323     		mov	r3, #3
 347 0012 FFF7FEFF 		bl	I2CWriteBits
 348              	.LVL16:
 222:.\mpu6050.c   **** }
ARM GAS  C:\Users\username\AppData\Local\Temp\cca9Ol7c.s 			page 11


 349              		.loc 1 222 0
 350 0016 03B0     		add	sp, sp, #12
 351              		@ sp needed
 352 0018 00BD     		pop	{pc}
 353              	.L30:
 354 001a C046     		.align	2
 355              	.L29:
 356 001c 00000000 		.word	devAddr
 357              		.cfi_endproc
 358              	.LFE11:
 359              		.size	MPU6050_setDLPFMode, .-MPU6050_setDLPFMode
 360              		.section	.text.MPU6050_getFullScaleGyroRange,"ax",%progbits
 361              		.align	2
 362              		.global	MPU6050_getFullScaleGyroRange
 363              		.code	16
 364              		.thumb_func
 365              		.type	MPU6050_getFullScaleGyroRange, %function
 366              	MPU6050_getFullScaleGyroRange:
 367              	.LFB12:
 223:.\mpu6050.c   **** 
 224:.\mpu6050.c   **** // GYRO_CONFIG register
 225:.\mpu6050.c   **** 
 226:.\mpu6050.c   **** /** Get full-scale gyroscope range.
 227:.\mpu6050.c   ****  * The FS_SEL parameter allows setting the full-scale range of the gyro sensors,
 228:.\mpu6050.c   ****  * as described in the table below.
 229:.\mpu6050.c   ****  *
 230:.\mpu6050.c   ****  * <pre>
 231:.\mpu6050.c   ****  * 0 = +/- 250 degrees/sec
 232:.\mpu6050.c   ****  * 1 = +/- 500 degrees/sec
 233:.\mpu6050.c   ****  * 2 = +/- 1000 degrees/sec
 234:.\mpu6050.c   ****  * 3 = +/- 2000 degrees/sec
 235:.\mpu6050.c   ****  * </pre>
 236:.\mpu6050.c   ****  *
 237:.\mpu6050.c   ****  * @return Current full-scale gyroscope range setting
 238:.\mpu6050.c   ****  * @see MPU6050_GYRO_FS_250
 239:.\mpu6050.c   ****  * @see MPU6050_RA_GYRO_CONFIG
 240:.\mpu6050.c   ****  * @see MPU6050_GCONFIG_FS_SEL_BIT
 241:.\mpu6050.c   ****  * @see MPU6050_GCONFIG_FS_SEL_LENGTH
 242:.\mpu6050.c   ****  */
 243:.\mpu6050.c   **** uint8_t MPU6050_getFullScaleGyroRange() {
 368              		.loc 1 243 0
 369              		.cfi_startproc
 370 0000 10B5     		push	{r4, lr}
 371              		.cfi_def_cfa_offset 8
 372              		.cfi_offset 4, -8
 373              		.cfi_offset 14, -4
 374 0002 82B0     		sub	sp, sp, #8
 375              		.cfi_def_cfa_offset 16
 244:.\mpu6050.c   ****     I2CReadBits(devAddr, MPU6050_RA_GYRO_CONFIG, MPU6050_GCONFIG_FS_SEL_BIT, MPU6050_GCONFIG_FS_SEL
 376              		.loc 1 244 0
 377 0004 054B     		ldr	r3, .L32
 378 0006 1878     		ldrb	r0, [r3]
 379 0008 054C     		ldr	r4, .L32+4
 380 000a 0094     		str	r4, [sp]
 381 000c 1B21     		mov	r1, #27
 382 000e 0422     		mov	r2, #4
 383 0010 0223     		mov	r3, #2
ARM GAS  C:\Users\username\AppData\Local\Temp\cca9Ol7c.s 			page 12


 384 0012 FFF7FEFF 		bl	I2CReadBits
 385              	.LVL17:
 245:.\mpu6050.c   ****     return buffer[0];
 386              		.loc 1 245 0
 387 0016 2078     		ldrb	r0, [r4]
 246:.\mpu6050.c   **** }
 388              		.loc 1 246 0
 389 0018 02B0     		add	sp, sp, #8
 390              		@ sp needed
 391 001a 10BD     		pop	{r4, pc}
 392              	.L33:
 393              		.align	2
 394              	.L32:
 395 001c 00000000 		.word	devAddr
 396 0020 00000000 		.word	buffer
 397              		.cfi_endproc
 398              	.LFE12:
 399              		.size	MPU6050_getFullScaleGyroRange, .-MPU6050_getFullScaleGyroRange
 400              		.section	.text.MPU6050_setFullScaleGyroRange,"ax",%progbits
 401              		.align	2
 402              		.global	MPU6050_setFullScaleGyroRange
 403              		.code	16
 404              		.thumb_func
 405              		.type	MPU6050_setFullScaleGyroRange, %function
 406              	MPU6050_setFullScaleGyroRange:
 407              	.LFB13:
 247:.\mpu6050.c   **** /** Set full-scale gyroscope range.
 248:.\mpu6050.c   ****  * @param range New full-scale gyroscope range value
 249:.\mpu6050.c   ****  * @see getFullScaleRange()
 250:.\mpu6050.c   ****  * @see MPU6050_GYRO_FS_250
 251:.\mpu6050.c   ****  * @see MPU6050_RA_GYRO_CONFIG
 252:.\mpu6050.c   ****  * @see MPU6050_GCONFIG_FS_SEL_BIT
 253:.\mpu6050.c   ****  * @see MPU6050_GCONFIG_FS_SEL_LENGTH
 254:.\mpu6050.c   ****  */
 255:.\mpu6050.c   **** void MPU6050_setFullScaleGyroRange(uint8_t range) {
 408              		.loc 1 255 0
 409              		.cfi_startproc
 410              	.LVL18:
 411 0000 00B5     		push	{lr}
 412              		.cfi_def_cfa_offset 4
 413              		.cfi_offset 14, -4
 414 0002 83B0     		sub	sp, sp, #12
 415              		.cfi_def_cfa_offset 16
 256:.\mpu6050.c   ****     I2CWriteBits(devAddr, MPU6050_RA_GYRO_CONFIG, MPU6050_GCONFIG_FS_SEL_BIT, MPU6050_GCONFIG_FS_SE
 416              		.loc 1 256 0
 417 0004 054B     		ldr	r3, .L35
 418 0006 1B78     		ldrb	r3, [r3]
 419 0008 0090     		str	r0, [sp]
 420 000a 181C     		mov	r0, r3
 421              	.LVL19:
 422 000c 1B21     		mov	r1, #27
 423 000e 0422     		mov	r2, #4
 424 0010 0223     		mov	r3, #2
 425 0012 FFF7FEFF 		bl	I2CWriteBits
 426              	.LVL20:
 257:.\mpu6050.c   **** }
 427              		.loc 1 257 0
ARM GAS  C:\Users\username\AppData\Local\Temp\cca9Ol7c.s 			page 13


 428 0016 03B0     		add	sp, sp, #12
 429              		@ sp needed
 430 0018 00BD     		pop	{pc}
 431              	.L36:
 432 001a C046     		.align	2
 433              	.L35:
 434 001c 00000000 		.word	devAddr
 435              		.cfi_endproc
 436              	.LFE13:
 437              		.size	MPU6050_setFullScaleGyroRange, .-MPU6050_setFullScaleGyroRange
 438              		.section	.text.MPU6050_getAccelXSelfTest,"ax",%progbits
 439              		.align	2
 440              		.global	MPU6050_getAccelXSelfTest
 441              		.code	16
 442              		.thumb_func
 443              		.type	MPU6050_getAccelXSelfTest, %function
 444              	MPU6050_getAccelXSelfTest:
 445              	.LFB14:
 258:.\mpu6050.c   **** 
 259:.\mpu6050.c   **** // ACCEL_CONFIG register
 260:.\mpu6050.c   **** 
 261:.\mpu6050.c   **** /** Get self-test enabled setting for accelerometer X axis.
 262:.\mpu6050.c   ****  * @return Self-test enabled value
 263:.\mpu6050.c   ****  * @see MPU6050_RA_ACCEL_CONFIG
 264:.\mpu6050.c   ****  */
 265:.\mpu6050.c   **** bool MPU6050_getAccelXSelfTest() {
 446              		.loc 1 265 0
 447              		.cfi_startproc
 448 0000 10B5     		push	{r4, lr}
 449              		.cfi_def_cfa_offset 8
 450              		.cfi_offset 4, -8
 451              		.cfi_offset 14, -4
 266:.\mpu6050.c   ****     I2CReadBit(devAddr, MPU6050_RA_ACCEL_CONFIG, MPU6050_ACONFIG_XA_ST_BIT, buffer);
 452              		.loc 1 266 0
 453 0002 064B     		ldr	r3, .L38
 454 0004 1878     		ldrb	r0, [r3]
 455 0006 064C     		ldr	r4, .L38+4
 456 0008 1C21     		mov	r1, #28
 457 000a 0722     		mov	r2, #7
 458 000c 231C     		mov	r3, r4
 459 000e FFF7FEFF 		bl	I2CReadBit
 460              	.LVL21:
 267:.\mpu6050.c   ****     return buffer[0];
 461              		.loc 1 267 0
 462 0012 2078     		ldrb	r0, [r4]
 463 0014 431E     		sub	r3, r0, #1
 464 0016 9841     		sbc	r0, r0, r3
 465 0018 C0B2     		uxtb	r0, r0
 268:.\mpu6050.c   **** }
 466              		.loc 1 268 0
 467              		@ sp needed
 468 001a 10BD     		pop	{r4, pc}
 469              	.L39:
 470              		.align	2
 471              	.L38:
 472 001c 00000000 		.word	devAddr
 473 0020 00000000 		.word	buffer
ARM GAS  C:\Users\username\AppData\Local\Temp\cca9Ol7c.s 			page 14


 474              		.cfi_endproc
 475              	.LFE14:
 476              		.size	MPU6050_getAccelXSelfTest, .-MPU6050_getAccelXSelfTest
 477              		.section	.text.MPU6050_setAccelXSelfTest,"ax",%progbits
 478              		.align	2
 479              		.global	MPU6050_setAccelXSelfTest
 480              		.code	16
 481              		.thumb_func
 482              		.type	MPU6050_setAccelXSelfTest, %function
 483              	MPU6050_setAccelXSelfTest:
 484              	.LFB15:
 269:.\mpu6050.c   **** /** Set self-test enabled setting for accelerometer X axis.
 270:.\mpu6050.c   ****  * @param enabled Self-test enabled value
 271:.\mpu6050.c   ****  * @see MPU6050_RA_ACCEL_CONFIG
 272:.\mpu6050.c   ****  */
 273:.\mpu6050.c   **** void MPU6050_setAccelXSelfTest(bool enabled) {
 485              		.loc 1 273 0
 486              		.cfi_startproc
 487              	.LVL22:
 488 0000 08B5     		push	{r3, lr}
 489              		.cfi_def_cfa_offset 8
 490              		.cfi_offset 3, -8
 491              		.cfi_offset 14, -4
 492 0002 031C     		mov	r3, r0
 274:.\mpu6050.c   ****     I2CWriteBit(devAddr, MPU6050_RA_ACCEL_CONFIG, MPU6050_ACONFIG_XA_ST_BIT, enabled);
 493              		.loc 1 274 0
 494 0004 034A     		ldr	r2, .L41
 495 0006 1078     		ldrb	r0, [r2]
 496              	.LVL23:
 497 0008 1C21     		mov	r1, #28
 498 000a 0722     		mov	r2, #7
 499 000c FFF7FEFF 		bl	I2CWriteBit
 500              	.LVL24:
 275:.\mpu6050.c   **** }
 501              		.loc 1 275 0
 502              		@ sp needed
 503 0010 08BD     		pop	{r3, pc}
 504              	.L42:
 505 0012 C046     		.align	2
 506              	.L41:
 507 0014 00000000 		.word	devAddr
 508              		.cfi_endproc
 509              	.LFE15:
 510              		.size	MPU6050_setAccelXSelfTest, .-MPU6050_setAccelXSelfTest
 511              		.section	.text.MPU6050_getAccelYSelfTest,"ax",%progbits
 512              		.align	2
 513              		.global	MPU6050_getAccelYSelfTest
 514              		.code	16
 515              		.thumb_func
 516              		.type	MPU6050_getAccelYSelfTest, %function
 517              	MPU6050_getAccelYSelfTest:
 518              	.LFB16:
 276:.\mpu6050.c   **** /** Get self-test enabled value for accelerometer Y axis.
 277:.\mpu6050.c   ****  * @return Self-test enabled value
 278:.\mpu6050.c   ****  * @see MPU6050_RA_ACCEL_CONFIG
 279:.\mpu6050.c   ****  */
 280:.\mpu6050.c   **** bool MPU6050_getAccelYSelfTest() {
ARM GAS  C:\Users\username\AppData\Local\Temp\cca9Ol7c.s 			page 15


 519              		.loc 1 280 0
 520              		.cfi_startproc
 521 0000 10B5     		push	{r4, lr}
 522              		.cfi_def_cfa_offset 8
 523              		.cfi_offset 4, -8
 524              		.cfi_offset 14, -4
 281:.\mpu6050.c   ****     I2CReadBit(devAddr, MPU6050_RA_ACCEL_CONFIG, MPU6050_ACONFIG_YA_ST_BIT, buffer);
 525              		.loc 1 281 0
 526 0002 064B     		ldr	r3, .L44
 527 0004 1878     		ldrb	r0, [r3]
 528 0006 064C     		ldr	r4, .L44+4
 529 0008 1C21     		mov	r1, #28
 530 000a 0622     		mov	r2, #6
 531 000c 231C     		mov	r3, r4
 532 000e FFF7FEFF 		bl	I2CReadBit
 533              	.LVL25:
 282:.\mpu6050.c   ****     return buffer[0];
 534              		.loc 1 282 0
 535 0012 2078     		ldrb	r0, [r4]
 536 0014 431E     		sub	r3, r0, #1
 537 0016 9841     		sbc	r0, r0, r3
 538 0018 C0B2     		uxtb	r0, r0
 283:.\mpu6050.c   **** }
 539              		.loc 1 283 0
 540              		@ sp needed
 541 001a 10BD     		pop	{r4, pc}
 542              	.L45:
 543              		.align	2
 544              	.L44:
 545 001c 00000000 		.word	devAddr
 546 0020 00000000 		.word	buffer
 547              		.cfi_endproc
 548              	.LFE16:
 549              		.size	MPU6050_getAccelYSelfTest, .-MPU6050_getAccelYSelfTest
 550              		.section	.text.MPU6050_setAccelYSelfTest,"ax",%progbits
 551              		.align	2
 552              		.global	MPU6050_setAccelYSelfTest
 553              		.code	16
 554              		.thumb_func
 555              		.type	MPU6050_setAccelYSelfTest, %function
 556              	MPU6050_setAccelYSelfTest:
 557              	.LFB17:
 284:.\mpu6050.c   **** /** Set self-test enabled value for accelerometer Y axis.
 285:.\mpu6050.c   ****  * @param enabled Self-test enabled value
 286:.\mpu6050.c   ****  * @see MPU6050_RA_ACCEL_CONFIG
 287:.\mpu6050.c   ****  */
 288:.\mpu6050.c   **** void MPU6050_setAccelYSelfTest(bool enabled) {
 558              		.loc 1 288 0
 559              		.cfi_startproc
 560              	.LVL26:
 561 0000 08B5     		push	{r3, lr}
 562              		.cfi_def_cfa_offset 8
 563              		.cfi_offset 3, -8
 564              		.cfi_offset 14, -4
 565 0002 031C     		mov	r3, r0
 289:.\mpu6050.c   ****     I2CWriteBit(devAddr, MPU6050_RA_ACCEL_CONFIG, MPU6050_ACONFIG_YA_ST_BIT, enabled);
 566              		.loc 1 289 0
ARM GAS  C:\Users\username\AppData\Local\Temp\cca9Ol7c.s 			page 16


 567 0004 034A     		ldr	r2, .L47
 568 0006 1078     		ldrb	r0, [r2]
 569              	.LVL27:
 570 0008 1C21     		mov	r1, #28
 571 000a 0622     		mov	r2, #6
 572 000c FFF7FEFF 		bl	I2CWriteBit
 573              	.LVL28:
 290:.\mpu6050.c   **** }
 574              		.loc 1 290 0
 575              		@ sp needed
 576 0010 08BD     		pop	{r3, pc}
 577              	.L48:
 578 0012 C046     		.align	2
 579              	.L47:
 580 0014 00000000 		.word	devAddr
 581              		.cfi_endproc
 582              	.LFE17:
 583              		.size	MPU6050_setAccelYSelfTest, .-MPU6050_setAccelYSelfTest
 584              		.section	.text.MPU6050_getAccelZSelfTest,"ax",%progbits
 585              		.align	2
 586              		.global	MPU6050_getAccelZSelfTest
 587              		.code	16
 588              		.thumb_func
 589              		.type	MPU6050_getAccelZSelfTest, %function
 590              	MPU6050_getAccelZSelfTest:
 591              	.LFB18:
 291:.\mpu6050.c   **** /** Get self-test enabled value for accelerometer Z axis.
 292:.\mpu6050.c   ****  * @return Self-test enabled value
 293:.\mpu6050.c   ****  * @see MPU6050_RA_ACCEL_CONFIG
 294:.\mpu6050.c   ****  */
 295:.\mpu6050.c   **** bool MPU6050_getAccelZSelfTest() {
 592              		.loc 1 295 0
 593              		.cfi_startproc
 594 0000 10B5     		push	{r4, lr}
 595              		.cfi_def_cfa_offset 8
 596              		.cfi_offset 4, -8
 597              		.cfi_offset 14, -4
 296:.\mpu6050.c   ****     I2CReadBit(devAddr, MPU6050_RA_ACCEL_CONFIG, MPU6050_ACONFIG_ZA_ST_BIT, buffer);
 598              		.loc 1 296 0
 599 0002 064B     		ldr	r3, .L50
 600 0004 1878     		ldrb	r0, [r3]
 601 0006 064C     		ldr	r4, .L50+4
 602 0008 1C21     		mov	r1, #28
 603 000a 0522     		mov	r2, #5
 604 000c 231C     		mov	r3, r4
 605 000e FFF7FEFF 		bl	I2CReadBit
 606              	.LVL29:
 297:.\mpu6050.c   ****     return buffer[0];
 607              		.loc 1 297 0
 608 0012 2078     		ldrb	r0, [r4]
 609 0014 431E     		sub	r3, r0, #1
 610 0016 9841     		sbc	r0, r0, r3
 611 0018 C0B2     		uxtb	r0, r0
 298:.\mpu6050.c   **** }
 612              		.loc 1 298 0
 613              		@ sp needed
 614 001a 10BD     		pop	{r4, pc}
ARM GAS  C:\Users\username\AppData\Local\Temp\cca9Ol7c.s 			page 17


 615              	.L51:
 616              		.align	2
 617              	.L50:
 618 001c 00000000 		.word	devAddr
 619 0020 00000000 		.word	buffer
 620              		.cfi_endproc
 621              	.LFE18:
 622              		.size	MPU6050_getAccelZSelfTest, .-MPU6050_getAccelZSelfTest
 623              		.section	.text.MPU6050_setAccelZSelfTest,"ax",%progbits
 624              		.align	2
 625              		.global	MPU6050_setAccelZSelfTest
 626              		.code	16
 627              		.thumb_func
 628              		.type	MPU6050_setAccelZSelfTest, %function
 629              	MPU6050_setAccelZSelfTest:
 630              	.LFB19:
 299:.\mpu6050.c   **** /** Set self-test enabled value for accelerometer Z axis.
 300:.\mpu6050.c   ****  * @param enabled Self-test enabled value
 301:.\mpu6050.c   ****  * @see MPU6050_RA_ACCEL_CONFIG
 302:.\mpu6050.c   ****  */
 303:.\mpu6050.c   **** void MPU6050_setAccelZSelfTest(bool enabled) {
 631              		.loc 1 303 0
 632              		.cfi_startproc
 633              	.LVL30:
 634 0000 08B5     		push	{r3, lr}
 635              		.cfi_def_cfa_offset 8
 636              		.cfi_offset 3, -8
 637              		.cfi_offset 14, -4
 638 0002 031C     		mov	r3, r0
 304:.\mpu6050.c   ****     I2CWriteBit(devAddr, MPU6050_RA_ACCEL_CONFIG, MPU6050_ACONFIG_ZA_ST_BIT, enabled);
 639              		.loc 1 304 0
 640 0004 034A     		ldr	r2, .L53
 641 0006 1078     		ldrb	r0, [r2]
 642              	.LVL31:
 643 0008 1C21     		mov	r1, #28
 644 000a 0522     		mov	r2, #5
 645 000c FFF7FEFF 		bl	I2CWriteBit
 646              	.LVL32:
 305:.\mpu6050.c   **** }
 647              		.loc 1 305 0
 648              		@ sp needed
 649 0010 08BD     		pop	{r3, pc}
 650              	.L54:
 651 0012 C046     		.align	2
 652              	.L53:
 653 0014 00000000 		.word	devAddr
 654              		.cfi_endproc
 655              	.LFE19:
 656              		.size	MPU6050_setAccelZSelfTest, .-MPU6050_setAccelZSelfTest
 657              		.section	.text.MPU6050_getFullScaleAccelRange,"ax",%progbits
 658              		.align	2
 659              		.global	MPU6050_getFullScaleAccelRange
 660              		.code	16
 661              		.thumb_func
 662              		.type	MPU6050_getFullScaleAccelRange, %function
 663              	MPU6050_getFullScaleAccelRange:
 664              	.LFB20:
ARM GAS  C:\Users\username\AppData\Local\Temp\cca9Ol7c.s 			page 18


 306:.\mpu6050.c   **** /** Get full-scale accelerometer range.
 307:.\mpu6050.c   ****  * The FS_SEL parameter allows setting the full-scale range of the accelerometer
 308:.\mpu6050.c   ****  * sensors, as described in the table below.
 309:.\mpu6050.c   ****  *
 310:.\mpu6050.c   ****  * <pre>
 311:.\mpu6050.c   ****  * 0 = +/- 2g
 312:.\mpu6050.c   ****  * 1 = +/- 4g
 313:.\mpu6050.c   ****  * 2 = +/- 8g
 314:.\mpu6050.c   ****  * 3 = +/- 16g
 315:.\mpu6050.c   ****  * </pre>
 316:.\mpu6050.c   ****  *
 317:.\mpu6050.c   ****  * @return Current full-scale accelerometer range setting
 318:.\mpu6050.c   ****  * @see MPU6050_ACCEL_FS_2
 319:.\mpu6050.c   ****  * @see MPU6050_RA_ACCEL_CONFIG
 320:.\mpu6050.c   ****  * @see MPU6050_ACONFIG_AFS_SEL_BIT
 321:.\mpu6050.c   ****  * @see MPU6050_ACONFIG_AFS_SEL_LENGTH
 322:.\mpu6050.c   ****  */
 323:.\mpu6050.c   **** uint8_t MPU6050_getFullScaleAccelRange() {
 665              		.loc 1 323 0
 666              		.cfi_startproc
 667 0000 10B5     		push	{r4, lr}
 668              		.cfi_def_cfa_offset 8
 669              		.cfi_offset 4, -8
 670              		.cfi_offset 14, -4
 671 0002 82B0     		sub	sp, sp, #8
 672              		.cfi_def_cfa_offset 16
 324:.\mpu6050.c   ****     I2CReadBits(devAddr, MPU6050_RA_ACCEL_CONFIG, MPU6050_ACONFIG_AFS_SEL_BIT, MPU6050_ACONFIG_AFS_
 673              		.loc 1 324 0
 674 0004 054B     		ldr	r3, .L56
 675 0006 1878     		ldrb	r0, [r3]
 676 0008 054C     		ldr	r4, .L56+4
 677 000a 0094     		str	r4, [sp]
 678 000c 1C21     		mov	r1, #28
 679 000e 0422     		mov	r2, #4
 680 0010 0223     		mov	r3, #2
 681 0012 FFF7FEFF 		bl	I2CReadBits
 682              	.LVL33:
 325:.\mpu6050.c   ****     return buffer[0];
 683              		.loc 1 325 0
 684 0016 2078     		ldrb	r0, [r4]
 326:.\mpu6050.c   **** }
 685              		.loc 1 326 0
 686 0018 02B0     		add	sp, sp, #8
 687              		@ sp needed
 688 001a 10BD     		pop	{r4, pc}
 689              	.L57:
 690              		.align	2
 691              	.L56:
 692 001c 00000000 		.word	devAddr
 693 0020 00000000 		.word	buffer
 694              		.cfi_endproc
 695              	.LFE20:
 696              		.size	MPU6050_getFullScaleAccelRange, .-MPU6050_getFullScaleAccelRange
 697              		.section	.text.MPU6050_setFullScaleAccelRange,"ax",%progbits
 698              		.align	2
 699              		.global	MPU6050_setFullScaleAccelRange
 700              		.code	16
ARM GAS  C:\Users\username\AppData\Local\Temp\cca9Ol7c.s 			page 19


 701              		.thumb_func
 702              		.type	MPU6050_setFullScaleAccelRange, %function
 703              	MPU6050_setFullScaleAccelRange:
 704              	.LFB21:
 327:.\mpu6050.c   **** /** Set full-scale accelerometer range.
 328:.\mpu6050.c   ****  * @param range New full-scale accelerometer range setting
 329:.\mpu6050.c   ****  * @see getFullScaleAccelRange()
 330:.\mpu6050.c   ****  */
 331:.\mpu6050.c   **** void MPU6050_setFullScaleAccelRange(uint8_t range) {
 705              		.loc 1 331 0
 706              		.cfi_startproc
 707              	.LVL34:
 708 0000 00B5     		push	{lr}
 709              		.cfi_def_cfa_offset 4
 710              		.cfi_offset 14, -4
 711 0002 83B0     		sub	sp, sp, #12
 712              		.cfi_def_cfa_offset 16
 332:.\mpu6050.c   ****     I2CWriteBits(devAddr, MPU6050_RA_ACCEL_CONFIG, MPU6050_ACONFIG_AFS_SEL_BIT, MPU6050_ACONFIG_AFS
 713              		.loc 1 332 0
 714 0004 054B     		ldr	r3, .L59
 715 0006 1B78     		ldrb	r3, [r3]
 716 0008 0090     		str	r0, [sp]
 717 000a 181C     		mov	r0, r3
 718              	.LVL35:
 719 000c 1C21     		mov	r1, #28
 720 000e 0422     		mov	r2, #4
 721 0010 0223     		mov	r3, #2
 722 0012 FFF7FEFF 		bl	I2CWriteBits
 723              	.LVL36:
 333:.\mpu6050.c   **** }
 724              		.loc 1 333 0
 725 0016 03B0     		add	sp, sp, #12
 726              		@ sp needed
 727 0018 00BD     		pop	{pc}
 728              	.L60:
 729 001a C046     		.align	2
 730              	.L59:
 731 001c 00000000 		.word	devAddr
 732              		.cfi_endproc
 733              	.LFE21:
 734              		.size	MPU6050_setFullScaleAccelRange, .-MPU6050_setFullScaleAccelRange
 735              		.section	.text.MPU6050_getDHPFMode,"ax",%progbits
 736              		.align	2
 737              		.global	MPU6050_getDHPFMode
 738              		.code	16
 739              		.thumb_func
 740              		.type	MPU6050_getDHPFMode, %function
 741              	MPU6050_getDHPFMode:
 742              	.LFB22:
 334:.\mpu6050.c   **** /** Get the high-pass filter configuration.
 335:.\mpu6050.c   ****  * The DHPF is a filter module in the path leading to motion detectors (Free
 336:.\mpu6050.c   ****  * Fall, Motion threshold, and Zero Motion). The high pass filter output is not
 337:.\mpu6050.c   ****  * available to the data registers (see Figure in Section 8 of the MPU-6000/
 338:.\mpu6050.c   ****  * MPU-6050 Product Specification document).
 339:.\mpu6050.c   ****  *
 340:.\mpu6050.c   ****  * The high pass filter has three modes:
 341:.\mpu6050.c   ****  *
ARM GAS  C:\Users\username\AppData\Local\Temp\cca9Ol7c.s 			page 20


 342:.\mpu6050.c   ****  * <pre>
 343:.\mpu6050.c   ****  *    Reset: The filter output settles to zero within one sample. This
 344:.\mpu6050.c   ****  *           effectively disables the high pass filter. This mode may be toggled
 345:.\mpu6050.c   ****  *           to quickly settle the filter.
 346:.\mpu6050.c   ****  *
 347:.\mpu6050.c   ****  *    On:    The high pass filter will pass signals above the cut off frequency.
 348:.\mpu6050.c   ****  *
 349:.\mpu6050.c   ****  *    Hold:  When triggered, the filter holds the present sample. The filter
 350:.\mpu6050.c   ****  *           output will be the difference between the input sample and the held
 351:.\mpu6050.c   ****  *           sample.
 352:.\mpu6050.c   ****  * </pre>
 353:.\mpu6050.c   ****  *
 354:.\mpu6050.c   ****  * <pre>
 355:.\mpu6050.c   ****  * ACCEL_HPF | Filter Mode | Cut-off Frequency
 356:.\mpu6050.c   ****  * ----------+-------------+------------------
 357:.\mpu6050.c   ****  * 0         | Reset       | None
 358:.\mpu6050.c   ****  * 1         | On          | 5Hz
 359:.\mpu6050.c   ****  * 2         | On          | 2.5Hz
 360:.\mpu6050.c   ****  * 3         | On          | 1.25Hz
 361:.\mpu6050.c   ****  * 4         | On          | 0.63Hz
 362:.\mpu6050.c   ****  * 7         | Hold        | None
 363:.\mpu6050.c   ****  * </pre>
 364:.\mpu6050.c   ****  *
 365:.\mpu6050.c   ****  * @return Current high-pass filter configuration
 366:.\mpu6050.c   ****  * @see MPU6050_DHPF_RESET
 367:.\mpu6050.c   ****  * @see MPU6050_RA_ACCEL_CONFIG
 368:.\mpu6050.c   ****  */
 369:.\mpu6050.c   **** uint8_t MPU6050_getDHPFMode() {
 743              		.loc 1 369 0
 744              		.cfi_startproc
 745 0000 10B5     		push	{r4, lr}
 746              		.cfi_def_cfa_offset 8
 747              		.cfi_offset 4, -8
 748              		.cfi_offset 14, -4
 749 0002 82B0     		sub	sp, sp, #8
 750              		.cfi_def_cfa_offset 16
 370:.\mpu6050.c   ****     I2CReadBits(devAddr, MPU6050_RA_ACCEL_CONFIG, MPU6050_ACONFIG_ACCEL_HPF_BIT, MPU6050_ACONFIG_AC
 751              		.loc 1 370 0
 752 0004 054B     		ldr	r3, .L62
 753 0006 1878     		ldrb	r0, [r3]
 754 0008 054C     		ldr	r4, .L62+4
 755 000a 0094     		str	r4, [sp]
 756 000c 1C21     		mov	r1, #28
 757 000e 0222     		mov	r2, #2
 758 0010 0323     		mov	r3, #3
 759 0012 FFF7FEFF 		bl	I2CReadBits
 760              	.LVL37:
 371:.\mpu6050.c   ****     return buffer[0];
 761              		.loc 1 371 0
 762 0016 2078     		ldrb	r0, [r4]
 372:.\mpu6050.c   **** }
 763              		.loc 1 372 0
 764 0018 02B0     		add	sp, sp, #8
 765              		@ sp needed
 766 001a 10BD     		pop	{r4, pc}
 767              	.L63:
 768              		.align	2
ARM GAS  C:\Users\username\AppData\Local\Temp\cca9Ol7c.s 			page 21


 769              	.L62:
 770 001c 00000000 		.word	devAddr
 771 0020 00000000 		.word	buffer
 772              		.cfi_endproc
 773              	.LFE22:
 774              		.size	MPU6050_getDHPFMode, .-MPU6050_getDHPFMode
 775              		.section	.text.MPU6050_setDHPFMode,"ax",%progbits
 776              		.align	2
 777              		.global	MPU6050_setDHPFMode
 778              		.code	16
 779              		.thumb_func
 780              		.type	MPU6050_setDHPFMode, %function
 781              	MPU6050_setDHPFMode:
 782              	.LFB23:
 373:.\mpu6050.c   **** /** Set the high-pass filter configuration.
 374:.\mpu6050.c   ****  * @param bandwidth New high-pass filter configuration
 375:.\mpu6050.c   ****  * @see setDHPFMode()
 376:.\mpu6050.c   ****  * @see MPU6050_DHPF_RESET
 377:.\mpu6050.c   ****  * @see MPU6050_RA_ACCEL_CONFIG
 378:.\mpu6050.c   ****  */
 379:.\mpu6050.c   **** void MPU6050_setDHPFMode(uint8_t bandwidth) {
 783              		.loc 1 379 0
 784              		.cfi_startproc
 785              	.LVL38:
 786 0000 00B5     		push	{lr}
 787              		.cfi_def_cfa_offset 4
 788              		.cfi_offset 14, -4
 789 0002 83B0     		sub	sp, sp, #12
 790              		.cfi_def_cfa_offset 16
 380:.\mpu6050.c   ****     I2CWriteBits(devAddr, MPU6050_RA_ACCEL_CONFIG, MPU6050_ACONFIG_ACCEL_HPF_BIT, MPU6050_ACONFIG_A
 791              		.loc 1 380 0
 792 0004 054B     		ldr	r3, .L65
 793 0006 1B78     		ldrb	r3, [r3]
 794 0008 0090     		str	r0, [sp]
 795 000a 181C     		mov	r0, r3
 796              	.LVL39:
 797 000c 1C21     		mov	r1, #28
 798 000e 0222     		mov	r2, #2
 799 0010 0323     		mov	r3, #3
 800 0012 FFF7FEFF 		bl	I2CWriteBits
 801              	.LVL40:
 381:.\mpu6050.c   **** }
 802              		.loc 1 381 0
 803 0016 03B0     		add	sp, sp, #12
 804              		@ sp needed
 805 0018 00BD     		pop	{pc}
 806              	.L66:
 807 001a C046     		.align	2
 808              	.L65:
 809 001c 00000000 		.word	devAddr
 810              		.cfi_endproc
 811              	.LFE23:
 812              		.size	MPU6050_setDHPFMode, .-MPU6050_setDHPFMode
 813              		.section	.text.MPU6050_getFreefallDetectionThreshold,"ax",%progbits
 814              		.align	2
 815              		.global	MPU6050_getFreefallDetectionThreshold
 816              		.code	16
ARM GAS  C:\Users\username\AppData\Local\Temp\cca9Ol7c.s 			page 22


 817              		.thumb_func
 818              		.type	MPU6050_getFreefallDetectionThreshold, %function
 819              	MPU6050_getFreefallDetectionThreshold:
 820              	.LFB24:
 382:.\mpu6050.c   **** 
 383:.\mpu6050.c   **** // FF_THR register
 384:.\mpu6050.c   **** 
 385:.\mpu6050.c   **** /** Get free-fall event acceleration threshold.
 386:.\mpu6050.c   ****  * This register configures the detection threshold for Free Fall event
 387:.\mpu6050.c   ****  * detection. The unit of FF_THR is 1LSB = 2mg. Free Fall is detected when the
 388:.\mpu6050.c   ****  * absolute value of the accelerometer measurements for the three axes are each
 389:.\mpu6050.c   ****  * less than the detection threshold. This condition increments the Free Fall
 390:.\mpu6050.c   ****  * duration counter (Register 30). The Free Fall interrupt is triggered when the
 391:.\mpu6050.c   ****  * Free Fall duration counter reaches the time specified in FF_DUR.
 392:.\mpu6050.c   ****  *
 393:.\mpu6050.c   ****  * For more details on the Free Fall detection interrupt, see Section 8.2 of the
 394:.\mpu6050.c   ****  * MPU-6000/MPU-6050 Product Specification document as well as Registers 56 and
 395:.\mpu6050.c   ****  * 58 of this document.
 396:.\mpu6050.c   ****  *
 397:.\mpu6050.c   ****  * @return Current free-fall acceleration threshold value (LSB = 2mg)
 398:.\mpu6050.c   ****  * @see MPU6050_RA_FF_THR
 399:.\mpu6050.c   ****  */
 400:.\mpu6050.c   **** uint8_t MPU6050_getFreefallDetectionThreshold() {
 821              		.loc 1 400 0
 822              		.cfi_startproc
 823 0000 10B5     		push	{r4, lr}
 824              		.cfi_def_cfa_offset 8
 825              		.cfi_offset 4, -8
 826              		.cfi_offset 14, -4
 401:.\mpu6050.c   ****     I2CReadByte(devAddr, MPU6050_RA_FF_THR, buffer);
 827              		.loc 1 401 0
 828 0002 044B     		ldr	r3, .L68
 829 0004 1878     		ldrb	r0, [r3]
 830 0006 044C     		ldr	r4, .L68+4
 831 0008 1D21     		mov	r1, #29
 832 000a 221C     		mov	r2, r4
 833 000c FFF7FEFF 		bl	I2CReadByte
 834              	.LVL41:
 402:.\mpu6050.c   ****     return buffer[0];
 835              		.loc 1 402 0
 836 0010 2078     		ldrb	r0, [r4]
 403:.\mpu6050.c   **** }
 837              		.loc 1 403 0
 838              		@ sp needed
 839 0012 10BD     		pop	{r4, pc}
 840              	.L69:
 841              		.align	2
 842              	.L68:
 843 0014 00000000 		.word	devAddr
 844 0018 00000000 		.word	buffer
 845              		.cfi_endproc
 846              	.LFE24:
 847              		.size	MPU6050_getFreefallDetectionThreshold, .-MPU6050_getFreefallDetectionThreshold
 848              		.section	.text.MPU6050_setFreefallDetectionThreshold,"ax",%progbits
 849              		.align	2
 850              		.global	MPU6050_setFreefallDetectionThreshold
 851              		.code	16
ARM GAS  C:\Users\username\AppData\Local\Temp\cca9Ol7c.s 			page 23


 852              		.thumb_func
 853              		.type	MPU6050_setFreefallDetectionThreshold, %function
 854              	MPU6050_setFreefallDetectionThreshold:
 855              	.LFB25:
 404:.\mpu6050.c   **** /** Get free-fall event acceleration threshold.
 405:.\mpu6050.c   ****  * @param threshold New free-fall acceleration threshold value (LSB = 2mg)
 406:.\mpu6050.c   ****  * @see getFreefallDetectionThreshold()
 407:.\mpu6050.c   ****  * @see MPU6050_RA_FF_THR
 408:.\mpu6050.c   ****  */
 409:.\mpu6050.c   **** void MPU6050_setFreefallDetectionThreshold(uint8_t threshold) {
 856              		.loc 1 409 0
 857              		.cfi_startproc
 858              	.LVL42:
 859 0000 08B5     		push	{r3, lr}
 860              		.cfi_def_cfa_offset 8
 861              		.cfi_offset 3, -8
 862              		.cfi_offset 14, -4
 863 0002 021C     		mov	r2, r0
 410:.\mpu6050.c   ****     I2CWriteByte(devAddr, MPU6050_RA_FF_THR, threshold);
 864              		.loc 1 410 0
 865 0004 024B     		ldr	r3, .L71
 866 0006 1878     		ldrb	r0, [r3]
 867              	.LVL43:
 868 0008 1D21     		mov	r1, #29
 869 000a FFF7FEFF 		bl	I2CWriteByte
 870              	.LVL44:
 411:.\mpu6050.c   **** }
 871              		.loc 1 411 0
 872              		@ sp needed
 873 000e 08BD     		pop	{r3, pc}
 874              	.L72:
 875              		.align	2
 876              	.L71:
 877 0010 00000000 		.word	devAddr
 878              		.cfi_endproc
 879              	.LFE25:
 880              		.size	MPU6050_setFreefallDetectionThreshold, .-MPU6050_setFreefallDetectionThreshold
 881              		.section	.text.MPU6050_getFreefallDetectionDuration,"ax",%progbits
 882              		.align	2
 883              		.global	MPU6050_getFreefallDetectionDuration
 884              		.code	16
 885              		.thumb_func
 886              		.type	MPU6050_getFreefallDetectionDuration, %function
 887              	MPU6050_getFreefallDetectionDuration:
 888              	.LFB26:
 412:.\mpu6050.c   **** 
 413:.\mpu6050.c   **** // FF_DUR register
 414:.\mpu6050.c   **** 
 415:.\mpu6050.c   **** /** Get free-fall event duration threshold.
 416:.\mpu6050.c   ****  * This register configures the duration counter threshold for Free Fall event
 417:.\mpu6050.c   ****  * detection. The duration counter ticks at 1kHz, therefore FF_DUR has a unit
 418:.\mpu6050.c   ****  * of 1 LSB = 1 ms.
 419:.\mpu6050.c   ****  *
 420:.\mpu6050.c   ****  * The Free Fall duration counter increments while the absolute value of the
 421:.\mpu6050.c   ****  * accelerometer measurements are each less than the detection threshold
 422:.\mpu6050.c   ****  * (Register 29). The Free Fall interrupt is triggered when the Free Fall
 423:.\mpu6050.c   ****  * duration counter reaches the time specified in this register.
ARM GAS  C:\Users\username\AppData\Local\Temp\cca9Ol7c.s 			page 24


 424:.\mpu6050.c   ****  *
 425:.\mpu6050.c   ****  * For more details on the Free Fall detection interrupt, see Section 8.2 of
 426:.\mpu6050.c   ****  * the MPU-6000/MPU-6050 Product Specification document as well as Registers 56
 427:.\mpu6050.c   ****  * and 58 of this document.
 428:.\mpu6050.c   ****  *
 429:.\mpu6050.c   ****  * @return Current free-fall duration threshold value (LSB = 1ms)
 430:.\mpu6050.c   ****  * @see MPU6050_RA_FF_DUR
 431:.\mpu6050.c   ****  */
 432:.\mpu6050.c   **** uint8_t MPU6050_getFreefallDetectionDuration() {
 889              		.loc 1 432 0
 890              		.cfi_startproc
 891 0000 10B5     		push	{r4, lr}
 892              		.cfi_def_cfa_offset 8
 893              		.cfi_offset 4, -8
 894              		.cfi_offset 14, -4
 433:.\mpu6050.c   ****     I2CReadByte(devAddr, MPU6050_RA_FF_DUR, buffer);
 895              		.loc 1 433 0
 896 0002 044B     		ldr	r3, .L74
 897 0004 1878     		ldrb	r0, [r3]
 898 0006 044C     		ldr	r4, .L74+4
 899 0008 1E21     		mov	r1, #30
 900 000a 221C     		mov	r2, r4
 901 000c FFF7FEFF 		bl	I2CReadByte
 902              	.LVL45:
 434:.\mpu6050.c   ****     return buffer[0];
 903              		.loc 1 434 0
 904 0010 2078     		ldrb	r0, [r4]
 435:.\mpu6050.c   **** }
 905              		.loc 1 435 0
 906              		@ sp needed
 907 0012 10BD     		pop	{r4, pc}
 908              	.L75:
 909              		.align	2
 910              	.L74:
 911 0014 00000000 		.word	devAddr
 912 0018 00000000 		.word	buffer
 913              		.cfi_endproc
 914              	.LFE26:
 915              		.size	MPU6050_getFreefallDetectionDuration, .-MPU6050_getFreefallDetectionDuration
 916              		.section	.text.MPU6050_setFreefallDetectionDuration,"ax",%progbits
 917              		.align	2
 918              		.global	MPU6050_setFreefallDetectionDuration
 919              		.code	16
 920              		.thumb_func
 921              		.type	MPU6050_setFreefallDetectionDuration, %function
 922              	MPU6050_setFreefallDetectionDuration:
 923              	.LFB27:
 436:.\mpu6050.c   **** /** Get free-fall event duration threshold.
 437:.\mpu6050.c   ****  * @param duration New free-fall duration threshold value (LSB = 1ms)
 438:.\mpu6050.c   ****  * @see getFreefallDetectionDuration()
 439:.\mpu6050.c   ****  * @see MPU6050_RA_FF_DUR
 440:.\mpu6050.c   ****  */
 441:.\mpu6050.c   **** void MPU6050_setFreefallDetectionDuration(uint8_t duration) {
 924              		.loc 1 441 0
 925              		.cfi_startproc
 926              	.LVL46:
 927 0000 08B5     		push	{r3, lr}
ARM GAS  C:\Users\username\AppData\Local\Temp\cca9Ol7c.s 			page 25


 928              		.cfi_def_cfa_offset 8
 929              		.cfi_offset 3, -8
 930              		.cfi_offset 14, -4
 931 0002 021C     		mov	r2, r0
 442:.\mpu6050.c   ****     I2CWriteByte(devAddr, MPU6050_RA_FF_DUR, duration);
 932              		.loc 1 442 0
 933 0004 024B     		ldr	r3, .L77
 934 0006 1878     		ldrb	r0, [r3]
 935              	.LVL47:
 936 0008 1E21     		mov	r1, #30
 937 000a FFF7FEFF 		bl	I2CWriteByte
 938              	.LVL48:
 443:.\mpu6050.c   **** }
 939              		.loc 1 443 0
 940              		@ sp needed
 941 000e 08BD     		pop	{r3, pc}
 942              	.L78:
 943              		.align	2
 944              	.L77:
 945 0010 00000000 		.word	devAddr
 946              		.cfi_endproc
 947              	.LFE27:
 948              		.size	MPU6050_setFreefallDetectionDuration, .-MPU6050_setFreefallDetectionDuration
 949              		.section	.text.MPU6050_getMotionDetectionThreshold,"ax",%progbits
 950              		.align	2
 951              		.global	MPU6050_getMotionDetectionThreshold
 952              		.code	16
 953              		.thumb_func
 954              		.type	MPU6050_getMotionDetectionThreshold, %function
 955              	MPU6050_getMotionDetectionThreshold:
 956              	.LFB28:
 444:.\mpu6050.c   **** 
 445:.\mpu6050.c   **** // MOT_THR register
 446:.\mpu6050.c   **** 
 447:.\mpu6050.c   **** /** Get motion detection event acceleration threshold.
 448:.\mpu6050.c   ****  * This register configures the detection threshold for Motion interrupt
 449:.\mpu6050.c   ****  * generation. The unit of MOT_THR is 1LSB = 2mg. Motion is detected when the
 450:.\mpu6050.c   ****  * absolute value of any of the accelerometer measurements exceeds this Motion
 451:.\mpu6050.c   ****  * detection threshold. This condition increments the Motion detection duration
 452:.\mpu6050.c   ****  * counter (Register 32). The Motion detection interrupt is triggered when the
 453:.\mpu6050.c   ****  * Motion Detection counter reaches the time count specified in MOT_DUR
 454:.\mpu6050.c   ****  * (Register 32).
 455:.\mpu6050.c   ****  *
 456:.\mpu6050.c   ****  * The Motion interrupt will indicate the axis and polarity of detected motion
 457:.\mpu6050.c   ****  * in MOT_DETECT_STATUS (Register 97).
 458:.\mpu6050.c   ****  *
 459:.\mpu6050.c   ****  * For more details on the Motion detection interrupt, see Section 8.3 of the
 460:.\mpu6050.c   ****  * MPU-6000/MPU-6050 Product Specification document as well as Registers 56 and
 461:.\mpu6050.c   ****  * 58 of this document.
 462:.\mpu6050.c   ****  *
 463:.\mpu6050.c   ****  * @return Current motion detection acceleration threshold value (LSB = 2mg)
 464:.\mpu6050.c   ****  * @see MPU6050_RA_MOT_THR
 465:.\mpu6050.c   ****  */
 466:.\mpu6050.c   **** uint8_t MPU6050_getMotionDetectionThreshold() {
 957              		.loc 1 466 0
 958              		.cfi_startproc
 959 0000 10B5     		push	{r4, lr}
ARM GAS  C:\Users\username\AppData\Local\Temp\cca9Ol7c.s 			page 26


 960              		.cfi_def_cfa_offset 8
 961              		.cfi_offset 4, -8
 962              		.cfi_offset 14, -4
 467:.\mpu6050.c   ****     I2CReadByte(devAddr, MPU6050_RA_MOT_THR, buffer);
 963              		.loc 1 467 0
 964 0002 044B     		ldr	r3, .L80
 965 0004 1878     		ldrb	r0, [r3]
 966 0006 044C     		ldr	r4, .L80+4
 967 0008 1F21     		mov	r1, #31
 968 000a 221C     		mov	r2, r4
 969 000c FFF7FEFF 		bl	I2CReadByte
 970              	.LVL49:
 468:.\mpu6050.c   ****     return buffer[0];
 971              		.loc 1 468 0
 972 0010 2078     		ldrb	r0, [r4]
 469:.\mpu6050.c   **** }
 973              		.loc 1 469 0
 974              		@ sp needed
 975 0012 10BD     		pop	{r4, pc}
 976              	.L81:
 977              		.align	2
 978              	.L80:
 979 0014 00000000 		.word	devAddr
 980 0018 00000000 		.word	buffer
 981              		.cfi_endproc
 982              	.LFE28:
 983              		.size	MPU6050_getMotionDetectionThreshold, .-MPU6050_getMotionDetectionThreshold
 984              		.section	.text.MPU6050_setMotionDetectionThreshold,"ax",%progbits
 985              		.align	2
 986              		.global	MPU6050_setMotionDetectionThreshold
 987              		.code	16
 988              		.thumb_func
 989              		.type	MPU6050_setMotionDetectionThreshold, %function
 990              	MPU6050_setMotionDetectionThreshold:
 991              	.LFB29:
 470:.\mpu6050.c   **** /** Set free-fall event acceleration threshold.
 471:.\mpu6050.c   ****  * @param threshold New motion detection acceleration threshold value (LSB = 2mg)
 472:.\mpu6050.c   ****  * @see getMotionDetectionThreshold()
 473:.\mpu6050.c   ****  * @see MPU6050_RA_MOT_THR
 474:.\mpu6050.c   ****  */
 475:.\mpu6050.c   **** void MPU6050_setMotionDetectionThreshold(uint8_t threshold) {
 992              		.loc 1 475 0
 993              		.cfi_startproc
 994              	.LVL50:
 995 0000 08B5     		push	{r3, lr}
 996              		.cfi_def_cfa_offset 8
 997              		.cfi_offset 3, -8
 998              		.cfi_offset 14, -4
 999 0002 021C     		mov	r2, r0
 476:.\mpu6050.c   ****     I2CWriteByte(devAddr, MPU6050_RA_MOT_THR, threshold);
 1000              		.loc 1 476 0
 1001 0004 024B     		ldr	r3, .L83
 1002 0006 1878     		ldrb	r0, [r3]
 1003              	.LVL51:
 1004 0008 1F21     		mov	r1, #31
 1005 000a FFF7FEFF 		bl	I2CWriteByte
 1006              	.LVL52:
ARM GAS  C:\Users\username\AppData\Local\Temp\cca9Ol7c.s 			page 27


 477:.\mpu6050.c   **** }
 1007              		.loc 1 477 0
 1008              		@ sp needed
 1009 000e 08BD     		pop	{r3, pc}
 1010              	.L84:
 1011              		.align	2
 1012              	.L83:
 1013 0010 00000000 		.word	devAddr
 1014              		.cfi_endproc
 1015              	.LFE29:
 1016              		.size	MPU6050_setMotionDetectionThreshold, .-MPU6050_setMotionDetectionThreshold
 1017              		.section	.text.MPU6050_getMotionDetectionDuration,"ax",%progbits
 1018              		.align	2
 1019              		.global	MPU6050_getMotionDetectionDuration
 1020              		.code	16
 1021              		.thumb_func
 1022              		.type	MPU6050_getMotionDetectionDuration, %function
 1023              	MPU6050_getMotionDetectionDuration:
 1024              	.LFB30:
 478:.\mpu6050.c   **** 
 479:.\mpu6050.c   **** // MOT_DUR register
 480:.\mpu6050.c   **** 
 481:.\mpu6050.c   **** /** Get motion detection event duration threshold.
 482:.\mpu6050.c   ****  * This register configures the duration counter threshold for Motion interrupt
 483:.\mpu6050.c   ****  * generation. The duration counter ticks at 1 kHz, therefore MOT_DUR has a unit
 484:.\mpu6050.c   ****  * of 1LSB = 1ms. The Motion detection duration counter increments when the
 485:.\mpu6050.c   ****  * absolute value of any of the accelerometer measurements exceeds the Motion
 486:.\mpu6050.c   ****  * detection threshold (Register 31). The Motion detection interrupt is
 487:.\mpu6050.c   ****  * triggered when the Motion detection counter reaches the time count specified
 488:.\mpu6050.c   ****  * in this register.
 489:.\mpu6050.c   ****  *
 490:.\mpu6050.c   ****  * For more details on the Motion detection interrupt, see Section 8.3 of the
 491:.\mpu6050.c   ****  * MPU-6000/MPU-6050 Product Specification document.
 492:.\mpu6050.c   ****  *
 493:.\mpu6050.c   ****  * @return Current motion detection duration threshold value (LSB = 1ms)
 494:.\mpu6050.c   ****  * @see MPU6050_RA_MOT_DUR
 495:.\mpu6050.c   ****  */
 496:.\mpu6050.c   **** uint8_t MPU6050_getMotionDetectionDuration() {
 1025              		.loc 1 496 0
 1026              		.cfi_startproc
 1027 0000 10B5     		push	{r4, lr}
 1028              		.cfi_def_cfa_offset 8
 1029              		.cfi_offset 4, -8
 1030              		.cfi_offset 14, -4
 497:.\mpu6050.c   ****     I2CReadByte(devAddr, MPU6050_RA_MOT_DUR, buffer);
 1031              		.loc 1 497 0
 1032 0002 044B     		ldr	r3, .L86
 1033 0004 1878     		ldrb	r0, [r3]
 1034 0006 044C     		ldr	r4, .L86+4
 1035 0008 2021     		mov	r1, #32
 1036 000a 221C     		mov	r2, r4
 1037 000c FFF7FEFF 		bl	I2CReadByte
 1038              	.LVL53:
 498:.\mpu6050.c   ****     return buffer[0];
 1039              		.loc 1 498 0
 1040 0010 2078     		ldrb	r0, [r4]
 499:.\mpu6050.c   **** }
ARM GAS  C:\Users\username\AppData\Local\Temp\cca9Ol7c.s 			page 28


 1041              		.loc 1 499 0
 1042              		@ sp needed
 1043 0012 10BD     		pop	{r4, pc}
 1044              	.L87:
 1045              		.align	2
 1046              	.L86:
 1047 0014 00000000 		.word	devAddr
 1048 0018 00000000 		.word	buffer
 1049              		.cfi_endproc
 1050              	.LFE30:
 1051              		.size	MPU6050_getMotionDetectionDuration, .-MPU6050_getMotionDetectionDuration
 1052              		.section	.text.MPU6050_setMotionDetectionDuration,"ax",%progbits
 1053              		.align	2
 1054              		.global	MPU6050_setMotionDetectionDuration
 1055              		.code	16
 1056              		.thumb_func
 1057              		.type	MPU6050_setMotionDetectionDuration, %function
 1058              	MPU6050_setMotionDetectionDuration:
 1059              	.LFB31:
 500:.\mpu6050.c   **** /** Set motion detection event duration threshold.
 501:.\mpu6050.c   ****  * @param duration New motion detection duration threshold value (LSB = 1ms)
 502:.\mpu6050.c   ****  * @see getMotionDetectionDuration()
 503:.\mpu6050.c   ****  * @see MPU6050_RA_MOT_DUR
 504:.\mpu6050.c   ****  */
 505:.\mpu6050.c   **** void MPU6050_setMotionDetectionDuration(uint8_t duration) {
 1060              		.loc 1 505 0
 1061              		.cfi_startproc
 1062              	.LVL54:
 1063 0000 08B5     		push	{r3, lr}
 1064              		.cfi_def_cfa_offset 8
 1065              		.cfi_offset 3, -8
 1066              		.cfi_offset 14, -4
 1067 0002 021C     		mov	r2, r0
 506:.\mpu6050.c   ****     I2CWriteByte(devAddr, MPU6050_RA_MOT_DUR, duration);
 1068              		.loc 1 506 0
 1069 0004 024B     		ldr	r3, .L89
 1070 0006 1878     		ldrb	r0, [r3]
 1071              	.LVL55:
 1072 0008 2021     		mov	r1, #32
 1073 000a FFF7FEFF 		bl	I2CWriteByte
 1074              	.LVL56:
 507:.\mpu6050.c   **** }
 1075              		.loc 1 507 0
 1076              		@ sp needed
 1077 000e 08BD     		pop	{r3, pc}
 1078              	.L90:
 1079              		.align	2
 1080              	.L89:
 1081 0010 00000000 		.word	devAddr
 1082              		.cfi_endproc
 1083              	.LFE31:
 1084              		.size	MPU6050_setMotionDetectionDuration, .-MPU6050_setMotionDetectionDuration
 1085              		.section	.text.MPU6050_getZeroMotionDetectionThreshold,"ax",%progbits
 1086              		.align	2
 1087              		.global	MPU6050_getZeroMotionDetectionThreshold
 1088              		.code	16
 1089              		.thumb_func
ARM GAS  C:\Users\username\AppData\Local\Temp\cca9Ol7c.s 			page 29


 1090              		.type	MPU6050_getZeroMotionDetectionThreshold, %function
 1091              	MPU6050_getZeroMotionDetectionThreshold:
 1092              	.LFB32:
 508:.\mpu6050.c   **** 
 509:.\mpu6050.c   **** // ZRMOT_THR register
 510:.\mpu6050.c   **** 
 511:.\mpu6050.c   **** /** Get zero motion detection event acceleration threshold.
 512:.\mpu6050.c   ****  * This register configures the detection threshold for Zero Motion interrupt
 513:.\mpu6050.c   ****  * generation. The unit of ZRMOT_THR is 1LSB = 2mg. Zero Motion is detected when
 514:.\mpu6050.c   ****  * the absolute value of the accelerometer measurements for the 3 axes are each
 515:.\mpu6050.c   ****  * less than the detection threshold. This condition increments the Zero Motion
 516:.\mpu6050.c   ****  * duration counter (Register 34). The Zero Motion interrupt is triggered when
 517:.\mpu6050.c   ****  * the Zero Motion duration counter reaches the time count specified in
 518:.\mpu6050.c   ****  * ZRMOT_DUR (Register 34).
 519:.\mpu6050.c   ****  *
 520:.\mpu6050.c   ****  * Unlike Free Fall or Motion detection, Zero Motion detection triggers an
 521:.\mpu6050.c   ****  * interrupt both when Zero Motion is first detected and when Zero Motion is no
 522:.\mpu6050.c   ****  * longer detected.
 523:.\mpu6050.c   ****  *
 524:.\mpu6050.c   ****  * When a zero motion event is detected, a Zero Motion Status will be indicated
 525:.\mpu6050.c   ****  * in the MOT_DETECT_STATUS register (Register 97). When a motion-to-zero-motion
 526:.\mpu6050.c   ****  * condition is detected, the status bit is set to 1. When a zero-motion-to-
 527:.\mpu6050.c   ****  * motion condition is detected, the status bit is set to 0.
 528:.\mpu6050.c   ****  *
 529:.\mpu6050.c   ****  * For more details on the Zero Motion detection interrupt, see Section 8.4 of
 530:.\mpu6050.c   ****  * the MPU-6000/MPU-6050 Product Specification document as well as Registers 56
 531:.\mpu6050.c   ****  * and 58 of this document.
 532:.\mpu6050.c   ****  *
 533:.\mpu6050.c   ****  * @return Current zero motion detection acceleration threshold value (LSB = 2mg)
 534:.\mpu6050.c   ****  * @see MPU6050_RA_ZRMOT_THR
 535:.\mpu6050.c   ****  */
 536:.\mpu6050.c   **** uint8_t MPU6050_getZeroMotionDetectionThreshold() {
 1093              		.loc 1 536 0
 1094              		.cfi_startproc
 1095 0000 10B5     		push	{r4, lr}
 1096              		.cfi_def_cfa_offset 8
 1097              		.cfi_offset 4, -8
 1098              		.cfi_offset 14, -4
 537:.\mpu6050.c   ****     I2CReadByte(devAddr, MPU6050_RA_ZRMOT_THR, buffer);
 1099              		.loc 1 537 0
 1100 0002 044B     		ldr	r3, .L92
 1101 0004 1878     		ldrb	r0, [r3]
 1102 0006 044C     		ldr	r4, .L92+4
 1103 0008 2121     		mov	r1, #33
 1104 000a 221C     		mov	r2, r4
 1105 000c FFF7FEFF 		bl	I2CReadByte
 1106              	.LVL57:
 538:.\mpu6050.c   ****     return buffer[0];
 1107              		.loc 1 538 0
 1108 0010 2078     		ldrb	r0, [r4]
 539:.\mpu6050.c   **** }
 1109              		.loc 1 539 0
 1110              		@ sp needed
 1111 0012 10BD     		pop	{r4, pc}
 1112              	.L93:
 1113              		.align	2
 1114              	.L92:
ARM GAS  C:\Users\username\AppData\Local\Temp\cca9Ol7c.s 			page 30


 1115 0014 00000000 		.word	devAddr
 1116 0018 00000000 		.word	buffer
 1117              		.cfi_endproc
 1118              	.LFE32:
 1119              		.size	MPU6050_getZeroMotionDetectionThreshold, .-MPU6050_getZeroMotionDetectionThreshold
 1120              		.section	.text.MPU6050_setZeroMotionDetectionThreshold,"ax",%progbits
 1121              		.align	2
 1122              		.global	MPU6050_setZeroMotionDetectionThreshold
 1123              		.code	16
 1124              		.thumb_func
 1125              		.type	MPU6050_setZeroMotionDetectionThreshold, %function
 1126              	MPU6050_setZeroMotionDetectionThreshold:
 1127              	.LFB33:
 540:.\mpu6050.c   **** /** Set zero motion detection event acceleration threshold.
 541:.\mpu6050.c   ****  * @param threshold New zero motion detection acceleration threshold value (LSB = 2mg)
 542:.\mpu6050.c   ****  * @see getZeroMotionDetectionThreshold()
 543:.\mpu6050.c   ****  * @see MPU6050_RA_ZRMOT_THR
 544:.\mpu6050.c   ****  */
 545:.\mpu6050.c   **** void MPU6050_setZeroMotionDetectionThreshold(uint8_t threshold) {
 1128              		.loc 1 545 0
 1129              		.cfi_startproc
 1130              	.LVL58:
 1131 0000 08B5     		push	{r3, lr}
 1132              		.cfi_def_cfa_offset 8
 1133              		.cfi_offset 3, -8
 1134              		.cfi_offset 14, -4
 1135 0002 021C     		mov	r2, r0
 546:.\mpu6050.c   ****     I2CWriteByte(devAddr, MPU6050_RA_ZRMOT_THR, threshold);
 1136              		.loc 1 546 0
 1137 0004 024B     		ldr	r3, .L95
 1138 0006 1878     		ldrb	r0, [r3]
 1139              	.LVL59:
 1140 0008 2121     		mov	r1, #33
 1141 000a FFF7FEFF 		bl	I2CWriteByte
 1142              	.LVL60:
 547:.\mpu6050.c   **** }
 1143              		.loc 1 547 0
 1144              		@ sp needed
 1145 000e 08BD     		pop	{r3, pc}
 1146              	.L96:
 1147              		.align	2
 1148              	.L95:
 1149 0010 00000000 		.word	devAddr
 1150              		.cfi_endproc
 1151              	.LFE33:
 1152              		.size	MPU6050_setZeroMotionDetectionThreshold, .-MPU6050_setZeroMotionDetectionThreshold
 1153              		.section	.text.MPU6050_getZeroMotionDetectionDuration,"ax",%progbits
 1154              		.align	2
 1155              		.global	MPU6050_getZeroMotionDetectionDuration
 1156              		.code	16
 1157              		.thumb_func
 1158              		.type	MPU6050_getZeroMotionDetectionDuration, %function
 1159              	MPU6050_getZeroMotionDetectionDuration:
 1160              	.LFB34:
 548:.\mpu6050.c   **** 
 549:.\mpu6050.c   **** // ZRMOT_DUR register
 550:.\mpu6050.c   **** 
ARM GAS  C:\Users\username\AppData\Local\Temp\cca9Ol7c.s 			page 31


 551:.\mpu6050.c   **** /** Get zero motion detection event duration threshold.
 552:.\mpu6050.c   ****  * This register configures the duration counter threshold for Zero Motion
 553:.\mpu6050.c   ****  * interrupt generation. The duration counter ticks at 16 Hz, therefore
 554:.\mpu6050.c   ****  * ZRMOT_DUR has a unit of 1 LSB = 64 ms. The Zero Motion duration counter
 555:.\mpu6050.c   ****  * increments while the absolute value of the accelerometer measurements are
 556:.\mpu6050.c   ****  * each less than the detection threshold (Register 33). The Zero Motion
 557:.\mpu6050.c   ****  * interrupt is triggered when the Zero Motion duration counter reaches the time
 558:.\mpu6050.c   ****  * count specified in this register.
 559:.\mpu6050.c   ****  *
 560:.\mpu6050.c   ****  * For more details on the Zero Motion detection interrupt, see Section 8.4 of
 561:.\mpu6050.c   ****  * the MPU-6000/MPU-6050 Product Specification document, as well as Registers 56
 562:.\mpu6050.c   ****  * and 58 of this document.
 563:.\mpu6050.c   ****  *
 564:.\mpu6050.c   ****  * @return Current zero motion detection duration threshold value (LSB = 64ms)
 565:.\mpu6050.c   ****  * @see MPU6050_RA_ZRMOT_DUR
 566:.\mpu6050.c   ****  */
 567:.\mpu6050.c   **** uint8_t MPU6050_getZeroMotionDetectionDuration() {
 1161              		.loc 1 567 0
 1162              		.cfi_startproc
 1163 0000 10B5     		push	{r4, lr}
 1164              		.cfi_def_cfa_offset 8
 1165              		.cfi_offset 4, -8
 1166              		.cfi_offset 14, -4
 568:.\mpu6050.c   ****     I2CReadByte(devAddr, MPU6050_RA_ZRMOT_DUR, buffer);
 1167              		.loc 1 568 0
 1168 0002 044B     		ldr	r3, .L98
 1169 0004 1878     		ldrb	r0, [r3]
 1170 0006 044C     		ldr	r4, .L98+4
 1171 0008 2221     		mov	r1, #34
 1172 000a 221C     		mov	r2, r4
 1173 000c FFF7FEFF 		bl	I2CReadByte
 1174              	.LVL61:
 569:.\mpu6050.c   ****     return buffer[0];
 1175              		.loc 1 569 0
 1176 0010 2078     		ldrb	r0, [r4]
 570:.\mpu6050.c   **** }
 1177              		.loc 1 570 0
 1178              		@ sp needed
 1179 0012 10BD     		pop	{r4, pc}
 1180              	.L99:
 1181              		.align	2
 1182              	.L98:
 1183 0014 00000000 		.word	devAddr
 1184 0018 00000000 		.word	buffer
 1185              		.cfi_endproc
 1186              	.LFE34:
 1187              		.size	MPU6050_getZeroMotionDetectionDuration, .-MPU6050_getZeroMotionDetectionDuration
 1188              		.section	.text.MPU6050_setZeroMotionDetectionDuration,"ax",%progbits
 1189              		.align	2
 1190              		.global	MPU6050_setZeroMotionDetectionDuration
 1191              		.code	16
 1192              		.thumb_func
 1193              		.type	MPU6050_setZeroMotionDetectionDuration, %function
 1194              	MPU6050_setZeroMotionDetectionDuration:
 1195              	.LFB35:
 571:.\mpu6050.c   **** /** Set zero motion detection event duration threshold.
 572:.\mpu6050.c   ****  * @param duration New zero motion detection duration threshold value (LSB = 1ms)
ARM GAS  C:\Users\username\AppData\Local\Temp\cca9Ol7c.s 			page 32


 573:.\mpu6050.c   ****  * @see getZeroMotionDetectionDuration()
 574:.\mpu6050.c   ****  * @see MPU6050_RA_ZRMOT_DUR
 575:.\mpu6050.c   ****  */
 576:.\mpu6050.c   **** void MPU6050_setZeroMotionDetectionDuration(uint8_t duration) {
 1196              		.loc 1 576 0
 1197              		.cfi_startproc
 1198              	.LVL62:
 1199 0000 08B5     		push	{r3, lr}
 1200              		.cfi_def_cfa_offset 8
 1201              		.cfi_offset 3, -8
 1202              		.cfi_offset 14, -4
 1203 0002 021C     		mov	r2, r0
 577:.\mpu6050.c   ****     I2CWriteByte(devAddr, MPU6050_RA_ZRMOT_DUR, duration);
 1204              		.loc 1 577 0
 1205 0004 024B     		ldr	r3, .L101
 1206 0006 1878     		ldrb	r0, [r3]
 1207              	.LVL63:
 1208 0008 2221     		mov	r1, #34
 1209 000a FFF7FEFF 		bl	I2CWriteByte
 1210              	.LVL64:
 578:.\mpu6050.c   **** }
 1211              		.loc 1 578 0
 1212              		@ sp needed
 1213 000e 08BD     		pop	{r3, pc}
 1214              	.L102:
 1215              		.align	2
 1216              	.L101:
 1217 0010 00000000 		.word	devAddr
 1218              		.cfi_endproc
 1219              	.LFE35:
 1220              		.size	MPU6050_setZeroMotionDetectionDuration, .-MPU6050_setZeroMotionDetectionDuration
 1221              		.section	.text.MPU6050_getTempFIFOEnabled,"ax",%progbits
 1222              		.align	2
 1223              		.global	MPU6050_getTempFIFOEnabled
 1224              		.code	16
 1225              		.thumb_func
 1226              		.type	MPU6050_getTempFIFOEnabled, %function
 1227              	MPU6050_getTempFIFOEnabled:
 1228              	.LFB36:
 579:.\mpu6050.c   **** 
 580:.\mpu6050.c   **** // FIFO_EN register
 581:.\mpu6050.c   **** 
 582:.\mpu6050.c   **** /** Get temperature FIFO enabled value.
 583:.\mpu6050.c   ****  * When set to 1, this bit enables TEMP_OUT_H and TEMP_OUT_L (Registers 65 and
 584:.\mpu6050.c   ****  * 66) to be written into the FIFO buffer.
 585:.\mpu6050.c   ****  * @return Current temperature FIFO enabled value
 586:.\mpu6050.c   ****  * @see MPU6050_RA_FIFO_EN
 587:.\mpu6050.c   ****  */
 588:.\mpu6050.c   **** bool MPU6050_getTempFIFOEnabled() {
 1229              		.loc 1 588 0
 1230              		.cfi_startproc
 1231 0000 10B5     		push	{r4, lr}
 1232              		.cfi_def_cfa_offset 8
 1233              		.cfi_offset 4, -8
 1234              		.cfi_offset 14, -4
 589:.\mpu6050.c   ****     I2CReadBit(devAddr, MPU6050_RA_FIFO_EN, MPU6050_TEMP_FIFO_EN_BIT, buffer);
 1235              		.loc 1 589 0
ARM GAS  C:\Users\username\AppData\Local\Temp\cca9Ol7c.s 			page 33


 1236 0002 064B     		ldr	r3, .L104
 1237 0004 1878     		ldrb	r0, [r3]
 1238 0006 064C     		ldr	r4, .L104+4
 1239 0008 2321     		mov	r1, #35
 1240 000a 0722     		mov	r2, #7
 1241 000c 231C     		mov	r3, r4
 1242 000e FFF7FEFF 		bl	I2CReadBit
 1243              	.LVL65:
 590:.\mpu6050.c   ****     return buffer[0];
 1244              		.loc 1 590 0
 1245 0012 2078     		ldrb	r0, [r4]
 1246 0014 431E     		sub	r3, r0, #1
 1247 0016 9841     		sbc	r0, r0, r3
 1248 0018 C0B2     		uxtb	r0, r0
 591:.\mpu6050.c   **** }
 1249              		.loc 1 591 0
 1250              		@ sp needed
 1251 001a 10BD     		pop	{r4, pc}
 1252              	.L105:
 1253              		.align	2
 1254              	.L104:
 1255 001c 00000000 		.word	devAddr
 1256 0020 00000000 		.word	buffer
 1257              		.cfi_endproc
 1258              	.LFE36:
 1259              		.size	MPU6050_getTempFIFOEnabled, .-MPU6050_getTempFIFOEnabled
 1260              		.section	.text.MPU6050_setTempFIFOEnabled,"ax",%progbits
 1261              		.align	2
 1262              		.global	MPU6050_setTempFIFOEnabled
 1263              		.code	16
 1264              		.thumb_func
 1265              		.type	MPU6050_setTempFIFOEnabled, %function
 1266              	MPU6050_setTempFIFOEnabled:
 1267              	.LFB37:
 592:.\mpu6050.c   **** /** Set temperature FIFO enabled value.
 593:.\mpu6050.c   ****  * @param enabled New temperature FIFO enabled value
 594:.\mpu6050.c   ****  * @see getTempFIFOEnabled()
 595:.\mpu6050.c   ****  * @see MPU6050_RA_FIFO_EN
 596:.\mpu6050.c   ****  */
 597:.\mpu6050.c   **** void MPU6050_setTempFIFOEnabled(bool enabled) {
 1268              		.loc 1 597 0
 1269              		.cfi_startproc
 1270              	.LVL66:
 1271 0000 08B5     		push	{r3, lr}
 1272              		.cfi_def_cfa_offset 8
 1273              		.cfi_offset 3, -8
 1274              		.cfi_offset 14, -4
 1275 0002 031C     		mov	r3, r0
 598:.\mpu6050.c   ****     I2CWriteBit(devAddr, MPU6050_RA_FIFO_EN, MPU6050_TEMP_FIFO_EN_BIT, enabled);
 1276              		.loc 1 598 0
 1277 0004 034A     		ldr	r2, .L107
 1278 0006 1078     		ldrb	r0, [r2]
 1279              	.LVL67:
 1280 0008 2321     		mov	r1, #35
 1281 000a 0722     		mov	r2, #7
 1282 000c FFF7FEFF 		bl	I2CWriteBit
 1283              	.LVL68:
ARM GAS  C:\Users\username\AppData\Local\Temp\cca9Ol7c.s 			page 34


 599:.\mpu6050.c   **** }
 1284              		.loc 1 599 0
 1285              		@ sp needed
 1286 0010 08BD     		pop	{r3, pc}
 1287              	.L108:
 1288 0012 C046     		.align	2
 1289              	.L107:
 1290 0014 00000000 		.word	devAddr
 1291              		.cfi_endproc
 1292              	.LFE37:
 1293              		.size	MPU6050_setTempFIFOEnabled, .-MPU6050_setTempFIFOEnabled
 1294              		.section	.text.MPU6050_getXGyroFIFOEnabled,"ax",%progbits
 1295              		.align	2
 1296              		.global	MPU6050_getXGyroFIFOEnabled
 1297              		.code	16
 1298              		.thumb_func
 1299              		.type	MPU6050_getXGyroFIFOEnabled, %function
 1300              	MPU6050_getXGyroFIFOEnabled:
 1301              	.LFB38:
 600:.\mpu6050.c   **** /** Get gyroscope X-axis FIFO enabled value.
 601:.\mpu6050.c   ****  * When set to 1, this bit enables GYRO_XOUT_H and GYRO_XOUT_L (Registers 67 and
 602:.\mpu6050.c   ****  * 68) to be written into the FIFO buffer.
 603:.\mpu6050.c   ****  * @return Current gyroscope X-axis FIFO enabled value
 604:.\mpu6050.c   ****  * @see MPU6050_RA_FIFO_EN
 605:.\mpu6050.c   ****  */
 606:.\mpu6050.c   **** bool MPU6050_getXGyroFIFOEnabled() {
 1302              		.loc 1 606 0
 1303              		.cfi_startproc
 1304 0000 10B5     		push	{r4, lr}
 1305              		.cfi_def_cfa_offset 8
 1306              		.cfi_offset 4, -8
 1307              		.cfi_offset 14, -4
 607:.\mpu6050.c   ****     I2CReadBit(devAddr, MPU6050_RA_FIFO_EN, MPU6050_XG_FIFO_EN_BIT, buffer);
 1308              		.loc 1 607 0
 1309 0002 064B     		ldr	r3, .L110
 1310 0004 1878     		ldrb	r0, [r3]
 1311 0006 064C     		ldr	r4, .L110+4
 1312 0008 2321     		mov	r1, #35
 1313 000a 0622     		mov	r2, #6
 1314 000c 231C     		mov	r3, r4
 1315 000e FFF7FEFF 		bl	I2CReadBit
 1316              	.LVL69:
 608:.\mpu6050.c   ****     return buffer[0];
 1317              		.loc 1 608 0
 1318 0012 2078     		ldrb	r0, [r4]
 1319 0014 431E     		sub	r3, r0, #1
 1320 0016 9841     		sbc	r0, r0, r3
 1321 0018 C0B2     		uxtb	r0, r0
 609:.\mpu6050.c   **** }
 1322              		.loc 1 609 0
 1323              		@ sp needed
 1324 001a 10BD     		pop	{r4, pc}
 1325              	.L111:
 1326              		.align	2
 1327              	.L110:
 1328 001c 00000000 		.word	devAddr
 1329 0020 00000000 		.word	buffer
ARM GAS  C:\Users\username\AppData\Local\Temp\cca9Ol7c.s 			page 35


 1330              		.cfi_endproc
 1331              	.LFE38:
 1332              		.size	MPU6050_getXGyroFIFOEnabled, .-MPU6050_getXGyroFIFOEnabled
 1333              		.section	.text.MPU6050_setXGyroFIFOEnabled,"ax",%progbits
 1334              		.align	2
 1335              		.global	MPU6050_setXGyroFIFOEnabled
 1336              		.code	16
 1337              		.thumb_func
 1338              		.type	MPU6050_setXGyroFIFOEnabled, %function
 1339              	MPU6050_setXGyroFIFOEnabled:
 1340              	.LFB39:
 610:.\mpu6050.c   **** /** Set gyroscope X-axis FIFO enabled value.
 611:.\mpu6050.c   ****  * @param enabled New gyroscope X-axis FIFO enabled value
 612:.\mpu6050.c   ****  * @see getXGyroFIFOEnabled()
 613:.\mpu6050.c   ****  * @see MPU6050_RA_FIFO_EN
 614:.\mpu6050.c   ****  */
 615:.\mpu6050.c   **** void MPU6050_setXGyroFIFOEnabled(bool enabled) {
 1341              		.loc 1 615 0
 1342              		.cfi_startproc
 1343              	.LVL70:
 1344 0000 08B5     		push	{r3, lr}
 1345              		.cfi_def_cfa_offset 8
 1346              		.cfi_offset 3, -8
 1347              		.cfi_offset 14, -4
 1348 0002 031C     		mov	r3, r0
 616:.\mpu6050.c   ****     I2CWriteBit(devAddr, MPU6050_RA_FIFO_EN, MPU6050_XG_FIFO_EN_BIT, enabled);
 1349              		.loc 1 616 0
 1350 0004 034A     		ldr	r2, .L113
 1351 0006 1078     		ldrb	r0, [r2]
 1352              	.LVL71:
 1353 0008 2321     		mov	r1, #35
 1354 000a 0622     		mov	r2, #6
 1355 000c FFF7FEFF 		bl	I2CWriteBit
 1356              	.LVL72:
 617:.\mpu6050.c   **** }
 1357              		.loc 1 617 0
 1358              		@ sp needed
 1359 0010 08BD     		pop	{r3, pc}
 1360              	.L114:
 1361 0012 C046     		.align	2
 1362              	.L113:
 1363 0014 00000000 		.word	devAddr
 1364              		.cfi_endproc
 1365              	.LFE39:
 1366              		.size	MPU6050_setXGyroFIFOEnabled, .-MPU6050_setXGyroFIFOEnabled
 1367              		.section	.text.MPU6050_getYGyroFIFOEnabled,"ax",%progbits
 1368              		.align	2
 1369              		.global	MPU6050_getYGyroFIFOEnabled
 1370              		.code	16
 1371              		.thumb_func
 1372              		.type	MPU6050_getYGyroFIFOEnabled, %function
 1373              	MPU6050_getYGyroFIFOEnabled:
 1374              	.LFB40:
 618:.\mpu6050.c   **** /** Get gyroscope Y-axis FIFO enabled value.
 619:.\mpu6050.c   ****  * When set to 1, this bit enables GYRO_YOUT_H and GYRO_YOUT_L (Registers 69 and
 620:.\mpu6050.c   ****  * 70) to be written into the FIFO buffer.
 621:.\mpu6050.c   ****  * @return Current gyroscope Y-axis FIFO enabled value
ARM GAS  C:\Users\username\AppData\Local\Temp\cca9Ol7c.s 			page 36


 622:.\mpu6050.c   ****  * @see MPU6050_RA_FIFO_EN
 623:.\mpu6050.c   ****  */
 624:.\mpu6050.c   **** bool MPU6050_getYGyroFIFOEnabled() {
 1375              		.loc 1 624 0
 1376              		.cfi_startproc
 1377 0000 10B5     		push	{r4, lr}
 1378              		.cfi_def_cfa_offset 8
 1379              		.cfi_offset 4, -8
 1380              		.cfi_offset 14, -4
 625:.\mpu6050.c   ****     I2CReadBit(devAddr, MPU6050_RA_FIFO_EN, MPU6050_YG_FIFO_EN_BIT, buffer);
 1381              		.loc 1 625 0
 1382 0002 064B     		ldr	r3, .L116
 1383 0004 1878     		ldrb	r0, [r3]
 1384 0006 064C     		ldr	r4, .L116+4
 1385 0008 2321     		mov	r1, #35
 1386 000a 0522     		mov	r2, #5
 1387 000c 231C     		mov	r3, r4
 1388 000e FFF7FEFF 		bl	I2CReadBit
 1389              	.LVL73:
 626:.\mpu6050.c   ****     return buffer[0];
 1390              		.loc 1 626 0
 1391 0012 2078     		ldrb	r0, [r4]
 1392 0014 431E     		sub	r3, r0, #1
 1393 0016 9841     		sbc	r0, r0, r3
 1394 0018 C0B2     		uxtb	r0, r0
 627:.\mpu6050.c   **** }
 1395              		.loc 1 627 0
 1396              		@ sp needed
 1397 001a 10BD     		pop	{r4, pc}
 1398              	.L117:
 1399              		.align	2
 1400              	.L116:
 1401 001c 00000000 		.word	devAddr
 1402 0020 00000000 		.word	buffer
 1403              		.cfi_endproc
 1404              	.LFE40:
 1405              		.size	MPU6050_getYGyroFIFOEnabled, .-MPU6050_getYGyroFIFOEnabled
 1406              		.section	.text.MPU6050_setYGyroFIFOEnabled,"ax",%progbits
 1407              		.align	2
 1408              		.global	MPU6050_setYGyroFIFOEnabled
 1409              		.code	16
 1410              		.thumb_func
 1411              		.type	MPU6050_setYGyroFIFOEnabled, %function
 1412              	MPU6050_setYGyroFIFOEnabled:
 1413              	.LFB41:
 628:.\mpu6050.c   **** /** Set gyroscope Y-axis FIFO enabled value.
 629:.\mpu6050.c   ****  * @param enabled New gyroscope Y-axis FIFO enabled value
 630:.\mpu6050.c   ****  * @see getYGyroFIFOEnabled()
 631:.\mpu6050.c   ****  * @see MPU6050_RA_FIFO_EN
 632:.\mpu6050.c   ****  */
 633:.\mpu6050.c   **** void MPU6050_setYGyroFIFOEnabled(bool enabled) {
 1414              		.loc 1 633 0
 1415              		.cfi_startproc
 1416              	.LVL74:
 1417 0000 08B5     		push	{r3, lr}
 1418              		.cfi_def_cfa_offset 8
 1419              		.cfi_offset 3, -8
ARM GAS  C:\Users\username\AppData\Local\Temp\cca9Ol7c.s 			page 37


 1420              		.cfi_offset 14, -4
 1421 0002 031C     		mov	r3, r0
 634:.\mpu6050.c   ****     I2CWriteBit(devAddr, MPU6050_RA_FIFO_EN, MPU6050_YG_FIFO_EN_BIT, enabled);
 1422              		.loc 1 634 0
 1423 0004 034A     		ldr	r2, .L119
 1424 0006 1078     		ldrb	r0, [r2]
 1425              	.LVL75:
 1426 0008 2321     		mov	r1, #35
 1427 000a 0522     		mov	r2, #5
 1428 000c FFF7FEFF 		bl	I2CWriteBit
 1429              	.LVL76:
 635:.\mpu6050.c   **** }
 1430              		.loc 1 635 0
 1431              		@ sp needed
 1432 0010 08BD     		pop	{r3, pc}
 1433              	.L120:
 1434 0012 C046     		.align	2
 1435              	.L119:
 1436 0014 00000000 		.word	devAddr
 1437              		.cfi_endproc
 1438              	.LFE41:
 1439              		.size	MPU6050_setYGyroFIFOEnabled, .-MPU6050_setYGyroFIFOEnabled
 1440              		.section	.text.MPU6050_getZGyroFIFOEnabled,"ax",%progbits
 1441              		.align	2
 1442              		.global	MPU6050_getZGyroFIFOEnabled
 1443              		.code	16
 1444              		.thumb_func
 1445              		.type	MPU6050_getZGyroFIFOEnabled, %function
 1446              	MPU6050_getZGyroFIFOEnabled:
 1447              	.LFB42:
 636:.\mpu6050.c   **** /** Get gyroscope Z-axis FIFO enabled value.
 637:.\mpu6050.c   ****  * When set to 1, this bit enables GYRO_ZOUT_H and GYRO_ZOUT_L (Registers 71 and
 638:.\mpu6050.c   ****  * 72) to be written into the FIFO buffer.
 639:.\mpu6050.c   ****  * @return Current gyroscope Z-axis FIFO enabled value
 640:.\mpu6050.c   ****  * @see MPU6050_RA_FIFO_EN
 641:.\mpu6050.c   ****  */
 642:.\mpu6050.c   **** bool MPU6050_getZGyroFIFOEnabled() {
 1448              		.loc 1 642 0
 1449              		.cfi_startproc
 1450 0000 10B5     		push	{r4, lr}
 1451              		.cfi_def_cfa_offset 8
 1452              		.cfi_offset 4, -8
 1453              		.cfi_offset 14, -4
 643:.\mpu6050.c   ****     I2CReadBit(devAddr, MPU6050_RA_FIFO_EN, MPU6050_ZG_FIFO_EN_BIT, buffer);
 1454              		.loc 1 643 0
 1455 0002 064B     		ldr	r3, .L122
 1456 0004 1878     		ldrb	r0, [r3]
 1457 0006 064C     		ldr	r4, .L122+4
 1458 0008 2321     		mov	r1, #35
 1459 000a 0422     		mov	r2, #4
 1460 000c 231C     		mov	r3, r4
 1461 000e FFF7FEFF 		bl	I2CReadBit
 1462              	.LVL77:
 644:.\mpu6050.c   ****     return buffer[0];
 1463              		.loc 1 644 0
 1464 0012 2078     		ldrb	r0, [r4]
 1465 0014 431E     		sub	r3, r0, #1
ARM GAS  C:\Users\username\AppData\Local\Temp\cca9Ol7c.s 			page 38


 1466 0016 9841     		sbc	r0, r0, r3
 1467 0018 C0B2     		uxtb	r0, r0
 645:.\mpu6050.c   **** }
 1468              		.loc 1 645 0
 1469              		@ sp needed
 1470 001a 10BD     		pop	{r4, pc}
 1471              	.L123:
 1472              		.align	2
 1473              	.L122:
 1474 001c 00000000 		.word	devAddr
 1475 0020 00000000 		.word	buffer
 1476              		.cfi_endproc
 1477              	.LFE42:
 1478              		.size	MPU6050_getZGyroFIFOEnabled, .-MPU6050_getZGyroFIFOEnabled
 1479              		.section	.text.MPU6050_setZGyroFIFOEnabled,"ax",%progbits
 1480              		.align	2
 1481              		.global	MPU6050_setZGyroFIFOEnabled
 1482              		.code	16
 1483              		.thumb_func
 1484              		.type	MPU6050_setZGyroFIFOEnabled, %function
 1485              	MPU6050_setZGyroFIFOEnabled:
 1486              	.LFB43:
 646:.\mpu6050.c   **** /** Set gyroscope Z-axis FIFO enabled value.
 647:.\mpu6050.c   ****  * @param enabled New gyroscope Z-axis FIFO enabled value
 648:.\mpu6050.c   ****  * @see getZGyroFIFOEnabled()
 649:.\mpu6050.c   ****  * @see MPU6050_RA_FIFO_EN
 650:.\mpu6050.c   ****  */
 651:.\mpu6050.c   **** void MPU6050_setZGyroFIFOEnabled(bool enabled) {
 1487              		.loc 1 651 0
 1488              		.cfi_startproc
 1489              	.LVL78:
 1490 0000 08B5     		push	{r3, lr}
 1491              		.cfi_def_cfa_offset 8
 1492              		.cfi_offset 3, -8
 1493              		.cfi_offset 14, -4
 1494 0002 031C     		mov	r3, r0
 652:.\mpu6050.c   ****     I2CWriteBit(devAddr, MPU6050_RA_FIFO_EN, MPU6050_ZG_FIFO_EN_BIT, enabled);
 1495              		.loc 1 652 0
 1496 0004 034A     		ldr	r2, .L125
 1497 0006 1078     		ldrb	r0, [r2]
 1498              	.LVL79:
 1499 0008 2321     		mov	r1, #35
 1500 000a 0422     		mov	r2, #4
 1501 000c FFF7FEFF 		bl	I2CWriteBit
 1502              	.LVL80:
 653:.\mpu6050.c   **** }
 1503              		.loc 1 653 0
 1504              		@ sp needed
 1505 0010 08BD     		pop	{r3, pc}
 1506              	.L126:
 1507 0012 C046     		.align	2
 1508              	.L125:
 1509 0014 00000000 		.word	devAddr
 1510              		.cfi_endproc
 1511              	.LFE43:
 1512              		.size	MPU6050_setZGyroFIFOEnabled, .-MPU6050_setZGyroFIFOEnabled
 1513              		.section	.text.MPU6050_getAccelFIFOEnabled,"ax",%progbits
ARM GAS  C:\Users\username\AppData\Local\Temp\cca9Ol7c.s 			page 39


 1514              		.align	2
 1515              		.global	MPU6050_getAccelFIFOEnabled
 1516              		.code	16
 1517              		.thumb_func
 1518              		.type	MPU6050_getAccelFIFOEnabled, %function
 1519              	MPU6050_getAccelFIFOEnabled:
 1520              	.LFB44:
 654:.\mpu6050.c   **** /** Get accelerometer FIFO enabled value.
 655:.\mpu6050.c   ****  * When set to 1, this bit enables ACCEL_XOUT_H, ACCEL_XOUT_L, ACCEL_YOUT_H,
 656:.\mpu6050.c   ****  * ACCEL_YOUT_L, ACCEL_ZOUT_H, and ACCEL_ZOUT_L (Registers 59 to 64) to be
 657:.\mpu6050.c   ****  * written into the FIFO buffer.
 658:.\mpu6050.c   ****  * @return Current accelerometer FIFO enabled value
 659:.\mpu6050.c   ****  * @see MPU6050_RA_FIFO_EN
 660:.\mpu6050.c   ****  */
 661:.\mpu6050.c   **** bool MPU6050_getAccelFIFOEnabled() {
 1521              		.loc 1 661 0
 1522              		.cfi_startproc
 1523 0000 10B5     		push	{r4, lr}
 1524              		.cfi_def_cfa_offset 8
 1525              		.cfi_offset 4, -8
 1526              		.cfi_offset 14, -4
 662:.\mpu6050.c   ****     I2CReadBit(devAddr, MPU6050_RA_FIFO_EN, MPU6050_ACCEL_FIFO_EN_BIT, buffer);
 1527              		.loc 1 662 0
 1528 0002 064B     		ldr	r3, .L128
 1529 0004 1878     		ldrb	r0, [r3]
 1530 0006 064C     		ldr	r4, .L128+4
 1531 0008 2321     		mov	r1, #35
 1532 000a 0322     		mov	r2, #3
 1533 000c 231C     		mov	r3, r4
 1534 000e FFF7FEFF 		bl	I2CReadBit
 1535              	.LVL81:
 663:.\mpu6050.c   ****     return buffer[0];
 1536              		.loc 1 663 0
 1537 0012 2078     		ldrb	r0, [r4]
 1538 0014 431E     		sub	r3, r0, #1
 1539 0016 9841     		sbc	r0, r0, r3
 1540 0018 C0B2     		uxtb	r0, r0
 664:.\mpu6050.c   **** }
 1541              		.loc 1 664 0
 1542              		@ sp needed
 1543 001a 10BD     		pop	{r4, pc}
 1544              	.L129:
 1545              		.align	2
 1546              	.L128:
 1547 001c 00000000 		.word	devAddr
 1548 0020 00000000 		.word	buffer
 1549              		.cfi_endproc
 1550              	.LFE44:
 1551              		.size	MPU6050_getAccelFIFOEnabled, .-MPU6050_getAccelFIFOEnabled
 1552              		.section	.text.MPU6050_setAccelFIFOEnabled,"ax",%progbits
 1553              		.align	2
 1554              		.global	MPU6050_setAccelFIFOEnabled
 1555              		.code	16
 1556              		.thumb_func
 1557              		.type	MPU6050_setAccelFIFOEnabled, %function
 1558              	MPU6050_setAccelFIFOEnabled:
 1559              	.LFB45:
ARM GAS  C:\Users\username\AppData\Local\Temp\cca9Ol7c.s 			page 40


 665:.\mpu6050.c   **** /** Set accelerometer FIFO enabled value.
 666:.\mpu6050.c   ****  * @param enabled New accelerometer FIFO enabled value
 667:.\mpu6050.c   ****  * @see getAccelFIFOEnabled()
 668:.\mpu6050.c   ****  * @see MPU6050_RA_FIFO_EN
 669:.\mpu6050.c   ****  */
 670:.\mpu6050.c   **** void MPU6050_setAccelFIFOEnabled(bool enabled) {
 1560              		.loc 1 670 0
 1561              		.cfi_startproc
 1562              	.LVL82:
 1563 0000 08B5     		push	{r3, lr}
 1564              		.cfi_def_cfa_offset 8
 1565              		.cfi_offset 3, -8
 1566              		.cfi_offset 14, -4
 1567 0002 031C     		mov	r3, r0
 671:.\mpu6050.c   ****     I2CWriteBit(devAddr, MPU6050_RA_FIFO_EN, MPU6050_ACCEL_FIFO_EN_BIT, enabled);
 1568              		.loc 1 671 0
 1569 0004 034A     		ldr	r2, .L131
 1570 0006 1078     		ldrb	r0, [r2]
 1571              	.LVL83:
 1572 0008 2321     		mov	r1, #35
 1573 000a 0322     		mov	r2, #3
 1574 000c FFF7FEFF 		bl	I2CWriteBit
 1575              	.LVL84:
 672:.\mpu6050.c   **** }
 1576              		.loc 1 672 0
 1577              		@ sp needed
 1578 0010 08BD     		pop	{r3, pc}
 1579              	.L132:
 1580 0012 C046     		.align	2
 1581              	.L131:
 1582 0014 00000000 		.word	devAddr
 1583              		.cfi_endproc
 1584              	.LFE45:
 1585              		.size	MPU6050_setAccelFIFOEnabled, .-MPU6050_setAccelFIFOEnabled
 1586              		.section	.text.MPU6050_getSlave2FIFOEnabled,"ax",%progbits
 1587              		.align	2
 1588              		.global	MPU6050_getSlave2FIFOEnabled
 1589              		.code	16
 1590              		.thumb_func
 1591              		.type	MPU6050_getSlave2FIFOEnabled, %function
 1592              	MPU6050_getSlave2FIFOEnabled:
 1593              	.LFB46:
 673:.\mpu6050.c   **** /** Get Slave 2 FIFO enabled value.
 674:.\mpu6050.c   ****  * When set to 1, this bit enables EXT_SENS_DATA registers (Registers 73 to 96)
 675:.\mpu6050.c   ****  * associated with Slave 2 to be written into the FIFO buffer.
 676:.\mpu6050.c   ****  * @return Current Slave 2 FIFO enabled value
 677:.\mpu6050.c   ****  * @see MPU6050_RA_FIFO_EN
 678:.\mpu6050.c   ****  */
 679:.\mpu6050.c   **** bool MPU6050_getSlave2FIFOEnabled() {
 1594              		.loc 1 679 0
 1595              		.cfi_startproc
 1596 0000 10B5     		push	{r4, lr}
 1597              		.cfi_def_cfa_offset 8
 1598              		.cfi_offset 4, -8
 1599              		.cfi_offset 14, -4
 680:.\mpu6050.c   ****     I2CReadBit(devAddr, MPU6050_RA_FIFO_EN, MPU6050_SLV2_FIFO_EN_BIT, buffer);
 1600              		.loc 1 680 0
ARM GAS  C:\Users\username\AppData\Local\Temp\cca9Ol7c.s 			page 41


 1601 0002 064B     		ldr	r3, .L134
 1602 0004 1878     		ldrb	r0, [r3]
 1603 0006 064C     		ldr	r4, .L134+4
 1604 0008 2321     		mov	r1, #35
 1605 000a 0222     		mov	r2, #2
 1606 000c 231C     		mov	r3, r4
 1607 000e FFF7FEFF 		bl	I2CReadBit
 1608              	.LVL85:
 681:.\mpu6050.c   ****     return buffer[0];
 1609              		.loc 1 681 0
 1610 0012 2078     		ldrb	r0, [r4]
 1611 0014 431E     		sub	r3, r0, #1
 1612 0016 9841     		sbc	r0, r0, r3
 1613 0018 C0B2     		uxtb	r0, r0
 682:.\mpu6050.c   **** }
 1614              		.loc 1 682 0
 1615              		@ sp needed
 1616 001a 10BD     		pop	{r4, pc}
 1617              	.L135:
 1618              		.align	2
 1619              	.L134:
 1620 001c 00000000 		.word	devAddr
 1621 0020 00000000 		.word	buffer
 1622              		.cfi_endproc
 1623              	.LFE46:
 1624              		.size	MPU6050_getSlave2FIFOEnabled, .-MPU6050_getSlave2FIFOEnabled
 1625              		.section	.text.MPU6050_setSlave2FIFOEnabled,"ax",%progbits
 1626              		.align	2
 1627              		.global	MPU6050_setSlave2FIFOEnabled
 1628              		.code	16
 1629              		.thumb_func
 1630              		.type	MPU6050_setSlave2FIFOEnabled, %function
 1631              	MPU6050_setSlave2FIFOEnabled:
 1632              	.LFB47:
 683:.\mpu6050.c   **** /** Set Slave 2 FIFO enabled value.
 684:.\mpu6050.c   ****  * @param enabled New Slave 2 FIFO enabled value
 685:.\mpu6050.c   ****  * @see getSlave2FIFOEnabled()
 686:.\mpu6050.c   ****  * @see MPU6050_RA_FIFO_EN
 687:.\mpu6050.c   ****  */
 688:.\mpu6050.c   **** void MPU6050_setSlave2FIFOEnabled(bool enabled) {
 1633              		.loc 1 688 0
 1634              		.cfi_startproc
 1635              	.LVL86:
 1636 0000 08B5     		push	{r3, lr}
 1637              		.cfi_def_cfa_offset 8
 1638              		.cfi_offset 3, -8
 1639              		.cfi_offset 14, -4
 1640 0002 031C     		mov	r3, r0
 689:.\mpu6050.c   ****     I2CWriteBit(devAddr, MPU6050_RA_FIFO_EN, MPU6050_SLV2_FIFO_EN_BIT, enabled);
 1641              		.loc 1 689 0
 1642 0004 034A     		ldr	r2, .L137
 1643 0006 1078     		ldrb	r0, [r2]
 1644              	.LVL87:
 1645 0008 2321     		mov	r1, #35
 1646 000a 0222     		mov	r2, #2
 1647 000c FFF7FEFF 		bl	I2CWriteBit
 1648              	.LVL88:
ARM GAS  C:\Users\username\AppData\Local\Temp\cca9Ol7c.s 			page 42


 690:.\mpu6050.c   **** }
 1649              		.loc 1 690 0
 1650              		@ sp needed
 1651 0010 08BD     		pop	{r3, pc}
 1652              	.L138:
 1653 0012 C046     		.align	2
 1654              	.L137:
 1655 0014 00000000 		.word	devAddr
 1656              		.cfi_endproc
 1657              	.LFE47:
 1658              		.size	MPU6050_setSlave2FIFOEnabled, .-MPU6050_setSlave2FIFOEnabled
 1659              		.section	.text.MPU6050_getSlave1FIFOEnabled,"ax",%progbits
 1660              		.align	2
 1661              		.global	MPU6050_getSlave1FIFOEnabled
 1662              		.code	16
 1663              		.thumb_func
 1664              		.type	MPU6050_getSlave1FIFOEnabled, %function
 1665              	MPU6050_getSlave1FIFOEnabled:
 1666              	.LFB48:
 691:.\mpu6050.c   **** /** Get Slave 1 FIFO enabled value.
 692:.\mpu6050.c   ****  * When set to 1, this bit enables EXT_SENS_DATA registers (Registers 73 to 96)
 693:.\mpu6050.c   ****  * associated with Slave 1 to be written into the FIFO buffer.
 694:.\mpu6050.c   ****  * @return Current Slave 1 FIFO enabled value
 695:.\mpu6050.c   ****  * @see MPU6050_RA_FIFO_EN
 696:.\mpu6050.c   ****  */
 697:.\mpu6050.c   **** bool MPU6050_getSlave1FIFOEnabled() {
 1667              		.loc 1 697 0
 1668              		.cfi_startproc
 1669 0000 10B5     		push	{r4, lr}
 1670              		.cfi_def_cfa_offset 8
 1671              		.cfi_offset 4, -8
 1672              		.cfi_offset 14, -4
 698:.\mpu6050.c   ****     I2CReadBit(devAddr, MPU6050_RA_FIFO_EN, MPU6050_SLV1_FIFO_EN_BIT, buffer);
 1673              		.loc 1 698 0
 1674 0002 064B     		ldr	r3, .L140
 1675 0004 1878     		ldrb	r0, [r3]
 1676 0006 064C     		ldr	r4, .L140+4
 1677 0008 2321     		mov	r1, #35
 1678 000a 0122     		mov	r2, #1
 1679 000c 231C     		mov	r3, r4
 1680 000e FFF7FEFF 		bl	I2CReadBit
 1681              	.LVL89:
 699:.\mpu6050.c   ****     return buffer[0];
 1682              		.loc 1 699 0
 1683 0012 2078     		ldrb	r0, [r4]
 1684 0014 431E     		sub	r3, r0, #1
 1685 0016 9841     		sbc	r0, r0, r3
 1686 0018 C0B2     		uxtb	r0, r0
 700:.\mpu6050.c   **** }
 1687              		.loc 1 700 0
 1688              		@ sp needed
 1689 001a 10BD     		pop	{r4, pc}
 1690              	.L141:
 1691              		.align	2
 1692              	.L140:
 1693 001c 00000000 		.word	devAddr
 1694 0020 00000000 		.word	buffer
ARM GAS  C:\Users\username\AppData\Local\Temp\cca9Ol7c.s 			page 43


 1695              		.cfi_endproc
 1696              	.LFE48:
 1697              		.size	MPU6050_getSlave1FIFOEnabled, .-MPU6050_getSlave1FIFOEnabled
 1698              		.section	.text.MPU6050_setSlave1FIFOEnabled,"ax",%progbits
 1699              		.align	2
 1700              		.global	MPU6050_setSlave1FIFOEnabled
 1701              		.code	16
 1702              		.thumb_func
 1703              		.type	MPU6050_setSlave1FIFOEnabled, %function
 1704              	MPU6050_setSlave1FIFOEnabled:
 1705              	.LFB49:
 701:.\mpu6050.c   **** /** Set Slave 1 FIFO enabled value.
 702:.\mpu6050.c   ****  * @param enabled New Slave 1 FIFO enabled value
 703:.\mpu6050.c   ****  * @see getSlave1FIFOEnabled()
 704:.\mpu6050.c   ****  * @see MPU6050_RA_FIFO_EN
 705:.\mpu6050.c   ****  */
 706:.\mpu6050.c   **** void MPU6050_setSlave1FIFOEnabled(bool enabled) {
 1706              		.loc 1 706 0
 1707              		.cfi_startproc
 1708              	.LVL90:
 1709 0000 08B5     		push	{r3, lr}
 1710              		.cfi_def_cfa_offset 8
 1711              		.cfi_offset 3, -8
 1712              		.cfi_offset 14, -4
 1713 0002 031C     		mov	r3, r0
 707:.\mpu6050.c   ****     I2CWriteBit(devAddr, MPU6050_RA_FIFO_EN, MPU6050_SLV1_FIFO_EN_BIT, enabled);
 1714              		.loc 1 707 0
 1715 0004 034A     		ldr	r2, .L143
 1716 0006 1078     		ldrb	r0, [r2]
 1717              	.LVL91:
 1718 0008 2321     		mov	r1, #35
 1719 000a 0122     		mov	r2, #1
 1720 000c FFF7FEFF 		bl	I2CWriteBit
 1721              	.LVL92:
 708:.\mpu6050.c   **** }
 1722              		.loc 1 708 0
 1723              		@ sp needed
 1724 0010 08BD     		pop	{r3, pc}
 1725              	.L144:
 1726 0012 C046     		.align	2
 1727              	.L143:
 1728 0014 00000000 		.word	devAddr
 1729              		.cfi_endproc
 1730              	.LFE49:
 1731              		.size	MPU6050_setSlave1FIFOEnabled, .-MPU6050_setSlave1FIFOEnabled
 1732              		.section	.text.MPU6050_getSlave0FIFOEnabled,"ax",%progbits
 1733              		.align	2
 1734              		.global	MPU6050_getSlave0FIFOEnabled
 1735              		.code	16
 1736              		.thumb_func
 1737              		.type	MPU6050_getSlave0FIFOEnabled, %function
 1738              	MPU6050_getSlave0FIFOEnabled:
 1739              	.LFB50:
 709:.\mpu6050.c   **** /** Get Slave 0 FIFO enabled value.
 710:.\mpu6050.c   ****  * When set to 1, this bit enables EXT_SENS_DATA registers (Registers 73 to 96)
 711:.\mpu6050.c   ****  * associated with Slave 0 to be written into the FIFO buffer.
 712:.\mpu6050.c   ****  * @return Current Slave 0 FIFO enabled value
ARM GAS  C:\Users\username\AppData\Local\Temp\cca9Ol7c.s 			page 44


 713:.\mpu6050.c   ****  * @see MPU6050_RA_FIFO_EN
 714:.\mpu6050.c   ****  */
 715:.\mpu6050.c   **** bool MPU6050_getSlave0FIFOEnabled() {
 1740              		.loc 1 715 0
 1741              		.cfi_startproc
 1742 0000 10B5     		push	{r4, lr}
 1743              		.cfi_def_cfa_offset 8
 1744              		.cfi_offset 4, -8
 1745              		.cfi_offset 14, -4
 716:.\mpu6050.c   ****     I2CReadBit(devAddr, MPU6050_RA_FIFO_EN, MPU6050_SLV0_FIFO_EN_BIT, buffer);
 1746              		.loc 1 716 0
 1747 0002 064B     		ldr	r3, .L146
 1748 0004 1878     		ldrb	r0, [r3]
 1749 0006 064C     		ldr	r4, .L146+4
 1750 0008 2321     		mov	r1, #35
 1751 000a 0022     		mov	r2, #0
 1752 000c 231C     		mov	r3, r4
 1753 000e FFF7FEFF 		bl	I2CReadBit
 1754              	.LVL93:
 717:.\mpu6050.c   ****     return buffer[0];
 1755              		.loc 1 717 0
 1756 0012 2078     		ldrb	r0, [r4]
 1757 0014 431E     		sub	r3, r0, #1
 1758 0016 9841     		sbc	r0, r0, r3
 1759 0018 C0B2     		uxtb	r0, r0
 718:.\mpu6050.c   **** }
 1760              		.loc 1 718 0
 1761              		@ sp needed
 1762 001a 10BD     		pop	{r4, pc}
 1763              	.L147:
 1764              		.align	2
 1765              	.L146:
 1766 001c 00000000 		.word	devAddr
 1767 0020 00000000 		.word	buffer
 1768              		.cfi_endproc
 1769              	.LFE50:
 1770              		.size	MPU6050_getSlave0FIFOEnabled, .-MPU6050_getSlave0FIFOEnabled
 1771              		.section	.text.MPU6050_setSlave0FIFOEnabled,"ax",%progbits
 1772              		.align	2
 1773              		.global	MPU6050_setSlave0FIFOEnabled
 1774              		.code	16
 1775              		.thumb_func
 1776              		.type	MPU6050_setSlave0FIFOEnabled, %function
 1777              	MPU6050_setSlave0FIFOEnabled:
 1778              	.LFB51:
 719:.\mpu6050.c   **** /** Set Slave 0 FIFO enabled value.
 720:.\mpu6050.c   ****  * @param enabled New Slave 0 FIFO enabled value
 721:.\mpu6050.c   ****  * @see getSlave0FIFOEnabled()
 722:.\mpu6050.c   ****  * @see MPU6050_RA_FIFO_EN
 723:.\mpu6050.c   ****  */
 724:.\mpu6050.c   **** void MPU6050_setSlave0FIFOEnabled(bool enabled) {
 1779              		.loc 1 724 0
 1780              		.cfi_startproc
 1781              	.LVL94:
 1782 0000 08B5     		push	{r3, lr}
 1783              		.cfi_def_cfa_offset 8
 1784              		.cfi_offset 3, -8
ARM GAS  C:\Users\username\AppData\Local\Temp\cca9Ol7c.s 			page 45


 1785              		.cfi_offset 14, -4
 1786 0002 031C     		mov	r3, r0
 725:.\mpu6050.c   ****     I2CWriteBit(devAddr, MPU6050_RA_FIFO_EN, MPU6050_SLV0_FIFO_EN_BIT, enabled);
 1787              		.loc 1 725 0
 1788 0004 034A     		ldr	r2, .L149
 1789 0006 1078     		ldrb	r0, [r2]
 1790              	.LVL95:
 1791 0008 2321     		mov	r1, #35
 1792 000a 0022     		mov	r2, #0
 1793 000c FFF7FEFF 		bl	I2CWriteBit
 1794              	.LVL96:
 726:.\mpu6050.c   **** }
 1795              		.loc 1 726 0
 1796              		@ sp needed
 1797 0010 08BD     		pop	{r3, pc}
 1798              	.L150:
 1799 0012 C046     		.align	2
 1800              	.L149:
 1801 0014 00000000 		.word	devAddr
 1802              		.cfi_endproc
 1803              	.LFE51:
 1804              		.size	MPU6050_setSlave0FIFOEnabled, .-MPU6050_setSlave0FIFOEnabled
 1805              		.section	.text.MPU6050_getMultiMasterEnabled,"ax",%progbits
 1806              		.align	2
 1807              		.global	MPU6050_getMultiMasterEnabled
 1808              		.code	16
 1809              		.thumb_func
 1810              		.type	MPU6050_getMultiMasterEnabled, %function
 1811              	MPU6050_getMultiMasterEnabled:
 1812              	.LFB52:
 727:.\mpu6050.c   **** 
 728:.\mpu6050.c   **** // I2C_MST_CTRL register
 729:.\mpu6050.c   **** 
 730:.\mpu6050.c   **** /** Get multi-master enabled value.
 731:.\mpu6050.c   ****  * Multi-master capability allows multiple I2C masters to operate on the same
 732:.\mpu6050.c   ****  * bus. In circuits where multi-master capability is required, set MULT_MST_EN
 733:.\mpu6050.c   ****  * to 1. This will increase current drawn by approximately 30uA.
 734:.\mpu6050.c   ****  *
 735:.\mpu6050.c   ****  * In circuits where multi-master capability is required, the state of the I2C
 736:.\mpu6050.c   ****  * bus must always be monitored by each separate I2C Master. Before an I2C
 737:.\mpu6050.c   ****  * Master can assume arbitration of the bus, it must first confirm that no other
 738:.\mpu6050.c   ****  * I2C Master has arbitration of the bus. When MULT_MST_EN is set to 1, the
 739:.\mpu6050.c   ****  * MPU-60X0's bus arbitration detection logic is turned on, enabling it to
 740:.\mpu6050.c   ****  * detect when the bus is available.
 741:.\mpu6050.c   ****  *
 742:.\mpu6050.c   ****  * @return Current multi-master enabled value
 743:.\mpu6050.c   ****  * @see MPU6050_RA_I2C_MST_CTRL
 744:.\mpu6050.c   ****  */
 745:.\mpu6050.c   **** bool MPU6050_getMultiMasterEnabled() {
 1813              		.loc 1 745 0
 1814              		.cfi_startproc
 1815 0000 10B5     		push	{r4, lr}
 1816              		.cfi_def_cfa_offset 8
 1817              		.cfi_offset 4, -8
 1818              		.cfi_offset 14, -4
 746:.\mpu6050.c   ****     I2CReadBit(devAddr, MPU6050_RA_I2C_MST_CTRL, MPU6050_MULT_MST_EN_BIT, buffer);
 1819              		.loc 1 746 0
ARM GAS  C:\Users\username\AppData\Local\Temp\cca9Ol7c.s 			page 46


 1820 0002 064B     		ldr	r3, .L152
 1821 0004 1878     		ldrb	r0, [r3]
 1822 0006 064C     		ldr	r4, .L152+4
 1823 0008 2421     		mov	r1, #36
 1824 000a 0722     		mov	r2, #7
 1825 000c 231C     		mov	r3, r4
 1826 000e FFF7FEFF 		bl	I2CReadBit
 1827              	.LVL97:
 747:.\mpu6050.c   ****     return buffer[0];
 1828              		.loc 1 747 0
 1829 0012 2078     		ldrb	r0, [r4]
 1830 0014 431E     		sub	r3, r0, #1
 1831 0016 9841     		sbc	r0, r0, r3
 1832 0018 C0B2     		uxtb	r0, r0
 748:.\mpu6050.c   **** }
 1833              		.loc 1 748 0
 1834              		@ sp needed
 1835 001a 10BD     		pop	{r4, pc}
 1836              	.L153:
 1837              		.align	2
 1838              	.L152:
 1839 001c 00000000 		.word	devAddr
 1840 0020 00000000 		.word	buffer
 1841              		.cfi_endproc
 1842              	.LFE52:
 1843              		.size	MPU6050_getMultiMasterEnabled, .-MPU6050_getMultiMasterEnabled
 1844              		.section	.text.MPU6050_setMultiMasterEnabled,"ax",%progbits
 1845              		.align	2
 1846              		.global	MPU6050_setMultiMasterEnabled
 1847              		.code	16
 1848              		.thumb_func
 1849              		.type	MPU6050_setMultiMasterEnabled, %function
 1850              	MPU6050_setMultiMasterEnabled:
 1851              	.LFB53:
 749:.\mpu6050.c   **** /** Set multi-master enabled value.
 750:.\mpu6050.c   ****  * @param enabled New multi-master enabled value
 751:.\mpu6050.c   ****  * @see getMultiMasterEnabled()
 752:.\mpu6050.c   ****  * @see MPU6050_RA_I2C_MST_CTRL
 753:.\mpu6050.c   ****  */
 754:.\mpu6050.c   **** void MPU6050_setMultiMasterEnabled(bool enabled) {
 1852              		.loc 1 754 0
 1853              		.cfi_startproc
 1854              	.LVL98:
 1855 0000 08B5     		push	{r3, lr}
 1856              		.cfi_def_cfa_offset 8
 1857              		.cfi_offset 3, -8
 1858              		.cfi_offset 14, -4
 1859 0002 031C     		mov	r3, r0
 755:.\mpu6050.c   ****     I2CWriteBit(devAddr, MPU6050_RA_I2C_MST_CTRL, MPU6050_MULT_MST_EN_BIT, enabled);
 1860              		.loc 1 755 0
 1861 0004 034A     		ldr	r2, .L155
 1862 0006 1078     		ldrb	r0, [r2]
 1863              	.LVL99:
 1864 0008 2421     		mov	r1, #36
 1865 000a 0722     		mov	r2, #7
 1866 000c FFF7FEFF 		bl	I2CWriteBit
 1867              	.LVL100:
ARM GAS  C:\Users\username\AppData\Local\Temp\cca9Ol7c.s 			page 47


 756:.\mpu6050.c   **** }
 1868              		.loc 1 756 0
 1869              		@ sp needed
 1870 0010 08BD     		pop	{r3, pc}
 1871              	.L156:
 1872 0012 C046     		.align	2
 1873              	.L155:
 1874 0014 00000000 		.word	devAddr
 1875              		.cfi_endproc
 1876              	.LFE53:
 1877              		.size	MPU6050_setMultiMasterEnabled, .-MPU6050_setMultiMasterEnabled
 1878              		.section	.text.MPU6050_getWaitForExternalSensorEnabled,"ax",%progbits
 1879              		.align	2
 1880              		.global	MPU6050_getWaitForExternalSensorEnabled
 1881              		.code	16
 1882              		.thumb_func
 1883              		.type	MPU6050_getWaitForExternalSensorEnabled, %function
 1884              	MPU6050_getWaitForExternalSensorEnabled:
 1885              	.LFB54:
 757:.\mpu6050.c   **** /** Get wait-for-external-sensor-data enabled value.
 758:.\mpu6050.c   ****  * When the WAIT_FOR_ES bit is set to 1, the Data Ready interrupt will be
 759:.\mpu6050.c   ****  * delayed until External Sensor data from the Slave Devices are loaded into the
 760:.\mpu6050.c   ****  * EXT_SENS_DATA registers. This is used to ensure that both the internal sensor
 761:.\mpu6050.c   ****  * data (i.e. from gyro and accel) and external sensor data have been loaded to
 762:.\mpu6050.c   ****  * their respective data registers (i.e. the data is synced) when the Data Ready
 763:.\mpu6050.c   ****  * interrupt is triggered.
 764:.\mpu6050.c   ****  *
 765:.\mpu6050.c   ****  * @return Current wait-for-external-sensor-data enabled value
 766:.\mpu6050.c   ****  * @see MPU6050_RA_I2C_MST_CTRL
 767:.\mpu6050.c   ****  */
 768:.\mpu6050.c   **** bool MPU6050_getWaitForExternalSensorEnabled() {
 1886              		.loc 1 768 0
 1887              		.cfi_startproc
 1888 0000 10B5     		push	{r4, lr}
 1889              		.cfi_def_cfa_offset 8
 1890              		.cfi_offset 4, -8
 1891              		.cfi_offset 14, -4
 769:.\mpu6050.c   ****     I2CReadBit(devAddr, MPU6050_RA_I2C_MST_CTRL, MPU6050_WAIT_FOR_ES_BIT, buffer);
 1892              		.loc 1 769 0
 1893 0002 064B     		ldr	r3, .L158
 1894 0004 1878     		ldrb	r0, [r3]
 1895 0006 064C     		ldr	r4, .L158+4
 1896 0008 2421     		mov	r1, #36
 1897 000a 0622     		mov	r2, #6
 1898 000c 231C     		mov	r3, r4
 1899 000e FFF7FEFF 		bl	I2CReadBit
 1900              	.LVL101:
 770:.\mpu6050.c   ****     return buffer[0];
 1901              		.loc 1 770 0
 1902 0012 2078     		ldrb	r0, [r4]
 1903 0014 431E     		sub	r3, r0, #1
 1904 0016 9841     		sbc	r0, r0, r3
 1905 0018 C0B2     		uxtb	r0, r0
 771:.\mpu6050.c   **** }
 1906              		.loc 1 771 0
 1907              		@ sp needed
 1908 001a 10BD     		pop	{r4, pc}
ARM GAS  C:\Users\username\AppData\Local\Temp\cca9Ol7c.s 			page 48


 1909              	.L159:
 1910              		.align	2
 1911              	.L158:
 1912 001c 00000000 		.word	devAddr
 1913 0020 00000000 		.word	buffer
 1914              		.cfi_endproc
 1915              	.LFE54:
 1916              		.size	MPU6050_getWaitForExternalSensorEnabled, .-MPU6050_getWaitForExternalSensorEnabled
 1917              		.section	.text.MPU6050_setWaitForExternalSensorEnabled,"ax",%progbits
 1918              		.align	2
 1919              		.global	MPU6050_setWaitForExternalSensorEnabled
 1920              		.code	16
 1921              		.thumb_func
 1922              		.type	MPU6050_setWaitForExternalSensorEnabled, %function
 1923              	MPU6050_setWaitForExternalSensorEnabled:
 1924              	.LFB55:
 772:.\mpu6050.c   **** /** Set wait-for-external-sensor-data enabled value.
 773:.\mpu6050.c   ****  * @param enabled New wait-for-external-sensor-data enabled value
 774:.\mpu6050.c   ****  * @see getWaitForExternalSensorEnabled()
 775:.\mpu6050.c   ****  * @see MPU6050_RA_I2C_MST_CTRL
 776:.\mpu6050.c   ****  */
 777:.\mpu6050.c   **** void MPU6050_setWaitForExternalSensorEnabled(bool enabled) {
 1925              		.loc 1 777 0
 1926              		.cfi_startproc
 1927              	.LVL102:
 1928 0000 08B5     		push	{r3, lr}
 1929              		.cfi_def_cfa_offset 8
 1930              		.cfi_offset 3, -8
 1931              		.cfi_offset 14, -4
 1932 0002 031C     		mov	r3, r0
 778:.\mpu6050.c   ****     I2CWriteBit(devAddr, MPU6050_RA_I2C_MST_CTRL, MPU6050_WAIT_FOR_ES_BIT, enabled);
 1933              		.loc 1 778 0
 1934 0004 034A     		ldr	r2, .L161
 1935 0006 1078     		ldrb	r0, [r2]
 1936              	.LVL103:
 1937 0008 2421     		mov	r1, #36
 1938 000a 0622     		mov	r2, #6
 1939 000c FFF7FEFF 		bl	I2CWriteBit
 1940              	.LVL104:
 779:.\mpu6050.c   **** }
 1941              		.loc 1 779 0
 1942              		@ sp needed
 1943 0010 08BD     		pop	{r3, pc}
 1944              	.L162:
 1945 0012 C046     		.align	2
 1946              	.L161:
 1947 0014 00000000 		.word	devAddr
 1948              		.cfi_endproc
 1949              	.LFE55:
 1950              		.size	MPU6050_setWaitForExternalSensorEnabled, .-MPU6050_setWaitForExternalSensorEnabled
 1951              		.section	.text.MPU6050_getSlave3FIFOEnabled,"ax",%progbits
 1952              		.align	2
 1953              		.global	MPU6050_getSlave3FIFOEnabled
 1954              		.code	16
 1955              		.thumb_func
 1956              		.type	MPU6050_getSlave3FIFOEnabled, %function
 1957              	MPU6050_getSlave3FIFOEnabled:
ARM GAS  C:\Users\username\AppData\Local\Temp\cca9Ol7c.s 			page 49


 1958              	.LFB56:
 780:.\mpu6050.c   **** /** Get Slave 3 FIFO enabled value.
 781:.\mpu6050.c   ****  * When set to 1, this bit enables EXT_SENS_DATA registers (Registers 73 to 96)
 782:.\mpu6050.c   ****  * associated with Slave 3 to be written into the FIFO buffer.
 783:.\mpu6050.c   ****  * @return Current Slave 3 FIFO enabled value
 784:.\mpu6050.c   ****  * @see MPU6050_RA_MST_CTRL
 785:.\mpu6050.c   ****  */
 786:.\mpu6050.c   **** bool MPU6050_getSlave3FIFOEnabled() {
 1959              		.loc 1 786 0
 1960              		.cfi_startproc
 1961 0000 10B5     		push	{r4, lr}
 1962              		.cfi_def_cfa_offset 8
 1963              		.cfi_offset 4, -8
 1964              		.cfi_offset 14, -4
 787:.\mpu6050.c   ****     I2CReadBit(devAddr, MPU6050_RA_I2C_MST_CTRL, MPU6050_SLV_3_FIFO_EN_BIT, buffer);
 1965              		.loc 1 787 0
 1966 0002 064B     		ldr	r3, .L164
 1967 0004 1878     		ldrb	r0, [r3]
 1968 0006 064C     		ldr	r4, .L164+4
 1969 0008 2421     		mov	r1, #36
 1970 000a 0522     		mov	r2, #5
 1971 000c 231C     		mov	r3, r4
 1972 000e FFF7FEFF 		bl	I2CReadBit
 1973              	.LVL105:
 788:.\mpu6050.c   ****     return buffer[0];
 1974              		.loc 1 788 0
 1975 0012 2078     		ldrb	r0, [r4]
 1976 0014 431E     		sub	r3, r0, #1
 1977 0016 9841     		sbc	r0, r0, r3
 1978 0018 C0B2     		uxtb	r0, r0
 789:.\mpu6050.c   **** }
 1979              		.loc 1 789 0
 1980              		@ sp needed
 1981 001a 10BD     		pop	{r4, pc}
 1982              	.L165:
 1983              		.align	2
 1984              	.L164:
 1985 001c 00000000 		.word	devAddr
 1986 0020 00000000 		.word	buffer
 1987              		.cfi_endproc
 1988              	.LFE56:
 1989              		.size	MPU6050_getSlave3FIFOEnabled, .-MPU6050_getSlave3FIFOEnabled
 1990              		.section	.text.MPU6050_setSlave3FIFOEnabled,"ax",%progbits
 1991              		.align	2
 1992              		.global	MPU6050_setSlave3FIFOEnabled
 1993              		.code	16
 1994              		.thumb_func
 1995              		.type	MPU6050_setSlave3FIFOEnabled, %function
 1996              	MPU6050_setSlave3FIFOEnabled:
 1997              	.LFB57:
 790:.\mpu6050.c   **** /** Set Slave 3 FIFO enabled value.
 791:.\mpu6050.c   ****  * @param enabled New Slave 3 FIFO enabled value
 792:.\mpu6050.c   ****  * @see getSlave3FIFOEnabled()
 793:.\mpu6050.c   ****  * @see MPU6050_RA_MST_CTRL
 794:.\mpu6050.c   ****  */
 795:.\mpu6050.c   **** void MPU6050_setSlave3FIFOEnabled(bool enabled) {
 1998              		.loc 1 795 0
ARM GAS  C:\Users\username\AppData\Local\Temp\cca9Ol7c.s 			page 50


 1999              		.cfi_startproc
 2000              	.LVL106:
 2001 0000 08B5     		push	{r3, lr}
 2002              		.cfi_def_cfa_offset 8
 2003              		.cfi_offset 3, -8
 2004              		.cfi_offset 14, -4
 2005 0002 031C     		mov	r3, r0
 796:.\mpu6050.c   ****     I2CWriteBit(devAddr, MPU6050_RA_I2C_MST_CTRL, MPU6050_SLV_3_FIFO_EN_BIT, enabled);
 2006              		.loc 1 796 0
 2007 0004 034A     		ldr	r2, .L167
 2008 0006 1078     		ldrb	r0, [r2]
 2009              	.LVL107:
 2010 0008 2421     		mov	r1, #36
 2011 000a 0522     		mov	r2, #5
 2012 000c FFF7FEFF 		bl	I2CWriteBit
 2013              	.LVL108:
 797:.\mpu6050.c   **** }
 2014              		.loc 1 797 0
 2015              		@ sp needed
 2016 0010 08BD     		pop	{r3, pc}
 2017              	.L168:
 2018 0012 C046     		.align	2
 2019              	.L167:
 2020 0014 00000000 		.word	devAddr
 2021              		.cfi_endproc
 2022              	.LFE57:
 2023              		.size	MPU6050_setSlave3FIFOEnabled, .-MPU6050_setSlave3FIFOEnabled
 2024              		.section	.text.MPU6050_getSlaveReadWriteTransitionEnabled,"ax",%progbits
 2025              		.align	2
 2026              		.global	MPU6050_getSlaveReadWriteTransitionEnabled
 2027              		.code	16
 2028              		.thumb_func
 2029              		.type	MPU6050_getSlaveReadWriteTransitionEnabled, %function
 2030              	MPU6050_getSlaveReadWriteTransitionEnabled:
 2031              	.LFB58:
 798:.\mpu6050.c   **** /** Get slave read/write transition enabled value.
 799:.\mpu6050.c   ****  * The I2C_MST_P_NSR bit configures the I2C Master's transition from one slave
 800:.\mpu6050.c   ****  * read to the next slave read. If the bit equals 0, there will be a restart
 801:.\mpu6050.c   ****  * between reads. If the bit equals 1, there will be a stop followed by a start
 802:.\mpu6050.c   ****  * of the following read. When a write transaction follows a read transaction,
 803:.\mpu6050.c   ****  * the stop followed by a start of the successive write will be always used.
 804:.\mpu6050.c   ****  *
 805:.\mpu6050.c   ****  * @return Current slave read/write transition enabled value
 806:.\mpu6050.c   ****  * @see MPU6050_RA_I2C_MST_CTRL
 807:.\mpu6050.c   ****  */
 808:.\mpu6050.c   **** bool MPU6050_getSlaveReadWriteTransitionEnabled() {
 2032              		.loc 1 808 0
 2033              		.cfi_startproc
 2034 0000 10B5     		push	{r4, lr}
 2035              		.cfi_def_cfa_offset 8
 2036              		.cfi_offset 4, -8
 2037              		.cfi_offset 14, -4
 809:.\mpu6050.c   ****     I2CReadBit(devAddr, MPU6050_RA_I2C_MST_CTRL, I2C_MPU6050_I2C_MST_P_NSR_BIT, buffer);
 2038              		.loc 1 809 0
 2039 0002 064B     		ldr	r3, .L170
 2040 0004 1878     		ldrb	r0, [r3]
 2041 0006 064C     		ldr	r4, .L170+4
ARM GAS  C:\Users\username\AppData\Local\Temp\cca9Ol7c.s 			page 51


 2042 0008 2421     		mov	r1, #36
 2043 000a 0422     		mov	r2, #4
 2044 000c 231C     		mov	r3, r4
 2045 000e FFF7FEFF 		bl	I2CReadBit
 2046              	.LVL109:
 810:.\mpu6050.c   ****     return buffer[0];
 2047              		.loc 1 810 0
 2048 0012 2078     		ldrb	r0, [r4]
 2049 0014 431E     		sub	r3, r0, #1
 2050 0016 9841     		sbc	r0, r0, r3
 2051 0018 C0B2     		uxtb	r0, r0
 811:.\mpu6050.c   **** }
 2052              		.loc 1 811 0
 2053              		@ sp needed
 2054 001a 10BD     		pop	{r4, pc}
 2055              	.L171:
 2056              		.align	2
 2057              	.L170:
 2058 001c 00000000 		.word	devAddr
 2059 0020 00000000 		.word	buffer
 2060              		.cfi_endproc
 2061              	.LFE58:
 2062              		.size	MPU6050_getSlaveReadWriteTransitionEnabled, .-MPU6050_getSlaveReadWriteTransitionEnabled
 2063              		.section	.text.MPU6050_setSlaveReadWriteTransitionEnabled,"ax",%progbits
 2064              		.align	2
 2065              		.global	MPU6050_setSlaveReadWriteTransitionEnabled
 2066              		.code	16
 2067              		.thumb_func
 2068              		.type	MPU6050_setSlaveReadWriteTransitionEnabled, %function
 2069              	MPU6050_setSlaveReadWriteTransitionEnabled:
 2070              	.LFB59:
 812:.\mpu6050.c   **** /** Set slave read/write transition enabled value.
 813:.\mpu6050.c   ****  * @param enabled New slave read/write transition enabled value
 814:.\mpu6050.c   ****  * @see getSlaveReadWriteTransitionEnabled()
 815:.\mpu6050.c   ****  * @see MPU6050_RA_I2C_MST_CTRL
 816:.\mpu6050.c   ****  */
 817:.\mpu6050.c   **** void MPU6050_setSlaveReadWriteTransitionEnabled(bool enabled) {
 2071              		.loc 1 817 0
 2072              		.cfi_startproc
 2073              	.LVL110:
 2074 0000 08B5     		push	{r3, lr}
 2075              		.cfi_def_cfa_offset 8
 2076              		.cfi_offset 3, -8
 2077              		.cfi_offset 14, -4
 2078 0002 031C     		mov	r3, r0
 818:.\mpu6050.c   ****     I2CWriteBit(devAddr, MPU6050_RA_I2C_MST_CTRL, I2C_MPU6050_I2C_MST_P_NSR_BIT, enabled);
 2079              		.loc 1 818 0
 2080 0004 034A     		ldr	r2, .L173
 2081 0006 1078     		ldrb	r0, [r2]
 2082              	.LVL111:
 2083 0008 2421     		mov	r1, #36
 2084 000a 0422     		mov	r2, #4
 2085 000c FFF7FEFF 		bl	I2CWriteBit
 2086              	.LVL112:
 819:.\mpu6050.c   **** }
 2087              		.loc 1 819 0
 2088              		@ sp needed
ARM GAS  C:\Users\username\AppData\Local\Temp\cca9Ol7c.s 			page 52


 2089 0010 08BD     		pop	{r3, pc}
 2090              	.L174:
 2091 0012 C046     		.align	2
 2092              	.L173:
 2093 0014 00000000 		.word	devAddr
 2094              		.cfi_endproc
 2095              	.LFE59:
 2096              		.size	MPU6050_setSlaveReadWriteTransitionEnabled, .-MPU6050_setSlaveReadWriteTransitionEnabled
 2097              		.section	.text.MPU6050_getMasterClockSpeed,"ax",%progbits
 2098              		.align	2
 2099              		.global	MPU6050_getMasterClockSpeed
 2100              		.code	16
 2101              		.thumb_func
 2102              		.type	MPU6050_getMasterClockSpeed, %function
 2103              	MPU6050_getMasterClockSpeed:
 2104              	.LFB60:
 820:.\mpu6050.c   **** /** Get I2C master clock speed.
 821:.\mpu6050.c   ****  * I2C_MST_CLK is a 4 bit unsigned value which configures a divider on the
 822:.\mpu6050.c   ****  * MPU-60X0 internal 8MHz clock. It sets the I2C master clock speed according to
 823:.\mpu6050.c   ****  * the following table:
 824:.\mpu6050.c   ****  *
 825:.\mpu6050.c   ****  * <pre>
 826:.\mpu6050.c   ****  * I2C_MST_CLK | I2C Master Clock Speed | 8MHz Clock Divider
 827:.\mpu6050.c   ****  * ------------+------------------------+-------------------
 828:.\mpu6050.c   ****  * 0           | 348kHz                 | 23
 829:.\mpu6050.c   ****  * 1           | 333kHz                 | 24
 830:.\mpu6050.c   ****  * 2           | 320kHz                 | 25
 831:.\mpu6050.c   ****  * 3           | 308kHz                 | 26
 832:.\mpu6050.c   ****  * 4           | 296kHz                 | 27
 833:.\mpu6050.c   ****  * 5           | 286kHz                 | 28
 834:.\mpu6050.c   ****  * 6           | 276kHz                 | 29
 835:.\mpu6050.c   ****  * 7           | 267kHz                 | 30
 836:.\mpu6050.c   ****  * 8           | 258kHz                 | 31
 837:.\mpu6050.c   ****  * 9           | 500kHz                 | 16
 838:.\mpu6050.c   ****  * 10          | 471kHz                 | 17
 839:.\mpu6050.c   ****  * 11          | 444kHz                 | 18
 840:.\mpu6050.c   ****  * 12          | 421kHz                 | 19
 841:.\mpu6050.c   ****  * 13          | 400kHz                 | 20
 842:.\mpu6050.c   ****  * 14          | 381kHz                 | 21
 843:.\mpu6050.c   ****  * 15          | 364kHz                 | 22
 844:.\mpu6050.c   ****  * </pre>
 845:.\mpu6050.c   ****  *
 846:.\mpu6050.c   ****  * @return Current I2C master clock speed
 847:.\mpu6050.c   ****  * @see MPU6050_RA_I2C_MST_CTRL
 848:.\mpu6050.c   ****  */
 849:.\mpu6050.c   **** uint8_t MPU6050_getMasterClockSpeed() {
 2105              		.loc 1 849 0
 2106              		.cfi_startproc
 2107 0000 10B5     		push	{r4, lr}
 2108              		.cfi_def_cfa_offset 8
 2109              		.cfi_offset 4, -8
 2110              		.cfi_offset 14, -4
 2111 0002 82B0     		sub	sp, sp, #8
 2112              		.cfi_def_cfa_offset 16
 850:.\mpu6050.c   ****     I2CReadBits(devAddr, MPU6050_RA_I2C_MST_CTRL, I2C_MPU6050_I2C_MST_CLK_BIT, I2C_MPU6050_I2C_MST_
 2113              		.loc 1 850 0
 2114 0004 054B     		ldr	r3, .L176
ARM GAS  C:\Users\username\AppData\Local\Temp\cca9Ol7c.s 			page 53


 2115 0006 1878     		ldrb	r0, [r3]
 2116 0008 054C     		ldr	r4, .L176+4
 2117 000a 0094     		str	r4, [sp]
 2118 000c 2421     		mov	r1, #36
 2119 000e 0322     		mov	r2, #3
 2120 0010 0423     		mov	r3, #4
 2121 0012 FFF7FEFF 		bl	I2CReadBits
 2122              	.LVL113:
 851:.\mpu6050.c   ****     return buffer[0];
 2123              		.loc 1 851 0
 2124 0016 2078     		ldrb	r0, [r4]
 852:.\mpu6050.c   **** }
 2125              		.loc 1 852 0
 2126 0018 02B0     		add	sp, sp, #8
 2127              		@ sp needed
 2128 001a 10BD     		pop	{r4, pc}
 2129              	.L177:
 2130              		.align	2
 2131              	.L176:
 2132 001c 00000000 		.word	devAddr
 2133 0020 00000000 		.word	buffer
 2134              		.cfi_endproc
 2135              	.LFE60:
 2136              		.size	MPU6050_getMasterClockSpeed, .-MPU6050_getMasterClockSpeed
 2137              		.section	.text.MPU6050_setMasterClockSpeed,"ax",%progbits
 2138              		.align	2
 2139              		.global	MPU6050_setMasterClockSpeed
 2140              		.code	16
 2141              		.thumb_func
 2142              		.type	MPU6050_setMasterClockSpeed, %function
 2143              	MPU6050_setMasterClockSpeed:
 2144              	.LFB61:
 853:.\mpu6050.c   **** /** Set I2C master clock speed.
 854:.\mpu6050.c   ****  * @reparam speed Current I2C master clock speed
 855:.\mpu6050.c   ****  * @see MPU6050_RA_I2C_MST_CTRL
 856:.\mpu6050.c   ****  */
 857:.\mpu6050.c   **** void MPU6050_setMasterClockSpeed(uint8_t speed) {
 2145              		.loc 1 857 0
 2146              		.cfi_startproc
 2147              	.LVL114:
 2148 0000 00B5     		push	{lr}
 2149              		.cfi_def_cfa_offset 4
 2150              		.cfi_offset 14, -4
 2151 0002 83B0     		sub	sp, sp, #12
 2152              		.cfi_def_cfa_offset 16
 858:.\mpu6050.c   ****     I2CWriteBits(devAddr, MPU6050_RA_I2C_MST_CTRL, I2C_MPU6050_I2C_MST_CLK_BIT, I2C_MPU6050_I2C_MST
 2153              		.loc 1 858 0
 2154 0004 054B     		ldr	r3, .L179
 2155 0006 1B78     		ldrb	r3, [r3]
 2156 0008 0090     		str	r0, [sp]
 2157 000a 181C     		mov	r0, r3
 2158              	.LVL115:
 2159 000c 2421     		mov	r1, #36
 2160 000e 0322     		mov	r2, #3
 2161 0010 0423     		mov	r3, #4
 2162 0012 FFF7FEFF 		bl	I2CWriteBits
 2163              	.LVL116:
ARM GAS  C:\Users\username\AppData\Local\Temp\cca9Ol7c.s 			page 54


 859:.\mpu6050.c   **** }
 2164              		.loc 1 859 0
 2165 0016 03B0     		add	sp, sp, #12
 2166              		@ sp needed
 2167 0018 00BD     		pop	{pc}
 2168              	.L180:
 2169 001a C046     		.align	2
 2170              	.L179:
 2171 001c 00000000 		.word	devAddr
 2172              		.cfi_endproc
 2173              	.LFE61:
 2174              		.size	MPU6050_setMasterClockSpeed, .-MPU6050_setMasterClockSpeed
 2175              		.section	.text.MPU6050_getSlaveAddress,"ax",%progbits
 2176              		.align	2
 2177              		.global	MPU6050_getSlaveAddress
 2178              		.code	16
 2179              		.thumb_func
 2180              		.type	MPU6050_getSlaveAddress, %function
 2181              	MPU6050_getSlaveAddress:
 2182              	.LFB62:
 860:.\mpu6050.c   **** 
 861:.\mpu6050.c   **** // I2C_SLV* registers (Slave 0-3)
 862:.\mpu6050.c   **** 
 863:.\mpu6050.c   **** /** Get the I2C address of the specified slave (0-3).
 864:.\mpu6050.c   ****  * Note that Bit 7 (MSB) controls read/write mode. If Bit 7 is set, it's a read
 865:.\mpu6050.c   ****  * operation, and if it is cleared, then it's a write operation. The remaining
 866:.\mpu6050.c   ****  * bits (6-0) are the 7-bit device address of the slave device.
 867:.\mpu6050.c   ****  *
 868:.\mpu6050.c   ****  * In read mode, the result of the read is placed in the lowest available 
 869:.\mpu6050.c   ****  * EXT_SENS_DATA register. For further information regarding the allocation of
 870:.\mpu6050.c   ****  * read results, please refer to the EXT_SENS_DATA register description
 871:.\mpu6050.c   ****  * (Registers 73 - 96).
 872:.\mpu6050.c   ****  *
 873:.\mpu6050.c   ****  * The MPU-6050 supports a total of five slaves, but Slave 4 has unique
 874:.\mpu6050.c   ****  * characteristics, and so it has its own functions (getSlave4* and setSlave4*).
 875:.\mpu6050.c   ****  *
 876:.\mpu6050.c   ****  * I2C data transactions are performed at the Sample Rate, as defined in
 877:.\mpu6050.c   ****  * Register 25. The user is responsible for ensuring that I2C data transactions
 878:.\mpu6050.c   ****  * to and from each enabled Slave can be completed within a single period of the
 879:.\mpu6050.c   ****  * Sample Rate.
 880:.\mpu6050.c   ****  *
 881:.\mpu6050.c   ****  * The I2C slave access rate can be reduced relative to the Sample Rate. This
 882:.\mpu6050.c   ****  * reduced access rate is determined by I2C_MST_DLY (Register 52). Whether a
 883:.\mpu6050.c   ****  * slave's access rate is reduced relative to the Sample Rate is determined by
 884:.\mpu6050.c   ****  * I2C_MST_DELAY_CTRL (Register 103).
 885:.\mpu6050.c   ****  *
 886:.\mpu6050.c   ****  * The processing order for the slaves is fixed. The sequence followed for
 887:.\mpu6050.c   ****  * processing the slaves is Slave 0, Slave 1, Slave 2, Slave 3 and Slave 4. If a
 888:.\mpu6050.c   ****  * particular Slave is disabled it will be skipped.
 889:.\mpu6050.c   ****  *
 890:.\mpu6050.c   ****  * Each slave can either be accessed at the sample rate or at a reduced sample
 891:.\mpu6050.c   ****  * rate. In a case where some slaves are accessed at the Sample Rate and some
 892:.\mpu6050.c   ****  * slaves are accessed at the reduced rate, the sequence of accessing the slaves
 893:.\mpu6050.c   ****  * (Slave 0 to Slave 4) is still followed. However, the reduced rate slaves will
 894:.\mpu6050.c   ****  * be skipped if their access rate dictates that they should not be accessed
 895:.\mpu6050.c   ****  * during that particular cycle. For further information regarding the reduced
 896:.\mpu6050.c   ****  * access rate, please refer to Register 52. Whether a slave is accessed at the
ARM GAS  C:\Users\username\AppData\Local\Temp\cca9Ol7c.s 			page 55


 897:.\mpu6050.c   ****  * Sample Rate or at the reduced rate is determined by the Delay Enable bits in
 898:.\mpu6050.c   ****  * Register 103.
 899:.\mpu6050.c   ****  *
 900:.\mpu6050.c   ****  * @param num Slave number (0-3)
 901:.\mpu6050.c   ****  * @return Current address for specified slave
 902:.\mpu6050.c   ****  * @see MPU6050_RA_I2C_SLV0_ADDR
 903:.\mpu6050.c   ****  */
 904:.\mpu6050.c   **** uint8_t MPU6050_getSlaveAddress(uint8_t num) {
 2183              		.loc 1 904 0
 2184              		.cfi_startproc
 2185              	.LVL117:
 2186 0000 10B5     		push	{r4, lr}
 2187              		.cfi_def_cfa_offset 8
 2188              		.cfi_offset 4, -8
 2189              		.cfi_offset 14, -4
 905:.\mpu6050.c   ****     if (num > 3) return 0;
 2190              		.loc 1 905 0
 2191 0002 0328     		cmp	r0, #3
 2192 0004 0CD8     		bhi	.L183
 2193 0006 011C     		mov	r1, r0
 906:.\mpu6050.c   ****     I2CReadByte(devAddr, MPU6050_RA_I2C_SLV0_ADDR + num*3, buffer);
 2194              		.loc 1 906 0
 2195 0008 064B     		ldr	r3, .L184
 2196 000a 1878     		ldrb	r0, [r3]
 2197              	.LVL118:
 2198 000c 4B00     		lsl	r3, r1, #1
 2199 000e C918     		add	r1, r1, r3
 2200 0010 2531     		add	r1, r1, #37
 2201 0012 C9B2     		uxtb	r1, r1
 2202 0014 044C     		ldr	r4, .L184+4
 2203 0016 221C     		mov	r2, r4
 2204 0018 FFF7FEFF 		bl	I2CReadByte
 2205              	.LVL119:
 907:.\mpu6050.c   ****     return buffer[0];
 2206              		.loc 1 907 0
 2207 001c 2078     		ldrb	r0, [r4]
 2208 001e 00E0     		b	.L182
 2209              	.LVL120:
 2210              	.L183:
 905:.\mpu6050.c   ****     if (num > 3) return 0;
 2211              		.loc 1 905 0
 2212 0020 0020     		mov	r0, #0
 2213              	.LVL121:
 2214              	.L182:
 908:.\mpu6050.c   **** }
 2215              		.loc 1 908 0
 2216              		@ sp needed
 2217 0022 10BD     		pop	{r4, pc}
 2218              	.L185:
 2219              		.align	2
 2220              	.L184:
 2221 0024 00000000 		.word	devAddr
 2222 0028 00000000 		.word	buffer
 2223              		.cfi_endproc
 2224              	.LFE62:
 2225              		.size	MPU6050_getSlaveAddress, .-MPU6050_getSlaveAddress
 2226              		.section	.text.MPU6050_setSlaveAddress,"ax",%progbits
ARM GAS  C:\Users\username\AppData\Local\Temp\cca9Ol7c.s 			page 56


 2227              		.align	2
 2228              		.global	MPU6050_setSlaveAddress
 2229              		.code	16
 2230              		.thumb_func
 2231              		.type	MPU6050_setSlaveAddress, %function
 2232              	MPU6050_setSlaveAddress:
 2233              	.LFB63:
 909:.\mpu6050.c   **** /** Set the I2C address of the specified slave (0-3).
 910:.\mpu6050.c   ****  * @param num Slave number (0-3)
 911:.\mpu6050.c   ****  * @param address New address for specified slave
 912:.\mpu6050.c   ****  * @see getSlaveAddress()
 913:.\mpu6050.c   ****  * @see MPU6050_RA_I2C_SLV0_ADDR
 914:.\mpu6050.c   ****  */
 915:.\mpu6050.c   **** void MPU6050_setSlaveAddress(uint8_t num, uint8_t address) {
 2234              		.loc 1 915 0
 2235              		.cfi_startproc
 2236              	.LVL122:
 2237 0000 08B5     		push	{r3, lr}
 2238              		.cfi_def_cfa_offset 8
 2239              		.cfi_offset 3, -8
 2240              		.cfi_offset 14, -4
 916:.\mpu6050.c   ****     if (num > 3) return;
 2241              		.loc 1 916 0
 2242 0002 0328     		cmp	r0, #3
 2243 0004 09D8     		bhi	.L186
 2244 0006 0A1C     		mov	r2, r1
 2245 0008 031C     		mov	r3, r0
 917:.\mpu6050.c   ****     I2CWriteByte(devAddr, MPU6050_RA_I2C_SLV0_ADDR + num*3, address);
 2246              		.loc 1 917 0
 2247 000a 0449     		ldr	r1, .L188
 2248              	.LVL123:
 2249 000c 0878     		ldrb	r0, [r1]
 2250              	.LVL124:
 2251 000e 5900     		lsl	r1, r3, #1
 2252 0010 5B18     		add	r3, r3, r1
 2253 0012 2533     		add	r3, r3, #37
 2254 0014 D9B2     		uxtb	r1, r3
 2255 0016 FFF7FEFF 		bl	I2CWriteByte
 2256              	.LVL125:
 2257              	.L186:
 918:.\mpu6050.c   **** }
 2258              		.loc 1 918 0
 2259              		@ sp needed
 2260 001a 08BD     		pop	{r3, pc}
 2261              	.L189:
 2262              		.align	2
 2263              	.L188:
 2264 001c 00000000 		.word	devAddr
 2265              		.cfi_endproc
 2266              	.LFE63:
 2267              		.size	MPU6050_setSlaveAddress, .-MPU6050_setSlaveAddress
 2268              		.section	.text.MPU6050_getSlaveRegister,"ax",%progbits
 2269              		.align	2
 2270              		.global	MPU6050_getSlaveRegister
 2271              		.code	16
 2272              		.thumb_func
 2273              		.type	MPU6050_getSlaveRegister, %function
ARM GAS  C:\Users\username\AppData\Local\Temp\cca9Ol7c.s 			page 57


 2274              	MPU6050_getSlaveRegister:
 2275              	.LFB64:
 919:.\mpu6050.c   **** /** Get the active internal register for the specified slave (0-3).
 920:.\mpu6050.c   ****  * Read/write operations for this slave will be done to whatever internal
 921:.\mpu6050.c   ****  * register address is stored in this MPU register.
 922:.\mpu6050.c   ****  *
 923:.\mpu6050.c   ****  * The MPU-6050 supports a total of five slaves, but Slave 4 has unique
 924:.\mpu6050.c   ****  * characteristics, and so it has its own functions.
 925:.\mpu6050.c   ****  *
 926:.\mpu6050.c   ****  * @param num Slave number (0-3)
 927:.\mpu6050.c   ****  * @return Current active register for specified slave
 928:.\mpu6050.c   ****  * @see MPU6050_RA_I2C_SLV0_REG
 929:.\mpu6050.c   ****  */
 930:.\mpu6050.c   **** uint8_t MPU6050_getSlaveRegister(uint8_t num) {
 2276              		.loc 1 930 0
 2277              		.cfi_startproc
 2278              	.LVL126:
 2279 0000 10B5     		push	{r4, lr}
 2280              		.cfi_def_cfa_offset 8
 2281              		.cfi_offset 4, -8
 2282              		.cfi_offset 14, -4
 931:.\mpu6050.c   ****     if (num > 3) return 0;
 2283              		.loc 1 931 0
 2284 0002 0328     		cmp	r0, #3
 2285 0004 0CD8     		bhi	.L192
 2286 0006 011C     		mov	r1, r0
 932:.\mpu6050.c   ****     I2CReadByte(devAddr, MPU6050_RA_I2C_SLV0_REG + num*3, buffer);
 2287              		.loc 1 932 0
 2288 0008 064B     		ldr	r3, .L193
 2289 000a 1878     		ldrb	r0, [r3]
 2290              	.LVL127:
 2291 000c 4B00     		lsl	r3, r1, #1
 2292 000e C918     		add	r1, r1, r3
 2293 0010 2631     		add	r1, r1, #38
 2294 0012 C9B2     		uxtb	r1, r1
 2295 0014 044C     		ldr	r4, .L193+4
 2296 0016 221C     		mov	r2, r4
 2297 0018 FFF7FEFF 		bl	I2CReadByte
 2298              	.LVL128:
 933:.\mpu6050.c   ****     return buffer[0];
 2299              		.loc 1 933 0
 2300 001c 2078     		ldrb	r0, [r4]
 2301 001e 00E0     		b	.L191
 2302              	.LVL129:
 2303              	.L192:
 931:.\mpu6050.c   ****     if (num > 3) return 0;
 2304              		.loc 1 931 0
 2305 0020 0020     		mov	r0, #0
 2306              	.LVL130:
 2307              	.L191:
 934:.\mpu6050.c   **** }
 2308              		.loc 1 934 0
 2309              		@ sp needed
 2310 0022 10BD     		pop	{r4, pc}
 2311              	.L194:
 2312              		.align	2
 2313              	.L193:
ARM GAS  C:\Users\username\AppData\Local\Temp\cca9Ol7c.s 			page 58


 2314 0024 00000000 		.word	devAddr
 2315 0028 00000000 		.word	buffer
 2316              		.cfi_endproc
 2317              	.LFE64:
 2318              		.size	MPU6050_getSlaveRegister, .-MPU6050_getSlaveRegister
 2319              		.section	.text.MPU6050_setSlaveRegister,"ax",%progbits
 2320              		.align	2
 2321              		.global	MPU6050_setSlaveRegister
 2322              		.code	16
 2323              		.thumb_func
 2324              		.type	MPU6050_setSlaveRegister, %function
 2325              	MPU6050_setSlaveRegister:
 2326              	.LFB65:
 935:.\mpu6050.c   **** /** Set the active internal register for the specified slave (0-3).
 936:.\mpu6050.c   ****  * @param num Slave number (0-3)
 937:.\mpu6050.c   ****  * @param reg New active register for specified slave
 938:.\mpu6050.c   ****  * @see getSlaveRegister()
 939:.\mpu6050.c   ****  * @see MPU6050_RA_I2C_SLV0_REG
 940:.\mpu6050.c   ****  */
 941:.\mpu6050.c   **** void MPU6050_setSlaveRegister(uint8_t num, uint8_t reg) {
 2327              		.loc 1 941 0
 2328              		.cfi_startproc
 2329              	.LVL131:
 2330 0000 08B5     		push	{r3, lr}
 2331              		.cfi_def_cfa_offset 8
 2332              		.cfi_offset 3, -8
 2333              		.cfi_offset 14, -4
 942:.\mpu6050.c   ****     if (num > 3) return;
 2334              		.loc 1 942 0
 2335 0002 0328     		cmp	r0, #3
 2336 0004 09D8     		bhi	.L195
 2337 0006 0A1C     		mov	r2, r1
 2338 0008 031C     		mov	r3, r0
 943:.\mpu6050.c   ****     I2CWriteByte(devAddr, MPU6050_RA_I2C_SLV0_REG + num*3, reg);
 2339              		.loc 1 943 0
 2340 000a 0449     		ldr	r1, .L197
 2341              	.LVL132:
 2342 000c 0878     		ldrb	r0, [r1]
 2343              	.LVL133:
 2344 000e 5900     		lsl	r1, r3, #1
 2345 0010 5B18     		add	r3, r3, r1
 2346 0012 2633     		add	r3, r3, #38
 2347 0014 D9B2     		uxtb	r1, r3
 2348 0016 FFF7FEFF 		bl	I2CWriteByte
 2349              	.LVL134:
 2350              	.L195:
 944:.\mpu6050.c   **** }
 2351              		.loc 1 944 0
 2352              		@ sp needed
 2353 001a 08BD     		pop	{r3, pc}
 2354              	.L198:
 2355              		.align	2
 2356              	.L197:
 2357 001c 00000000 		.word	devAddr
 2358              		.cfi_endproc
 2359              	.LFE65:
 2360              		.size	MPU6050_setSlaveRegister, .-MPU6050_setSlaveRegister
ARM GAS  C:\Users\username\AppData\Local\Temp\cca9Ol7c.s 			page 59


 2361              		.section	.text.MPU6050_getSlaveEnabled,"ax",%progbits
 2362              		.align	2
 2363              		.global	MPU6050_getSlaveEnabled
 2364              		.code	16
 2365              		.thumb_func
 2366              		.type	MPU6050_getSlaveEnabled, %function
 2367              	MPU6050_getSlaveEnabled:
 2368              	.LFB66:
 945:.\mpu6050.c   **** /** Get the enabled value for the specified slave (0-3).
 946:.\mpu6050.c   ****  * When set to 1, this bit enables Slave 0 for data transfer operations. When
 947:.\mpu6050.c   ****  * cleared to 0, this bit disables Slave 0 from data transfer operations.
 948:.\mpu6050.c   ****  * @param num Slave number (0-3)
 949:.\mpu6050.c   ****  * @return Current enabled value for specified slave
 950:.\mpu6050.c   ****  * @see MPU6050_RA_I2C_SLV0_CTRL
 951:.\mpu6050.c   ****  */
 952:.\mpu6050.c   **** bool MPU6050_getSlaveEnabled(uint8_t num) {
 2369              		.loc 1 952 0
 2370              		.cfi_startproc
 2371              	.LVL135:
 2372 0000 10B5     		push	{r4, lr}
 2373              		.cfi_def_cfa_offset 8
 2374              		.cfi_offset 4, -8
 2375              		.cfi_offset 14, -4
 953:.\mpu6050.c   ****     if (num > 3) return 0;
 2376              		.loc 1 953 0
 2377 0002 0328     		cmp	r0, #3
 2378 0004 10D8     		bhi	.L201
 2379 0006 011C     		mov	r1, r0
 954:.\mpu6050.c   ****     I2CReadBit(devAddr, MPU6050_RA_I2C_SLV0_CTRL + num*3, I2C_MPU6050_I2C_SLV_EN_BIT, buffer);
 2380              		.loc 1 954 0
 2381 0008 084B     		ldr	r3, .L202
 2382 000a 1878     		ldrb	r0, [r3]
 2383              	.LVL136:
 2384 000c 4B00     		lsl	r3, r1, #1
 2385 000e C918     		add	r1, r1, r3
 2386 0010 2731     		add	r1, r1, #39
 2387 0012 C9B2     		uxtb	r1, r1
 2388 0014 064C     		ldr	r4, .L202+4
 2389 0016 0722     		mov	r2, #7
 2390 0018 231C     		mov	r3, r4
 2391 001a FFF7FEFF 		bl	I2CReadBit
 2392              	.LVL137:
 955:.\mpu6050.c   ****     return buffer[0];
 2393              		.loc 1 955 0
 2394 001e 2078     		ldrb	r0, [r4]
 2395 0020 431E     		sub	r3, r0, #1
 2396 0022 9841     		sbc	r0, r0, r3
 2397 0024 C0B2     		uxtb	r0, r0
 2398 0026 00E0     		b	.L200
 2399              	.LVL138:
 2400              	.L201:
 953:.\mpu6050.c   ****     if (num > 3) return 0;
 2401              		.loc 1 953 0
 2402 0028 0020     		mov	r0, #0
 2403              	.LVL139:
 2404              	.L200:
 956:.\mpu6050.c   **** }
ARM GAS  C:\Users\username\AppData\Local\Temp\cca9Ol7c.s 			page 60


 2405              		.loc 1 956 0
 2406              		@ sp needed
 2407 002a 10BD     		pop	{r4, pc}
 2408              	.L203:
 2409              		.align	2
 2410              	.L202:
 2411 002c 00000000 		.word	devAddr
 2412 0030 00000000 		.word	buffer
 2413              		.cfi_endproc
 2414              	.LFE66:
 2415              		.size	MPU6050_getSlaveEnabled, .-MPU6050_getSlaveEnabled
 2416              		.section	.text.MPU6050_setSlaveEnabled,"ax",%progbits
 2417              		.align	2
 2418              		.global	MPU6050_setSlaveEnabled
 2419              		.code	16
 2420              		.thumb_func
 2421              		.type	MPU6050_setSlaveEnabled, %function
 2422              	MPU6050_setSlaveEnabled:
 2423              	.LFB67:
 957:.\mpu6050.c   **** /** Set the enabled value for the specified slave (0-3).
 958:.\mpu6050.c   ****  * @param num Slave number (0-3)
 959:.\mpu6050.c   ****  * @param enabled New enabled value for specified slave
 960:.\mpu6050.c   ****  * @see getSlaveEnabled()
 961:.\mpu6050.c   ****  * @see MPU6050_RA_I2C_SLV0_CTRL
 962:.\mpu6050.c   ****  */
 963:.\mpu6050.c   **** void MPU6050_setSlaveEnabled(uint8_t num, bool enabled) {
 2424              		.loc 1 963 0
 2425              		.cfi_startproc
 2426              	.LVL140:
 2427 0000 08B5     		push	{r3, lr}
 2428              		.cfi_def_cfa_offset 8
 2429              		.cfi_offset 3, -8
 2430              		.cfi_offset 14, -4
 964:.\mpu6050.c   ****     if (num > 3) return;
 2431              		.loc 1 964 0
 2432 0002 0328     		cmp	r0, #3
 2433 0004 0BD8     		bhi	.L204
 2434 0006 0B1C     		mov	r3, r1
 2435 0008 021C     		mov	r2, r0
 965:.\mpu6050.c   ****     I2CWriteBit(devAddr, MPU6050_RA_I2C_SLV0_CTRL + num*3, I2C_MPU6050_I2C_SLV_EN_BIT, enabled);
 2436              		.loc 1 965 0
 2437 000a 0549     		ldr	r1, .L206
 2438              	.LVL141:
 2439 000c 0878     		ldrb	r0, [r1]
 2440              	.LVL142:
 2441 000e 5100     		lsl	r1, r2, #1
 2442 0010 5118     		add	r1, r2, r1
 2443 0012 0A1C     		mov	r2, r1
 2444 0014 2732     		add	r2, r2, #39
 2445 0016 D1B2     		uxtb	r1, r2
 2446 0018 0722     		mov	r2, #7
 2447 001a FFF7FEFF 		bl	I2CWriteBit
 2448              	.LVL143:
 2449              	.L204:
 966:.\mpu6050.c   **** }
 2450              		.loc 1 966 0
 2451              		@ sp needed
ARM GAS  C:\Users\username\AppData\Local\Temp\cca9Ol7c.s 			page 61


 2452 001e 08BD     		pop	{r3, pc}
 2453              	.L207:
 2454              		.align	2
 2455              	.L206:
 2456 0020 00000000 		.word	devAddr
 2457              		.cfi_endproc
 2458              	.LFE67:
 2459              		.size	MPU6050_setSlaveEnabled, .-MPU6050_setSlaveEnabled
 2460              		.section	.text.MPU6050_getSlaveWordByteSwap,"ax",%progbits
 2461              		.align	2
 2462              		.global	MPU6050_getSlaveWordByteSwap
 2463              		.code	16
 2464              		.thumb_func
 2465              		.type	MPU6050_getSlaveWordByteSwap, %function
 2466              	MPU6050_getSlaveWordByteSwap:
 2467              	.LFB68:
 967:.\mpu6050.c   **** /** Get word pair byte-swapping enabled for the specified slave (0-3).
 968:.\mpu6050.c   ****  * When set to 1, this bit enables byte swapping. When byte swapping is enabled,
 969:.\mpu6050.c   ****  * the high and low bytes of a word pair are swapped. Please refer to
 970:.\mpu6050.c   ****  * I2C_SLV0_GRP for the pairing convention of the word pairs. When cleared to 0,
 971:.\mpu6050.c   ****  * bytes transferred to and from Slave 0 will be written to EXT_SENS_DATA
 972:.\mpu6050.c   ****  * registers in the order they were transferred.
 973:.\mpu6050.c   ****  *
 974:.\mpu6050.c   ****  * @param num Slave number (0-3)
 975:.\mpu6050.c   ****  * @return Current word pair byte-swapping enabled value for specified slave
 976:.\mpu6050.c   ****  * @see MPU6050_RA_I2C_SLV0_CTRL
 977:.\mpu6050.c   ****  */
 978:.\mpu6050.c   **** bool MPU6050_getSlaveWordByteSwap(uint8_t num) {
 2468              		.loc 1 978 0
 2469              		.cfi_startproc
 2470              	.LVL144:
 2471 0000 10B5     		push	{r4, lr}
 2472              		.cfi_def_cfa_offset 8
 2473              		.cfi_offset 4, -8
 2474              		.cfi_offset 14, -4
 979:.\mpu6050.c   ****     if (num > 3) return 0;
 2475              		.loc 1 979 0
 2476 0002 0328     		cmp	r0, #3
 2477 0004 10D8     		bhi	.L210
 2478 0006 011C     		mov	r1, r0
 980:.\mpu6050.c   ****     I2CReadBit(devAddr, MPU6050_RA_I2C_SLV0_CTRL + num*3, I2C_MPU6050_I2C_SLV_BYTE_SW_BIT, buffer);
 2479              		.loc 1 980 0
 2480 0008 084B     		ldr	r3, .L211
 2481 000a 1878     		ldrb	r0, [r3]
 2482              	.LVL145:
 2483 000c 4B00     		lsl	r3, r1, #1
 2484 000e C918     		add	r1, r1, r3
 2485 0010 2731     		add	r1, r1, #39
 2486 0012 C9B2     		uxtb	r1, r1
 2487 0014 064C     		ldr	r4, .L211+4
 2488 0016 0622     		mov	r2, #6
 2489 0018 231C     		mov	r3, r4
 2490 001a FFF7FEFF 		bl	I2CReadBit
 2491              	.LVL146:
 981:.\mpu6050.c   ****     return buffer[0];
 2492              		.loc 1 981 0
 2493 001e 2078     		ldrb	r0, [r4]
ARM GAS  C:\Users\username\AppData\Local\Temp\cca9Ol7c.s 			page 62


 2494 0020 431E     		sub	r3, r0, #1
 2495 0022 9841     		sbc	r0, r0, r3
 2496 0024 C0B2     		uxtb	r0, r0
 2497 0026 00E0     		b	.L209
 2498              	.LVL147:
 2499              	.L210:
 979:.\mpu6050.c   ****     if (num > 3) return 0;
 2500              		.loc 1 979 0
 2501 0028 0020     		mov	r0, #0
 2502              	.LVL148:
 2503              	.L209:
 982:.\mpu6050.c   **** }
 2504              		.loc 1 982 0
 2505              		@ sp needed
 2506 002a 10BD     		pop	{r4, pc}
 2507              	.L212:
 2508              		.align	2
 2509              	.L211:
 2510 002c 00000000 		.word	devAddr
 2511 0030 00000000 		.word	buffer
 2512              		.cfi_endproc
 2513              	.LFE68:
 2514              		.size	MPU6050_getSlaveWordByteSwap, .-MPU6050_getSlaveWordByteSwap
 2515              		.section	.text.MPU6050_setSlaveWordByteSwap,"ax",%progbits
 2516              		.align	2
 2517              		.global	MPU6050_setSlaveWordByteSwap
 2518              		.code	16
 2519              		.thumb_func
 2520              		.type	MPU6050_setSlaveWordByteSwap, %function
 2521              	MPU6050_setSlaveWordByteSwap:
 2522              	.LFB69:
 983:.\mpu6050.c   **** /** Set word pair byte-swapping enabled for the specified slave (0-3).
 984:.\mpu6050.c   ****  * @param num Slave number (0-3)
 985:.\mpu6050.c   ****  * @param enabled New word pair byte-swapping enabled value for specified slave
 986:.\mpu6050.c   ****  * @see getSlaveWordByteSwap()
 987:.\mpu6050.c   ****  * @see MPU6050_RA_I2C_SLV0_CTRL
 988:.\mpu6050.c   ****  */
 989:.\mpu6050.c   **** void MPU6050_setSlaveWordByteSwap(uint8_t num, bool enabled) {
 2523              		.loc 1 989 0
 2524              		.cfi_startproc
 2525              	.LVL149:
 2526 0000 08B5     		push	{r3, lr}
 2527              		.cfi_def_cfa_offset 8
 2528              		.cfi_offset 3, -8
 2529              		.cfi_offset 14, -4
 990:.\mpu6050.c   ****     if (num > 3) return;
 2530              		.loc 1 990 0
 2531 0002 0328     		cmp	r0, #3
 2532 0004 0BD8     		bhi	.L213
 2533 0006 0B1C     		mov	r3, r1
 2534 0008 021C     		mov	r2, r0
 991:.\mpu6050.c   ****     I2CWriteBit(devAddr, MPU6050_RA_I2C_SLV0_CTRL + num*3, I2C_MPU6050_I2C_SLV_BYTE_SW_BIT, enabled
 2535              		.loc 1 991 0
 2536 000a 0549     		ldr	r1, .L215
 2537              	.LVL150:
 2538 000c 0878     		ldrb	r0, [r1]
 2539              	.LVL151:
ARM GAS  C:\Users\username\AppData\Local\Temp\cca9Ol7c.s 			page 63


 2540 000e 5100     		lsl	r1, r2, #1
 2541 0010 5118     		add	r1, r2, r1
 2542 0012 0A1C     		mov	r2, r1
 2543 0014 2732     		add	r2, r2, #39
 2544 0016 D1B2     		uxtb	r1, r2
 2545 0018 0622     		mov	r2, #6
 2546 001a FFF7FEFF 		bl	I2CWriteBit
 2547              	.LVL152:
 2548              	.L213:
 992:.\mpu6050.c   **** }
 2549              		.loc 1 992 0
 2550              		@ sp needed
 2551 001e 08BD     		pop	{r3, pc}
 2552              	.L216:
 2553              		.align	2
 2554              	.L215:
 2555 0020 00000000 		.word	devAddr
 2556              		.cfi_endproc
 2557              	.LFE69:
 2558              		.size	MPU6050_setSlaveWordByteSwap, .-MPU6050_setSlaveWordByteSwap
 2559              		.section	.text.MPU6050_getSlaveWriteMode,"ax",%progbits
 2560              		.align	2
 2561              		.global	MPU6050_getSlaveWriteMode
 2562              		.code	16
 2563              		.thumb_func
 2564              		.type	MPU6050_getSlaveWriteMode, %function
 2565              	MPU6050_getSlaveWriteMode:
 2566              	.LFB70:
 993:.\mpu6050.c   **** /** Get write mode for the specified slave (0-3).
 994:.\mpu6050.c   ****  * When set to 1, the transaction will read or write data only. When cleared to
 995:.\mpu6050.c   ****  * 0, the transaction will write a register address prior to reading or writing
 996:.\mpu6050.c   ****  * data. This should equal 0 when specifying the register address within the
 997:.\mpu6050.c   ****  * Slave device to/from which the ensuing data transaction will take place.
 998:.\mpu6050.c   ****  *
 999:.\mpu6050.c   ****  * @param num Slave number (0-3)
1000:.\mpu6050.c   ****  * @return Current write mode for specified slave (0 = register address + data, 1 = data only)
1001:.\mpu6050.c   ****  * @see MPU6050_RA_I2C_SLV0_CTRL
1002:.\mpu6050.c   ****  */
1003:.\mpu6050.c   **** bool MPU6050_getSlaveWriteMode(uint8_t num) {
 2567              		.loc 1 1003 0
 2568              		.cfi_startproc
 2569              	.LVL153:
 2570 0000 10B5     		push	{r4, lr}
 2571              		.cfi_def_cfa_offset 8
 2572              		.cfi_offset 4, -8
 2573              		.cfi_offset 14, -4
1004:.\mpu6050.c   ****     if (num > 3) return 0;
 2574              		.loc 1 1004 0
 2575 0002 0328     		cmp	r0, #3
 2576 0004 10D8     		bhi	.L219
 2577 0006 011C     		mov	r1, r0
1005:.\mpu6050.c   ****     I2CReadBit(devAddr, MPU6050_RA_I2C_SLV0_CTRL + num*3, I2C_MPU6050_I2C_SLV_REG_DIS_BIT, buffer);
 2578              		.loc 1 1005 0
 2579 0008 084B     		ldr	r3, .L220
 2580 000a 1878     		ldrb	r0, [r3]
 2581              	.LVL154:
 2582 000c 4B00     		lsl	r3, r1, #1
ARM GAS  C:\Users\username\AppData\Local\Temp\cca9Ol7c.s 			page 64


 2583 000e C918     		add	r1, r1, r3
 2584 0010 2731     		add	r1, r1, #39
 2585 0012 C9B2     		uxtb	r1, r1
 2586 0014 064C     		ldr	r4, .L220+4
 2587 0016 0522     		mov	r2, #5
 2588 0018 231C     		mov	r3, r4
 2589 001a FFF7FEFF 		bl	I2CReadBit
 2590              	.LVL155:
1006:.\mpu6050.c   ****     return buffer[0];
 2591              		.loc 1 1006 0
 2592 001e 2078     		ldrb	r0, [r4]
 2593 0020 431E     		sub	r3, r0, #1
 2594 0022 9841     		sbc	r0, r0, r3
 2595 0024 C0B2     		uxtb	r0, r0
 2596 0026 00E0     		b	.L218
 2597              	.LVL156:
 2598              	.L219:
1004:.\mpu6050.c   ****     if (num > 3) return 0;
 2599              		.loc 1 1004 0
 2600 0028 0020     		mov	r0, #0
 2601              	.LVL157:
 2602              	.L218:
1007:.\mpu6050.c   **** }
 2603              		.loc 1 1007 0
 2604              		@ sp needed
 2605 002a 10BD     		pop	{r4, pc}
 2606              	.L221:
 2607              		.align	2
 2608              	.L220:
 2609 002c 00000000 		.word	devAddr
 2610 0030 00000000 		.word	buffer
 2611              		.cfi_endproc
 2612              	.LFE70:
 2613              		.size	MPU6050_getSlaveWriteMode, .-MPU6050_getSlaveWriteMode
 2614              		.section	.text.MPU6050_setSlaveWriteMode,"ax",%progbits
 2615              		.align	2
 2616              		.global	MPU6050_setSlaveWriteMode
 2617              		.code	16
 2618              		.thumb_func
 2619              		.type	MPU6050_setSlaveWriteMode, %function
 2620              	MPU6050_setSlaveWriteMode:
 2621              	.LFB71:
1008:.\mpu6050.c   **** /** Set write mode for the specified slave (0-3).
1009:.\mpu6050.c   ****  * @param num Slave number (0-3)
1010:.\mpu6050.c   ****  * @param mode New write mode for specified slave (0 = register address + data, 1 = data only)
1011:.\mpu6050.c   ****  * @see getSlaveWriteMode()
1012:.\mpu6050.c   ****  * @see MPU6050_RA_I2C_SLV0_CTRL
1013:.\mpu6050.c   ****  */
1014:.\mpu6050.c   **** void MPU6050_setSlaveWriteMode(uint8_t num, bool mode) {
 2622              		.loc 1 1014 0
 2623              		.cfi_startproc
 2624              	.LVL158:
 2625 0000 08B5     		push	{r3, lr}
 2626              		.cfi_def_cfa_offset 8
 2627              		.cfi_offset 3, -8
 2628              		.cfi_offset 14, -4
1015:.\mpu6050.c   ****     if (num > 3) return;
ARM GAS  C:\Users\username\AppData\Local\Temp\cca9Ol7c.s 			page 65


 2629              		.loc 1 1015 0
 2630 0002 0328     		cmp	r0, #3
 2631 0004 0BD8     		bhi	.L222
 2632 0006 0B1C     		mov	r3, r1
 2633 0008 021C     		mov	r2, r0
1016:.\mpu6050.c   ****     I2CWriteBit(devAddr, MPU6050_RA_I2C_SLV0_CTRL + num*3, I2C_MPU6050_I2C_SLV_REG_DIS_BIT, mode);
 2634              		.loc 1 1016 0
 2635 000a 0549     		ldr	r1, .L224
 2636              	.LVL159:
 2637 000c 0878     		ldrb	r0, [r1]
 2638              	.LVL160:
 2639 000e 5100     		lsl	r1, r2, #1
 2640 0010 5118     		add	r1, r2, r1
 2641 0012 0A1C     		mov	r2, r1
 2642 0014 2732     		add	r2, r2, #39
 2643 0016 D1B2     		uxtb	r1, r2
 2644 0018 0522     		mov	r2, #5
 2645 001a FFF7FEFF 		bl	I2CWriteBit
 2646              	.LVL161:
 2647              	.L222:
1017:.\mpu6050.c   **** }
 2648              		.loc 1 1017 0
 2649              		@ sp needed
 2650 001e 08BD     		pop	{r3, pc}
 2651              	.L225:
 2652              		.align	2
 2653              	.L224:
 2654 0020 00000000 		.word	devAddr
 2655              		.cfi_endproc
 2656              	.LFE71:
 2657              		.size	MPU6050_setSlaveWriteMode, .-MPU6050_setSlaveWriteMode
 2658              		.section	.text.MPU6050_getSlaveWordGroupOffset,"ax",%progbits
 2659              		.align	2
 2660              		.global	MPU6050_getSlaveWordGroupOffset
 2661              		.code	16
 2662              		.thumb_func
 2663              		.type	MPU6050_getSlaveWordGroupOffset, %function
 2664              	MPU6050_getSlaveWordGroupOffset:
 2665              	.LFB72:
1018:.\mpu6050.c   **** /** Get word pair grouping order offset for the specified slave (0-3).
1019:.\mpu6050.c   ****  * This sets specifies the grouping order of word pairs received from registers.
1020:.\mpu6050.c   ****  * When cleared to 0, bytes from register addresses 0 and 1, 2 and 3, etc (even,
1021:.\mpu6050.c   ****  * then odd register addresses) are paired to form a word. When set to 1, bytes
1022:.\mpu6050.c   ****  * from register addresses are paired 1 and 2, 3 and 4, etc. (odd, then even
1023:.\mpu6050.c   ****  * register addresses) are paired to form a word.
1024:.\mpu6050.c   ****  *
1025:.\mpu6050.c   ****  * @param num Slave number (0-3)
1026:.\mpu6050.c   ****  * @return Current word pair grouping order offset for specified slave
1027:.\mpu6050.c   ****  * @see MPU6050_RA_I2C_SLV0_CTRL
1028:.\mpu6050.c   ****  */
1029:.\mpu6050.c   **** bool MPU6050_getSlaveWordGroupOffset(uint8_t num) {
 2666              		.loc 1 1029 0
 2667              		.cfi_startproc
 2668              	.LVL162:
 2669 0000 10B5     		push	{r4, lr}
 2670              		.cfi_def_cfa_offset 8
 2671              		.cfi_offset 4, -8
ARM GAS  C:\Users\username\AppData\Local\Temp\cca9Ol7c.s 			page 66


 2672              		.cfi_offset 14, -4
1030:.\mpu6050.c   ****     if (num > 3) return 0;
 2673              		.loc 1 1030 0
 2674 0002 0328     		cmp	r0, #3
 2675 0004 10D8     		bhi	.L228
 2676 0006 011C     		mov	r1, r0
1031:.\mpu6050.c   ****     I2CReadBit(devAddr, MPU6050_RA_I2C_SLV0_CTRL + num*3, I2C_MPU6050_I2C_SLV_GRP_BIT, buffer);
 2677              		.loc 1 1031 0
 2678 0008 084B     		ldr	r3, .L229
 2679 000a 1878     		ldrb	r0, [r3]
 2680              	.LVL163:
 2681 000c 4B00     		lsl	r3, r1, #1
 2682 000e C918     		add	r1, r1, r3
 2683 0010 2731     		add	r1, r1, #39
 2684 0012 C9B2     		uxtb	r1, r1
 2685 0014 064C     		ldr	r4, .L229+4
 2686 0016 0422     		mov	r2, #4
 2687 0018 231C     		mov	r3, r4
 2688 001a FFF7FEFF 		bl	I2CReadBit
 2689              	.LVL164:
1032:.\mpu6050.c   ****     return buffer[0];
 2690              		.loc 1 1032 0
 2691 001e 2078     		ldrb	r0, [r4]
 2692 0020 431E     		sub	r3, r0, #1
 2693 0022 9841     		sbc	r0, r0, r3
 2694 0024 C0B2     		uxtb	r0, r0
 2695 0026 00E0     		b	.L227
 2696              	.LVL165:
 2697              	.L228:
1030:.\mpu6050.c   ****     if (num > 3) return 0;
 2698              		.loc 1 1030 0
 2699 0028 0020     		mov	r0, #0
 2700              	.LVL166:
 2701              	.L227:
1033:.\mpu6050.c   **** }
 2702              		.loc 1 1033 0
 2703              		@ sp needed
 2704 002a 10BD     		pop	{r4, pc}
 2705              	.L230:
 2706              		.align	2
 2707              	.L229:
 2708 002c 00000000 		.word	devAddr
 2709 0030 00000000 		.word	buffer
 2710              		.cfi_endproc
 2711              	.LFE72:
 2712              		.size	MPU6050_getSlaveWordGroupOffset, .-MPU6050_getSlaveWordGroupOffset
 2713              		.section	.text.MPU6050_setSlaveWordGroupOffset,"ax",%progbits
 2714              		.align	2
 2715              		.global	MPU6050_setSlaveWordGroupOffset
 2716              		.code	16
 2717              		.thumb_func
 2718              		.type	MPU6050_setSlaveWordGroupOffset, %function
 2719              	MPU6050_setSlaveWordGroupOffset:
 2720              	.LFB73:
1034:.\mpu6050.c   **** /** Set word pair grouping order offset for the specified slave (0-3).
1035:.\mpu6050.c   ****  * @param num Slave number (0-3)
1036:.\mpu6050.c   ****  * @param enabled New word pair grouping order offset for specified slave
ARM GAS  C:\Users\username\AppData\Local\Temp\cca9Ol7c.s 			page 67


1037:.\mpu6050.c   ****  * @see getSlaveWordGroupOffset()
1038:.\mpu6050.c   ****  * @see MPU6050_RA_I2C_SLV0_CTRL
1039:.\mpu6050.c   ****  */
1040:.\mpu6050.c   **** void MPU6050_setSlaveWordGroupOffset(uint8_t num, bool enabled) {
 2721              		.loc 1 1040 0
 2722              		.cfi_startproc
 2723              	.LVL167:
 2724 0000 08B5     		push	{r3, lr}
 2725              		.cfi_def_cfa_offset 8
 2726              		.cfi_offset 3, -8
 2727              		.cfi_offset 14, -4
1041:.\mpu6050.c   ****     if (num > 3) return;
 2728              		.loc 1 1041 0
 2729 0002 0328     		cmp	r0, #3
 2730 0004 0BD8     		bhi	.L231
 2731 0006 0B1C     		mov	r3, r1
 2732 0008 021C     		mov	r2, r0
1042:.\mpu6050.c   ****     I2CWriteBit(devAddr, MPU6050_RA_I2C_SLV0_CTRL + num*3, I2C_MPU6050_I2C_SLV_GRP_BIT, enabled);
 2733              		.loc 1 1042 0
 2734 000a 0549     		ldr	r1, .L233
 2735              	.LVL168:
 2736 000c 0878     		ldrb	r0, [r1]
 2737              	.LVL169:
 2738 000e 5100     		lsl	r1, r2, #1
 2739 0010 5118     		add	r1, r2, r1
 2740 0012 0A1C     		mov	r2, r1
 2741 0014 2732     		add	r2, r2, #39
 2742 0016 D1B2     		uxtb	r1, r2
 2743 0018 0422     		mov	r2, #4
 2744 001a FFF7FEFF 		bl	I2CWriteBit
 2745              	.LVL170:
 2746              	.L231:
1043:.\mpu6050.c   **** }
 2747              		.loc 1 1043 0
 2748              		@ sp needed
 2749 001e 08BD     		pop	{r3, pc}
 2750              	.L234:
 2751              		.align	2
 2752              	.L233:
 2753 0020 00000000 		.word	devAddr
 2754              		.cfi_endproc
 2755              	.LFE73:
 2756              		.size	MPU6050_setSlaveWordGroupOffset, .-MPU6050_setSlaveWordGroupOffset
 2757              		.section	.text.MPU6050_getSlaveDataLength,"ax",%progbits
 2758              		.align	2
 2759              		.global	MPU6050_getSlaveDataLength
 2760              		.code	16
 2761              		.thumb_func
 2762              		.type	MPU6050_getSlaveDataLength, %function
 2763              	MPU6050_getSlaveDataLength:
 2764              	.LFB74:
1044:.\mpu6050.c   **** /** Get number of bytes to read for the specified slave (0-3).
1045:.\mpu6050.c   ****  * Specifies the number of bytes transferred to and from Slave 0. Clearing this
1046:.\mpu6050.c   ****  * bit to 0 is equivalent to disabling the register by writing 0 to I2C_SLV0_EN.
1047:.\mpu6050.c   ****  * @param num Slave number (0-3)
1048:.\mpu6050.c   ****  * @return Number of bytes to read for specified slave
1049:.\mpu6050.c   ****  * @see MPU6050_RA_I2C_SLV0_CTRL
ARM GAS  C:\Users\username\AppData\Local\Temp\cca9Ol7c.s 			page 68


1050:.\mpu6050.c   ****  */
1051:.\mpu6050.c   **** uint8_t MPU6050_getSlaveDataLength(uint8_t num) {
 2765              		.loc 1 1051 0
 2766              		.cfi_startproc
 2767              	.LVL171:
 2768 0000 10B5     		push	{r4, lr}
 2769              		.cfi_def_cfa_offset 8
 2770              		.cfi_offset 4, -8
 2771              		.cfi_offset 14, -4
 2772 0002 82B0     		sub	sp, sp, #8
 2773              		.cfi_def_cfa_offset 16
1052:.\mpu6050.c   ****     if (num > 3) return 0;
 2774              		.loc 1 1052 0
 2775 0004 0328     		cmp	r0, #3
 2776 0006 0ED8     		bhi	.L237
 2777 0008 011C     		mov	r1, r0
1053:.\mpu6050.c   ****     I2CReadBits(devAddr, MPU6050_RA_I2C_SLV0_CTRL + num*3, I2C_MPU6050_I2C_SLV_LEN_BIT, I2C_MPU6050
 2778              		.loc 1 1053 0
 2779 000a 084B     		ldr	r3, .L238
 2780 000c 1878     		ldrb	r0, [r3]
 2781              	.LVL172:
 2782 000e 4B00     		lsl	r3, r1, #1
 2783 0010 C918     		add	r1, r1, r3
 2784 0012 2731     		add	r1, r1, #39
 2785 0014 C9B2     		uxtb	r1, r1
 2786 0016 064C     		ldr	r4, .L238+4
 2787 0018 0094     		str	r4, [sp]
 2788 001a 0322     		mov	r2, #3
 2789 001c 0423     		mov	r3, #4
 2790 001e FFF7FEFF 		bl	I2CReadBits
 2791              	.LVL173:
1054:.\mpu6050.c   ****     return buffer[0];
 2792              		.loc 1 1054 0
 2793 0022 2078     		ldrb	r0, [r4]
 2794 0024 00E0     		b	.L236
 2795              	.LVL174:
 2796              	.L237:
1052:.\mpu6050.c   ****     if (num > 3) return 0;
 2797              		.loc 1 1052 0
 2798 0026 0020     		mov	r0, #0
 2799              	.LVL175:
 2800              	.L236:
1055:.\mpu6050.c   **** }
 2801              		.loc 1 1055 0
 2802 0028 02B0     		add	sp, sp, #8
 2803              		@ sp needed
 2804 002a 10BD     		pop	{r4, pc}
 2805              	.L239:
 2806              		.align	2
 2807              	.L238:
 2808 002c 00000000 		.word	devAddr
 2809 0030 00000000 		.word	buffer
 2810              		.cfi_endproc
 2811              	.LFE74:
 2812              		.size	MPU6050_getSlaveDataLength, .-MPU6050_getSlaveDataLength
 2813              		.section	.text.MPU6050_setSlaveDataLength,"ax",%progbits
 2814              		.align	2
ARM GAS  C:\Users\username\AppData\Local\Temp\cca9Ol7c.s 			page 69


 2815              		.global	MPU6050_setSlaveDataLength
 2816              		.code	16
 2817              		.thumb_func
 2818              		.type	MPU6050_setSlaveDataLength, %function
 2819              	MPU6050_setSlaveDataLength:
 2820              	.LFB75:
1056:.\mpu6050.c   **** /** Set number of bytes to read for the specified slave (0-3).
1057:.\mpu6050.c   ****  * @param num Slave number (0-3)
1058:.\mpu6050.c   ****  * @param length Number of bytes to read for specified slave
1059:.\mpu6050.c   ****  * @see getSlaveDataLength()
1060:.\mpu6050.c   ****  * @see MPU6050_RA_I2C_SLV0_CTRL
1061:.\mpu6050.c   ****  */
1062:.\mpu6050.c   **** void MPU6050_setSlaveDataLength(uint8_t num, uint8_t length) {
 2821              		.loc 1 1062 0
 2822              		.cfi_startproc
 2823              	.LVL176:
 2824 0000 10B5     		push	{r4, lr}
 2825              		.cfi_def_cfa_offset 8
 2826              		.cfi_offset 4, -8
 2827              		.cfi_offset 14, -4
 2828 0002 82B0     		sub	sp, sp, #8
 2829              		.cfi_def_cfa_offset 16
1063:.\mpu6050.c   ****     if (num > 3) return;
 2830              		.loc 1 1063 0
 2831 0004 0328     		cmp	r0, #3
 2832 0006 0CD8     		bhi	.L240
 2833 0008 0C1C     		mov	r4, r1
 2834 000a 031C     		mov	r3, r0
1064:.\mpu6050.c   ****     I2CWriteBits(devAddr, MPU6050_RA_I2C_SLV0_CTRL + num*3, I2C_MPU6050_I2C_SLV_LEN_BIT, I2C_MPU605
 2835              		.loc 1 1064 0
 2836 000c 064A     		ldr	r2, .L242
 2837 000e 1078     		ldrb	r0, [r2]
 2838              	.LVL177:
 2839 0010 5A00     		lsl	r2, r3, #1
 2840 0012 9B18     		add	r3, r3, r2
 2841 0014 2733     		add	r3, r3, #39
 2842 0016 D9B2     		uxtb	r1, r3
 2843              	.LVL178:
 2844 0018 0094     		str	r4, [sp]
 2845 001a 0322     		mov	r2, #3
 2846 001c 0423     		mov	r3, #4
 2847 001e FFF7FEFF 		bl	I2CWriteBits
 2848              	.LVL179:
 2849              	.L240:
1065:.\mpu6050.c   **** }
 2850              		.loc 1 1065 0
 2851 0022 02B0     		add	sp, sp, #8
 2852              		@ sp needed
 2853 0024 10BD     		pop	{r4, pc}
 2854              	.L243:
 2855 0026 C046     		.align	2
 2856              	.L242:
 2857 0028 00000000 		.word	devAddr
 2858              		.cfi_endproc
 2859              	.LFE75:
 2860              		.size	MPU6050_setSlaveDataLength, .-MPU6050_setSlaveDataLength
 2861              		.section	.text.MPU6050_getSlave4Address,"ax",%progbits
ARM GAS  C:\Users\username\AppData\Local\Temp\cca9Ol7c.s 			page 70


 2862              		.align	2
 2863              		.global	MPU6050_getSlave4Address
 2864              		.code	16
 2865              		.thumb_func
 2866              		.type	MPU6050_getSlave4Address, %function
 2867              	MPU6050_getSlave4Address:
 2868              	.LFB76:
1066:.\mpu6050.c   **** 
1067:.\mpu6050.c   **** // I2C_SLV* registers (Slave 4)
1068:.\mpu6050.c   **** 
1069:.\mpu6050.c   **** /** Get the I2C address of Slave 4.
1070:.\mpu6050.c   ****  * Note that Bit 7 (MSB) controls read/write mode. If Bit 7 is set, it's a read
1071:.\mpu6050.c   ****  * operation, and if it is cleared, then it's a write operation. The remaining
1072:.\mpu6050.c   ****  * bits (6-0) are the 7-bit device address of the slave device.
1073:.\mpu6050.c   ****  *
1074:.\mpu6050.c   ****  * @return Current address for Slave 4
1075:.\mpu6050.c   ****  * @see getSlaveAddress()
1076:.\mpu6050.c   ****  * @see MPU6050_RA_I2C_SLV4_ADDR
1077:.\mpu6050.c   ****  */
1078:.\mpu6050.c   **** uint8_t MPU6050_getSlave4Address() {
 2869              		.loc 1 1078 0
 2870              		.cfi_startproc
 2871 0000 10B5     		push	{r4, lr}
 2872              		.cfi_def_cfa_offset 8
 2873              		.cfi_offset 4, -8
 2874              		.cfi_offset 14, -4
1079:.\mpu6050.c   ****     I2CReadByte(devAddr, MPU6050_RA_I2C_SLV4_ADDR, buffer);
 2875              		.loc 1 1079 0
 2876 0002 044B     		ldr	r3, .L245
 2877 0004 1878     		ldrb	r0, [r3]
 2878 0006 044C     		ldr	r4, .L245+4
 2879 0008 3121     		mov	r1, #49
 2880 000a 221C     		mov	r2, r4
 2881 000c FFF7FEFF 		bl	I2CReadByte
 2882              	.LVL180:
1080:.\mpu6050.c   ****     return buffer[0];
 2883              		.loc 1 1080 0
 2884 0010 2078     		ldrb	r0, [r4]
1081:.\mpu6050.c   **** }
 2885              		.loc 1 1081 0
 2886              		@ sp needed
 2887 0012 10BD     		pop	{r4, pc}
 2888              	.L246:
 2889              		.align	2
 2890              	.L245:
 2891 0014 00000000 		.word	devAddr
 2892 0018 00000000 		.word	buffer
 2893              		.cfi_endproc
 2894              	.LFE76:
 2895              		.size	MPU6050_getSlave4Address, .-MPU6050_getSlave4Address
 2896              		.section	.text.MPU6050_setSlave4Address,"ax",%progbits
 2897              		.align	2
 2898              		.global	MPU6050_setSlave4Address
 2899              		.code	16
 2900              		.thumb_func
 2901              		.type	MPU6050_setSlave4Address, %function
 2902              	MPU6050_setSlave4Address:
ARM GAS  C:\Users\username\AppData\Local\Temp\cca9Ol7c.s 			page 71


 2903              	.LFB77:
1082:.\mpu6050.c   **** /** Set the I2C address of Slave 4.
1083:.\mpu6050.c   ****  * @param address New address for Slave 4
1084:.\mpu6050.c   ****  * @see getSlave4Address()
1085:.\mpu6050.c   ****  * @see MPU6050_RA_I2C_SLV4_ADDR
1086:.\mpu6050.c   ****  */
1087:.\mpu6050.c   **** void MPU6050_setSlave4Address(uint8_t address) {
 2904              		.loc 1 1087 0
 2905              		.cfi_startproc
 2906              	.LVL181:
 2907 0000 08B5     		push	{r3, lr}
 2908              		.cfi_def_cfa_offset 8
 2909              		.cfi_offset 3, -8
 2910              		.cfi_offset 14, -4
 2911 0002 021C     		mov	r2, r0
1088:.\mpu6050.c   ****     I2CWriteByte(devAddr, MPU6050_RA_I2C_SLV4_ADDR, address);
 2912              		.loc 1 1088 0
 2913 0004 024B     		ldr	r3, .L248
 2914 0006 1878     		ldrb	r0, [r3]
 2915              	.LVL182:
 2916 0008 3121     		mov	r1, #49
 2917 000a FFF7FEFF 		bl	I2CWriteByte
 2918              	.LVL183:
1089:.\mpu6050.c   **** }
 2919              		.loc 1 1089 0
 2920              		@ sp needed
 2921 000e 08BD     		pop	{r3, pc}
 2922              	.L249:
 2923              		.align	2
 2924              	.L248:
 2925 0010 00000000 		.word	devAddr
 2926              		.cfi_endproc
 2927              	.LFE77:
 2928              		.size	MPU6050_setSlave4Address, .-MPU6050_setSlave4Address
 2929              		.section	.text.MPU6050_getSlave4Register,"ax",%progbits
 2930              		.align	2
 2931              		.global	MPU6050_getSlave4Register
 2932              		.code	16
 2933              		.thumb_func
 2934              		.type	MPU6050_getSlave4Register, %function
 2935              	MPU6050_getSlave4Register:
 2936              	.LFB78:
1090:.\mpu6050.c   **** /** Get the active internal register for the Slave 4.
1091:.\mpu6050.c   ****  * Read/write operations for this slave will be done to whatever internal
1092:.\mpu6050.c   ****  * register address is stored in this MPU register.
1093:.\mpu6050.c   ****  *
1094:.\mpu6050.c   ****  * @return Current active register for Slave 4
1095:.\mpu6050.c   ****  * @see MPU6050_RA_I2C_SLV4_REG
1096:.\mpu6050.c   ****  */
1097:.\mpu6050.c   **** uint8_t MPU6050_getSlave4Register() {
 2937              		.loc 1 1097 0
 2938              		.cfi_startproc
 2939 0000 10B5     		push	{r4, lr}
 2940              		.cfi_def_cfa_offset 8
 2941              		.cfi_offset 4, -8
 2942              		.cfi_offset 14, -4
1098:.\mpu6050.c   ****     I2CReadByte(devAddr, MPU6050_RA_I2C_SLV4_REG, buffer);
ARM GAS  C:\Users\username\AppData\Local\Temp\cca9Ol7c.s 			page 72


 2943              		.loc 1 1098 0
 2944 0002 044B     		ldr	r3, .L251
 2945 0004 1878     		ldrb	r0, [r3]
 2946 0006 044C     		ldr	r4, .L251+4
 2947 0008 3221     		mov	r1, #50
 2948 000a 221C     		mov	r2, r4
 2949 000c FFF7FEFF 		bl	I2CReadByte
 2950              	.LVL184:
1099:.\mpu6050.c   ****     return buffer[0];
 2951              		.loc 1 1099 0
 2952 0010 2078     		ldrb	r0, [r4]
1100:.\mpu6050.c   **** }
 2953              		.loc 1 1100 0
 2954              		@ sp needed
 2955 0012 10BD     		pop	{r4, pc}
 2956              	.L252:
 2957              		.align	2
 2958              	.L251:
 2959 0014 00000000 		.word	devAddr
 2960 0018 00000000 		.word	buffer
 2961              		.cfi_endproc
 2962              	.LFE78:
 2963              		.size	MPU6050_getSlave4Register, .-MPU6050_getSlave4Register
 2964              		.section	.text.MPU6050_setSlave4Register,"ax",%progbits
 2965              		.align	2
 2966              		.global	MPU6050_setSlave4Register
 2967              		.code	16
 2968              		.thumb_func
 2969              		.type	MPU6050_setSlave4Register, %function
 2970              	MPU6050_setSlave4Register:
 2971              	.LFB79:
1101:.\mpu6050.c   **** /** Set the active internal register for Slave 4.
1102:.\mpu6050.c   ****  * @param reg New active register for Slave 4
1103:.\mpu6050.c   ****  * @see getSlave4Register()
1104:.\mpu6050.c   ****  * @see MPU6050_RA_I2C_SLV4_REG
1105:.\mpu6050.c   ****  */
1106:.\mpu6050.c   **** void MPU6050_setSlave4Register(uint8_t reg) {
 2972              		.loc 1 1106 0
 2973              		.cfi_startproc
 2974              	.LVL185:
 2975 0000 08B5     		push	{r3, lr}
 2976              		.cfi_def_cfa_offset 8
 2977              		.cfi_offset 3, -8
 2978              		.cfi_offset 14, -4
 2979 0002 021C     		mov	r2, r0
1107:.\mpu6050.c   ****     I2CWriteByte(devAddr, MPU6050_RA_I2C_SLV4_REG, reg);
 2980              		.loc 1 1107 0
 2981 0004 024B     		ldr	r3, .L254
 2982 0006 1878     		ldrb	r0, [r3]
 2983              	.LVL186:
 2984 0008 3221     		mov	r1, #50
 2985 000a FFF7FEFF 		bl	I2CWriteByte
 2986              	.LVL187:
1108:.\mpu6050.c   **** }
 2987              		.loc 1 1108 0
 2988              		@ sp needed
 2989 000e 08BD     		pop	{r3, pc}
ARM GAS  C:\Users\username\AppData\Local\Temp\cca9Ol7c.s 			page 73


 2990              	.L255:
 2991              		.align	2
 2992              	.L254:
 2993 0010 00000000 		.word	devAddr
 2994              		.cfi_endproc
 2995              	.LFE79:
 2996              		.size	MPU6050_setSlave4Register, .-MPU6050_setSlave4Register
 2997              		.section	.text.MPU6050_setSlave4OutputByte,"ax",%progbits
 2998              		.align	2
 2999              		.global	MPU6050_setSlave4OutputByte
 3000              		.code	16
 3001              		.thumb_func
 3002              		.type	MPU6050_setSlave4OutputByte, %function
 3003              	MPU6050_setSlave4OutputByte:
 3004              	.LFB80:
1109:.\mpu6050.c   **** /** Set new byte to write to Slave 4.
1110:.\mpu6050.c   ****  * This register stores the data to be written into the Slave 4. If I2C_SLV4_RW
1111:.\mpu6050.c   ****  * is set 1 (set to read), this register has no effect.
1112:.\mpu6050.c   ****  * @param data New byte to write to Slave 4
1113:.\mpu6050.c   ****  * @see MPU6050_RA_I2C_SLV4_DO
1114:.\mpu6050.c   ****  */
1115:.\mpu6050.c   **** void MPU6050_setSlave4OutputByte(uint8_t data) {
 3005              		.loc 1 1115 0
 3006              		.cfi_startproc
 3007              	.LVL188:
 3008 0000 08B5     		push	{r3, lr}
 3009              		.cfi_def_cfa_offset 8
 3010              		.cfi_offset 3, -8
 3011              		.cfi_offset 14, -4
 3012 0002 021C     		mov	r2, r0
1116:.\mpu6050.c   ****     I2CWriteByte(devAddr, MPU6050_RA_I2C_SLV4_DO, data);
 3013              		.loc 1 1116 0
 3014 0004 024B     		ldr	r3, .L257
 3015 0006 1878     		ldrb	r0, [r3]
 3016              	.LVL189:
 3017 0008 3321     		mov	r1, #51
 3018 000a FFF7FEFF 		bl	I2CWriteByte
 3019              	.LVL190:
1117:.\mpu6050.c   **** }
 3020              		.loc 1 1117 0
 3021              		@ sp needed
 3022 000e 08BD     		pop	{r3, pc}
 3023              	.L258:
 3024              		.align	2
 3025              	.L257:
 3026 0010 00000000 		.word	devAddr
 3027              		.cfi_endproc
 3028              	.LFE80:
 3029              		.size	MPU6050_setSlave4OutputByte, .-MPU6050_setSlave4OutputByte
 3030              		.section	.text.MPU6050_getSlave4Enabled,"ax",%progbits
 3031              		.align	2
 3032              		.global	MPU6050_getSlave4Enabled
 3033              		.code	16
 3034              		.thumb_func
 3035              		.type	MPU6050_getSlave4Enabled, %function
 3036              	MPU6050_getSlave4Enabled:
 3037              	.LFB81:
ARM GAS  C:\Users\username\AppData\Local\Temp\cca9Ol7c.s 			page 74


1118:.\mpu6050.c   **** /** Get the enabled value for the Slave 4.
1119:.\mpu6050.c   ****  * When set to 1, this bit enables Slave 4 for data transfer operations. When
1120:.\mpu6050.c   ****  * cleared to 0, this bit disables Slave 4 from data transfer operations.
1121:.\mpu6050.c   ****  * @return Current enabled value for Slave 4
1122:.\mpu6050.c   ****  * @see MPU6050_RA_I2C_SLV4_CTRL
1123:.\mpu6050.c   ****  */
1124:.\mpu6050.c   **** bool MPU6050_getSlave4Enabled() {
 3038              		.loc 1 1124 0
 3039              		.cfi_startproc
 3040 0000 10B5     		push	{r4, lr}
 3041              		.cfi_def_cfa_offset 8
 3042              		.cfi_offset 4, -8
 3043              		.cfi_offset 14, -4
1125:.\mpu6050.c   ****     I2CReadBit(devAddr, MPU6050_RA_I2C_SLV4_CTRL, I2C_MPU6050_I2C_SLV4_EN_BIT, buffer);
 3044              		.loc 1 1125 0
 3045 0002 064B     		ldr	r3, .L260
 3046 0004 1878     		ldrb	r0, [r3]
 3047 0006 064C     		ldr	r4, .L260+4
 3048 0008 3421     		mov	r1, #52
 3049 000a 0722     		mov	r2, #7
 3050 000c 231C     		mov	r3, r4
 3051 000e FFF7FEFF 		bl	I2CReadBit
 3052              	.LVL191:
1126:.\mpu6050.c   ****     return buffer[0];
 3053              		.loc 1 1126 0
 3054 0012 2078     		ldrb	r0, [r4]
 3055 0014 431E     		sub	r3, r0, #1
 3056 0016 9841     		sbc	r0, r0, r3
 3057 0018 C0B2     		uxtb	r0, r0
1127:.\mpu6050.c   **** }
 3058              		.loc 1 1127 0
 3059              		@ sp needed
 3060 001a 10BD     		pop	{r4, pc}
 3061              	.L261:
 3062              		.align	2
 3063              	.L260:
 3064 001c 00000000 		.word	devAddr
 3065 0020 00000000 		.word	buffer
 3066              		.cfi_endproc
 3067              	.LFE81:
 3068              		.size	MPU6050_getSlave4Enabled, .-MPU6050_getSlave4Enabled
 3069              		.section	.text.MPU6050_setSlave4Enabled,"ax",%progbits
 3070              		.align	2
 3071              		.global	MPU6050_setSlave4Enabled
 3072              		.code	16
 3073              		.thumb_func
 3074              		.type	MPU6050_setSlave4Enabled, %function
 3075              	MPU6050_setSlave4Enabled:
 3076              	.LFB82:
1128:.\mpu6050.c   **** /** Set the enabled value for Slave 4.
1129:.\mpu6050.c   ****  * @param enabled New enabled value for Slave 4
1130:.\mpu6050.c   ****  * @see getSlave4Enabled()
1131:.\mpu6050.c   ****  * @see MPU6050_RA_I2C_SLV4_CTRL
1132:.\mpu6050.c   ****  */
1133:.\mpu6050.c   **** void MPU6050_setSlave4Enabled(bool enabled) {
 3077              		.loc 1 1133 0
 3078              		.cfi_startproc
ARM GAS  C:\Users\username\AppData\Local\Temp\cca9Ol7c.s 			page 75


 3079              	.LVL192:
 3080 0000 08B5     		push	{r3, lr}
 3081              		.cfi_def_cfa_offset 8
 3082              		.cfi_offset 3, -8
 3083              		.cfi_offset 14, -4
 3084 0002 031C     		mov	r3, r0
1134:.\mpu6050.c   ****     I2CWriteBit(devAddr, MPU6050_RA_I2C_SLV4_CTRL, I2C_MPU6050_I2C_SLV4_EN_BIT, enabled);
 3085              		.loc 1 1134 0
 3086 0004 034A     		ldr	r2, .L263
 3087 0006 1078     		ldrb	r0, [r2]
 3088              	.LVL193:
 3089 0008 3421     		mov	r1, #52
 3090 000a 0722     		mov	r2, #7
 3091 000c FFF7FEFF 		bl	I2CWriteBit
 3092              	.LVL194:
1135:.\mpu6050.c   **** }
 3093              		.loc 1 1135 0
 3094              		@ sp needed
 3095 0010 08BD     		pop	{r3, pc}
 3096              	.L264:
 3097 0012 C046     		.align	2
 3098              	.L263:
 3099 0014 00000000 		.word	devAddr
 3100              		.cfi_endproc
 3101              	.LFE82:
 3102              		.size	MPU6050_setSlave4Enabled, .-MPU6050_setSlave4Enabled
 3103              		.section	.text.MPU6050_getSlave4InterruptEnabled,"ax",%progbits
 3104              		.align	2
 3105              		.global	MPU6050_getSlave4InterruptEnabled
 3106              		.code	16
 3107              		.thumb_func
 3108              		.type	MPU6050_getSlave4InterruptEnabled, %function
 3109              	MPU6050_getSlave4InterruptEnabled:
 3110              	.LFB83:
1136:.\mpu6050.c   **** /** Get the enabled value for Slave 4 transaction interrupts.
1137:.\mpu6050.c   ****  * When set to 1, this bit enables the generation of an interrupt signal upon
1138:.\mpu6050.c   ****  * completion of a Slave 4 transaction. When cleared to 0, this bit disables the
1139:.\mpu6050.c   ****  * generation of an interrupt signal upon completion of a Slave 4 transaction.
1140:.\mpu6050.c   ****  * The interrupt status can be observed in Register 54.
1141:.\mpu6050.c   ****  *
1142:.\mpu6050.c   ****  * @return Current enabled value for Slave 4 transaction interrupts.
1143:.\mpu6050.c   ****  * @see MPU6050_RA_I2C_SLV4_CTRL
1144:.\mpu6050.c   ****  */
1145:.\mpu6050.c   **** bool MPU6050_getSlave4InterruptEnabled() {
 3111              		.loc 1 1145 0
 3112              		.cfi_startproc
 3113 0000 10B5     		push	{r4, lr}
 3114              		.cfi_def_cfa_offset 8
 3115              		.cfi_offset 4, -8
 3116              		.cfi_offset 14, -4
1146:.\mpu6050.c   ****     I2CReadBit(devAddr, MPU6050_RA_I2C_SLV4_CTRL, I2C_MPU6050_I2C_SLV4_INT_EN_BIT, buffer);
 3117              		.loc 1 1146 0
 3118 0002 064B     		ldr	r3, .L266
 3119 0004 1878     		ldrb	r0, [r3]
 3120 0006 064C     		ldr	r4, .L266+4
 3121 0008 3421     		mov	r1, #52
 3122 000a 0622     		mov	r2, #6
ARM GAS  C:\Users\username\AppData\Local\Temp\cca9Ol7c.s 			page 76


 3123 000c 231C     		mov	r3, r4
 3124 000e FFF7FEFF 		bl	I2CReadBit
 3125              	.LVL195:
1147:.\mpu6050.c   ****     return buffer[0];
 3126              		.loc 1 1147 0
 3127 0012 2078     		ldrb	r0, [r4]
 3128 0014 431E     		sub	r3, r0, #1
 3129 0016 9841     		sbc	r0, r0, r3
 3130 0018 C0B2     		uxtb	r0, r0
1148:.\mpu6050.c   **** }
 3131              		.loc 1 1148 0
 3132              		@ sp needed
 3133 001a 10BD     		pop	{r4, pc}
 3134              	.L267:
 3135              		.align	2
 3136              	.L266:
 3137 001c 00000000 		.word	devAddr
 3138 0020 00000000 		.word	buffer
 3139              		.cfi_endproc
 3140              	.LFE83:
 3141              		.size	MPU6050_getSlave4InterruptEnabled, .-MPU6050_getSlave4InterruptEnabled
 3142              		.section	.text.MPU6050_setSlave4InterruptEnabled,"ax",%progbits
 3143              		.align	2
 3144              		.global	MPU6050_setSlave4InterruptEnabled
 3145              		.code	16
 3146              		.thumb_func
 3147              		.type	MPU6050_setSlave4InterruptEnabled, %function
 3148              	MPU6050_setSlave4InterruptEnabled:
 3149              	.LFB84:
1149:.\mpu6050.c   **** /** Set the enabled value for Slave 4 transaction interrupts.
1150:.\mpu6050.c   ****  * @param enabled New enabled value for Slave 4 transaction interrupts.
1151:.\mpu6050.c   ****  * @see getSlave4InterruptEnabled()
1152:.\mpu6050.c   ****  * @see MPU6050_RA_I2C_SLV4_CTRL
1153:.\mpu6050.c   ****  */
1154:.\mpu6050.c   **** void MPU6050_setSlave4InterruptEnabled(bool enabled) {
 3150              		.loc 1 1154 0
 3151              		.cfi_startproc
 3152              	.LVL196:
 3153 0000 08B5     		push	{r3, lr}
 3154              		.cfi_def_cfa_offset 8
 3155              		.cfi_offset 3, -8
 3156              		.cfi_offset 14, -4
 3157 0002 031C     		mov	r3, r0
1155:.\mpu6050.c   ****     I2CWriteBit(devAddr, MPU6050_RA_I2C_SLV4_CTRL, I2C_MPU6050_I2C_SLV4_INT_EN_BIT, enabled);
 3158              		.loc 1 1155 0
 3159 0004 034A     		ldr	r2, .L269
 3160 0006 1078     		ldrb	r0, [r2]
 3161              	.LVL197:
 3162 0008 3421     		mov	r1, #52
 3163 000a 0622     		mov	r2, #6
 3164 000c FFF7FEFF 		bl	I2CWriteBit
 3165              	.LVL198:
1156:.\mpu6050.c   **** }
 3166              		.loc 1 1156 0
 3167              		@ sp needed
 3168 0010 08BD     		pop	{r3, pc}
 3169              	.L270:
ARM GAS  C:\Users\username\AppData\Local\Temp\cca9Ol7c.s 			page 77


 3170 0012 C046     		.align	2
 3171              	.L269:
 3172 0014 00000000 		.word	devAddr
 3173              		.cfi_endproc
 3174              	.LFE84:
 3175              		.size	MPU6050_setSlave4InterruptEnabled, .-MPU6050_setSlave4InterruptEnabled
 3176              		.section	.text.MPU6050_getSlave4WriteMode,"ax",%progbits
 3177              		.align	2
 3178              		.global	MPU6050_getSlave4WriteMode
 3179              		.code	16
 3180              		.thumb_func
 3181              		.type	MPU6050_getSlave4WriteMode, %function
 3182              	MPU6050_getSlave4WriteMode:
 3183              	.LFB85:
1157:.\mpu6050.c   **** /** Get write mode for Slave 4.
1158:.\mpu6050.c   ****  * When set to 1, the transaction will read or write data only. When cleared to
1159:.\mpu6050.c   ****  * 0, the transaction will write a register address prior to reading or writing
1160:.\mpu6050.c   ****  * data. This should equal 0 when specifying the register address within the
1161:.\mpu6050.c   ****  * Slave device to/from which the ensuing data transaction will take place.
1162:.\mpu6050.c   ****  *
1163:.\mpu6050.c   ****  * @return Current write mode for Slave 4 (0 = register address + data, 1 = data only)
1164:.\mpu6050.c   ****  * @see MPU6050_RA_I2C_SLV4_CTRL
1165:.\mpu6050.c   ****  */
1166:.\mpu6050.c   **** bool MPU6050_getSlave4WriteMode() {
 3184              		.loc 1 1166 0
 3185              		.cfi_startproc
 3186 0000 10B5     		push	{r4, lr}
 3187              		.cfi_def_cfa_offset 8
 3188              		.cfi_offset 4, -8
 3189              		.cfi_offset 14, -4
1167:.\mpu6050.c   ****     I2CReadBit(devAddr, MPU6050_RA_I2C_SLV4_CTRL, I2C_MPU6050_I2C_SLV4_REG_DIS_BIT, buffer);
 3190              		.loc 1 1167 0
 3191 0002 064B     		ldr	r3, .L272
 3192 0004 1878     		ldrb	r0, [r3]
 3193 0006 064C     		ldr	r4, .L272+4
 3194 0008 3421     		mov	r1, #52
 3195 000a 0522     		mov	r2, #5
 3196 000c 231C     		mov	r3, r4
 3197 000e FFF7FEFF 		bl	I2CReadBit
 3198              	.LVL199:
1168:.\mpu6050.c   ****     return buffer[0];
 3199              		.loc 1 1168 0
 3200 0012 2078     		ldrb	r0, [r4]
 3201 0014 431E     		sub	r3, r0, #1
 3202 0016 9841     		sbc	r0, r0, r3
 3203 0018 C0B2     		uxtb	r0, r0
1169:.\mpu6050.c   **** }
 3204              		.loc 1 1169 0
 3205              		@ sp needed
 3206 001a 10BD     		pop	{r4, pc}
 3207              	.L273:
 3208              		.align	2
 3209              	.L272:
 3210 001c 00000000 		.word	devAddr
 3211 0020 00000000 		.word	buffer
 3212              		.cfi_endproc
 3213              	.LFE85:
ARM GAS  C:\Users\username\AppData\Local\Temp\cca9Ol7c.s 			page 78


 3214              		.size	MPU6050_getSlave4WriteMode, .-MPU6050_getSlave4WriteMode
 3215              		.section	.text.MPU6050_setSlave4WriteMode,"ax",%progbits
 3216              		.align	2
 3217              		.global	MPU6050_setSlave4WriteMode
 3218              		.code	16
 3219              		.thumb_func
 3220              		.type	MPU6050_setSlave4WriteMode, %function
 3221              	MPU6050_setSlave4WriteMode:
 3222              	.LFB86:
1170:.\mpu6050.c   **** /** Set write mode for the Slave 4.
1171:.\mpu6050.c   ****  * @param mode New write mode for Slave 4 (0 = register address + data, 1 = data only)
1172:.\mpu6050.c   ****  * @see getSlave4WriteMode()
1173:.\mpu6050.c   ****  * @see MPU6050_RA_I2C_SLV4_CTRL
1174:.\mpu6050.c   ****  */
1175:.\mpu6050.c   **** void MPU6050_setSlave4WriteMode(bool mode) {
 3223              		.loc 1 1175 0
 3224              		.cfi_startproc
 3225              	.LVL200:
 3226 0000 08B5     		push	{r3, lr}
 3227              		.cfi_def_cfa_offset 8
 3228              		.cfi_offset 3, -8
 3229              		.cfi_offset 14, -4
 3230 0002 031C     		mov	r3, r0
1176:.\mpu6050.c   ****     I2CWriteBit(devAddr, MPU6050_RA_I2C_SLV4_CTRL, I2C_MPU6050_I2C_SLV4_REG_DIS_BIT, mode);
 3231              		.loc 1 1176 0
 3232 0004 034A     		ldr	r2, .L275
 3233 0006 1078     		ldrb	r0, [r2]
 3234              	.LVL201:
 3235 0008 3421     		mov	r1, #52
 3236 000a 0522     		mov	r2, #5
 3237 000c FFF7FEFF 		bl	I2CWriteBit
 3238              	.LVL202:
1177:.\mpu6050.c   **** }
 3239              		.loc 1 1177 0
 3240              		@ sp needed
 3241 0010 08BD     		pop	{r3, pc}
 3242              	.L276:
 3243 0012 C046     		.align	2
 3244              	.L275:
 3245 0014 00000000 		.word	devAddr
 3246              		.cfi_endproc
 3247              	.LFE86:
 3248              		.size	MPU6050_setSlave4WriteMode, .-MPU6050_setSlave4WriteMode
 3249              		.section	.text.MPU6050_getSlave4MasterDelay,"ax",%progbits
 3250              		.align	2
 3251              		.global	MPU6050_getSlave4MasterDelay
 3252              		.code	16
 3253              		.thumb_func
 3254              		.type	MPU6050_getSlave4MasterDelay, %function
 3255              	MPU6050_getSlave4MasterDelay:
 3256              	.LFB87:
1178:.\mpu6050.c   **** /** Get Slave 4 master delay value.
1179:.\mpu6050.c   ****  * This configures the reduced access rate of I2C slaves relative to the Sample
1180:.\mpu6050.c   ****  * Rate. When a slave's access rate is decreased relative to the Sample Rate,
1181:.\mpu6050.c   ****  * the slave is accessed every:
1182:.\mpu6050.c   ****  *
1183:.\mpu6050.c   ****  *     1 / (1 + I2C_MST_DLY) samples
ARM GAS  C:\Users\username\AppData\Local\Temp\cca9Ol7c.s 			page 79


1184:.\mpu6050.c   ****  *
1185:.\mpu6050.c   ****  * This base Sample Rate in turn is determined by SMPLRT_DIV (register 25) and
1186:.\mpu6050.c   ****  * DLPF_CFG (register 26). Whether a slave's access rate is reduced relative to
1187:.\mpu6050.c   ****  * the Sample Rate is determined by I2C_MST_DELAY_CTRL (register 103). For
1188:.\mpu6050.c   ****  * further information regarding the Sample Rate, please refer to register 25.
1189:.\mpu6050.c   ****  *
1190:.\mpu6050.c   ****  * @return Current Slave 4 master delay value
1191:.\mpu6050.c   ****  * @see MPU6050_RA_I2C_SLV4_CTRL
1192:.\mpu6050.c   ****  */
1193:.\mpu6050.c   **** uint8_t MPU6050_getSlave4MasterDelay() {
 3257              		.loc 1 1193 0
 3258              		.cfi_startproc
 3259 0000 10B5     		push	{r4, lr}
 3260              		.cfi_def_cfa_offset 8
 3261              		.cfi_offset 4, -8
 3262              		.cfi_offset 14, -4
 3263 0002 82B0     		sub	sp, sp, #8
 3264              		.cfi_def_cfa_offset 16
1194:.\mpu6050.c   ****     I2CReadBits(devAddr, MPU6050_RA_I2C_SLV4_CTRL, I2C_MPU6050_I2C_SLV4_MST_DLY_BIT, I2C_MPU6050_I2
 3265              		.loc 1 1194 0
 3266 0004 054B     		ldr	r3, .L278
 3267 0006 1878     		ldrb	r0, [r3]
 3268 0008 054C     		ldr	r4, .L278+4
 3269 000a 0094     		str	r4, [sp]
 3270 000c 3421     		mov	r1, #52
 3271 000e 0422     		mov	r2, #4
 3272 0010 0523     		mov	r3, #5
 3273 0012 FFF7FEFF 		bl	I2CReadBits
 3274              	.LVL203:
1195:.\mpu6050.c   ****     return buffer[0];
 3275              		.loc 1 1195 0
 3276 0016 2078     		ldrb	r0, [r4]
1196:.\mpu6050.c   **** }
 3277              		.loc 1 1196 0
 3278 0018 02B0     		add	sp, sp, #8
 3279              		@ sp needed
 3280 001a 10BD     		pop	{r4, pc}
 3281              	.L279:
 3282              		.align	2
 3283              	.L278:
 3284 001c 00000000 		.word	devAddr
 3285 0020 00000000 		.word	buffer
 3286              		.cfi_endproc
 3287              	.LFE87:
 3288              		.size	MPU6050_getSlave4MasterDelay, .-MPU6050_getSlave4MasterDelay
 3289              		.section	.text.MPU6050_setSlave4MasterDelay,"ax",%progbits
 3290              		.align	2
 3291              		.global	MPU6050_setSlave4MasterDelay
 3292              		.code	16
 3293              		.thumb_func
 3294              		.type	MPU6050_setSlave4MasterDelay, %function
 3295              	MPU6050_setSlave4MasterDelay:
 3296              	.LFB88:
1197:.\mpu6050.c   **** /** Set Slave 4 master delay value.
1198:.\mpu6050.c   ****  * @param delay New Slave 4 master delay value
1199:.\mpu6050.c   ****  * @see getSlave4MasterDelay()
1200:.\mpu6050.c   ****  * @see MPU6050_RA_I2C_SLV4_CTRL
ARM GAS  C:\Users\username\AppData\Local\Temp\cca9Ol7c.s 			page 80


1201:.\mpu6050.c   ****  */
1202:.\mpu6050.c   **** void MPU6050_setSlave4MasterDelay(uint8_t delay) {
 3297              		.loc 1 1202 0
 3298              		.cfi_startproc
 3299              	.LVL204:
 3300 0000 00B5     		push	{lr}
 3301              		.cfi_def_cfa_offset 4
 3302              		.cfi_offset 14, -4
 3303 0002 83B0     		sub	sp, sp, #12
 3304              		.cfi_def_cfa_offset 16
1203:.\mpu6050.c   ****     I2CWriteBits(devAddr, MPU6050_RA_I2C_SLV4_CTRL, I2C_MPU6050_I2C_SLV4_MST_DLY_BIT, I2C_MPU6050_I
 3305              		.loc 1 1203 0
 3306 0004 054B     		ldr	r3, .L281
 3307 0006 1B78     		ldrb	r3, [r3]
 3308 0008 0090     		str	r0, [sp]
 3309 000a 181C     		mov	r0, r3
 3310              	.LVL205:
 3311 000c 3421     		mov	r1, #52
 3312 000e 0422     		mov	r2, #4
 3313 0010 0523     		mov	r3, #5
 3314 0012 FFF7FEFF 		bl	I2CWriteBits
 3315              	.LVL206:
1204:.\mpu6050.c   **** }
 3316              		.loc 1 1204 0
 3317 0016 03B0     		add	sp, sp, #12
 3318              		@ sp needed
 3319 0018 00BD     		pop	{pc}
 3320              	.L282:
 3321 001a C046     		.align	2
 3322              	.L281:
 3323 001c 00000000 		.word	devAddr
 3324              		.cfi_endproc
 3325              	.LFE88:
 3326              		.size	MPU6050_setSlave4MasterDelay, .-MPU6050_setSlave4MasterDelay
 3327              		.section	.text.MPU6050_getSlate4InputByte,"ax",%progbits
 3328              		.align	2
 3329              		.global	MPU6050_getSlate4InputByte
 3330              		.code	16
 3331              		.thumb_func
 3332              		.type	MPU6050_getSlate4InputByte, %function
 3333              	MPU6050_getSlate4InputByte:
 3334              	.LFB89:
1205:.\mpu6050.c   **** /** Get last available byte read from Slave 4.
1206:.\mpu6050.c   ****  * This register stores the data read from Slave 4. This field is populated
1207:.\mpu6050.c   ****  * after a read transaction.
1208:.\mpu6050.c   ****  * @return Last available byte read from to Slave 4
1209:.\mpu6050.c   ****  * @see MPU6050_RA_I2C_SLV4_DI
1210:.\mpu6050.c   ****  */
1211:.\mpu6050.c   **** uint8_t MPU6050_getSlate4InputByte() {
 3335              		.loc 1 1211 0
 3336              		.cfi_startproc
 3337 0000 10B5     		push	{r4, lr}
 3338              		.cfi_def_cfa_offset 8
 3339              		.cfi_offset 4, -8
 3340              		.cfi_offset 14, -4
1212:.\mpu6050.c   ****     I2CReadByte(devAddr, MPU6050_RA_I2C_SLV4_DI, buffer);
 3341              		.loc 1 1212 0
ARM GAS  C:\Users\username\AppData\Local\Temp\cca9Ol7c.s 			page 81


 3342 0002 044B     		ldr	r3, .L284
 3343 0004 1878     		ldrb	r0, [r3]
 3344 0006 044C     		ldr	r4, .L284+4
 3345 0008 3521     		mov	r1, #53
 3346 000a 221C     		mov	r2, r4
 3347 000c FFF7FEFF 		bl	I2CReadByte
 3348              	.LVL207:
1213:.\mpu6050.c   ****     return buffer[0];
 3349              		.loc 1 1213 0
 3350 0010 2078     		ldrb	r0, [r4]
1214:.\mpu6050.c   **** }
 3351              		.loc 1 1214 0
 3352              		@ sp needed
 3353 0012 10BD     		pop	{r4, pc}
 3354              	.L285:
 3355              		.align	2
 3356              	.L284:
 3357 0014 00000000 		.word	devAddr
 3358 0018 00000000 		.word	buffer
 3359              		.cfi_endproc
 3360              	.LFE89:
 3361              		.size	MPU6050_getSlate4InputByte, .-MPU6050_getSlate4InputByte
 3362              		.section	.text.MPU6050_getPassthroughStatus,"ax",%progbits
 3363              		.align	2
 3364              		.global	MPU6050_getPassthroughStatus
 3365              		.code	16
 3366              		.thumb_func
 3367              		.type	MPU6050_getPassthroughStatus, %function
 3368              	MPU6050_getPassthroughStatus:
 3369              	.LFB90:
1215:.\mpu6050.c   **** 
1216:.\mpu6050.c   **** // I2C_MST_STATUS register
1217:.\mpu6050.c   **** 
1218:.\mpu6050.c   **** /** Get FSYNC interrupt status.
1219:.\mpu6050.c   ****  * This bit reflects the status of the FSYNC interrupt from an external device
1220:.\mpu6050.c   ****  * into the MPU-60X0. This is used as a way to pass an external interrupt
1221:.\mpu6050.c   ****  * through the MPU-60X0 to the host application processor. When set to 1, this
1222:.\mpu6050.c   ****  * bit will cause an interrupt if FSYNC_INT_EN is asserted in INT_PIN_CFG
1223:.\mpu6050.c   ****  * (Register 55).
1224:.\mpu6050.c   ****  * @return FSYNC interrupt status
1225:.\mpu6050.c   ****  * @see MPU6050_RA_I2C_MST_STATUS
1226:.\mpu6050.c   ****  */
1227:.\mpu6050.c   **** bool MPU6050_getPassthroughStatus() {
 3370              		.loc 1 1227 0
 3371              		.cfi_startproc
 3372 0000 10B5     		push	{r4, lr}
 3373              		.cfi_def_cfa_offset 8
 3374              		.cfi_offset 4, -8
 3375              		.cfi_offset 14, -4
1228:.\mpu6050.c   ****     I2CReadBit(devAddr, MPU6050_RA_I2C_MST_STATUS, MPU6050_MST_PASS_THROUGH_BIT, buffer);
 3376              		.loc 1 1228 0
 3377 0002 064B     		ldr	r3, .L287
 3378 0004 1878     		ldrb	r0, [r3]
 3379 0006 064C     		ldr	r4, .L287+4
 3380 0008 3621     		mov	r1, #54
 3381 000a 0722     		mov	r2, #7
 3382 000c 231C     		mov	r3, r4
ARM GAS  C:\Users\username\AppData\Local\Temp\cca9Ol7c.s 			page 82


 3383 000e FFF7FEFF 		bl	I2CReadBit
 3384              	.LVL208:
1229:.\mpu6050.c   ****     return buffer[0];
 3385              		.loc 1 1229 0
 3386 0012 2078     		ldrb	r0, [r4]
 3387 0014 431E     		sub	r3, r0, #1
 3388 0016 9841     		sbc	r0, r0, r3
 3389 0018 C0B2     		uxtb	r0, r0
1230:.\mpu6050.c   **** }
 3390              		.loc 1 1230 0
 3391              		@ sp needed
 3392 001a 10BD     		pop	{r4, pc}
 3393              	.L288:
 3394              		.align	2
 3395              	.L287:
 3396 001c 00000000 		.word	devAddr
 3397 0020 00000000 		.word	buffer
 3398              		.cfi_endproc
 3399              	.LFE90:
 3400              		.size	MPU6050_getPassthroughStatus, .-MPU6050_getPassthroughStatus
 3401              		.section	.text.MPU6050_getSlave4IsDone,"ax",%progbits
 3402              		.align	2
 3403              		.global	MPU6050_getSlave4IsDone
 3404              		.code	16
 3405              		.thumb_func
 3406              		.type	MPU6050_getSlave4IsDone, %function
 3407              	MPU6050_getSlave4IsDone:
 3408              	.LFB91:
1231:.\mpu6050.c   **** /** Get Slave 4 transaction done status.
1232:.\mpu6050.c   ****  * Automatically sets to 1 when a Slave 4 transaction has completed. This
1233:.\mpu6050.c   ****  * triggers an interrupt if the I2C_MST_INT_EN bit in the INT_ENABLE register
1234:.\mpu6050.c   ****  * (Register 56) is asserted and if the SLV_4_DONE_INT bit is asserted in the
1235:.\mpu6050.c   ****  * I2C_SLV4_CTRL register (Register 52).
1236:.\mpu6050.c   ****  * @return Slave 4 transaction done status
1237:.\mpu6050.c   ****  * @see MPU6050_RA_I2C_MST_STATUS
1238:.\mpu6050.c   ****  */
1239:.\mpu6050.c   **** bool MPU6050_getSlave4IsDone() {
 3409              		.loc 1 1239 0
 3410              		.cfi_startproc
 3411 0000 10B5     		push	{r4, lr}
 3412              		.cfi_def_cfa_offset 8
 3413              		.cfi_offset 4, -8
 3414              		.cfi_offset 14, -4
1240:.\mpu6050.c   ****     I2CReadBit(devAddr, MPU6050_RA_I2C_MST_STATUS, MPU6050_MST_I2C_SLV4_DONE_BIT, buffer);
 3415              		.loc 1 1240 0
 3416 0002 064B     		ldr	r3, .L290
 3417 0004 1878     		ldrb	r0, [r3]
 3418 0006 064C     		ldr	r4, .L290+4
 3419 0008 3621     		mov	r1, #54
 3420 000a 0622     		mov	r2, #6
 3421 000c 231C     		mov	r3, r4
 3422 000e FFF7FEFF 		bl	I2CReadBit
 3423              	.LVL209:
1241:.\mpu6050.c   ****     return buffer[0];
 3424              		.loc 1 1241 0
 3425 0012 2078     		ldrb	r0, [r4]
 3426 0014 431E     		sub	r3, r0, #1
ARM GAS  C:\Users\username\AppData\Local\Temp\cca9Ol7c.s 			page 83


 3427 0016 9841     		sbc	r0, r0, r3
 3428 0018 C0B2     		uxtb	r0, r0
1242:.\mpu6050.c   **** }
 3429              		.loc 1 1242 0
 3430              		@ sp needed
 3431 001a 10BD     		pop	{r4, pc}
 3432              	.L291:
 3433              		.align	2
 3434              	.L290:
 3435 001c 00000000 		.word	devAddr
 3436 0020 00000000 		.word	buffer
 3437              		.cfi_endproc
 3438              	.LFE91:
 3439              		.size	MPU6050_getSlave4IsDone, .-MPU6050_getSlave4IsDone
 3440              		.section	.text.MPU6050_getLostArbitration,"ax",%progbits
 3441              		.align	2
 3442              		.global	MPU6050_getLostArbitration
 3443              		.code	16
 3444              		.thumb_func
 3445              		.type	MPU6050_getLostArbitration, %function
 3446              	MPU6050_getLostArbitration:
 3447              	.LFB92:
1243:.\mpu6050.c   **** /** Get master arbitration lost status.
1244:.\mpu6050.c   ****  * This bit automatically sets to 1 when the I2C Master has lost arbitration of
1245:.\mpu6050.c   ****  * the auxiliary I2C bus (an error condition). This triggers an interrupt if the
1246:.\mpu6050.c   ****  * I2C_MST_INT_EN bit in the INT_ENABLE register (Register 56) is asserted.
1247:.\mpu6050.c   ****  * @return Master arbitration lost status
1248:.\mpu6050.c   ****  * @see MPU6050_RA_I2C_MST_STATUS
1249:.\mpu6050.c   ****  */
1250:.\mpu6050.c   **** bool MPU6050_getLostArbitration() {
 3448              		.loc 1 1250 0
 3449              		.cfi_startproc
 3450 0000 10B5     		push	{r4, lr}
 3451              		.cfi_def_cfa_offset 8
 3452              		.cfi_offset 4, -8
 3453              		.cfi_offset 14, -4
1251:.\mpu6050.c   ****     I2CReadBit(devAddr, MPU6050_RA_I2C_MST_STATUS, MPU6050_MST_I2C_LOST_ARB_BIT, buffer);
 3454              		.loc 1 1251 0
 3455 0002 064B     		ldr	r3, .L293
 3456 0004 1878     		ldrb	r0, [r3]
 3457 0006 064C     		ldr	r4, .L293+4
 3458 0008 3621     		mov	r1, #54
 3459 000a 0522     		mov	r2, #5
 3460 000c 231C     		mov	r3, r4
 3461 000e FFF7FEFF 		bl	I2CReadBit
 3462              	.LVL210:
1252:.\mpu6050.c   ****     return buffer[0];
 3463              		.loc 1 1252 0
 3464 0012 2078     		ldrb	r0, [r4]
 3465 0014 431E     		sub	r3, r0, #1
 3466 0016 9841     		sbc	r0, r0, r3
 3467 0018 C0B2     		uxtb	r0, r0
1253:.\mpu6050.c   **** }
 3468              		.loc 1 1253 0
 3469              		@ sp needed
 3470 001a 10BD     		pop	{r4, pc}
 3471              	.L294:
ARM GAS  C:\Users\username\AppData\Local\Temp\cca9Ol7c.s 			page 84


 3472              		.align	2
 3473              	.L293:
 3474 001c 00000000 		.word	devAddr
 3475 0020 00000000 		.word	buffer
 3476              		.cfi_endproc
 3477              	.LFE92:
 3478              		.size	MPU6050_getLostArbitration, .-MPU6050_getLostArbitration
 3479              		.section	.text.MPU6050_getSlave4Nack,"ax",%progbits
 3480              		.align	2
 3481              		.global	MPU6050_getSlave4Nack
 3482              		.code	16
 3483              		.thumb_func
 3484              		.type	MPU6050_getSlave4Nack, %function
 3485              	MPU6050_getSlave4Nack:
 3486              	.LFB93:
1254:.\mpu6050.c   **** /** Get Slave 4 NACK status.
1255:.\mpu6050.c   ****  * This bit automatically sets to 1 when the I2C Master receives a NACK in a
1256:.\mpu6050.c   ****  * transaction with Slave 4. This triggers an interrupt if the I2C_MST_INT_EN
1257:.\mpu6050.c   ****  * bit in the INT_ENABLE register (Register 56) is asserted.
1258:.\mpu6050.c   ****  * @return Slave 4 NACK interrupt status
1259:.\mpu6050.c   ****  * @see MPU6050_RA_I2C_MST_STATUS
1260:.\mpu6050.c   ****  */
1261:.\mpu6050.c   **** bool MPU6050_getSlave4Nack() {
 3487              		.loc 1 1261 0
 3488              		.cfi_startproc
 3489 0000 10B5     		push	{r4, lr}
 3490              		.cfi_def_cfa_offset 8
 3491              		.cfi_offset 4, -8
 3492              		.cfi_offset 14, -4
1262:.\mpu6050.c   ****     I2CReadBit(devAddr, MPU6050_RA_I2C_MST_STATUS, MPU6050_MST_I2C_SLV4_NACK_BIT, buffer);
 3493              		.loc 1 1262 0
 3494 0002 064B     		ldr	r3, .L296
 3495 0004 1878     		ldrb	r0, [r3]
 3496 0006 064C     		ldr	r4, .L296+4
 3497 0008 3621     		mov	r1, #54
 3498 000a 0422     		mov	r2, #4
 3499 000c 231C     		mov	r3, r4
 3500 000e FFF7FEFF 		bl	I2CReadBit
 3501              	.LVL211:
1263:.\mpu6050.c   ****     return buffer[0];
 3502              		.loc 1 1263 0
 3503 0012 2078     		ldrb	r0, [r4]
 3504 0014 431E     		sub	r3, r0, #1
 3505 0016 9841     		sbc	r0, r0, r3
 3506 0018 C0B2     		uxtb	r0, r0
1264:.\mpu6050.c   **** }
 3507              		.loc 1 1264 0
 3508              		@ sp needed
 3509 001a 10BD     		pop	{r4, pc}
 3510              	.L297:
 3511              		.align	2
 3512              	.L296:
 3513 001c 00000000 		.word	devAddr
 3514 0020 00000000 		.word	buffer
 3515              		.cfi_endproc
 3516              	.LFE93:
 3517              		.size	MPU6050_getSlave4Nack, .-MPU6050_getSlave4Nack
ARM GAS  C:\Users\username\AppData\Local\Temp\cca9Ol7c.s 			page 85


 3518              		.section	.text.MPU6050_getSlave3Nack,"ax",%progbits
 3519              		.align	2
 3520              		.global	MPU6050_getSlave3Nack
 3521              		.code	16
 3522              		.thumb_func
 3523              		.type	MPU6050_getSlave3Nack, %function
 3524              	MPU6050_getSlave3Nack:
 3525              	.LFB94:
1265:.\mpu6050.c   **** /** Get Slave 3 NACK status.
1266:.\mpu6050.c   ****  * This bit automatically sets to 1 when the I2C Master receives a NACK in a
1267:.\mpu6050.c   ****  * transaction with Slave 3. This triggers an interrupt if the I2C_MST_INT_EN
1268:.\mpu6050.c   ****  * bit in the INT_ENABLE register (Register 56) is asserted.
1269:.\mpu6050.c   ****  * @return Slave 3 NACK interrupt status
1270:.\mpu6050.c   ****  * @see MPU6050_RA_I2C_MST_STATUS
1271:.\mpu6050.c   ****  */
1272:.\mpu6050.c   **** bool MPU6050_getSlave3Nack() {
 3526              		.loc 1 1272 0
 3527              		.cfi_startproc
 3528 0000 10B5     		push	{r4, lr}
 3529              		.cfi_def_cfa_offset 8
 3530              		.cfi_offset 4, -8
 3531              		.cfi_offset 14, -4
1273:.\mpu6050.c   ****     I2CReadBit(devAddr, MPU6050_RA_I2C_MST_STATUS, MPU6050_MST_I2C_SLV3_NACK_BIT, buffer);
 3532              		.loc 1 1273 0
 3533 0002 064B     		ldr	r3, .L299
 3534 0004 1878     		ldrb	r0, [r3]
 3535 0006 064C     		ldr	r4, .L299+4
 3536 0008 3621     		mov	r1, #54
 3537 000a 0322     		mov	r2, #3
 3538 000c 231C     		mov	r3, r4
 3539 000e FFF7FEFF 		bl	I2CReadBit
 3540              	.LVL212:
1274:.\mpu6050.c   ****     return buffer[0];
 3541              		.loc 1 1274 0
 3542 0012 2078     		ldrb	r0, [r4]
 3543 0014 431E     		sub	r3, r0, #1
 3544 0016 9841     		sbc	r0, r0, r3
 3545 0018 C0B2     		uxtb	r0, r0
1275:.\mpu6050.c   **** }
 3546              		.loc 1 1275 0
 3547              		@ sp needed
 3548 001a 10BD     		pop	{r4, pc}
 3549              	.L300:
 3550              		.align	2
 3551              	.L299:
 3552 001c 00000000 		.word	devAddr
 3553 0020 00000000 		.word	buffer
 3554              		.cfi_endproc
 3555              	.LFE94:
 3556              		.size	MPU6050_getSlave3Nack, .-MPU6050_getSlave3Nack
 3557              		.section	.text.MPU6050_getSlave2Nack,"ax",%progbits
 3558              		.align	2
 3559              		.global	MPU6050_getSlave2Nack
 3560              		.code	16
 3561              		.thumb_func
 3562              		.type	MPU6050_getSlave2Nack, %function
 3563              	MPU6050_getSlave2Nack:
ARM GAS  C:\Users\username\AppData\Local\Temp\cca9Ol7c.s 			page 86


 3564              	.LFB95:
1276:.\mpu6050.c   **** /** Get Slave 2 NACK status.
1277:.\mpu6050.c   ****  * This bit automatically sets to 1 when the I2C Master receives a NACK in a
1278:.\mpu6050.c   ****  * transaction with Slave 2. This triggers an interrupt if the I2C_MST_INT_EN
1279:.\mpu6050.c   ****  * bit in the INT_ENABLE register (Register 56) is asserted.
1280:.\mpu6050.c   ****  * @return Slave 2 NACK interrupt status
1281:.\mpu6050.c   ****  * @see MPU6050_RA_I2C_MST_STATUS
1282:.\mpu6050.c   ****  */
1283:.\mpu6050.c   **** bool MPU6050_getSlave2Nack() {
 3565              		.loc 1 1283 0
 3566              		.cfi_startproc
 3567 0000 10B5     		push	{r4, lr}
 3568              		.cfi_def_cfa_offset 8
 3569              		.cfi_offset 4, -8
 3570              		.cfi_offset 14, -4
1284:.\mpu6050.c   ****     I2CReadBit(devAddr, MPU6050_RA_I2C_MST_STATUS, MPU6050_MST_I2C_SLV2_NACK_BIT, buffer);
 3571              		.loc 1 1284 0
 3572 0002 064B     		ldr	r3, .L302
 3573 0004 1878     		ldrb	r0, [r3]
 3574 0006 064C     		ldr	r4, .L302+4
 3575 0008 3621     		mov	r1, #54
 3576 000a 0222     		mov	r2, #2
 3577 000c 231C     		mov	r3, r4
 3578 000e FFF7FEFF 		bl	I2CReadBit
 3579              	.LVL213:
1285:.\mpu6050.c   ****     return buffer[0];
 3580              		.loc 1 1285 0
 3581 0012 2078     		ldrb	r0, [r4]
 3582 0014 431E     		sub	r3, r0, #1
 3583 0016 9841     		sbc	r0, r0, r3
 3584 0018 C0B2     		uxtb	r0, r0
1286:.\mpu6050.c   **** }
 3585              		.loc 1 1286 0
 3586              		@ sp needed
 3587 001a 10BD     		pop	{r4, pc}
 3588              	.L303:
 3589              		.align	2
 3590              	.L302:
 3591 001c 00000000 		.word	devAddr
 3592 0020 00000000 		.word	buffer
 3593              		.cfi_endproc
 3594              	.LFE95:
 3595              		.size	MPU6050_getSlave2Nack, .-MPU6050_getSlave2Nack
 3596              		.section	.text.MPU6050_getSlave1Nack,"ax",%progbits
 3597              		.align	2
 3598              		.global	MPU6050_getSlave1Nack
 3599              		.code	16
 3600              		.thumb_func
 3601              		.type	MPU6050_getSlave1Nack, %function
 3602              	MPU6050_getSlave1Nack:
 3603              	.LFB96:
1287:.\mpu6050.c   **** /** Get Slave 1 NACK status.
1288:.\mpu6050.c   ****  * This bit automatically sets to 1 when the I2C Master receives a NACK in a
1289:.\mpu6050.c   ****  * transaction with Slave 1. This triggers an interrupt if the I2C_MST_INT_EN
1290:.\mpu6050.c   ****  * bit in the INT_ENABLE register (Register 56) is asserted.
1291:.\mpu6050.c   ****  * @return Slave 1 NACK interrupt status
1292:.\mpu6050.c   ****  * @see MPU6050_RA_I2C_MST_STATUS
ARM GAS  C:\Users\username\AppData\Local\Temp\cca9Ol7c.s 			page 87


1293:.\mpu6050.c   ****  */
1294:.\mpu6050.c   **** bool MPU6050_getSlave1Nack() {
 3604              		.loc 1 1294 0
 3605              		.cfi_startproc
 3606 0000 10B5     		push	{r4, lr}
 3607              		.cfi_def_cfa_offset 8
 3608              		.cfi_offset 4, -8
 3609              		.cfi_offset 14, -4
1295:.\mpu6050.c   ****     I2CReadBit(devAddr, MPU6050_RA_I2C_MST_STATUS, MPU6050_MST_I2C_SLV1_NACK_BIT, buffer);
 3610              		.loc 1 1295 0
 3611 0002 064B     		ldr	r3, .L305
 3612 0004 1878     		ldrb	r0, [r3]
 3613 0006 064C     		ldr	r4, .L305+4
 3614 0008 3621     		mov	r1, #54
 3615 000a 0122     		mov	r2, #1
 3616 000c 231C     		mov	r3, r4
 3617 000e FFF7FEFF 		bl	I2CReadBit
 3618              	.LVL214:
1296:.\mpu6050.c   ****     return buffer[0];
 3619              		.loc 1 1296 0
 3620 0012 2078     		ldrb	r0, [r4]
 3621 0014 431E     		sub	r3, r0, #1
 3622 0016 9841     		sbc	r0, r0, r3
 3623 0018 C0B2     		uxtb	r0, r0
1297:.\mpu6050.c   **** }
 3624              		.loc 1 1297 0
 3625              		@ sp needed
 3626 001a 10BD     		pop	{r4, pc}
 3627              	.L306:
 3628              		.align	2
 3629              	.L305:
 3630 001c 00000000 		.word	devAddr
 3631 0020 00000000 		.word	buffer
 3632              		.cfi_endproc
 3633              	.LFE96:
 3634              		.size	MPU6050_getSlave1Nack, .-MPU6050_getSlave1Nack
 3635              		.section	.text.MPU6050_getSlave0Nack,"ax",%progbits
 3636              		.align	2
 3637              		.global	MPU6050_getSlave0Nack
 3638              		.code	16
 3639              		.thumb_func
 3640              		.type	MPU6050_getSlave0Nack, %function
 3641              	MPU6050_getSlave0Nack:
 3642              	.LFB97:
1298:.\mpu6050.c   **** /** Get Slave 0 NACK status.
1299:.\mpu6050.c   ****  * This bit automatically sets to 1 when the I2C Master receives a NACK in a
1300:.\mpu6050.c   ****  * transaction with Slave 0. This triggers an interrupt if the I2C_MST_INT_EN
1301:.\mpu6050.c   ****  * bit in the INT_ENABLE register (Register 56) is asserted.
1302:.\mpu6050.c   ****  * @return Slave 0 NACK interrupt status
1303:.\mpu6050.c   ****  * @see MPU6050_RA_I2C_MST_STATUS
1304:.\mpu6050.c   ****  */
1305:.\mpu6050.c   **** bool MPU6050_getSlave0Nack() {
 3643              		.loc 1 1305 0
 3644              		.cfi_startproc
 3645 0000 10B5     		push	{r4, lr}
 3646              		.cfi_def_cfa_offset 8
 3647              		.cfi_offset 4, -8
ARM GAS  C:\Users\username\AppData\Local\Temp\cca9Ol7c.s 			page 88


 3648              		.cfi_offset 14, -4
1306:.\mpu6050.c   ****     I2CReadBit(devAddr, MPU6050_RA_I2C_MST_STATUS, MPU6050_MST_I2C_SLV0_NACK_BIT, buffer);
 3649              		.loc 1 1306 0
 3650 0002 064B     		ldr	r3, .L308
 3651 0004 1878     		ldrb	r0, [r3]
 3652 0006 064C     		ldr	r4, .L308+4
 3653 0008 3621     		mov	r1, #54
 3654 000a 0022     		mov	r2, #0
 3655 000c 231C     		mov	r3, r4
 3656 000e FFF7FEFF 		bl	I2CReadBit
 3657              	.LVL215:
1307:.\mpu6050.c   ****     return buffer[0];
 3658              		.loc 1 1307 0
 3659 0012 2078     		ldrb	r0, [r4]
 3660 0014 431E     		sub	r3, r0, #1
 3661 0016 9841     		sbc	r0, r0, r3
 3662 0018 C0B2     		uxtb	r0, r0
1308:.\mpu6050.c   **** }
 3663              		.loc 1 1308 0
 3664              		@ sp needed
 3665 001a 10BD     		pop	{r4, pc}
 3666              	.L309:
 3667              		.align	2
 3668              	.L308:
 3669 001c 00000000 		.word	devAddr
 3670 0020 00000000 		.word	buffer
 3671              		.cfi_endproc
 3672              	.LFE97:
 3673              		.size	MPU6050_getSlave0Nack, .-MPU6050_getSlave0Nack
 3674              		.section	.text.MPU6050_getInterruptMode,"ax",%progbits
 3675              		.align	2
 3676              		.global	MPU6050_getInterruptMode
 3677              		.code	16
 3678              		.thumb_func
 3679              		.type	MPU6050_getInterruptMode, %function
 3680              	MPU6050_getInterruptMode:
 3681              	.LFB98:
1309:.\mpu6050.c   **** 
1310:.\mpu6050.c   **** // INT_PIN_CFG register
1311:.\mpu6050.c   **** 
1312:.\mpu6050.c   **** /** Get interrupt logic level mode.
1313:.\mpu6050.c   ****  * Will be set 0 for active-high, 1 for active-low.
1314:.\mpu6050.c   ****  * @return Current interrupt mode (0=active-high, 1=active-low)
1315:.\mpu6050.c   ****  * @see MPU6050_RA_INT_PIN_CFG
1316:.\mpu6050.c   ****  * @see MPU6050_INTCFG_INT_LEVEL_BIT
1317:.\mpu6050.c   ****  */
1318:.\mpu6050.c   **** bool MPU6050_getInterruptMode() {
 3682              		.loc 1 1318 0
 3683              		.cfi_startproc
 3684 0000 10B5     		push	{r4, lr}
 3685              		.cfi_def_cfa_offset 8
 3686              		.cfi_offset 4, -8
 3687              		.cfi_offset 14, -4
1319:.\mpu6050.c   ****     I2CReadBit(devAddr, MPU6050_RA_INT_PIN_CFG, MPU6050_INTCFG_INT_LEVEL_BIT, buffer);
 3688              		.loc 1 1319 0
 3689 0002 064B     		ldr	r3, .L311
 3690 0004 1878     		ldrb	r0, [r3]
ARM GAS  C:\Users\username\AppData\Local\Temp\cca9Ol7c.s 			page 89


 3691 0006 064C     		ldr	r4, .L311+4
 3692 0008 3721     		mov	r1, #55
 3693 000a 0722     		mov	r2, #7
 3694 000c 231C     		mov	r3, r4
 3695 000e FFF7FEFF 		bl	I2CReadBit
 3696              	.LVL216:
1320:.\mpu6050.c   ****     return buffer[0];
 3697              		.loc 1 1320 0
 3698 0012 2078     		ldrb	r0, [r4]
 3699 0014 431E     		sub	r3, r0, #1
 3700 0016 9841     		sbc	r0, r0, r3
 3701 0018 C0B2     		uxtb	r0, r0
1321:.\mpu6050.c   **** }
 3702              		.loc 1 1321 0
 3703              		@ sp needed
 3704 001a 10BD     		pop	{r4, pc}
 3705              	.L312:
 3706              		.align	2
 3707              	.L311:
 3708 001c 00000000 		.word	devAddr
 3709 0020 00000000 		.word	buffer
 3710              		.cfi_endproc
 3711              	.LFE98:
 3712              		.size	MPU6050_getInterruptMode, .-MPU6050_getInterruptMode
 3713              		.section	.text.MPU6050_setInterruptMode,"ax",%progbits
 3714              		.align	2
 3715              		.global	MPU6050_setInterruptMode
 3716              		.code	16
 3717              		.thumb_func
 3718              		.type	MPU6050_setInterruptMode, %function
 3719              	MPU6050_setInterruptMode:
 3720              	.LFB99:
1322:.\mpu6050.c   **** /** Set interrupt logic level mode.
1323:.\mpu6050.c   ****  * @param mode New interrupt mode (0=active-high, 1=active-low)
1324:.\mpu6050.c   ****  * @see getInterruptMode()
1325:.\mpu6050.c   ****  * @see MPU6050_RA_INT_PIN_CFG
1326:.\mpu6050.c   ****  * @see MPU6050_INTCFG_INT_LEVEL_BIT
1327:.\mpu6050.c   ****  */
1328:.\mpu6050.c   **** void MPU6050_setInterruptMode(bool mode) {
 3721              		.loc 1 1328 0
 3722              		.cfi_startproc
 3723              	.LVL217:
 3724 0000 08B5     		push	{r3, lr}
 3725              		.cfi_def_cfa_offset 8
 3726              		.cfi_offset 3, -8
 3727              		.cfi_offset 14, -4
 3728 0002 031C     		mov	r3, r0
1329:.\mpu6050.c   ****    I2CWriteBit(devAddr, MPU6050_RA_INT_PIN_CFG, MPU6050_INTCFG_INT_LEVEL_BIT, mode);
 3729              		.loc 1 1329 0
 3730 0004 034A     		ldr	r2, .L314
 3731 0006 1078     		ldrb	r0, [r2]
 3732              	.LVL218:
 3733 0008 3721     		mov	r1, #55
 3734 000a 0722     		mov	r2, #7
 3735 000c FFF7FEFF 		bl	I2CWriteBit
 3736              	.LVL219:
1330:.\mpu6050.c   **** }
ARM GAS  C:\Users\username\AppData\Local\Temp\cca9Ol7c.s 			page 90


 3737              		.loc 1 1330 0
 3738              		@ sp needed
 3739 0010 08BD     		pop	{r3, pc}
 3740              	.L315:
 3741 0012 C046     		.align	2
 3742              	.L314:
 3743 0014 00000000 		.word	devAddr
 3744              		.cfi_endproc
 3745              	.LFE99:
 3746              		.size	MPU6050_setInterruptMode, .-MPU6050_setInterruptMode
 3747              		.section	.text.MPU6050_getInterruptDrive,"ax",%progbits
 3748              		.align	2
 3749              		.global	MPU6050_getInterruptDrive
 3750              		.code	16
 3751              		.thumb_func
 3752              		.type	MPU6050_getInterruptDrive, %function
 3753              	MPU6050_getInterruptDrive:
 3754              	.LFB100:
1331:.\mpu6050.c   **** /** Get interrupt drive mode.
1332:.\mpu6050.c   ****  * Will be set 0 for push-pull, 1 for open-drain.
1333:.\mpu6050.c   ****  * @return Current interrupt drive mode (0=push-pull, 1=open-drain)
1334:.\mpu6050.c   ****  * @see MPU6050_RA_INT_PIN_CFG
1335:.\mpu6050.c   ****  * @see MPU6050_INTCFG_INT_OPEN_BIT
1336:.\mpu6050.c   ****  */
1337:.\mpu6050.c   **** bool MPU6050_getInterruptDrive() {
 3755              		.loc 1 1337 0
 3756              		.cfi_startproc
 3757 0000 10B5     		push	{r4, lr}
 3758              		.cfi_def_cfa_offset 8
 3759              		.cfi_offset 4, -8
 3760              		.cfi_offset 14, -4
1338:.\mpu6050.c   ****     I2CReadBit(devAddr, MPU6050_RA_INT_PIN_CFG, MPU6050_INTCFG_INT_OPEN_BIT, buffer);
 3761              		.loc 1 1338 0
 3762 0002 064B     		ldr	r3, .L317
 3763 0004 1878     		ldrb	r0, [r3]
 3764 0006 064C     		ldr	r4, .L317+4
 3765 0008 3721     		mov	r1, #55
 3766 000a 0622     		mov	r2, #6
 3767 000c 231C     		mov	r3, r4
 3768 000e FFF7FEFF 		bl	I2CReadBit
 3769              	.LVL220:
1339:.\mpu6050.c   ****     return buffer[0];
 3770              		.loc 1 1339 0
 3771 0012 2078     		ldrb	r0, [r4]
 3772 0014 431E     		sub	r3, r0, #1
 3773 0016 9841     		sbc	r0, r0, r3
 3774 0018 C0B2     		uxtb	r0, r0
1340:.\mpu6050.c   **** }
 3775              		.loc 1 1340 0
 3776              		@ sp needed
 3777 001a 10BD     		pop	{r4, pc}
 3778              	.L318:
 3779              		.align	2
 3780              	.L317:
 3781 001c 00000000 		.word	devAddr
 3782 0020 00000000 		.word	buffer
 3783              		.cfi_endproc
ARM GAS  C:\Users\username\AppData\Local\Temp\cca9Ol7c.s 			page 91


 3784              	.LFE100:
 3785              		.size	MPU6050_getInterruptDrive, .-MPU6050_getInterruptDrive
 3786              		.section	.text.MPU6050_setInterruptDrive,"ax",%progbits
 3787              		.align	2
 3788              		.global	MPU6050_setInterruptDrive
 3789              		.code	16
 3790              		.thumb_func
 3791              		.type	MPU6050_setInterruptDrive, %function
 3792              	MPU6050_setInterruptDrive:
 3793              	.LFB101:
1341:.\mpu6050.c   **** /** Set interrupt drive mode.
1342:.\mpu6050.c   ****  * @param drive New interrupt drive mode (0=push-pull, 1=open-drain)
1343:.\mpu6050.c   ****  * @see getInterruptDrive()
1344:.\mpu6050.c   ****  * @see MPU6050_RA_INT_PIN_CFG
1345:.\mpu6050.c   ****  * @see MPU6050_INTCFG_INT_OPEN_BIT
1346:.\mpu6050.c   ****  */
1347:.\mpu6050.c   **** void MPU6050_setInterruptDrive(bool drive) {
 3794              		.loc 1 1347 0
 3795              		.cfi_startproc
 3796              	.LVL221:
 3797 0000 08B5     		push	{r3, lr}
 3798              		.cfi_def_cfa_offset 8
 3799              		.cfi_offset 3, -8
 3800              		.cfi_offset 14, -4
 3801 0002 031C     		mov	r3, r0
1348:.\mpu6050.c   ****     I2CWriteBit(devAddr, MPU6050_RA_INT_PIN_CFG, MPU6050_INTCFG_INT_OPEN_BIT, drive);
 3802              		.loc 1 1348 0
 3803 0004 034A     		ldr	r2, .L320
 3804 0006 1078     		ldrb	r0, [r2]
 3805              	.LVL222:
 3806 0008 3721     		mov	r1, #55
 3807 000a 0622     		mov	r2, #6
 3808 000c FFF7FEFF 		bl	I2CWriteBit
 3809              	.LVL223:
1349:.\mpu6050.c   **** }
 3810              		.loc 1 1349 0
 3811              		@ sp needed
 3812 0010 08BD     		pop	{r3, pc}
 3813              	.L321:
 3814 0012 C046     		.align	2
 3815              	.L320:
 3816 0014 00000000 		.word	devAddr
 3817              		.cfi_endproc
 3818              	.LFE101:
 3819              		.size	MPU6050_setInterruptDrive, .-MPU6050_setInterruptDrive
 3820              		.section	.text.MPU6050_getInterruptLatch,"ax",%progbits
 3821              		.align	2
 3822              		.global	MPU6050_getInterruptLatch
 3823              		.code	16
 3824              		.thumb_func
 3825              		.type	MPU6050_getInterruptLatch, %function
 3826              	MPU6050_getInterruptLatch:
 3827              	.LFB102:
1350:.\mpu6050.c   **** /** Get interrupt latch mode.
1351:.\mpu6050.c   ****  * Will be set 0 for 50us-pulse, 1 for latch-until-int-cleared.
1352:.\mpu6050.c   ****  * @return Current latch mode (0=50us-pulse, 1=latch-until-int-cleared)
1353:.\mpu6050.c   ****  * @see MPU6050_RA_INT_PIN_CFG
ARM GAS  C:\Users\username\AppData\Local\Temp\cca9Ol7c.s 			page 92


1354:.\mpu6050.c   ****  * @see MPU6050_INTCFG_LATCH_INT_EN_BIT
1355:.\mpu6050.c   ****  */
1356:.\mpu6050.c   **** bool MPU6050_getInterruptLatch() {
 3828              		.loc 1 1356 0
 3829              		.cfi_startproc
 3830 0000 10B5     		push	{r4, lr}
 3831              		.cfi_def_cfa_offset 8
 3832              		.cfi_offset 4, -8
 3833              		.cfi_offset 14, -4
1357:.\mpu6050.c   ****     I2CReadBit(devAddr, MPU6050_RA_INT_PIN_CFG, MPU6050_INTCFG_LATCH_INT_EN_BIT, buffer);
 3834              		.loc 1 1357 0
 3835 0002 064B     		ldr	r3, .L323
 3836 0004 1878     		ldrb	r0, [r3]
 3837 0006 064C     		ldr	r4, .L323+4
 3838 0008 3721     		mov	r1, #55
 3839 000a 0522     		mov	r2, #5
 3840 000c 231C     		mov	r3, r4
 3841 000e FFF7FEFF 		bl	I2CReadBit
 3842              	.LVL224:
1358:.\mpu6050.c   ****     return buffer[0];
 3843              		.loc 1 1358 0
 3844 0012 2078     		ldrb	r0, [r4]
 3845 0014 431E     		sub	r3, r0, #1
 3846 0016 9841     		sbc	r0, r0, r3
 3847 0018 C0B2     		uxtb	r0, r0
1359:.\mpu6050.c   **** }
 3848              		.loc 1 1359 0
 3849              		@ sp needed
 3850 001a 10BD     		pop	{r4, pc}
 3851              	.L324:
 3852              		.align	2
 3853              	.L323:
 3854 001c 00000000 		.word	devAddr
 3855 0020 00000000 		.word	buffer
 3856              		.cfi_endproc
 3857              	.LFE102:
 3858              		.size	MPU6050_getInterruptLatch, .-MPU6050_getInterruptLatch
 3859              		.section	.text.MPU6050_setInterruptLatch,"ax",%progbits
 3860              		.align	2
 3861              		.global	MPU6050_setInterruptLatch
 3862              		.code	16
 3863              		.thumb_func
 3864              		.type	MPU6050_setInterruptLatch, %function
 3865              	MPU6050_setInterruptLatch:
 3866              	.LFB103:
1360:.\mpu6050.c   **** /** Set interrupt latch mode.
1361:.\mpu6050.c   ****  * @param latch New latch mode (0=50us-pulse, 1=latch-until-int-cleared)
1362:.\mpu6050.c   ****  * @see getInterruptLatch()
1363:.\mpu6050.c   ****  * @see MPU6050_RA_INT_PIN_CFG
1364:.\mpu6050.c   ****  * @see MPU6050_INTCFG_LATCH_INT_EN_BIT
1365:.\mpu6050.c   ****  */
1366:.\mpu6050.c   **** void MPU6050_setInterruptLatch(bool latch) {
 3867              		.loc 1 1366 0
 3868              		.cfi_startproc
 3869              	.LVL225:
 3870 0000 08B5     		push	{r3, lr}
 3871              		.cfi_def_cfa_offset 8
ARM GAS  C:\Users\username\AppData\Local\Temp\cca9Ol7c.s 			page 93


 3872              		.cfi_offset 3, -8
 3873              		.cfi_offset 14, -4
 3874 0002 031C     		mov	r3, r0
1367:.\mpu6050.c   ****     I2CWriteBit(devAddr, MPU6050_RA_INT_PIN_CFG, MPU6050_INTCFG_LATCH_INT_EN_BIT, latch);
 3875              		.loc 1 1367 0
 3876 0004 034A     		ldr	r2, .L326
 3877 0006 1078     		ldrb	r0, [r2]
 3878              	.LVL226:
 3879 0008 3721     		mov	r1, #55
 3880 000a 0522     		mov	r2, #5
 3881 000c FFF7FEFF 		bl	I2CWriteBit
 3882              	.LVL227:
1368:.\mpu6050.c   **** }
 3883              		.loc 1 1368 0
 3884              		@ sp needed
 3885 0010 08BD     		pop	{r3, pc}
 3886              	.L327:
 3887 0012 C046     		.align	2
 3888              	.L326:
 3889 0014 00000000 		.word	devAddr
 3890              		.cfi_endproc
 3891              	.LFE103:
 3892              		.size	MPU6050_setInterruptLatch, .-MPU6050_setInterruptLatch
 3893              		.section	.text.MPU6050_getInterruptLatchClear,"ax",%progbits
 3894              		.align	2
 3895              		.global	MPU6050_getInterruptLatchClear
 3896              		.code	16
 3897              		.thumb_func
 3898              		.type	MPU6050_getInterruptLatchClear, %function
 3899              	MPU6050_getInterruptLatchClear:
 3900              	.LFB104:
1369:.\mpu6050.c   **** /** Get interrupt latch clear mode.
1370:.\mpu6050.c   ****  * Will be set 0 for status-read-only, 1 for any-register-read.
1371:.\mpu6050.c   ****  * @return Current latch clear mode (0=status-read-only, 1=any-register-read)
1372:.\mpu6050.c   ****  * @see MPU6050_RA_INT_PIN_CFG
1373:.\mpu6050.c   ****  * @see MPU6050_INTCFG_INT_RD_CLEAR_BIT
1374:.\mpu6050.c   ****  */
1375:.\mpu6050.c   **** bool MPU6050_getInterruptLatchClear() {
 3901              		.loc 1 1375 0
 3902              		.cfi_startproc
 3903 0000 10B5     		push	{r4, lr}
 3904              		.cfi_def_cfa_offset 8
 3905              		.cfi_offset 4, -8
 3906              		.cfi_offset 14, -4
1376:.\mpu6050.c   ****     I2CReadBit(devAddr, MPU6050_RA_INT_PIN_CFG, MPU6050_INTCFG_INT_RD_CLEAR_BIT, buffer);
 3907              		.loc 1 1376 0
 3908 0002 064B     		ldr	r3, .L329
 3909 0004 1878     		ldrb	r0, [r3]
 3910 0006 064C     		ldr	r4, .L329+4
 3911 0008 3721     		mov	r1, #55
 3912 000a 0422     		mov	r2, #4
 3913 000c 231C     		mov	r3, r4
 3914 000e FFF7FEFF 		bl	I2CReadBit
 3915              	.LVL228:
1377:.\mpu6050.c   ****     return buffer[0];
 3916              		.loc 1 1377 0
 3917 0012 2078     		ldrb	r0, [r4]
ARM GAS  C:\Users\username\AppData\Local\Temp\cca9Ol7c.s 			page 94


 3918 0014 431E     		sub	r3, r0, #1
 3919 0016 9841     		sbc	r0, r0, r3
 3920 0018 C0B2     		uxtb	r0, r0
1378:.\mpu6050.c   **** }
 3921              		.loc 1 1378 0
 3922              		@ sp needed
 3923 001a 10BD     		pop	{r4, pc}
 3924              	.L330:
 3925              		.align	2
 3926              	.L329:
 3927 001c 00000000 		.word	devAddr
 3928 0020 00000000 		.word	buffer
 3929              		.cfi_endproc
 3930              	.LFE104:
 3931              		.size	MPU6050_getInterruptLatchClear, .-MPU6050_getInterruptLatchClear
 3932              		.section	.text.MPU6050_setInterruptLatchClear,"ax",%progbits
 3933              		.align	2
 3934              		.global	MPU6050_setInterruptLatchClear
 3935              		.code	16
 3936              		.thumb_func
 3937              		.type	MPU6050_setInterruptLatchClear, %function
 3938              	MPU6050_setInterruptLatchClear:
 3939              	.LFB105:
1379:.\mpu6050.c   **** /** Set interrupt latch clear mode.
1380:.\mpu6050.c   ****  * @param clear New latch clear mode (0=status-read-only, 1=any-register-read)
1381:.\mpu6050.c   ****  * @see getInterruptLatchClear()
1382:.\mpu6050.c   ****  * @see MPU6050_RA_INT_PIN_CFG
1383:.\mpu6050.c   ****  * @see MPU6050_INTCFG_INT_RD_CLEAR_BIT
1384:.\mpu6050.c   ****  */
1385:.\mpu6050.c   **** void MPU6050_setInterruptLatchClear(bool clear) {
 3940              		.loc 1 1385 0
 3941              		.cfi_startproc
 3942              	.LVL229:
 3943 0000 08B5     		push	{r3, lr}
 3944              		.cfi_def_cfa_offset 8
 3945              		.cfi_offset 3, -8
 3946              		.cfi_offset 14, -4
 3947 0002 031C     		mov	r3, r0
1386:.\mpu6050.c   ****     I2CWriteBit(devAddr, MPU6050_RA_INT_PIN_CFG, MPU6050_INTCFG_INT_RD_CLEAR_BIT, clear);
 3948              		.loc 1 1386 0
 3949 0004 034A     		ldr	r2, .L332
 3950 0006 1078     		ldrb	r0, [r2]
 3951              	.LVL230:
 3952 0008 3721     		mov	r1, #55
 3953 000a 0422     		mov	r2, #4
 3954 000c FFF7FEFF 		bl	I2CWriteBit
 3955              	.LVL231:
1387:.\mpu6050.c   **** }
 3956              		.loc 1 1387 0
 3957              		@ sp needed
 3958 0010 08BD     		pop	{r3, pc}
 3959              	.L333:
 3960 0012 C046     		.align	2
 3961              	.L332:
 3962 0014 00000000 		.word	devAddr
 3963              		.cfi_endproc
 3964              	.LFE105:
ARM GAS  C:\Users\username\AppData\Local\Temp\cca9Ol7c.s 			page 95


 3965              		.size	MPU6050_setInterruptLatchClear, .-MPU6050_setInterruptLatchClear
 3966              		.section	.text.MPU6050_getFSyncInterruptLevel,"ax",%progbits
 3967              		.align	2
 3968              		.global	MPU6050_getFSyncInterruptLevel
 3969              		.code	16
 3970              		.thumb_func
 3971              		.type	MPU6050_getFSyncInterruptLevel, %function
 3972              	MPU6050_getFSyncInterruptLevel:
 3973              	.LFB106:
1388:.\mpu6050.c   **** /** Get FSYNC interrupt logic level mode.
1389:.\mpu6050.c   ****  * @return Current FSYNC interrupt mode (0=active-high, 1=active-low)
1390:.\mpu6050.c   ****  * @see getFSyncInterruptMode()
1391:.\mpu6050.c   ****  * @see MPU6050_RA_INT_PIN_CFG
1392:.\mpu6050.c   ****  * @see MPU6050_INTCFG_FSYNC_INT_LEVEL_BIT
1393:.\mpu6050.c   ****  */
1394:.\mpu6050.c   **** bool MPU6050_getFSyncInterruptLevel() {
 3974              		.loc 1 1394 0
 3975              		.cfi_startproc
 3976 0000 10B5     		push	{r4, lr}
 3977              		.cfi_def_cfa_offset 8
 3978              		.cfi_offset 4, -8
 3979              		.cfi_offset 14, -4
1395:.\mpu6050.c   ****     I2CReadBit(devAddr, MPU6050_RA_INT_PIN_CFG, MPU6050_INTCFG_FSYNC_INT_LEVEL_BIT, buffer);
 3980              		.loc 1 1395 0
 3981 0002 064B     		ldr	r3, .L335
 3982 0004 1878     		ldrb	r0, [r3]
 3983 0006 064C     		ldr	r4, .L335+4
 3984 0008 3721     		mov	r1, #55
 3985 000a 0322     		mov	r2, #3
 3986 000c 231C     		mov	r3, r4
 3987 000e FFF7FEFF 		bl	I2CReadBit
 3988              	.LVL232:
1396:.\mpu6050.c   ****     return buffer[0];
 3989              		.loc 1 1396 0
 3990 0012 2078     		ldrb	r0, [r4]
 3991 0014 431E     		sub	r3, r0, #1
 3992 0016 9841     		sbc	r0, r0, r3
 3993 0018 C0B2     		uxtb	r0, r0
1397:.\mpu6050.c   **** }
 3994              		.loc 1 1397 0
 3995              		@ sp needed
 3996 001a 10BD     		pop	{r4, pc}
 3997              	.L336:
 3998              		.align	2
 3999              	.L335:
 4000 001c 00000000 		.word	devAddr
 4001 0020 00000000 		.word	buffer
 4002              		.cfi_endproc
 4003              	.LFE106:
 4004              		.size	MPU6050_getFSyncInterruptLevel, .-MPU6050_getFSyncInterruptLevel
 4005              		.section	.text.MPU6050_setFSyncInterruptLevel,"ax",%progbits
 4006              		.align	2
 4007              		.global	MPU6050_setFSyncInterruptLevel
 4008              		.code	16
 4009              		.thumb_func
 4010              		.type	MPU6050_setFSyncInterruptLevel, %function
 4011              	MPU6050_setFSyncInterruptLevel:
ARM GAS  C:\Users\username\AppData\Local\Temp\cca9Ol7c.s 			page 96


 4012              	.LFB107:
1398:.\mpu6050.c   **** /** Set FSYNC interrupt logic level mode.
1399:.\mpu6050.c   ****  * @param mode New FSYNC interrupt mode (0=active-high, 1=active-low)
1400:.\mpu6050.c   ****  * @see getFSyncInterruptMode()
1401:.\mpu6050.c   ****  * @see MPU6050_RA_INT_PIN_CFG
1402:.\mpu6050.c   ****  * @see MPU6050_INTCFG_FSYNC_INT_LEVEL_BIT
1403:.\mpu6050.c   ****  */
1404:.\mpu6050.c   **** void MPU6050_setFSyncInterruptLevel(bool level) {
 4013              		.loc 1 1404 0
 4014              		.cfi_startproc
 4015              	.LVL233:
 4016 0000 08B5     		push	{r3, lr}
 4017              		.cfi_def_cfa_offset 8
 4018              		.cfi_offset 3, -8
 4019              		.cfi_offset 14, -4
 4020 0002 031C     		mov	r3, r0
1405:.\mpu6050.c   ****     I2CWriteBit(devAddr, MPU6050_RA_INT_PIN_CFG, MPU6050_INTCFG_FSYNC_INT_LEVEL_BIT, level);
 4021              		.loc 1 1405 0
 4022 0004 034A     		ldr	r2, .L338
 4023 0006 1078     		ldrb	r0, [r2]
 4024              	.LVL234:
 4025 0008 3721     		mov	r1, #55
 4026 000a 0322     		mov	r2, #3
 4027 000c FFF7FEFF 		bl	I2CWriteBit
 4028              	.LVL235:
